Archive member included to satisfy reference by file (symbol)

/home/alastair/pftf-rpi4/Build/RPi4/DEBUG_GCC5/AARCH64/MdePkg/Library/UefiApplicationEntryPoint/UefiApplicationEntryPoint/OUTPUT/UefiApplicationEntryPoint.lib(ApplicationEntryPoint.obj)
                              (_ModuleEntryPoint)
/home/alastair/pftf-rpi4/Build/RPi4/DEBUG_GCC5/AARCH64/MdePkg/Library/BaseStackCheckLib/BaseStackCheckLib/OUTPUT/BaseStackCheckLib.lib(BaseStackCheckGcc.obj)
                              /home/alastair/pftf-rpi4/edk2/ArmPkg/Library/GccLto/liblto-aarch64.a (__stack_chk_fail)
/home/alastair/pftf-rpi4/Build/RPi4/DEBUG_GCC5/AARCH64/ArmPkg/Library/CompilerIntrinsicsLib/CompilerIntrinsicsLib/OUTPUT/CompilerIntrinsicsLib.lib(memcpy.obj)
                              /home/alastair/pftf-rpi4/edk2/ArmPkg/Library/GccLto/liblto-aarch64.a (memcpy)
/home/alastair/pftf-rpi4/Build/RPi4/DEBUG_GCC5/AARCH64/ArmPkg/Library/CompilerIntrinsicsLib/CompilerIntrinsicsLib/OUTPUT/CompilerIntrinsicsLib.lib(memset.obj)
                              /home/alastair/pftf-rpi4/edk2/ArmPkg/Library/GccLto/liblto-aarch64.a (memset)
/home/alastair/pftf-rpi4/Build/RPi4/DEBUG_GCC5/AARCH64/MdeModulePkg/Application/UiApp/UiApp/OUTPUT/UiApp.lib(AutoGen.obj)
                              ApplicationEntryPoint.obj (symbol from plugin) (ProcessLibraryConstructorList)
/home/alastair/pftf-rpi4/Build/RPi4/DEBUG_GCC5/AARCH64/MdeModulePkg/Application/UiApp/UiApp/OUTPUT/UiApp.lib(FrontPage.obj)
                              AutoGen.obj (symbol from plugin) (InitializeUserInterface)
/home/alastair/pftf-rpi4/Build/RPi4/DEBUG_GCC5/AARCH64/MdeModulePkg/Application/UiApp/UiApp/OUTPUT/UiApp.lib(String.obj)
                              FrontPage.obj (symbol from plugin) (InitializeStringSupport)
/home/alastair/pftf-rpi4/Build/RPi4/DEBUG_GCC5/AARCH64/MdeModulePkg/Application/UiApp/UiApp/OUTPUT/UiApp.lib(FrontPageCustomizedUi.obj)
                              FrontPage.obj (symbol from plugin) (UiCustomizeFrontPage)
/home/alastair/pftf-rpi4/Build/RPi4/DEBUG_GCC5/AARCH64/MdeModulePkg/Application/UiApp/UiApp/OUTPUT/UiApp.lib(FrontPageCustomizedUiSupport.obj)
                              FrontPageCustomizedUi.obj (symbol from plugin) (UiSupportLibCallbackHandler)
/home/alastair/pftf-rpi4/Build/RPi4/DEBUG_GCC5/AARCH64/MdeModulePkg/Application/UiApp/UiApp/OUTPUT/UiApp.lib(FrontPageVfr.obj)
                              FrontPage.obj (symbol from plugin) (FrontPageVfrBin)
/home/alastair/pftf-rpi4/Build/RPi4/DEBUG_GCC5/AARCH64/MdePkg/Library/DxePcdLib/DxePcdLib/OUTPUT/DxePcdLib.lib(DxePcdLib.obj)
                              FrontPage.obj (symbol from plugin) (LibPcdGet32)
/home/alastair/pftf-rpi4/Build/RPi4/DEBUG_GCC5/AARCH64/MdePkg/Library/BaseMemoryLibOptDxe/BaseMemoryLibOptDxe/OUTPUT/BaseMemoryLibOptDxe.lib(MemLibGuid.obj)
                              FrontPageCustomizedUiSupport.obj (symbol from plugin) (CompareGuid)
/home/alastair/pftf-rpi4/Build/RPi4/DEBUG_GCC5/AARCH64/MdePkg/Library/BaseMemoryLibOptDxe/BaseMemoryLibOptDxe/OUTPUT/BaseMemoryLibOptDxe.lib(CopyMemWrapper.obj)
                              FrontPageCustomizedUiSupport.obj (symbol from plugin) (CopyMem)
/home/alastair/pftf-rpi4/Build/RPi4/DEBUG_GCC5/AARCH64/MdePkg/Library/BaseMemoryLibOptDxe/BaseMemoryLibOptDxe/OUTPUT/BaseMemoryLibOptDxe.lib(CopyMem.obj)
                              MemLibGuid.obj (symbol from plugin) (InternalMemCopyMem)
/home/alastair/pftf-rpi4/Build/RPi4/DEBUG_GCC5/AARCH64/MdePkg/Library/BaseMemoryLibOptDxe/BaseMemoryLibOptDxe/OUTPUT/BaseMemoryLibOptDxe.lib(CompareGuid.obj)
                              MemLibGuid.obj (symbol from plugin) (InternalMemCompareGuid)
/home/alastair/pftf-rpi4/Build/RPi4/DEBUG_GCC5/AARCH64/MdePkg/Library/BaseLib/BaseLib/OUTPUT/BaseLib.lib(RShiftU64.obj)
                              FrontPage.obj (symbol from plugin) (RShiftU64)
/home/alastair/pftf-rpi4/Build/RPi4/DEBUG_GCC5/AARCH64/MdePkg/Library/BaseLib/BaseLib/OUTPUT/BaseLib.lib(CpuDeadLoop.obj)
                              BaseStackCheckGcc.obj (symbol from plugin) (CpuDeadLoop)
/home/alastair/pftf-rpi4/Build/RPi4/DEBUG_GCC5/AARCH64/MdePkg/Library/BaseLib/BaseLib/OUTPUT/BaseLib.lib(SafeString.obj)
                              FrontPage.obj (symbol from plugin) (StrnLenS)
/home/alastair/pftf-rpi4/Build/RPi4/DEBUG_GCC5/AARCH64/MdePkg/Library/BaseLib/BaseLib/OUTPUT/BaseLib.lib(String.obj)
                              SafeString.obj (symbol from plugin) (InternalIsDecimalDigitCharacter)
/home/alastair/pftf-rpi4/Build/RPi4/DEBUG_GCC5/AARCH64/MdePkg/Library/BaseLib/BaseLib/OUTPUT/BaseLib.lib(Math64.obj)
                              RShiftU64.obj (symbol from plugin) (InternalMathRShiftU64)
/home/alastair/pftf-rpi4/Build/RPi4/DEBUG_GCC5/AARCH64/MdePkg/Library/BaseLib/BaseLib/OUTPUT/BaseLib.lib(CpuBreakpoint.obj)
                              BaseStackCheckGcc.obj (symbol from plugin) (CpuBreakpoint)
/home/alastair/pftf-rpi4/Build/RPi4/DEBUG_GCC5/AARCH64/MdePkg/Library/BaseLib/BaseLib/OUTPUT/BaseLib.lib(SwapBytes32.obj)
                              SafeString.obj (symbol from plugin) (SwapBytes32)
/home/alastair/pftf-rpi4/Build/RPi4/DEBUG_GCC5/AARCH64/MdePkg/Library/BaseLib/BaseLib/OUTPUT/BaseLib.lib(SwapBytes16.obj)
                              SafeString.obj (symbol from plugin) (SwapBytes16)
/home/alastair/pftf-rpi4/Build/RPi4/DEBUG_GCC5/AARCH64/MdePkg/Library/BaseLib/BaseLib/OUTPUT/BaseLib.lib(MultU64x32.obj)
                              SafeString.obj (symbol from plugin) (MultU64x32)
/home/alastair/pftf-rpi4/Build/RPi4/DEBUG_GCC5/AARCH64/MdePkg/Library/BaseLib/BaseLib/OUTPUT/BaseLib.lib(LShiftU64.obj)
                              SafeString.obj (symbol from plugin) (LShiftU64)
/home/alastair/pftf-rpi4/Build/RPi4/DEBUG_GCC5/AARCH64/MdePkg/Library/BaseLib/BaseLib/OUTPUT/BaseLib.lib(DivU64x32.obj)
                              SafeString.obj (symbol from plugin) (DivU64x32)
/home/alastair/pftf-rpi4/Build/RPi4/DEBUG_GCC5/AARCH64/MdePkg/Library/BasePrintLib/BasePrintLib/OUTPUT/BasePrintLib.lib(PrintLib.obj)
                              FrontPage.obj (symbol from plugin) (UnicodeValueToStringS)
/home/alastair/pftf-rpi4/Build/RPi4/DEBUG_GCC5/AARCH64/MdePkg/Library/BasePrintLib/BasePrintLib/OUTPUT/BasePrintLib.lib(PrintLibInternal.obj)
                              PrintLib.obj (symbol from plugin) (BasePrintLibConvertValueToStringS)
/home/alastair/pftf-rpi4/Build/RPi4/DEBUG_GCC5/AARCH64/MdePkg/Library/BaseDebugLibSerialPort/BaseDebugLibSerialPort/OUTPUT/BaseDebugLibSerialPort.lib(DebugLib.obj)
                              AutoGen.obj (symbol from plugin) (BaseDebugLibSerialPortConstructor)
/home/alastair/pftf-rpi4/Build/RPi4/DEBUG_GCC5/AARCH64/MdePkg/Library/UefiBootServicesTableLib/UefiBootServicesTableLib/OUTPUT/UefiBootServicesTableLib.lib(UefiBootServicesTableLib.obj)
                              AutoGen.obj (symbol from plugin) (UefiBootServicesTableLibConstructor)
/home/alastair/pftf-rpi4/Build/RPi4/DEBUG_GCC5/AARCH64/MdePkg/Library/UefiMemoryAllocationLib/UefiMemoryAllocationLib/OUTPUT/UefiMemoryAllocationLib.lib(MemoryAllocationLib.obj)
                              FrontPage.obj (symbol from plugin) (AllocatePool)
/home/alastair/pftf-rpi4/Build/RPi4/DEBUG_GCC5/AARCH64/MdePkg/Library/UefiRuntimeServicesTableLib/UefiRuntimeServicesTableLib/OUTPUT/UefiRuntimeServicesTableLib.lib(UefiRuntimeServicesTableLib.obj)
                              AutoGen.obj (symbol from plugin) (UefiRuntimeServicesTableLibConstructor)
/home/alastair/pftf-rpi4/Build/RPi4/DEBUG_GCC5/AARCH64/MdePkg/Library/UefiDevicePathLib/UefiDevicePathLib/OUTPUT/UefiDevicePathLib.lib(DevicePathUtilitiesDxeSmm.obj)
                              FrontPageCustomizedUiSupport.obj (symbol from plugin) (DevicePathFromHandle)
/home/alastair/pftf-rpi4/Build/RPi4/DEBUG_GCC5/AARCH64/MdePkg/Library/UefiDevicePathLib/UefiDevicePathLib/OUTPUT/UefiDevicePathLib.lib(UefiDevicePathLib.obj)
                              FrontPageCustomizedUiSupport.obj (symbol from plugin) (ConvertDevicePathToText)
/home/alastair/pftf-rpi4/Build/RPi4/DEBUG_GCC5/AARCH64/MdePkg/Library/UefiDevicePathLib/UefiDevicePathLib/OUTPUT/UefiDevicePathLib.lib(DevicePathUtilities.obj)
                              UefiDevicePathLib.obj (symbol from plugin) (UefiDevicePathLibGetDevicePathSize)
/home/alastair/pftf-rpi4/Build/RPi4/DEBUG_GCC5/AARCH64/MdePkg/Library/UefiDevicePathLib/UefiDevicePathLib/OUTPUT/UefiDevicePathLib.lib(DevicePathToText.obj)
                              UefiDevicePathLib.obj (symbol from plugin) (UefiDevicePathLibConvertDeviceNodeToText)
/home/alastair/pftf-rpi4/Build/RPi4/DEBUG_GCC5/AARCH64/MdePkg/Library/UefiDevicePathLib/UefiDevicePathLib/OUTPUT/UefiDevicePathLib.lib(DevicePathFromText.obj)
                              UefiDevicePathLib.obj (symbol from plugin) (UefiDevicePathLibConvertTextToDeviceNode)
/home/alastair/pftf-rpi4/Build/RPi4/DEBUG_GCC5/AARCH64/MdePkg/Library/UefiLib/UefiLib/OUTPUT/UefiLib.lib(Console.obj)
                              FrontPage.obj (symbol from plugin) (CreatePopUp)
/home/alastair/pftf-rpi4/Build/RPi4/DEBUG_GCC5/AARCH64/MdePkg/Library/UefiLib/UefiLib/OUTPUT/UefiLib.lib(UefiLib.obj)
                              AutoGen.obj (symbol from plugin) (UefiLibConstructor)
/home/alastair/pftf-rpi4/Build/RPi4/DEBUG_GCC5/AARCH64/MdeModulePkg/Library/UefiHiiServicesLib/UefiHiiServicesLib/OUTPUT/UefiHiiServicesLib.lib(UefiHiiServicesLib.obj)
                              AutoGen.obj (symbol from plugin) (UefiHiiServicesLibConstructor)
/home/alastair/pftf-rpi4/Build/RPi4/DEBUG_GCC5/AARCH64/MdePkg/Library/DxeServicesTableLib/DxeServicesTableLib/OUTPUT/DxeServicesTableLib.lib(DxeServicesTableLib.obj)
                              AutoGen.obj (symbol from plugin) (DxeServicesTableLibConstructor)
/home/alastair/pftf-rpi4/Build/RPi4/DEBUG_GCC5/AARCH64/MdePkg/Library/DxeHobLib/DxeHobLib/OUTPUT/DxeHobLib.lib(HobLib.obj)
                              AutoGen.obj (symbol from plugin) (HobLibConstructor)
/home/alastair/pftf-rpi4/Build/RPi4/DEBUG_GCC5/AARCH64/MdeModulePkg/Library/UefiHiiLib/UefiHiiLib/OUTPUT/UefiHiiLib.lib(HiiLib.obj)
                              FrontPage.obj (symbol from plugin) (HiiAddPackages)
/home/alastair/pftf-rpi4/Build/RPi4/DEBUG_GCC5/AARCH64/MdeModulePkg/Library/UefiHiiLib/UefiHiiLib/OUTPUT/UefiHiiLib.lib(HiiString.obj)
                              FrontPage.obj (symbol from plugin) (HiiSetString)
/home/alastair/pftf-rpi4/Build/RPi4/DEBUG_GCC5/AARCH64/MdeModulePkg/Library/UefiHiiLib/UefiHiiLib/OUTPUT/UefiHiiLib.lib(HiiLanguage.obj)
                              HiiString.obj (symbol from plugin) (HiiGetSupportedLanguages)
/home/alastair/pftf-rpi4/Build/RPi4/DEBUG_GCC5/AARCH64/MdePkg/Library/BaseReportStatusCodeLibNull/BaseReportStatusCodeLibNull/OUTPUT/BaseReportStatusCodeLibNull.lib(BaseReportStatusCodeLib.obj)
                              FrontPage.obj (symbol from plugin) (ReportStatusCode)
/home/alastair/pftf-rpi4/Build/RPi4/DEBUG_GCC5/AARCH64/MdeModulePkg/Library/UefiBootManagerLib/UefiBootManagerLib/OUTPUT/UefiBootManagerLib.lib(BmConnect.obj)
                              FrontPage.obj (symbol from plugin) (EfiBootManagerConnectAll)
/home/alastair/pftf-rpi4/Build/RPi4/DEBUG_GCC5/AARCH64/MdeModulePkg/Library/UefiBootManagerLib/UefiBootManagerLib/OUTPUT/UefiBootManagerLib.lib(BmConsole.obj)
                              BmConnect.obj (symbol from plugin) (EfiBootManagerConnectAllDefaultConsoles)
/home/alastair/pftf-rpi4/Build/RPi4/DEBUG_GCC5/AARCH64/MdeModulePkg/Library/UefiBootManagerLib/UefiBootManagerLib/OUTPUT/UefiBootManagerLib.lib(BmBoot.obj)
                              FrontPage.obj (symbol from plugin) (EfiBootManagerRefreshAllBootOption)
/home/alastair/pftf-rpi4/Build/RPi4/DEBUG_GCC5/AARCH64/MdeModulePkg/Library/UefiBootManagerLib/UefiBootManagerLib/OUTPUT/UefiBootManagerLib.lib(BmBootDescription.obj)
                              BmBoot.obj (symbol from plugin) (BmGetBootDescription)
/home/alastair/pftf-rpi4/Build/RPi4/DEBUG_GCC5/AARCH64/MdeModulePkg/Library/UefiBootManagerLib/UefiBootManagerLib/OUTPUT/UefiBootManagerLib.lib(BmLoadOption.obj)
                              BmBoot.obj (symbol from plugin) (mBmLoadOptionName)
/home/alastair/pftf-rpi4/Build/RPi4/DEBUG_GCC5/AARCH64/MdeModulePkg/Library/UefiBootManagerLib/UefiBootManagerLib/OUTPUT/UefiBootManagerLib.lib(BmHotkey.obj)
                              BmBoot.obj (symbol from plugin) (BmStopHotkeyService)
/home/alastair/pftf-rpi4/Build/RPi4/DEBUG_GCC5/AARCH64/MdeModulePkg/Library/UefiBootManagerLib/UefiBootManagerLib/OUTPUT/UefiBootManagerLib.lib(BmDriverHealth.obj)
                              BmBoot.obj (symbol from plugin) (BmRepairAllControllers)
/home/alastair/pftf-rpi4/Build/RPi4/DEBUG_GCC5/AARCH64/MdeModulePkg/Library/UefiBootManagerLib/UefiBootManagerLib/OUTPUT/UefiBootManagerLib.lib(BmMisc.obj)
                              BmConsole.obj (symbol from plugin) (BmDelPartMatchInstance)
/home/alastair/pftf-rpi4/Build/RPi4/DEBUG_GCC5/AARCH64/MdeModulePkg/Library/FileExplorerLib/FileExplorerLib/OUTPUT/FileExplorerLib.lib(FileExplorer.obj)
                              AutoGen.obj (symbol from plugin) (FileExplorerLibConstructor)
/home/alastair/pftf-rpi4/Build/RPi4/DEBUG_GCC5/AARCH64/MdeModulePkg/Library/FileExplorerLib/FileExplorerLib/OUTPUT/FileExplorerLib.lib(AutoGen.obj)
                              FileExplorer.obj (symbol from plugin) (FileExplorerLibStrings)
/home/alastair/pftf-rpi4/Build/RPi4/DEBUG_GCC5/AARCH64/MdeModulePkg/Library/FileExplorerLib/FileExplorerLib/OUTPUT/FileExplorerLib.lib(FileExplorerVfr.obj)
                              FileExplorer.obj (symbol from plugin) (FileExplorerVfrBin)
/home/alastair/pftf-rpi4/Build/RPi4/DEBUG_GCC5/AARCH64/MdeModulePkg/Library/BootDiscoveryPolicyUiLib/BootDiscoveryPolicyUiLib/OUTPUT/BootDiscoveryPolicyUiLib.lib(BootDiscoveryPolicyUiLib.obj)
                              AutoGen.obj (symbol from plugin) (BootDiscoveryPolicyUiLibConstructor)
/home/alastair/pftf-rpi4/Build/RPi4/DEBUG_GCC5/AARCH64/MdeModulePkg/Library/BootDiscoveryPolicyUiLib/BootDiscoveryPolicyUiLib/OUTPUT/BootDiscoveryPolicyUiLib.lib(BootDiscoveryPolicyUiLibVfr.obj)
                              BootDiscoveryPolicyUiLib.obj (symbol from plugin) (BootDiscoveryPolicyUiLibVfrBin)
/home/alastair/pftf-rpi4/Build/RPi4/DEBUG_GCC5/AARCH64/MdeModulePkg/Library/BootDiscoveryPolicyUiLib/BootDiscoveryPolicyUiLib/OUTPUT/BootDiscoveryPolicyUiLib.lib(AutoGen.obj)
                              BootDiscoveryPolicyUiLib.obj (symbol from plugin) (BootDiscoveryPolicyUiLibStrings)
/home/alastair/pftf-rpi4/Build/RPi4/DEBUG_GCC5/AARCH64/MdeModulePkg/Library/DeviceManagerUiLib/DeviceManagerUiLib/OUTPUT/DeviceManagerUiLib.lib(DeviceManager.obj)
                              AutoGen.obj (symbol from plugin) (DeviceManagerUiLibConstructor)
/home/alastair/pftf-rpi4/Build/RPi4/DEBUG_GCC5/AARCH64/MdeModulePkg/Library/DeviceManagerUiLib/DeviceManagerUiLib/OUTPUT/DeviceManagerUiLib.lib(AutoGen.obj)
                              DeviceManager.obj (symbol from plugin) (DeviceManagerUiLibStrings)
/home/alastair/pftf-rpi4/Build/RPi4/DEBUG_GCC5/AARCH64/MdeModulePkg/Library/DeviceManagerUiLib/DeviceManagerUiLib/OUTPUT/DeviceManagerUiLib.lib(DeviceManagerVfr.obj)
                              DeviceManager.obj (symbol from plugin) (DeviceManagerVfrBin)
/home/alastair/pftf-rpi4/Build/RPi4/DEBUG_GCC5/AARCH64/MdeModulePkg/Library/BootManagerUiLib/BootManagerUiLib/OUTPUT/BootManagerUiLib.lib(BootManager.obj)
                              AutoGen.obj (symbol from plugin) (BootManagerUiLibConstructor)
/home/alastair/pftf-rpi4/Build/RPi4/DEBUG_GCC5/AARCH64/MdeModulePkg/Library/BootManagerUiLib/BootManagerUiLib/OUTPUT/BootManagerUiLib.lib(AutoGen.obj)
                              BootManager.obj (symbol from plugin) (BootManagerUiLibStrings)
/home/alastair/pftf-rpi4/Build/RPi4/DEBUG_GCC5/AARCH64/MdeModulePkg/Library/BootManagerUiLib/BootManagerUiLib/OUTPUT/BootManagerUiLib.lib(BootManagerVfr.obj)
                              BootManager.obj (symbol from plugin) (BootManagerVfrBin)
/home/alastair/pftf-rpi4/Build/RPi4/DEBUG_GCC5/AARCH64/Platform/RaspberryPi/Library/PlatformUiAppLib/PlatformUiAppLib/OUTPUT/PlatformUiAppLib.lib(PlatformUiAppLib.obj)
                              AutoGen.obj (symbol from plugin) (PlatformUiAppLibConstructor)
/home/alastair/pftf-rpi4/Build/RPi4/DEBUG_GCC5/AARCH64/MdeModulePkg/Library/BootMaintenanceManagerUiLib/BootMaintenanceManagerUiLib/OUTPUT/BootMaintenanceManagerUiLib.lib(BootMaintenance.obj)
                              AutoGen.obj (symbol from plugin) (BootMaintenanceManagerUiLibConstructor)
/home/alastair/pftf-rpi4/Build/RPi4/DEBUG_GCC5/AARCH64/MdeModulePkg/Library/BootMaintenanceManagerUiLib/BootMaintenanceManagerUiLib/OUTPUT/BootMaintenanceManagerUiLib.lib(BootOption.obj)
                              BootMaintenance.obj (symbol from plugin) (BOpt_GetMenuEntry)
/home/alastair/pftf-rpi4/Build/RPi4/DEBUG_GCC5/AARCH64/MdeModulePkg/Library/BootMaintenanceManagerUiLib/BootMaintenanceManagerUiLib/OUTPUT/BootMaintenanceManagerUiLib.lib(ConsoleOption.obj)
                              BootMaintenance.obj (symbol from plugin) (ChangeTerminalDevicePath)
/home/alastair/pftf-rpi4/Build/RPi4/DEBUG_GCC5/AARCH64/MdeModulePkg/Library/BootMaintenanceManagerUiLib/BootMaintenanceManagerUiLib/OUTPUT/BootMaintenanceManagerUiLib.lib(Data.obj)
                              ConsoleOption.obj (symbol from plugin) (TerminalTypeGuid)
/home/alastair/pftf-rpi4/Build/RPi4/DEBUG_GCC5/AARCH64/MdeModulePkg/Library/BootMaintenanceManagerUiLib/BootMaintenanceManagerUiLib/OUTPUT/BootMaintenanceManagerUiLib.lib(Variable.obj)
                              BootMaintenance.obj (symbol from plugin) (Var_DelBootOption)
/home/alastair/pftf-rpi4/Build/RPi4/DEBUG_GCC5/AARCH64/MdeModulePkg/Library/BootMaintenanceManagerUiLib/BootMaintenanceManagerUiLib/OUTPUT/BootMaintenanceManagerUiLib.lib(UpdatePage.obj)
                              BootMaintenance.obj (symbol from plugin) (CreateUpdateData)
/home/alastair/pftf-rpi4/Build/RPi4/DEBUG_GCC5/AARCH64/MdeModulePkg/Library/BootMaintenanceManagerUiLib/BootMaintenanceManagerUiLib/OUTPUT/BootMaintenanceManagerUiLib.lib(BmLib.obj)
                              Variable.obj (symbol from plugin) (EfiLibDeleteVariable)
/home/alastair/pftf-rpi4/Build/RPi4/DEBUG_GCC5/AARCH64/MdeModulePkg/Library/BootMaintenanceManagerUiLib/BootMaintenanceManagerUiLib/OUTPUT/BootMaintenanceManagerUiLib.lib(BootMaintenanceManagerCustomizedUi.obj)
                              BootMaintenance.obj (symbol from plugin) (UiCustomizeBMMPage)
/home/alastair/pftf-rpi4/Build/RPi4/DEBUG_GCC5/AARCH64/MdeModulePkg/Library/BootMaintenanceManagerUiLib/BootMaintenanceManagerUiLib/OUTPUT/BootMaintenanceManagerUiLib.lib(BootMaintenanceManagerCustomizedUiSupport.obj)
                              BootMaintenanceManagerCustomizedUi.obj (symbol from plugin) (BmmCreateBootNextMenu)
/home/alastair/pftf-rpi4/Build/RPi4/DEBUG_GCC5/AARCH64/MdeModulePkg/Library/BootMaintenanceManagerUiLib/BootMaintenanceManagerUiLib/OUTPUT/BootMaintenanceManagerUiLib.lib(AutoGen.obj)
                              BootMaintenance.obj (symbol from plugin) (BootMaintenanceManagerUiLibStrings)
/home/alastair/pftf-rpi4/Build/RPi4/DEBUG_GCC5/AARCH64/MdeModulePkg/Library/BootMaintenanceManagerUiLib/BootMaintenanceManagerUiLib/OUTPUT/BootMaintenanceManagerUiLib.lib(BootMaintenanceManager.obj)
                              BootMaintenance.obj (symbol from plugin) (BootMaintenanceManagerBin)
/home/alastair/pftf-rpi4/Build/RPi4/DEBUG_GCC5/AARCH64/MdePkg/Library/BaseMemoryLibOptDxe/BaseMemoryLibOptDxe/OUTPUT/BaseMemoryLibOptDxe.lib(ZeroMemWrapper.obj)
                              SafeString.obj (symbol from plugin) (ZeroMem)
/home/alastair/pftf-rpi4/Build/RPi4/DEBUG_GCC5/AARCH64/MdePkg/Library/BaseMemoryLibOptDxe/BaseMemoryLibOptDxe/OUTPUT/BaseMemoryLibOptDxe.lib(CompareMemWrapper.obj)
                              HiiLib.obj (symbol from plugin) (CompareMem)
/home/alastair/pftf-rpi4/Build/RPi4/DEBUG_GCC5/AARCH64/MdePkg/Library/BaseMemoryLibOptDxe/BaseMemoryLibOptDxe/OUTPUT/BaseMemoryLibOptDxe.lib(SetMem16Wrapper.obj)
                              Console.obj (symbol from plugin) (SetMem16)
/home/alastair/pftf-rpi4/Build/RPi4/DEBUG_GCC5/AARCH64/MdePkg/Library/BaseMemoryLibOptDxe/BaseMemoryLibOptDxe/OUTPUT/BaseMemoryLibOptDxe.lib(SetMemWrapper.obj)
                              DebugLib.obj (symbol from plugin) (SetMem)
/home/alastair/pftf-rpi4/Build/RPi4/DEBUG_GCC5/AARCH64/MdePkg/Library/BaseMemoryLibOptDxe/BaseMemoryLibOptDxe/OUTPUT/BaseMemoryLibOptDxe.lib(IsZeroBufferWrapper.obj)
                              FileExplorer.obj (symbol from plugin) (IsZeroBuffer)
/home/alastair/pftf-rpi4/Build/RPi4/DEBUG_GCC5/AARCH64/MdePkg/Library/BaseMemoryLibOptDxe/BaseMemoryLibOptDxe/OUTPUT/BaseMemoryLibOptDxe.lib(SetMem.obj)
                              SetMem16Wrapper.obj (symbol from plugin) (InternalMemSetMem16)
/home/alastair/pftf-rpi4/Build/RPi4/DEBUG_GCC5/AARCH64/MdePkg/Library/BaseMemoryLibOptDxe/BaseMemoryLibOptDxe/OUTPUT/BaseMemoryLibOptDxe.lib(CompareMem.obj)
                              CompareMemWrapper.obj (symbol from plugin) (InternalMemCompareMem)
/home/alastair/pftf-rpi4/Build/RPi4/DEBUG_GCC5/AARCH64/MdePkg/Library/BaseMemoryLibOptDxe/BaseMemoryLibOptDxe/OUTPUT/BaseMemoryLibOptDxe.lib(ScanMemGeneric.obj)
                              IsZeroBufferWrapper.obj (symbol from plugin) (InternalMemIsZeroBuffer)
/home/alastair/pftf-rpi4/Build/RPi4/DEBUG_GCC5/AARCH64/MdePkg/Library/BaseMemoryLibOptDxe/BaseMemoryLibOptDxe/OUTPUT/BaseMemoryLibOptDxe.lib(SetMem64Wrapper.obj)
                              SetMemWrapper.obj (symbol from plugin) (SetMem64)
/home/alastair/pftf-rpi4/Build/RPi4/DEBUG_GCC5/AARCH64/MdePkg/Library/BaseLib/BaseLib/OUTPUT/BaseLib.lib(SwapBytes64.obj)
                              DevicePathFromText.obj (symbol from plugin) (SwapBytes64)
/home/alastair/pftf-rpi4/Build/RPi4/DEBUG_GCC5/AARCH64/MdePkg/Library/BaseLib/BaseLib/OUTPUT/BaseLib.lib(LowBitSet32.obj)
                              BmHotkey.obj (symbol from plugin) (LowBitSet32)
/home/alastair/pftf-rpi4/Build/RPi4/DEBUG_GCC5/AARCH64/MdePkg/Library/BaseLib/BaseLib/OUTPUT/BaseLib.lib(DivU64x32Remainder.obj)
                              PrintLibInternal.obj (symbol from plugin) (DivU64x32Remainder)
/home/alastair/pftf-rpi4/Build/RPi4/DEBUG_GCC5/AARCH64/MdePkg/Library/BaseLib/BaseLib/OUTPUT/BaseLib.lib(BitField.obj)
                              HiiLib.obj (symbol from plugin) (BitFieldRead32)
/home/alastair/pftf-rpi4/Build/RPi4/DEBUG_GCC5/AARCH64/MdePkg/Library/BaseLib/BaseLib/OUTPUT/BaseLib.lib(LinkedList.obj)
                              HiiLib.obj (symbol from plugin) (InitializeListHead)
/home/alastair/pftf-rpi4/Build/RPi4/DEBUG_GCC5/AARCH64/MdePkg/Library/BaseLib/BaseLib/OUTPUT/BaseLib.lib(Unaligned.obj)
                              PrintLibInternal.obj (symbol from plugin) (ReadUnaligned16)
/home/alastair/pftf-rpi4/Build/RPi4/DEBUG_GCC5/AARCH64/MdePkg/Library/BaseDebugPrintErrorLevelLib/BaseDebugPrintErrorLevelLib/OUTPUT/BaseDebugPrintErrorLevelLib.lib(BaseDebugPrintErrorLevelLib.obj)
                              DebugLib.obj (symbol from plugin) (GetDebugPrintErrorLevel)
/home/alastair/pftf-rpi4/Build/RPi4/DEBUG_GCC5/AARCH64/Platform/RaspberryPi/Library/DualSerialPortLib/DebugDualSerialPortLib/OUTPUT/DebugDualSerialPortLib.lib(DebugDualSerialPortLib.obj)
                              DebugLib.obj (symbol from plugin) (SerialPortInitialize)
/home/alastair/pftf-rpi4/Build/RPi4/DEBUG_GCC5/AARCH64/Platform/RaspberryPi/Library/DualSerialPortLib/DebugDualSerialPortLib/OUTPUT/DebugDualSerialPortLib.lib(DualSerialPortLibCommon.obj)
                              DebugLib.obj (symbol from plugin) (SerialPortWrite)
/home/alastair/pftf-rpi4/Build/RPi4/DEBUG_GCC5/AARCH64/MdePkg/Library/UefiLib/UefiLib/OUTPUT/UefiLib.lib(UefiLibPrint.obj)
                              BmDriverHealth.obj (symbol from plugin) (Print)
/home/alastair/pftf-rpi4/Build/RPi4/DEBUG_GCC5/AARCH64/MdePkg/Library/UefiLib/UefiLib/OUTPUT/UefiLib.lib(UefiNotTiano.obj)
                              BmBoot.obj (symbol from plugin) (EfiCreateEventLegacyBootEx)
/home/alastair/pftf-rpi4/Build/RPi4/DEBUG_GCC5/AARCH64/MdeModulePkg/Library/UefiSortLib/UefiSortLib/OUTPUT/UefiSortLib.lib(UefiSortLib.obj)
                              BmLoadOption.obj (symbol from plugin) (PerformQuickSort)
/home/alastair/pftf-rpi4/Build/RPi4/DEBUG_GCC5/AARCH64/MdePkg/Library/DxeServicesLib/DxeServicesLib/OUTPUT/DxeServicesLib.lib(DxeServicesLib.obj)
                              BmBoot.obj (symbol from plugin) (GetSectionFromFv)
/home/alastair/pftf-rpi4/Build/RPi4/DEBUG_GCC5/AARCH64/MdeModulePkg/Library/DxePerformanceLib/DxePerformanceLib/OUTPUT/DxePerformanceLib.lib(DxePerformanceLib.obj)
                              BmBoot.obj (symbol from plugin) (StartPerformanceMeasurementEx)
/home/alastair/pftf-rpi4/Build/RPi4/DEBUG_GCC5/AARCH64/MdePkg/Library/BaseIoLibIntrinsic/BaseIoLibIntrinsic/OUTPUT/BaseIoLibIntrinsic.lib(IoLibNoIo.obj)
                              DualSerialPortLibCommon.obj (symbol from plugin) (MmioRead8)
/home/alastair/pftf-rpi4/Build/RPi4/DEBUG_GCC5/AARCH64/ArmPlatformPkg/Library/PL011UartLib/PL011UartLib/OUTPUT/PL011UartLib.lib(PL011UartLib.obj)
                              DualSerialPortLibCommon.obj (symbol from plugin) (PL011UartWrite)

Discarded input sections

 .text          0x0000000000000000       0x10 /home/alastair/pftf-rpi4/edk2/ArmPkg/Library/GccLto/liblto-aarch64.a
 .data          0x0000000000000000        0x0 /home/alastair/pftf-rpi4/edk2/ArmPkg/Library/GccLto/liblto-aarch64.a
 .bss           0x0000000000000000        0x0 /home/alastair/pftf-rpi4/edk2/ArmPkg/Library/GccLto/liblto-aarch64.a
 .text          0x0000000000000000        0x0 /tmp/UiApp.dll.Q98Kv2.ltrans0.ltrans.o
 .data          0x0000000000000000        0x0 /tmp/UiApp.dll.Q98Kv2.ltrans0.ltrans.o
 .bss           0x0000000000000000        0x0 /tmp/UiApp.dll.Q98Kv2.ltrans0.ltrans.o
 .rodata.IsNodeInList.str1.1
                0x0000000000000000       0x44 /tmp/UiApp.dll.Q98Kv2.ltrans0.ltrans.o
 .text.IsNodeInList
                0x0000000000000000       0xa0 /tmp/UiApp.dll.Q98Kv2.ltrans0.ltrans.o
 .text.ReportStatusCode.constprop.0
                0x0000000000000000        0x8 /tmp/UiApp.dll.Q98Kv2.ltrans0.ltrans.o
 .text.ReportStatusCodeEx.constprop.0
                0x0000000000000000        0x8 /tmp/UiApp.dll.Q98Kv2.ltrans0.ltrans.o
 .rodata._gPcd_FixedAtBuild_PcdDebugPropertyMask
                0x0000000000000000        0x1 /tmp/UiApp.dll.Q98Kv2.ltrans0.ltrans.o
 .rodata._gPcd_FixedAtBuild_PcdFixedDebugPrintErrorLevel
                0x0000000000000000        0x4 /tmp/UiApp.dll.Q98Kv2.ltrans0.ltrans.o
 .rodata._gPcd_FixedAtBuild_PcdMaximumUnicodeStringLength
                0x0000000000000000        0x4 /tmp/UiApp.dll.Q98Kv2.ltrans0.ltrans.o
 .rodata._gPcd_FixedAtBuild_PcdPerformanceLibraryPropertyMask
                0x0000000000000000        0x1 /tmp/UiApp.dll.Q98Kv2.ltrans0.ltrans.o
 .rodata._gPcd_FixedAtBuild_PcdResetOnMemoryTypeInformationChange
                0x0000000000000000        0x1 /tmp/UiApp.dll.Q98Kv2.ltrans0.ltrans.o
 .rodata.mBmmCallbackInfo
                0x0000000000000000        0x8 /tmp/UiApp.dll.Q98Kv2.ltrans0.ltrans.o
 .comment       0x0000000000000000       0x2b /tmp/UiApp.dll.Q98Kv2.ltrans0.ltrans.o
 .note.GNU-stack
                0x0000000000000000        0x0 /tmp/UiApp.dll.Q98Kv2.ltrans0.ltrans.o
 .text          0x0000000000000000        0x0 /tmp/UiApp.dll.Q98Kv2.ltrans1.ltrans.o
 .data          0x0000000000000000        0x0 /tmp/UiApp.dll.Q98Kv2.ltrans1.ltrans.o
 .bss           0x0000000000000000        0x0 /tmp/UiApp.dll.Q98Kv2.ltrans1.ltrans.o
 .rodata.BmCollectLoadOptions.str1.1
                0x0000000000000000       0x1f /tmp/UiApp.dll.Q98Kv2.ltrans1.ltrans.o
 .text.BmCollectLoadOptions
                0x0000000000000000      0x168 /tmp/UiApp.dll.Q98Kv2.ltrans1.ltrans.o
 .rodata._gUefiDriverRevision
                0x0000000000000000        0x4 /tmp/UiApp.dll.Q98Kv2.ltrans1.ltrans.o
 .rodata.gEfiCallerBaseName
                0x0000000000000000        0x8 /tmp/UiApp.dll.Q98Kv2.ltrans1.ltrans.o
 .comment       0x0000000000000000       0x2b /tmp/UiApp.dll.Q98Kv2.ltrans1.ltrans.o
 .note.GNU-stack
                0x0000000000000000        0x0 /tmp/UiApp.dll.Q98Kv2.ltrans1.ltrans.o
 .text          0x0000000000000000        0x0 /tmp/UiApp.dll.Q98Kv2.ltrans2.ltrans.o
 .data          0x0000000000000000        0x0 /tmp/UiApp.dll.Q98Kv2.ltrans2.ltrans.o
 .bss           0x0000000000000000        0x0 /tmp/UiApp.dll.Q98Kv2.ltrans2.ltrans.o
 .text.__memset
                0x0000000000000000       0x1c /tmp/UiApp.dll.Q98Kv2.ltrans2.ltrans.o
 .comment       0x0000000000000000       0x2b /tmp/UiApp.dll.Q98Kv2.ltrans2.ltrans.o
 .note.GNU-stack
                0x0000000000000000        0x0 /tmp/UiApp.dll.Q98Kv2.ltrans2.ltrans.o
 .comment       0x0000000000000000       0x2b /tmp/ccXLXemY.debug.temp.o
 .note.GNU-stack
                0x0000000000000000        0x0 /tmp/ccXLXemY.debug.temp.o
 .comment       0x0000000000000000       0x2b /tmp/ccuwh8z1.debug.temp.o
 .note.GNU-stack
                0x0000000000000000        0x0 /tmp/ccuwh8z1.debug.temp.o
 .comment       0x0000000000000000       0x2b /tmp/cck2W3H1.debug.temp.o
 .note.GNU-stack
                0x0000000000000000        0x0 /tmp/cck2W3H1.debug.temp.o
 .comment       0x0000000000000000       0x2b /tmp/ccoBQNI0.debug.temp.o
 .note.GNU-stack
                0x0000000000000000        0x0 /tmp/ccoBQNI0.debug.temp.o
 .comment       0x0000000000000000       0x2b /tmp/ccpy9nAZ.debug.temp.o
 .note.GNU-stack
                0x0000000000000000        0x0 /tmp/ccpy9nAZ.debug.temp.o
 .comment       0x0000000000000000       0x2b /tmp/ccX9icb1.debug.temp.o
 .note.GNU-stack
                0x0000000000000000        0x0 /tmp/ccX9icb1.debug.temp.o
 .comment       0x0000000000000000       0x2b /tmp/ccwe7F9Z.debug.temp.o
 .note.GNU-stack
                0x0000000000000000        0x0 /tmp/ccwe7F9Z.debug.temp.o
 .comment       0x0000000000000000       0x2b /tmp/ccQUKTI0.debug.temp.o
 .note.GNU-stack
                0x0000000000000000        0x0 /tmp/ccQUKTI0.debug.temp.o
 .comment       0x0000000000000000       0x2b /tmp/ccYI1wMY.debug.temp.o
 .note.GNU-stack
                0x0000000000000000        0x0 /tmp/ccYI1wMY.debug.temp.o
 .comment       0x0000000000000000       0x2b /tmp/ccynLRz0.debug.temp.o
 .note.GNU-stack
                0x0000000000000000        0x0 /tmp/ccynLRz0.debug.temp.o
 .comment       0x0000000000000000       0x2b /tmp/cc2k3k1Y.debug.temp.o
 .note.GNU-stack
                0x0000000000000000        0x0 /tmp/cc2k3k1Y.debug.temp.o
 .comment       0x0000000000000000       0x2b /tmp/ccgv7ROY.debug.temp.o
 .note.GNU-stack
                0x0000000000000000        0x0 /tmp/ccgv7ROY.debug.temp.o
 .comment       0x0000000000000000       0x2b /tmp/cc7IhR1Z.debug.temp.o
 .note.GNU-stack
                0x0000000000000000        0x0 /tmp/cc7IhR1Z.debug.temp.o
 .comment       0x0000000000000000       0x2b /tmp/ccgMiaWZ.debug.temp.o
 .note.GNU-stack
                0x0000000000000000        0x0 /tmp/ccgMiaWZ.debug.temp.o
 .comment       0x0000000000000000       0x2b /tmp/ccoeBIz2.debug.temp.o
 .note.GNU-stack
                0x0000000000000000        0x0 /tmp/ccoeBIz2.debug.temp.o
 .comment       0x0000000000000000       0x2b /tmp/cc89Rov0.debug.temp.o
 .note.GNU-stack
                0x0000000000000000        0x0 /tmp/cc89Rov0.debug.temp.o
 .comment       0x0000000000000000       0x2b /tmp/ccu8zALY.debug.temp.o
 .note.GNU-stack
                0x0000000000000000        0x0 /tmp/ccu8zALY.debug.temp.o
 .comment       0x0000000000000000       0x2b /tmp/ccIGsEq2.debug.temp.o
 .note.GNU-stack
                0x0000000000000000        0x0 /tmp/ccIGsEq2.debug.temp.o
 .debug_info    0x0000000000000000      0x1db /tmp/cc4qAEy2.debug.temp.o
 .debug_abbrev  0x0000000000000000       0xc0 /tmp/cc4qAEy2.debug.temp.o
 .debug_line    0x0000000000000000      0x14c /tmp/cc4qAEy2.debug.temp.o
 .debug_str     0x0000000000000000      0x472 /tmp/cc4qAEy2.debug.temp.o
 .comment       0x0000000000000000       0x2b /tmp/cc4qAEy2.debug.temp.o
 .note.GNU-stack
                0x0000000000000000        0x0 /tmp/cc4qAEy2.debug.temp.o
 .debug_info    0x0000000000000000      0x1c3 /tmp/cc3aW7Z0.debug.temp.o
 .debug_abbrev  0x0000000000000000       0xb1 /tmp/cc3aW7Z0.debug.temp.o
 .debug_line    0x0000000000000000      0x14c /tmp/cc3aW7Z0.debug.temp.o
 .debug_str     0x0000000000000000      0x45b /tmp/cc3aW7Z0.debug.temp.o
 .comment       0x0000000000000000       0x2b /tmp/cc3aW7Z0.debug.temp.o
 .note.GNU-stack
                0x0000000000000000        0x0 /tmp/cc3aW7Z0.debug.temp.o
 .comment       0x0000000000000000       0x2b /tmp/ccSXYPu1.debug.temp.o
 .note.GNU-stack
                0x0000000000000000        0x0 /tmp/ccSXYPu1.debug.temp.o
 .comment       0x0000000000000000       0x2b /tmp/ccHrOVSZ.debug.temp.o
 .note.GNU-stack
                0x0000000000000000        0x0 /tmp/ccHrOVSZ.debug.temp.o
 .debug_info    0x0000000000000000      0x1cf /tmp/ccwEyzn0.debug.temp.o
 .debug_abbrev  0x0000000000000000       0xb1 /tmp/ccwEyzn0.debug.temp.o
 .debug_line    0x0000000000000000      0x14a /tmp/ccwEyzn0.debug.temp.o
 .debug_str     0x0000000000000000      0x462 /tmp/ccwEyzn0.debug.temp.o
 .comment       0x0000000000000000       0x2b /tmp/ccwEyzn0.debug.temp.o
 .note.GNU-stack
                0x0000000000000000        0x0 /tmp/ccwEyzn0.debug.temp.o
 .comment       0x0000000000000000       0x2b /tmp/ccRL0t71.debug.temp.o
 .note.GNU-stack
                0x0000000000000000        0x0 /tmp/ccRL0t71.debug.temp.o
 .comment       0x0000000000000000       0x2b /tmp/ccflTjNZ.debug.temp.o
 .note.GNU-stack
                0x0000000000000000        0x0 /tmp/ccflTjNZ.debug.temp.o
 .comment       0x0000000000000000       0x2b /tmp/ccCnyV0Z.debug.temp.o
 .note.GNU-stack
                0x0000000000000000        0x0 /tmp/ccCnyV0Z.debug.temp.o
 .comment       0x0000000000000000       0x2b /tmp/cc9hyaUZ.debug.temp.o
 .note.GNU-stack
                0x0000000000000000        0x0 /tmp/cc9hyaUZ.debug.temp.o
 .comment       0x0000000000000000       0x2b /tmp/cc21llNZ.debug.temp.o
 .note.GNU-stack
                0x0000000000000000        0x0 /tmp/cc21llNZ.debug.temp.o
 .comment       0x0000000000000000       0x2b /tmp/ccKWBlX1.debug.temp.o
 .note.GNU-stack
                0x0000000000000000        0x0 /tmp/ccKWBlX1.debug.temp.o
 .comment       0x0000000000000000       0x2b /tmp/cc1aFA5Z.debug.temp.o
 .note.GNU-stack
                0x0000000000000000        0x0 /tmp/cc1aFA5Z.debug.temp.o
 .comment       0x0000000000000000       0x2b /tmp/ccmqEJs1.debug.temp.o
 .note.GNU-stack
                0x0000000000000000        0x0 /tmp/ccmqEJs1.debug.temp.o
 .comment       0x0000000000000000       0x2b /tmp/ccAOfzxZ.debug.temp.o
 .note.GNU-stack
                0x0000000000000000        0x0 /tmp/ccAOfzxZ.debug.temp.o
 .comment       0x0000000000000000       0x2b /tmp/cchG3pwZ.debug.temp.o
 .note.GNU-stack
                0x0000000000000000        0x0 /tmp/cchG3pwZ.debug.temp.o
 .debug_info    0x0000000000000000     0x45d4 /tmp/ccmECqaY.debug.temp.o
 .debug_abbrev  0x0000000000000000      0x2b0 /tmp/ccmECqaY.debug.temp.o
 .debug_line    0x0000000000000000      0x3cf /tmp/ccmECqaY.debug.temp.o
 .debug_str     0x0000000000000000     0x2f11 /tmp/ccmECqaY.debug.temp.o
 .comment       0x0000000000000000       0x2b /tmp/ccmECqaY.debug.temp.o
 .note.GNU-stack
                0x0000000000000000        0x0 /tmp/ccmECqaY.debug.temp.o
 .comment       0x0000000000000000       0x2b /tmp/ccBSCCd0.debug.temp.o
 .note.GNU-stack
                0x0000000000000000        0x0 /tmp/ccBSCCd0.debug.temp.o
 .comment       0x0000000000000000       0x2b /tmp/cco3PPPZ.debug.temp.o
 .note.GNU-stack
                0x0000000000000000        0x0 /tmp/cco3PPPZ.debug.temp.o
 .comment       0x0000000000000000       0x2b /tmp/cchh678Z.debug.temp.o
 .note.GNU-stack
                0x0000000000000000        0x0 /tmp/cchh678Z.debug.temp.o
 .comment       0x0000000000000000       0x2b /tmp/ccrZtxQY.debug.temp.o
 .note.GNU-stack
                0x0000000000000000        0x0 /tmp/ccrZtxQY.debug.temp.o
 .comment       0x0000000000000000       0x2b /tmp/ccfDM0k1.debug.temp.o
 .note.GNU-stack
                0x0000000000000000        0x0 /tmp/ccfDM0k1.debug.temp.o
 .comment       0x0000000000000000       0x2b /tmp/ccuzzRj1.debug.temp.o
 .note.GNU-stack
                0x0000000000000000        0x0 /tmp/ccuzzRj1.debug.temp.o
 .comment       0x0000000000000000       0x2b /tmp/ccxr8Vv0.debug.temp.o
 .note.GNU-stack
                0x0000000000000000        0x0 /tmp/ccxr8Vv0.debug.temp.o
 .comment       0x0000000000000000       0x2b /tmp/cc0kzjFY.debug.temp.o
 .note.GNU-stack
                0x0000000000000000        0x0 /tmp/cc0kzjFY.debug.temp.o
 .comment       0x0000000000000000       0x2b /tmp/ccLowxqY.debug.temp.o
 .note.GNU-stack
                0x0000000000000000        0x0 /tmp/ccLowxqY.debug.temp.o
 .comment       0x0000000000000000       0x2b /tmp/ccOGc8QZ.debug.temp.o
 .note.GNU-stack
                0x0000000000000000        0x0 /tmp/ccOGc8QZ.debug.temp.o
 .comment       0x0000000000000000       0x2b /tmp/cccB7H00.debug.temp.o
 .note.GNU-stack
                0x0000000000000000        0x0 /tmp/cccB7H00.debug.temp.o
 .comment       0x0000000000000000       0x2b /tmp/ccBAPAPY.debug.temp.o
 .note.GNU-stack
                0x0000000000000000        0x0 /tmp/ccBAPAPY.debug.temp.o
 .comment       0x0000000000000000       0x2b /tmp/ccJ3wbH2.debug.temp.o
 .note.GNU-stack
                0x0000000000000000        0x0 /tmp/ccJ3wbH2.debug.temp.o
 .comment       0x0000000000000000       0x2b /tmp/ccMJKxz0.debug.temp.o
 .note.GNU-stack
                0x0000000000000000        0x0 /tmp/ccMJKxz0.debug.temp.o
 .comment       0x0000000000000000       0x2b /tmp/ccGRln0Z.debug.temp.o
 .note.GNU-stack
                0x0000000000000000        0x0 /tmp/ccGRln0Z.debug.temp.o
 .comment       0x0000000000000000       0x2b /tmp/ccm3aFyY.debug.temp.o
 .note.GNU-stack
                0x0000000000000000        0x0 /tmp/ccm3aFyY.debug.temp.o
 .comment       0x0000000000000000       0x2b /tmp/cclS07I1.debug.temp.o
 .note.GNU-stack
                0x0000000000000000        0x0 /tmp/cclS07I1.debug.temp.o
 .comment       0x0000000000000000       0x2b /tmp/ccmE61gZ.debug.temp.o
 .note.GNU-stack
                0x0000000000000000        0x0 /tmp/ccmE61gZ.debug.temp.o
 .comment       0x0000000000000000       0x2b /tmp/ccqqSvwY.debug.temp.o
 .note.GNU-stack
                0x0000000000000000        0x0 /tmp/ccqqSvwY.debug.temp.o
 .comment       0x0000000000000000       0x2b /tmp/ccTyef5X.debug.temp.o
 .note.GNU-stack
                0x0000000000000000        0x0 /tmp/ccTyef5X.debug.temp.o
 .comment       0x0000000000000000       0x2b /tmp/ccvnVB4Y.debug.temp.o
 .note.GNU-stack
                0x0000000000000000        0x0 /tmp/ccvnVB4Y.debug.temp.o
 .comment       0x0000000000000000       0x2b /tmp/ccQwoZX1.debug.temp.o
 .note.GNU-stack
                0x0000000000000000        0x0 /tmp/ccQwoZX1.debug.temp.o
 .comment       0x0000000000000000       0x2b /tmp/ccvXWyr2.debug.temp.o
 .note.GNU-stack
                0x0000000000000000        0x0 /tmp/ccvXWyr2.debug.temp.o
 .comment       0x0000000000000000       0x2b /tmp/ccpQnC9Z.debug.temp.o
 .note.GNU-stack
                0x0000000000000000        0x0 /tmp/ccpQnC9Z.debug.temp.o
 .comment       0x0000000000000000       0x2b /tmp/cc8AEeA1.debug.temp.o
 .note.GNU-stack
                0x0000000000000000        0x0 /tmp/cc8AEeA1.debug.temp.o
 .comment       0x0000000000000000       0x2b /tmp/cchFPuC1.debug.temp.o
 .note.GNU-stack
                0x0000000000000000        0x0 /tmp/cchFPuC1.debug.temp.o
 .comment       0x0000000000000000       0x2b /tmp/ccpHjFh0.debug.temp.o
 .note.GNU-stack
                0x0000000000000000        0x0 /tmp/ccpHjFh0.debug.temp.o
 .comment       0x0000000000000000       0x2b /tmp/ccgEALCZ.debug.temp.o
 .note.GNU-stack
                0x0000000000000000        0x0 /tmp/ccgEALCZ.debug.temp.o
 .comment       0x0000000000000000       0x2b /tmp/ccjp9NH0.debug.temp.o
 .note.GNU-stack
                0x0000000000000000        0x0 /tmp/ccjp9NH0.debug.temp.o
 .comment       0x0000000000000000       0x2b /tmp/ccuDssmY.debug.temp.o
 .note.GNU-stack
                0x0000000000000000        0x0 /tmp/ccuDssmY.debug.temp.o
 .comment       0x0000000000000000       0x2b /tmp/ccFjeET1.debug.temp.o
 .note.GNU-stack
                0x0000000000000000        0x0 /tmp/ccFjeET1.debug.temp.o
 .comment       0x0000000000000000       0x2b /tmp/cclZ3Pb2.debug.temp.o
 .note.GNU-stack
                0x0000000000000000        0x0 /tmp/cclZ3Pb2.debug.temp.o
 .comment       0x0000000000000000       0x2b /tmp/ccFoK7iY.debug.temp.o
 .note.GNU-stack
                0x0000000000000000        0x0 /tmp/ccFoK7iY.debug.temp.o
 .comment       0x0000000000000000       0x2b /tmp/ccx4WvuY.debug.temp.o
 .note.GNU-stack
                0x0000000000000000        0x0 /tmp/ccx4WvuY.debug.temp.o
 .comment       0x0000000000000000       0x2b /tmp/cccD4R4Y.debug.temp.o
 .note.GNU-stack
                0x0000000000000000        0x0 /tmp/cccD4R4Y.debug.temp.o
 .comment       0x0000000000000000       0x2b /tmp/cckQRlOZ.debug.temp.o
 .note.GNU-stack
                0x0000000000000000        0x0 /tmp/cckQRlOZ.debug.temp.o
 .comment       0x0000000000000000       0x2b /tmp/cc9OkTVY.debug.temp.o
 .note.GNU-stack
                0x0000000000000000        0x0 /tmp/cc9OkTVY.debug.temp.o
 .comment       0x0000000000000000       0x2b /tmp/cc7K71J2.debug.temp.o
 .note.GNU-stack
                0x0000000000000000        0x0 /tmp/cc7K71J2.debug.temp.o
 .comment       0x0000000000000000       0x2b /tmp/ccQl6g7Y.debug.temp.o
 .note.GNU-stack
                0x0000000000000000        0x0 /tmp/ccQl6g7Y.debug.temp.o
 .comment       0x0000000000000000       0x2b /tmp/ccBGXek0.debug.temp.o
 .note.GNU-stack
                0x0000000000000000        0x0 /tmp/ccBGXek0.debug.temp.o
 .comment       0x0000000000000000       0x2b /tmp/ccKG5gX1.debug.temp.o
 .note.GNU-stack
                0x0000000000000000        0x0 /tmp/ccKG5gX1.debug.temp.o
 .comment       0x0000000000000000       0x2b /tmp/ccdErvpZ.debug.temp.o
 .note.GNU-stack
                0x0000000000000000        0x0 /tmp/ccdErvpZ.debug.temp.o
 .comment       0x0000000000000000       0x2b /tmp/ccOPcyI1.debug.temp.o
 .note.GNU-stack
                0x0000000000000000        0x0 /tmp/ccOPcyI1.debug.temp.o
 .comment       0x0000000000000000       0x2b /tmp/ccUlrJiZ.debug.temp.o
 .note.GNU-stack
                0x0000000000000000        0x0 /tmp/ccUlrJiZ.debug.temp.o
 .comment       0x0000000000000000       0x2b /tmp/ccbsni51.debug.temp.o
 .note.GNU-stack
                0x0000000000000000        0x0 /tmp/ccbsni51.debug.temp.o
 .comment       0x0000000000000000       0x2b /tmp/ccHgKZ8Z.debug.temp.o
 .note.GNU-stack
                0x0000000000000000        0x0 /tmp/ccHgKZ8Z.debug.temp.o
 .comment       0x0000000000000000       0x2b /tmp/ccIgerP1.debug.temp.o
 .note.GNU-stack
                0x0000000000000000        0x0 /tmp/ccIgerP1.debug.temp.o
 .debug_info    0x0000000000000000      0x186 /tmp/ccMlO9e1.debug.temp.o
 .debug_abbrev  0x0000000000000000       0xb1 /tmp/ccMlO9e1.debug.temp.o
 .debug_line    0x0000000000000000      0x174 /tmp/ccMlO9e1.debug.temp.o
 .debug_str     0x0000000000000000      0x360 /tmp/ccMlO9e1.debug.temp.o
 .comment       0x0000000000000000       0x2b /tmp/ccMlO9e1.debug.temp.o
 .note.GNU-stack
                0x0000000000000000        0x0 /tmp/ccMlO9e1.debug.temp.o
 .debug_info    0x0000000000000000      0x1c3 /tmp/ccFbpPTY.debug.temp.o
 .debug_abbrev  0x0000000000000000       0xb1 /tmp/ccFbpPTY.debug.temp.o
 .debug_line    0x0000000000000000      0x14c /tmp/ccFbpPTY.debug.temp.o
 .debug_str     0x0000000000000000      0x45b /tmp/ccFbpPTY.debug.temp.o
 .comment       0x0000000000000000       0x2b /tmp/ccFbpPTY.debug.temp.o
 .note.GNU-stack
                0x0000000000000000        0x0 /tmp/ccFbpPTY.debug.temp.o
 .debug_info    0x0000000000000000      0x1e7 /tmp/cc1LXom2.debug.temp.o
 .debug_abbrev  0x0000000000000000       0xc0 /tmp/cc1LXom2.debug.temp.o
 .debug_line    0x0000000000000000      0x14c /tmp/cc1LXom2.debug.temp.o
 .debug_str     0x0000000000000000      0x471 /tmp/cc1LXom2.debug.temp.o
 .comment       0x0000000000000000       0x2b /tmp/cc1LXom2.debug.temp.o
 .note.GNU-stack
                0x0000000000000000        0x0 /tmp/cc1LXom2.debug.temp.o
 .comment       0x0000000000000000       0x2b /tmp/ccQmTW2Y.debug.temp.o
 .note.GNU-stack
                0x0000000000000000        0x0 /tmp/ccQmTW2Y.debug.temp.o
 .debug_info    0x0000000000000000      0x89f /tmp/ccYSsUrZ.debug.temp.o
 .debug_abbrev  0x0000000000000000       0xf9 /tmp/ccYSsUrZ.debug.temp.o
 .debug_line    0x0000000000000000      0x149 /tmp/ccYSsUrZ.debug.temp.o
 .debug_str     0x0000000000000000      0x64e /tmp/ccYSsUrZ.debug.temp.o
 .comment       0x0000000000000000       0x2b /tmp/ccYSsUrZ.debug.temp.o
 .note.GNU-stack
                0x0000000000000000        0x0 /tmp/ccYSsUrZ.debug.temp.o
 .comment       0x0000000000000000       0x2b /tmp/ccgTdfpY.debug.temp.o
 .note.GNU-stack
                0x0000000000000000        0x0 /tmp/ccgTdfpY.debug.temp.o
 .comment       0x0000000000000000       0x2b /tmp/ccKyus00.debug.temp.o
 .note.GNU-stack
                0x0000000000000000        0x0 /tmp/ccKyus00.debug.temp.o
 .comment       0x0000000000000000       0x2b /tmp/cc7Ehhw1.debug.temp.o
 .note.GNU-stack
                0x0000000000000000        0x0 /tmp/cc7Ehhw1.debug.temp.o
 .comment       0x0000000000000000       0x2b /tmp/ccfyTez0.debug.temp.o
 .note.GNU-stack
                0x0000000000000000        0x0 /tmp/ccfyTez0.debug.temp.o
 .comment       0x0000000000000000       0x2b /tmp/cc5UOYk1.debug.temp.o
 .note.GNU-stack
                0x0000000000000000        0x0 /tmp/cc5UOYk1.debug.temp.o
 .comment       0x0000000000000000       0x2b /tmp/ccM7Aa4Y.debug.temp.o
 .note.GNU-stack
                0x0000000000000000        0x0 /tmp/ccM7Aa4Y.debug.temp.o
 .comment       0x0000000000000000       0x2b /tmp/ccRuQ8g0.debug.temp.o
 .note.GNU-stack
                0x0000000000000000        0x0 /tmp/ccRuQ8g0.debug.temp.o
 .debug_info    0x0000000000000000     0x1bef /tmp/cct8wnpY.debug.temp.o
 .debug_abbrev  0x0000000000000000      0x22d /tmp/cct8wnpY.debug.temp.o
 .debug_line    0x0000000000000000      0x366 /tmp/cct8wnpY.debug.temp.o
 .debug_str     0x0000000000000000     0x17aa /tmp/cct8wnpY.debug.temp.o
 .comment       0x0000000000000000       0x2b /tmp/cct8wnpY.debug.temp.o
 .note.GNU-stack
                0x0000000000000000        0x0 /tmp/cct8wnpY.debug.temp.o
 .comment       0x0000000000000000       0x2b /tmp/ccvWjh1Z.debug.temp.o
 .note.GNU-stack
                0x0000000000000000        0x0 /tmp/ccvWjh1Z.debug.temp.o
 .comment       0x0000000000000000       0x2b /tmp/ccn7znk2.debug.temp.o
 .note.GNU-stack
                0x0000000000000000        0x0 /tmp/ccn7znk2.debug.temp.o
 .comment       0x0000000000000000       0x2b /tmp/ccTXd1KY.debug.temp.o
 .note.GNU-stack
                0x0000000000000000        0x0 /tmp/ccTXd1KY.debug.temp.o
 .comment       0x0000000000000000       0x2b /tmp/ccDjFz6Y.debug.temp.o
 .note.GNU-stack
                0x0000000000000000        0x0 /tmp/ccDjFz6Y.debug.temp.o
 .data          0x0000000000000000        0x0 /home/alastair/pftf-rpi4/Build/RPi4/DEBUG_GCC5/AARCH64/MdePkg/Library/BaseMemoryLibOptDxe/BaseMemoryLibOptDxe/OUTPUT/BaseMemoryLibOptDxe.lib(CopyMem.obj)
 .bss           0x0000000000000000        0x0 /home/alastair/pftf-rpi4/Build/RPi4/DEBUG_GCC5/AARCH64/MdePkg/Library/BaseMemoryLibOptDxe/BaseMemoryLibOptDxe/OUTPUT/BaseMemoryLibOptDxe.lib(CopyMem.obj)
 .data          0x0000000000000000        0x0 /home/alastair/pftf-rpi4/Build/RPi4/DEBUG_GCC5/AARCH64/MdePkg/Library/BaseMemoryLibOptDxe/BaseMemoryLibOptDxe/OUTPUT/BaseMemoryLibOptDxe.lib(CompareGuid.obj)
 .bss           0x0000000000000000        0x0 /home/alastair/pftf-rpi4/Build/RPi4/DEBUG_GCC5/AARCH64/MdePkg/Library/BaseMemoryLibOptDxe/BaseMemoryLibOptDxe/OUTPUT/BaseMemoryLibOptDxe.lib(CompareGuid.obj)
 .text          0x0000000000000000        0x8 /home/alastair/pftf-rpi4/Build/RPi4/DEBUG_GCC5/AARCH64/MdePkg/Library/BaseLib/BaseLib/OUTPUT/BaseLib.lib(CpuBreakpoint.obj)
 .data          0x0000000000000000        0x0 /home/alastair/pftf-rpi4/Build/RPi4/DEBUG_GCC5/AARCH64/MdePkg/Library/BaseLib/BaseLib/OUTPUT/BaseLib.lib(CpuBreakpoint.obj)
 .bss           0x0000000000000000        0x0 /home/alastair/pftf-rpi4/Build/RPi4/DEBUG_GCC5/AARCH64/MdePkg/Library/BaseLib/BaseLib/OUTPUT/BaseLib.lib(CpuBreakpoint.obj)
 .data          0x0000000000000000        0x0 /home/alastair/pftf-rpi4/Build/RPi4/DEBUG_GCC5/AARCH64/MdePkg/Library/BaseMemoryLibOptDxe/BaseMemoryLibOptDxe/OUTPUT/BaseMemoryLibOptDxe.lib(SetMem.obj)
 .bss           0x0000000000000000        0x0 /home/alastair/pftf-rpi4/Build/RPi4/DEBUG_GCC5/AARCH64/MdePkg/Library/BaseMemoryLibOptDxe/BaseMemoryLibOptDxe/OUTPUT/BaseMemoryLibOptDxe.lib(SetMem.obj)
 .data          0x0000000000000000        0x0 /home/alastair/pftf-rpi4/Build/RPi4/DEBUG_GCC5/AARCH64/MdePkg/Library/BaseMemoryLibOptDxe/BaseMemoryLibOptDxe/OUTPUT/BaseMemoryLibOptDxe.lib(CompareMem.obj)
 .bss           0x0000000000000000        0x0 /home/alastair/pftf-rpi4/Build/RPi4/DEBUG_GCC5/AARCH64/MdePkg/Library/BaseMemoryLibOptDxe/BaseMemoryLibOptDxe/OUTPUT/BaseMemoryLibOptDxe.lib(CompareMem.obj)

Memory Configuration

Name             Origin             Length             Attributes
*default*        0x0000000000000000 0xffffffffffffffff

Linker script and memory map

LOAD /home/alastair/pftf-rpi4/edk2/ArmPkg/Library/GccLto/liblto-aarch64.a
START GROUP
LOAD /tmp/UiApp.dll.Q98Kv2.ltrans0.ltrans.o
LOAD /tmp/UiApp.dll.Q98Kv2.ltrans1.ltrans.o
LOAD /tmp/UiApp.dll.Q98Kv2.ltrans2.ltrans.o
LOAD /tmp/ccXLXemY.debug.temp.o
LOAD /tmp/ccuwh8z1.debug.temp.o
LOAD /tmp/cck2W3H1.debug.temp.o
LOAD /tmp/ccoBQNI0.debug.temp.o
LOAD /tmp/ccpy9nAZ.debug.temp.o
LOAD /tmp/ccX9icb1.debug.temp.o
LOAD /tmp/ccwe7F9Z.debug.temp.o
LOAD /tmp/ccQUKTI0.debug.temp.o
LOAD /tmp/ccYI1wMY.debug.temp.o
LOAD /tmp/ccynLRz0.debug.temp.o
LOAD /tmp/cc2k3k1Y.debug.temp.o
LOAD /tmp/ccgv7ROY.debug.temp.o
LOAD /tmp/cc7IhR1Z.debug.temp.o
LOAD /tmp/ccgMiaWZ.debug.temp.o
LOAD /tmp/ccoeBIz2.debug.temp.o
LOAD /tmp/cc89Rov0.debug.temp.o
LOAD /tmp/ccu8zALY.debug.temp.o
LOAD /tmp/ccIGsEq2.debug.temp.o
LOAD /tmp/cc4qAEy2.debug.temp.o
LOAD /tmp/cc3aW7Z0.debug.temp.o
LOAD /tmp/ccSXYPu1.debug.temp.o
LOAD /tmp/ccHrOVSZ.debug.temp.o
LOAD /tmp/ccwEyzn0.debug.temp.o
LOAD /tmp/ccRL0t71.debug.temp.o
LOAD /tmp/ccflTjNZ.debug.temp.o
LOAD /tmp/ccCnyV0Z.debug.temp.o
LOAD /tmp/cc9hyaUZ.debug.temp.o
LOAD /tmp/cc21llNZ.debug.temp.o
LOAD /tmp/ccKWBlX1.debug.temp.o
LOAD /tmp/cc1aFA5Z.debug.temp.o
LOAD /tmp/ccmqEJs1.debug.temp.o
LOAD /tmp/ccAOfzxZ.debug.temp.o
LOAD /tmp/cchG3pwZ.debug.temp.o
LOAD /tmp/ccmECqaY.debug.temp.o
LOAD /tmp/ccBSCCd0.debug.temp.o
LOAD /tmp/cco3PPPZ.debug.temp.o
LOAD /tmp/cchh678Z.debug.temp.o
LOAD /tmp/ccrZtxQY.debug.temp.o
LOAD /tmp/ccfDM0k1.debug.temp.o
LOAD /tmp/ccuzzRj1.debug.temp.o
LOAD /tmp/ccxr8Vv0.debug.temp.o
LOAD /tmp/cc0kzjFY.debug.temp.o
LOAD /tmp/ccLowxqY.debug.temp.o
LOAD /tmp/ccOGc8QZ.debug.temp.o
LOAD /tmp/cccB7H00.debug.temp.o
LOAD /tmp/ccBAPAPY.debug.temp.o
LOAD /tmp/ccJ3wbH2.debug.temp.o
LOAD /tmp/ccMJKxz0.debug.temp.o
LOAD /tmp/ccGRln0Z.debug.temp.o
LOAD /tmp/ccm3aFyY.debug.temp.o
LOAD /tmp/cclS07I1.debug.temp.o
LOAD /tmp/ccmE61gZ.debug.temp.o
LOAD /tmp/ccqqSvwY.debug.temp.o
LOAD /tmp/ccTyef5X.debug.temp.o
LOAD /tmp/ccvnVB4Y.debug.temp.o
LOAD /tmp/ccQwoZX1.debug.temp.o
LOAD /tmp/ccvXWyr2.debug.temp.o
LOAD /tmp/ccpQnC9Z.debug.temp.o
LOAD /tmp/cc8AEeA1.debug.temp.o
LOAD /tmp/cchFPuC1.debug.temp.o
LOAD /tmp/ccpHjFh0.debug.temp.o
LOAD /tmp/ccgEALCZ.debug.temp.o
LOAD /tmp/ccjp9NH0.debug.temp.o
LOAD /tmp/ccuDssmY.debug.temp.o
LOAD /tmp/ccFjeET1.debug.temp.o
LOAD /tmp/cclZ3Pb2.debug.temp.o
LOAD /tmp/ccFoK7iY.debug.temp.o
LOAD /tmp/ccx4WvuY.debug.temp.o
LOAD /tmp/cccD4R4Y.debug.temp.o
LOAD /tmp/cckQRlOZ.debug.temp.o
LOAD /tmp/cc9OkTVY.debug.temp.o
LOAD /tmp/cc7K71J2.debug.temp.o
LOAD /tmp/ccQl6g7Y.debug.temp.o
LOAD /tmp/ccBGXek0.debug.temp.o
LOAD /tmp/ccKG5gX1.debug.temp.o
LOAD /tmp/ccdErvpZ.debug.temp.o
LOAD /tmp/ccOPcyI1.debug.temp.o
LOAD /tmp/ccUlrJiZ.debug.temp.o
LOAD /tmp/ccbsni51.debug.temp.o
LOAD /tmp/ccHgKZ8Z.debug.temp.o
LOAD /tmp/ccIgerP1.debug.temp.o
LOAD /tmp/ccMlO9e1.debug.temp.o
LOAD /tmp/ccFbpPTY.debug.temp.o
LOAD /tmp/cc1LXom2.debug.temp.o
LOAD /tmp/ccQmTW2Y.debug.temp.o
LOAD /tmp/ccYSsUrZ.debug.temp.o
LOAD /tmp/ccgTdfpY.debug.temp.o
LOAD /tmp/ccKyus00.debug.temp.o
LOAD /tmp/cc7Ehhw1.debug.temp.o
LOAD /tmp/ccfyTez0.debug.temp.o
LOAD /tmp/cc5UOYk1.debug.temp.o
LOAD /tmp/ccM7Aa4Y.debug.temp.o
LOAD /tmp/ccRuQ8g0.debug.temp.o
LOAD /tmp/cct8wnpY.debug.temp.o
LOAD /tmp/ccvWjh1Z.debug.temp.o
LOAD /tmp/ccn7znk2.debug.temp.o
LOAD /tmp/ccTXd1KY.debug.temp.o
LOAD /tmp/ccDjFz6Y.debug.temp.o
LOAD /home/alastair/pftf-rpi4/Build/RPi4/DEBUG_GCC5/AARCH64/MdeModulePkg/Application/UiApp/UiApp/OUTPUT/UiApp.lib
LOAD /home/alastair/pftf-rpi4/Build/RPi4/DEBUG_GCC5/AARCH64/MdePkg/Library/DxePcdLib/DxePcdLib/OUTPUT/DxePcdLib.lib
LOAD /home/alastair/pftf-rpi4/Build/RPi4/DEBUG_GCC5/AARCH64/MdePkg/Library/BaseMemoryLibOptDxe/BaseMemoryLibOptDxe/OUTPUT/BaseMemoryLibOptDxe.lib
LOAD /home/alastair/pftf-rpi4/Build/RPi4/DEBUG_GCC5/AARCH64/MdePkg/Library/BaseLib/BaseLib/OUTPUT/BaseLib.lib
LOAD /home/alastair/pftf-rpi4/Build/RPi4/DEBUG_GCC5/AARCH64/MdePkg/Library/BaseIoLibIntrinsic/BaseIoLibIntrinsic/OUTPUT/BaseIoLibIntrinsic.lib
LOAD /home/alastair/pftf-rpi4/Build/RPi4/DEBUG_GCC5/AARCH64/ArmPlatformPkg/Library/PL011UartLib/PL011UartLib/OUTPUT/PL011UartLib.lib
LOAD /home/alastair/pftf-rpi4/Build/RPi4/DEBUG_GCC5/AARCH64/MdePkg/Library/BaseDebugPrintErrorLevelLib/BaseDebugPrintErrorLevelLib/OUTPUT/BaseDebugPrintErrorLevelLib.lib
LOAD /home/alastair/pftf-rpi4/Build/RPi4/DEBUG_GCC5/AARCH64/Platform/RaspberryPi/Library/DualSerialPortLib/DebugDualSerialPortLib/OUTPUT/DebugDualSerialPortLib.lib
LOAD /home/alastair/pftf-rpi4/Build/RPi4/DEBUG_GCC5/AARCH64/MdePkg/Library/BasePrintLib/BasePrintLib/OUTPUT/BasePrintLib.lib
LOAD /home/alastair/pftf-rpi4/Build/RPi4/DEBUG_GCC5/AARCH64/MdePkg/Library/BaseDebugLibSerialPort/BaseDebugLibSerialPort/OUTPUT/BaseDebugLibSerialPort.lib
LOAD /home/alastair/pftf-rpi4/Build/RPi4/DEBUG_GCC5/AARCH64/MdePkg/Library/UefiBootServicesTableLib/UefiBootServicesTableLib/OUTPUT/UefiBootServicesTableLib.lib
LOAD /home/alastair/pftf-rpi4/Build/RPi4/DEBUG_GCC5/AARCH64/MdePkg/Library/UefiMemoryAllocationLib/UefiMemoryAllocationLib/OUTPUT/UefiMemoryAllocationLib.lib
LOAD /home/alastair/pftf-rpi4/Build/RPi4/DEBUG_GCC5/AARCH64/MdePkg/Library/UefiRuntimeServicesTableLib/UefiRuntimeServicesTableLib/OUTPUT/UefiRuntimeServicesTableLib.lib
LOAD /home/alastair/pftf-rpi4/Build/RPi4/DEBUG_GCC5/AARCH64/MdePkg/Library/UefiDevicePathLib/UefiDevicePathLib/OUTPUT/UefiDevicePathLib.lib
LOAD /home/alastair/pftf-rpi4/Build/RPi4/DEBUG_GCC5/AARCH64/MdePkg/Library/UefiLib/UefiLib/OUTPUT/UefiLib.lib
LOAD /home/alastair/pftf-rpi4/Build/RPi4/DEBUG_GCC5/AARCH64/MdeModulePkg/Library/UefiHiiServicesLib/UefiHiiServicesLib/OUTPUT/UefiHiiServicesLib.lib
LOAD /home/alastair/pftf-rpi4/Build/RPi4/DEBUG_GCC5/AARCH64/MdeModulePkg/Library/UefiSortLib/UefiSortLib/OUTPUT/UefiSortLib.lib
LOAD /home/alastair/pftf-rpi4/Build/RPi4/DEBUG_GCC5/AARCH64/MdePkg/Library/DxeServicesLib/DxeServicesLib/OUTPUT/DxeServicesLib.lib
LOAD /home/alastair/pftf-rpi4/Build/RPi4/DEBUG_GCC5/AARCH64/MdePkg/Library/DxeServicesTableLib/DxeServicesTableLib/OUTPUT/DxeServicesTableLib.lib
LOAD /home/alastair/pftf-rpi4/Build/RPi4/DEBUG_GCC5/AARCH64/MdePkg/Library/BasePeCoffGetEntryPointLib/BasePeCoffGetEntryPointLib/OUTPUT/BasePeCoffGetEntryPointLib.lib
LOAD /home/alastair/pftf-rpi4/Build/RPi4/DEBUG_GCC5/AARCH64/MdeModulePkg/Library/DxePerformanceLib/DxePerformanceLib/OUTPUT/DxePerformanceLib.lib
LOAD /home/alastair/pftf-rpi4/Build/RPi4/DEBUG_GCC5/AARCH64/MdePkg/Library/DxeHobLib/DxeHobLib/OUTPUT/DxeHobLib.lib
LOAD /home/alastair/pftf-rpi4/Build/RPi4/DEBUG_GCC5/AARCH64/MdeModulePkg/Library/UefiHiiLib/UefiHiiLib/OUTPUT/UefiHiiLib.lib
LOAD /home/alastair/pftf-rpi4/Build/RPi4/DEBUG_GCC5/AARCH64/MdePkg/Library/BaseReportStatusCodeLibNull/BaseReportStatusCodeLibNull/OUTPUT/BaseReportStatusCodeLibNull.lib
LOAD /home/alastair/pftf-rpi4/Build/RPi4/DEBUG_GCC5/AARCH64/MdeModulePkg/Library/UefiBootManagerLib/UefiBootManagerLib/OUTPUT/UefiBootManagerLib.lib
LOAD /home/alastair/pftf-rpi4/Build/RPi4/DEBUG_GCC5/AARCH64/MdeModulePkg/Library/FileExplorerLib/FileExplorerLib/OUTPUT/FileExplorerLib.lib
LOAD /home/alastair/pftf-rpi4/Build/RPi4/DEBUG_GCC5/AARCH64/MdePkg/Library/UefiApplicationEntryPoint/UefiApplicationEntryPoint/OUTPUT/UefiApplicationEntryPoint.lib
LOAD /home/alastair/pftf-rpi4/Build/RPi4/DEBUG_GCC5/AARCH64/MdePkg/Library/BaseStackCheckLib/BaseStackCheckLib/OUTPUT/BaseStackCheckLib.lib
LOAD /home/alastair/pftf-rpi4/Build/RPi4/DEBUG_GCC5/AARCH64/ArmPkg/Library/CompilerIntrinsicsLib/CompilerIntrinsicsLib/OUTPUT/CompilerIntrinsicsLib.lib
LOAD /home/alastair/pftf-rpi4/Build/RPi4/DEBUG_GCC5/AARCH64/MdeModulePkg/Library/BootDiscoveryPolicyUiLib/BootDiscoveryPolicyUiLib/OUTPUT/BootDiscoveryPolicyUiLib.lib
LOAD /home/alastair/pftf-rpi4/Build/RPi4/DEBUG_GCC5/AARCH64/MdeModulePkg/Library/DeviceManagerUiLib/DeviceManagerUiLib/OUTPUT/DeviceManagerUiLib.lib
LOAD /home/alastair/pftf-rpi4/Build/RPi4/DEBUG_GCC5/AARCH64/MdeModulePkg/Library/BootManagerUiLib/BootManagerUiLib/OUTPUT/BootManagerUiLib.lib
LOAD /home/alastair/pftf-rpi4/Build/RPi4/DEBUG_GCC5/AARCH64/Platform/RaspberryPi/Library/PlatformUiAppLib/PlatformUiAppLib/OUTPUT/PlatformUiAppLib.lib
LOAD /home/alastair/pftf-rpi4/Build/RPi4/DEBUG_GCC5/AARCH64/MdeModulePkg/Library/BootMaintenanceManagerUiLib/BootMaintenanceManagerUiLib/OUTPUT/BootMaintenanceManagerUiLib.lib
END GROUP
                0x0000000000000228                . = PECOFF_HEADER_SIZE

.gnu.version_d  0x0000000000000228        0x0
 .gnu.version_d
                0x0000000000000228        0x0 /home/alastair/pftf-rpi4/edk2/ArmPkg/Library/GccLto/liblto-aarch64.a

.gnu.version    0x0000000000000228        0x0
 .gnu.version   0x0000000000000228        0x0 /home/alastair/pftf-rpi4/edk2/ArmPkg/Library/GccLto/liblto-aarch64.a

.gnu.version_r  0x0000000000000228        0x0
 .gnu.version_r
                0x0000000000000228        0x0 /home/alastair/pftf-rpi4/edk2/ArmPkg/Library/GccLto/liblto-aarch64.a

.text           0x0000000000001000    0x21258
 *(.text .text.* .stub .gnu.linkonce.t.*)
 .text.SerialPortWritable.constprop.0
                0x0000000000001000        0x8 /tmp/UiApp.dll.Q98Kv2.ltrans0.ltrans.o
 .text.EfiLibDeleteVariable.constprop.0
                0x0000000000001008       0x28 /tmp/UiApp.dll.Q98Kv2.ltrans0.ltrans.o
 .text.CleanUselessBeforeSubmit
                0x0000000000001030       0xa0 /tmp/UiApp.dll.Q98Kv2.ltrans0.ltrans.o
 .text.BootManagerExtractConfig
                0x00000000000010d0       0x24 /tmp/UiApp.dll.Q98Kv2.ltrans0.ltrans.o
 .text.DeviceManagerExtractConfig
                0x00000000000010f4       0x24 /tmp/UiApp.dll.Q98Kv2.ltrans0.ltrans.o
 .text.InternalBaseLibIsListValid
                0x0000000000001118       0xac /tmp/UiApp.dll.Q98Kv2.ltrans0.ltrans.o
 .text.InternalHiiBrowserCallback.constprop.0
                0x00000000000011c4      0x13c /tmp/UiApp.dll.Q98Kv2.ltrans0.ltrans.o
 .text.BOpt_DestroyMenuEntry
                0x0000000000001300       0xd4 /tmp/UiApp.dll.Q98Kv2.ltrans0.ltrans.o
 .text.BOpt_GetOptionNumber
                0x00000000000013d4      0x138 /tmp/UiApp.dll.Q98Kv2.ltrans0.ltrans.o
 .text.StrnCatS.constprop.0
                0x000000000000150c      0x1f0 /tmp/UiApp.dll.Q98Kv2.ltrans0.ltrans.o
 .text.HiiConstructConfigHdr.constprop.0
                0x00000000000016fc      0x210 /tmp/UiApp.dll.Q98Kv2.ltrans0.ltrans.o
 .text.HiiIsConfigHdrMatch.constprop.0
                0x000000000000190c       0xb4 /tmp/UiApp.dll.Q98Kv2.ltrans0.ltrans.o
 .text.SetMem.constprop.0
                0x00000000000019c0       0x48 /tmp/UiApp.dll.Q98Kv2.ltrans0.ltrans.o
 .text.SetMem16
                0x0000000000001a08       0xa0 /tmp/UiApp.dll.Q98Kv2.ltrans0.ltrans.o
 .text.BmmSetConsoleMode
                0x0000000000001aa8      0x62c /tmp/UiApp.dll.Q98Kv2.ltrans0.ltrans.o
 .text.BmSetConsoleMode
                0x00000000000020d4      0x62c /tmp/UiApp.dll.Q98Kv2.ltrans0.ltrans.o
 .text.BootMaintExtractConfig
                0x0000000000002700      0x1b4 /tmp/UiApp.dll.Q98Kv2.ltrans0.ltrans.o
 .text.BootManagerRouteConfig
                0x00000000000028b4        0x4 /tmp/UiApp.dll.Q98Kv2.ltrans0.ltrans.o
 .text.DeviceManagerRouteConfig
                0x00000000000028b8        0x4 /tmp/UiApp.dll.Q98Kv2.ltrans0.ltrans.o
 .text.InternalAllocatePool.constprop.0
                0x00000000000028bc       0x6c /tmp/UiApp.dll.Q98Kv2.ltrans0.ltrans.o
                0x00000000000028bc                InternalAllocatePool.constprop.0
 .text.CreatePopUp.constprop.0
                0x0000000000002928      0x524 /tmp/UiApp.dll.Q98Kv2.ltrans0.ltrans.o
                0x0000000000002928                CreatePopUp.constprop.0
 .text.HiiSetString.constprop.0
                0x0000000000002e4c      0x160 /tmp/UiApp.dll.Q98Kv2.ltrans0.ltrans.o
                0x0000000000002e4c                HiiSetString.constprop.0
 .text.HiiGetString.constprop.0
                0x0000000000002fac      0x1b0 /tmp/UiApp.dll.Q98Kv2.ltrans0.ltrans.o
                0x0000000000002fac                HiiGetString.constprop.0
 .text.HiiGetHiiHandles.constprop.0
                0x000000000000315c       0xc8 /tmp/UiApp.dll.Q98Kv2.ltrans0.ltrans.o
                0x000000000000315c                HiiGetHiiHandles.constprop.0
 .text.EfiBootManagerAddLoadOptionVariable.constprop.0
                0x0000000000003224      0x20c /tmp/UiApp.dll.Q98Kv2.ltrans0.ltrans.o
                0x0000000000003224                EfiBootManagerAddLoadOptionVariable.constprop.0
 .text.EfiBootManagerGetLoadOptions.part.0.constprop.0
                0x0000000000003430      0x1f8 /tmp/UiApp.dll.Q98Kv2.ltrans0.ltrans.o
                0x0000000000003430                EfiBootManagerGetLoadOptions.part.0.constprop.0
 .text.LogPerformanceMeasurementEnabled.constprop.0
                0x0000000000003628        0x8 /tmp/UiApp.dll.Q98Kv2.ltrans0.ltrans.o
                0x0000000000003628                LogPerformanceMeasurementEnabled.constprop.0
 .text.IsZeroGuid.constprop.0
                0x0000000000003630       0x10 /tmp/UiApp.dll.Q98Kv2.ltrans0.ltrans.o
                0x0000000000003630                IsZeroGuid.constprop.0
 .text.MultU64x32.constprop.0
                0x0000000000003640        0xc /tmp/UiApp.dll.Q98Kv2.ltrans0.ltrans.o
                0x0000000000003640                MultU64x32.constprop.0
 .text.LShiftU64.constprop.0
                0x000000000000364c        0x8 /tmp/UiApp.dll.Q98Kv2.ltrans0.ltrans.o
                0x000000000000364c                LShiftU64.constprop.0
 .text.EfiAcquireLock.constprop.0
                0x0000000000003654       0x70 /tmp/UiApp.dll.Q98Kv2.ltrans0.ltrans.o
                0x0000000000003654                EfiAcquireLock.constprop.0
 .text.EfiReleaseLock.constprop.0
                0x00000000000036c4       0x6c /tmp/UiApp.dll.Q98Kv2.ltrans0.ltrans.o
                0x00000000000036c4                EfiReleaseLock.constprop.0
 .text.IsZeroBuffer.constprop.0
                0x0000000000003730       0x60 /tmp/UiApp.dll.Q98Kv2.ltrans0.ltrans.o
                0x0000000000003730                IsZeroBuffer.constprop.0
 .text.GetPerformanceMeasurementProtocol
                0x0000000000003790       0xb8 /tmp/UiApp.dll.Q98Kv2.ltrans0.ltrans.o
                0x0000000000003790                GetPerformanceMeasurementProtocol
 .text.LogPerformanceMeasurement.constprop.0
                0x0000000000003848       0xac /tmp/UiApp.dll.Q98Kv2.ltrans0.ltrans.o
                0x0000000000003848                LogPerformanceMeasurement.constprop.0
 .text.EndPerformanceMeasurementEx.constprop.0
                0x00000000000038f4       0xac /tmp/UiApp.dll.Q98Kv2.ltrans0.ltrans.o
                0x00000000000038f4                EndPerformanceMeasurementEx.constprop.0
 .text.EfiGetNameGuidFromFwVolDevicePathNode
                0x00000000000039a0       0x78 /tmp/UiApp.dll.Q98Kv2.ltrans0.ltrans.o
                0x00000000000039a0                EfiGetNameGuidFromFwVolDevicePathNode
 .text.Print    0x0000000000003a18      0x174 /tmp/UiApp.dll.Q98Kv2.ltrans0.ltrans.o
                0x0000000000003a18                Print
 .text.SerialPortWrite
                0x0000000000003b8c      0x120 /tmp/UiApp.dll.Q98Kv2.ltrans0.ltrans.o
                0x0000000000003b8c                SerialPortWrite
 .text.WriteUnaligned16
                0x0000000000003cac       0x50 /tmp/UiApp.dll.Q98Kv2.ltrans0.ltrans.o
                0x0000000000003cac                WriteUnaligned16
 .text.WriteUnaligned32
                0x0000000000003cfc       0x58 /tmp/UiApp.dll.Q98Kv2.ltrans0.ltrans.o
                0x0000000000003cfc                WriteUnaligned32
 .text.ReadUnaligned16
                0x0000000000003d54       0x5c /tmp/UiApp.dll.Q98Kv2.ltrans0.ltrans.o
                0x0000000000003d54                ReadUnaligned16
 .text.ReadUnaligned32
                0x0000000000003db0       0x50 /tmp/UiApp.dll.Q98Kv2.ltrans0.ltrans.o
                0x0000000000003db0                ReadUnaligned32
 .text.BasePrintLibSPrintMarker.constprop.0
                0x0000000000003e00     0x1004 /tmp/UiApp.dll.Q98Kv2.ltrans0.ltrans.o
                0x0000000000003e00                BasePrintLibSPrintMarker.constprop.0
 .text.BasePrintLibSPrint.constprop.0
                0x0000000000004e04       0xa0 /tmp/UiApp.dll.Q98Kv2.ltrans0.ltrans.o
 .text.AsciiSPrint.constprop.0
                0x0000000000004ea4       0xac /tmp/UiApp.dll.Q98Kv2.ltrans0.ltrans.o
                0x0000000000004ea4                AsciiSPrint.constprop.0
 .text.ReadUnaligned64
                0x0000000000004f50       0x38 /tmp/UiApp.dll.Q98Kv2.ltrans0.ltrans.o
                0x0000000000004f50                ReadUnaligned64
 .text.IsNull   0x0000000000004f88       0x4c /tmp/UiApp.dll.Q98Kv2.ltrans0.ltrans.o
                0x0000000000004f88                IsNull
 .text.IsListEmpty
                0x0000000000004fd4       0x4c /tmp/UiApp.dll.Q98Kv2.ltrans0.ltrans.o
                0x0000000000004fd4                IsListEmpty
 .text.RemoveEntryList
                0x0000000000005020       0x50 /tmp/UiApp.dll.Q98Kv2.ltrans0.ltrans.o
                0x0000000000005020                RemoveEntryList
 .text.GetNextNode
                0x0000000000005070       0x44 /tmp/UiApp.dll.Q98Kv2.ltrans0.ltrans.o
                0x0000000000005070                GetNextNode
 .text.GetFirstNode
                0x00000000000050b4       0x44 /tmp/UiApp.dll.Q98Kv2.ltrans0.ltrans.o
                0x00000000000050b4                GetFirstNode
 .text.InsertTailList
                0x00000000000050f8       0x5c /tmp/UiApp.dll.Q98Kv2.ltrans0.ltrans.o
                0x00000000000050f8                InsertTailList
 .text.ChooseFile.constprop.0
                0x0000000000005154      0x434 /tmp/UiApp.dll.Q98Kv2.ltrans0.ltrans.o
 .text.InitializeListHead
                0x0000000000005588       0x40 /tmp/UiApp.dll.Q98Kv2.ltrans0.ltrans.o
                0x0000000000005588                InitializeListHead
 .text.CompareMem
                0x00000000000055c8       0xd0 /tmp/UiApp.dll.Q98Kv2.ltrans0.ltrans.o
                0x00000000000055c8                CompareMem
 .text.BootDescriptionHandler.lto_priv.0
                0x0000000000005698       0x8c /tmp/UiApp.dll.Q98Kv2.ltrans0.ltrans.o
                0x0000000000005698                BootDescriptionHandler.lto_priv.0
 .text.ZeroMem  0x0000000000005724       0x70 /tmp/UiApp.dll.Q98Kv2.ltrans0.ltrans.o
                0x0000000000005724                ZeroMem
 .text.HiiCreateActionOpCode.constprop.0
                0x0000000000005794       0x9c /tmp/UiApp.dll.Q98Kv2.ltrans0.ltrans.o
                0x0000000000005794                HiiCreateActionOpCode.constprop.0
 .text.HiiCreateSubTitleOpCode.constprop.0
                0x0000000000005830       0x8c /tmp/UiApp.dll.Q98Kv2.ltrans0.ltrans.o
                0x0000000000005830                HiiCreateSubTitleOpCode.constprop.0
 .text.UpdatePageEnd
                0x00000000000058bc       0x7c /tmp/UiApp.dll.Q98Kv2.ltrans0.ltrans.o
 .text.HiiCreateGotoExOpCode.constprop.0
                0x0000000000005938       0xc8 /tmp/UiApp.dll.Q98Kv2.ltrans0.ltrans.o
                0x0000000000005938                HiiCreateGotoExOpCode.constprop.0
 .text.UefiDevicePathLibConvertDevicePathToText.constprop.0
                0x0000000000005a00      0x160 /tmp/UiApp.dll.Q98Kv2.ltrans0.ltrans.o
                0x0000000000005a00                UefiDevicePathLibConvertDevicePathToText.constprop.0
 .text.HiiCreateOneOfOpCode.constprop.0
                0x0000000000005b60      0x120 /tmp/UiApp.dll.Q98Kv2.ltrans0.ltrans.o
                0x0000000000005b60                HiiCreateOneOfOpCode.constprop.0
 .text.HiiCreateGuidOpCode.constprop.0
                0x0000000000005c80       0x80 /tmp/UiApp.dll.Q98Kv2.ltrans0.ltrans.o
                0x0000000000005c80                HiiCreateGuidOpCode.constprop.0
 .text.RefreshUpdateData
                0x0000000000005d00       0x44 /tmp/UiApp.dll.Q98Kv2.ltrans0.ltrans.o
 .text.CleanUpPage
                0x0000000000005d44       0x50 /tmp/UiApp.dll.Q98Kv2.ltrans0.ltrans.o
 .text.UpdatePageStart
                0x0000000000005d94       0x60 /tmp/UiApp.dll.Q98Kv2.ltrans0.ltrans.o
 .text.BootManagerCallback
                0x0000000000005df4      0x828 /tmp/UiApp.dll.Q98Kv2.ltrans0.ltrans.o
 .text.HiiCreateCheckBoxOpCode.constprop.0
                0x000000000000661c       0xb8 /tmp/UiApp.dll.Q98Kv2.ltrans0.ltrans.o
 .text.RequiredDriver
                0x00000000000066d4      0x138 /tmp/UiApp.dll.Q98Kv2.ltrans0.ltrans.o
                0x00000000000066d4                RequiredDriver
 .text.GetConsoleOutMode
                0x000000000000680c       0xd8 /tmp/UiApp.dll.Q98Kv2.ltrans0.ltrans.o
                0x000000000000680c                GetConsoleOutMode
 .text.IsIsaSerialNode
                0x00000000000068e4       0x60 /tmp/UiApp.dll.Q98Kv2.ltrans0.ltrans.o
                0x00000000000068e4                IsIsaSerialNode
 .text.RetrieveUartUid
                0x0000000000006944       0xf4 /tmp/UiApp.dll.Q98Kv2.ltrans0.ltrans.o
                0x0000000000006944                RetrieveUartUid
 .text.BmMatchDevicePaths
                0x0000000000006a38       0xa8 /tmp/UiApp.dll.Q98Kv2.ltrans0.ltrans.o
                0x0000000000006a38                BmMatchDevicePaths
                0x0000000000006a38                MatchDevicePaths
 .text.BOpt_FreeMenu
                0x0000000000006ae0       0xa0 /tmp/UiApp.dll.Q98Kv2.ltrans0.ltrans.o
                0x0000000000006ae0                BOpt_FreeMenu
 .text.BOpt_GetMenuEntry
                0x0000000000006b80       0xb0 /tmp/UiApp.dll.Q98Kv2.ltrans0.ltrans.o
                0x0000000000006b80                BOpt_GetMenuEntry
 .text.UpdateConsolePage
                0x0000000000006c30      0x24c /tmp/UiApp.dll.Q98Kv2.ltrans0.ltrans.o
 .text.UpdateComAttributeFromVariable
                0x0000000000006e7c      0x1ec /tmp/UiApp.dll.Q98Kv2.ltrans0.ltrans.o
                0x0000000000006e7c                UpdateComAttributeFromVariable
 .text.ChangeTerminalDevicePath
                0x0000000000007068      0x1c8 /tmp/UiApp.dll.Q98Kv2.ltrans0.ltrans.o
 .text.Var_UpdateConsoleOption
                0x0000000000007230      0x234 /tmp/UiApp.dll.Q98Kv2.ltrans0.ltrans.o
 .text.GetDriverOrder
                0x0000000000007464       0xdc /tmp/UiApp.dll.Q98Kv2.ltrans0.ltrans.o
                0x0000000000007464                GetDriverOrder
 .text.GetBootOrder
                0x0000000000007540       0xdc /tmp/UiApp.dll.Q98Kv2.ltrans0.ltrans.o
                0x0000000000007540                GetBootOrder
 .text.UpdateOrderPage
                0x000000000000761c      0x268 /tmp/UiApp.dll.Q98Kv2.ltrans0.ltrans.o
 .text.UpdatePageBody
                0x0000000000007884       0xb4 /tmp/UiApp.dll.Q98Kv2.ltrans0.ltrans.o
 .text.UpdateConsoleContent
                0x0000000000007938      0x360 /tmp/UiApp.dll.Q98Kv2.ltrans0.ltrans.o
 .text.BOpt_CreateMenuEntry
                0x0000000000007c98       0xac /tmp/UiApp.dll.Q98Kv2.ltrans0.ltrans.o
                0x0000000000007c98                BOpt_CreateMenuEntry
 .text.UiDevicePathToStr
                0x0000000000007d44      0x110 /tmp/UiApp.dll.Q98Kv2.ltrans0.ltrans.o
                0x0000000000007d44                UiDevicePathToStr
 .text.GetConsoleMenu
                0x0000000000007e54      0x38c /tmp/UiApp.dll.Q98Kv2.ltrans0.ltrans.o
                0x0000000000007e54                GetConsoleMenu
 .text.BOpt_GetDriverOptions
                0x00000000000081e0      0x29c /tmp/UiApp.dll.Q98Kv2.ltrans0.ltrans.o
                0x00000000000081e0                BOpt_GetDriverOptions
 .text.BOpt_GetBootOptions
                0x000000000000847c      0x3e4 /tmp/UiApp.dll.Q98Kv2.ltrans0.ltrans.o
                0x000000000000847c                BOpt_GetBootOptions
 .text.BootMaintCallback
                0x0000000000008860     0x1818 /tmp/UiApp.dll.Q98Kv2.ltrans0.ltrans.o
 .text.BootMaintRouteConfig
                0x000000000000a078     0x10f0 /tmp/UiApp.dll.Q98Kv2.ltrans0.ltrans.o
 .text.ExtractFileNameFromDevicePath
                0x000000000000b168       0xb4 /tmp/UiApp.dll.Q98Kv2.ltrans0.ltrans.o
 .text.ReSendForm
                0x000000000000b21c      0x1c4 /tmp/UiApp.dll.Q98Kv2.ltrans0.ltrans.o
 .text.CreateDriverOptionFromFile
                0x000000000000b3e0        0x8 /tmp/UiApp.dll.Q98Kv2.ltrans0.ltrans.o
 .text.CreateBootOptionFromFile
                0x000000000000b3e8        0x8 /tmp/UiApp.dll.Q98Kv2.ltrans0.ltrans.o
 .text.BootFromFile
                0x000000000000b3f0      0x1dc /tmp/UiApp.dll.Q98Kv2.ltrans0.ltrans.o
 .text.CreateDeviceManagerForm
                0x000000000000b5cc      0x620 /tmp/UiApp.dll.Q98Kv2.ltrans0.ltrans.o
                0x000000000000b5cc                CreateDeviceManagerForm
 .text.DeviceManagerCallback
                0x000000000000bbec       0xd8 /tmp/UiApp.dll.Q98Kv2.ltrans0.ltrans.o
 .text.LibExtractConfig
                0x000000000000bcc4       0x24 /tmp/UiApp.dll.Q98Kv2.ltrans1.ltrans.o
                0x000000000000bcc4                LibExtractConfig
 .text.BmEliminateExtraSpaces
                0x000000000000bce8       0x44 /tmp/UiApp.dll.Q98Kv2.ltrans1.ltrans.o
 .text.EfiBootManagerFreeDriverHealthInfo
                0x000000000000bd2c       0x60 /tmp/UiApp.dll.Q98Kv2.ltrans1.ltrans.o
 .text.BmConnectUsbShortFormDevicePath
                0x000000000000bd8c      0x194 /tmp/UiApp.dll.Q98Kv2.ltrans1.ltrans.o
 .text.LibGetMenuEntry
                0x000000000000bf20       0xb0 /tmp/UiApp.dll.Q98Kv2.ltrans1.ltrans.o
 .text.EfiBootManagerConnectDevicePath
                0x000000000000bfd0      0x194 /tmp/UiApp.dll.Q98Kv2.ltrans1.ltrans.o
 .text.LibGetDevicePath
                0x000000000000c164       0x58 /tmp/UiApp.dll.Q98Kv2.ltrans1.ltrans.o
 .text.BmGetLoadFileDescription
                0x000000000000c1bc       0xe8 /tmp/UiApp.dll.Q98Kv2.ltrans1.ltrans.o
 .text.LibAppendFileName
                0x000000000000c2a4      0x1c8 /tmp/UiApp.dll.Q98Kv2.ltrans1.ltrans.o
 .text.LibCreateNewFile
                0x000000000000c46c      0x2c8 /tmp/UiApp.dll.Q98Kv2.ltrans1.ltrans.o
 .text.BmGetUsbDescription
                0x000000000000c734      0x208 /tmp/UiApp.dll.Q98Kv2.ltrans1.ltrans.o
 .text.BmGetNetworkDescription
                0x000000000000c93c      0x350 /tmp/UiApp.dll.Q98Kv2.ltrans1.ltrans.o
 .text.LibRouteConfig
                0x000000000000cc8c        0x4 /tmp/UiApp.dll.Q98Kv2.ltrans1.ltrans.o
                0x000000000000cc8c                LibRouteConfig
 .text.BmPrintDp
                0x000000000000cc90       0x64 /tmp/UiApp.dll.Q98Kv2.ltrans1.ltrans.o
 .text.BmGetSingleControllerHealthStatus
                0x000000000000ccf4      0x2c8 /tmp/UiApp.dll.Q98Kv2.ltrans1.ltrans.o
 .text.EfiBootManagerGetDriverHealthInfo
                0x000000000000cfbc      0x290 /tmp/UiApp.dll.Q98Kv2.ltrans1.ltrans.o
 .text.BmMatchPartitionDevicePathNode.part.0
                0x000000000000d24c       0xc4 /tmp/UiApp.dll.Q98Kv2.ltrans1.ltrans.o
 .text.BmDelPartMatchInstance
                0x000000000000d310      0x110 /tmp/UiApp.dll.Q98Kv2.ltrans1.ltrans.o
 .text.EfiBootManagerFindLoadOption
                0x000000000000d420       0xc0 /tmp/UiApp.dll.Q98Kv2.ltrans1.ltrans.o
 .text.BmExpandMediaDevicePath
                0x000000000000d4e0      0x308 /tmp/UiApp.dll.Q98Kv2.ltrans1.ltrans.o
 .text.BmRepairNotify
                0x000000000000d7e8       0x6c /tmp/UiApp.dll.Q98Kv2.ltrans1.ltrans.o
 .text.BmGetControllerName
                0x000000000000d854      0x158 /tmp/UiApp.dll.Q98Kv2.ltrans1.ltrans.o
 .text.BmDisplayMessages
                0x000000000000d9ac      0x128 /tmp/UiApp.dll.Q98Kv2.ltrans1.ltrans.o
 .text.BmRepairAllControllers.part.0
                0x000000000000dad4      0x404 /tmp/UiApp.dll.Q98Kv2.ltrans1.ltrans.o
 .text.BmGetBootDescription
                0x000000000000ded8      0x1b8 /tmp/UiApp.dll.Q98Kv2.ltrans1.ltrans.o
 .text.EfiBootManagerIsValidLoadOptionVariableName.part.0
                0x000000000000e090      0x10c /tmp/UiApp.dll.Q98Kv2.ltrans1.ltrans.o
 .text.BmUpdateSystemTableConsole
                0x000000000000e19c      0x1c0 /tmp/UiApp.dll.Q98Kv2.ltrans1.ltrans.o
 .text.BmGetMiscDescription
                0x000000000000e35c      0x2a8 /tmp/UiApp.dll.Q98Kv2.ltrans1.ltrans.o
 .text.BmGetNvmeDescription
                0x000000000000e604      0x250 /tmp/UiApp.dll.Q98Kv2.ltrans1.ltrans.o
 .text.BmGetDescriptionFromDiskInfo
                0x000000000000e854      0x2e4 /tmp/UiApp.dll.Q98Kv2.ltrans1.ltrans.o
 .text.BmIsBootManagerMenuFilePath
                0x000000000000eb38       0x90 /tmp/UiApp.dll.Q98Kv2.ltrans1.ltrans.o
 .text.BmDestroyRamDisk
                0x000000000000ebc8      0x27c /tmp/UiApp.dll.Q98Kv2.ltrans1.ltrans.o
 .text.BmExpandLoadFile
                0x000000000000ee44      0x33c /tmp/UiApp.dll.Q98Kv2.ltrans1.ltrans.o
 .text.BmGetRamDiskDevicePath
                0x000000000000f180       0xfc /tmp/UiApp.dll.Q98Kv2.ltrans1.ltrans.o
 .text.EfiBootManagerConnectConsoleVariable.part.0
                0x000000000000f27c      0x2e8 /tmp/UiApp.dll.Q98Kv2.ltrans1.ltrans.o
 .text.BmCachePartitionDevicePath
                0x000000000000f564       0xcc /tmp/UiApp.dll.Q98Kv2.ltrans1.ltrans.o
 .text.BmAdjustFvFilePath
                0x000000000000f630      0x1a4 /tmp/UiApp.dll.Q98Kv2.ltrans1.ltrans.o
 .text.BmEndOfBdsPerfCode
                0x000000000000f7d4       0x30 /tmp/UiApp.dll.Q98Kv2.ltrans1.ltrans.o
 .text.EfiBootManagerConnectAllDefaultConsoles
                0x000000000000f804      0x150 /tmp/UiApp.dll.Q98Kv2.ltrans1.ltrans.o
 .text.IsMacAddressDevicePath
                0x000000000000f954      0x33c /tmp/UiApp.dll.Q98Kv2.ltrans1.ltrans.o
                0x000000000000f954                IsMacAddressDevicePath
 .text.DmExtractDevicePathFromHiiHandle
                0x000000000000fc90       0xb0 /tmp/UiApp.dll.Q98Kv2.ltrans1.ltrans.o
                0x000000000000fc90                DmExtractDevicePathFromHiiHandle
 .text.LibToLowerString
                0x000000000000fd40       0x2c /tmp/UiApp.dll.Q98Kv2.ltrans1.ltrans.o
                0x000000000000fd40                LibToLowerString
 .text.LibStrDuplicate
                0x000000000000fd6c       0x78 /tmp/UiApp.dll.Q98Kv2.ltrans1.ltrans.o
                0x000000000000fd6c                LibStrDuplicate
 .text.LibDestroyMenuEntry
                0x000000000000fde4       0x78 /tmp/UiApp.dll.Q98Kv2.ltrans1.ltrans.o
                0x000000000000fde4                LibDestroyMenuEntry
 .text.LibFreeMenu
                0x000000000000fe5c       0xa0 /tmp/UiApp.dll.Q98Kv2.ltrans1.ltrans.o
                0x000000000000fe5c                LibFreeMenu
 .text.LibCreateMenuEntry
                0x000000000000fefc       0x58 /tmp/UiApp.dll.Q98Kv2.ltrans1.ltrans.o
                0x000000000000fefc                LibCreateMenuEntry
 .text.EfiBootManagerFreeLoadOption
                0x000000000000ff54       0x54 /tmp/UiApp.dll.Q98Kv2.ltrans1.ltrans.o
                0x000000000000ff54                EfiBootManagerFreeLoadOption
 .text.EfiBootManagerFreeLoadOptions
                0x000000000000ffa8       0x64 /tmp/UiApp.dll.Q98Kv2.ltrans1.ltrans.o
                0x000000000000ffa8                EfiBootManagerFreeLoadOptions
 .text.EfiBootManagerDeleteLoadOptionVariable
                0x000000000001000c      0x188 /tmp/UiApp.dll.Q98Kv2.ltrans1.ltrans.o
                0x000000000001000c                EfiBootManagerDeleteLoadOptionVariable
 .text.EfiBootManagerInitializeLoadOption
                0x0000000000010194       0xe4 /tmp/UiApp.dll.Q98Kv2.ltrans1.ltrans.o
                0x0000000000010194                EfiBootManagerInitializeLoadOption
 .text.EfiBootManagerVariableToLoadOptionEx.part.0
                0x0000000000010278      0x268 /tmp/UiApp.dll.Q98Kv2.ltrans1.ltrans.o
                0x0000000000010278                EfiBootManagerVariableToLoadOptionEx.part.0
 .text.BmHotkeyCallback
                0x00000000000104e0      0x2c0 /tmp/UiApp.dll.Q98Kv2.ltrans1.ltrans.o
 .text.EfiBootManagerLoadOptionToVariable
                0x00000000000107a0      0x278 /tmp/UiApp.dll.Q98Kv2.ltrans1.ltrans.o
                0x00000000000107a0                EfiBootManagerLoadOptionToVariable
 .text.BmGetFreeOptionNumber
                0x0000000000010a18      0x1a4 /tmp/UiApp.dll.Q98Kv2.ltrans1.ltrans.o
                0x0000000000010a18                BmGetFreeOptionNumber
 .text.EfiBootManagerRefreshAllBootOption
                0x0000000000010bbc      0x7d0 /tmp/UiApp.dll.Q98Kv2.ltrans1.ltrans.o
                0x0000000000010bbc                EfiBootManagerRefreshAllBootOption
 .text.EfiBootManagerConnectAll
                0x000000000001138c       0xcc /tmp/UiApp.dll.Q98Kv2.ltrans1.ltrans.o
                0x000000000001138c                EfiBootManagerConnectAll
 .text.BmGetNextLoadOptionDevicePath
                0x0000000000011458      0xd80 /tmp/UiApp.dll.Q98Kv2.ltrans1.ltrans.o
 .text.ReportProgressCodeEnabled
                0x00000000000121d8        0x8 /tmp/UiApp.dll.Q98Kv2.ltrans1.ltrans.o
                0x00000000000121d8                ReportProgressCodeEnabled
                0x00000000000121d8                ReportDebugCodeEnabled
                0x00000000000121d8                ReportErrorCodeEnabled
 .text.BmSetVariableAndReportStatusCodeOnError
                0x00000000000121e0       0xc0 /tmp/UiApp.dll.Q98Kv2.ltrans1.ltrans.o
 .text.BmReportLoadFailure
                0x00000000000122a0       0x5c /tmp/UiApp.dll.Q98Kv2.ltrans1.ltrans.o
 .text.EfiBootManagerBoot
                0x00000000000122fc     0x1264 /tmp/UiApp.dll.Q98Kv2.ltrans1.ltrans.o
                0x00000000000122fc                EfiBootManagerBoot
 .text.HiiGetSupportedLanguages
                0x0000000000013560       0xe8 /tmp/UiApp.dll.Q98Kv2.ltrans1.ltrans.o
                0x0000000000013560                HiiGetSupportedLanguages
 .text.HiiUpdateForm
                0x0000000000013648      0x504 /tmp/UiApp.dll.Q98Kv2.ltrans1.ltrans.o
                0x0000000000013648                HiiUpdateForm
 .text.HiiCreateGotoOpCode
                0x0000000000013b4c       0xa8 /tmp/UiApp.dll.Q98Kv2.ltrans1.ltrans.o
                0x0000000000013b4c                HiiCreateGotoOpCode
 .text.LibUpdateFileExplorePage
                0x0000000000013bf4      0x204 /tmp/UiApp.dll.Q98Kv2.ltrans1.ltrans.o
                0x0000000000013bf4                LibUpdateFileExplorePage
 .text.LibCallback
                0x0000000000013df8      0x514 /tmp/UiApp.dll.Q98Kv2.ltrans1.ltrans.o
                0x0000000000013df8                LibCallback
 .text.EfiEventEmptyFunction
                0x000000000001430c        0x4 /tmp/UiApp.dll.Q98Kv2.ltrans2.ltrans.o
                0x000000000001430c                EfiEventEmptyFunction
 .text.BaseDebugLibSerialPortConstructor
                0x0000000000014310        0x8 /tmp/UiApp.dll.Q98Kv2.ltrans2.ltrans.o
 .text.FakeRouteConfig
                0x0000000000014318       0x24 /tmp/UiApp.dll.Q98Kv2.ltrans2.ltrans.o
                0x0000000000014318                FakeRouteConfig
 .text.FakeExtractConfig
                0x000000000001433c       0x24 /tmp/UiApp.dll.Q98Kv2.ltrans2.ltrans.o
                0x000000000001433c                FakeExtractConfig
 .text.UefiLibGetStringWidth.part.0
                0x0000000000014360       0x84 /tmp/UiApp.dll.Q98Kv2.ltrans2.ltrans.o
                0x0000000000014360                UefiLibGetStringWidth.part.0
 .text.DevicePathFromHandle
                0x00000000000143e4       0x6c /tmp/UiApp.dll.Q98Kv2.ltrans2.ltrans.o
                0x00000000000143e4                DevicePathFromHandle
 .text.AllocateZeroPool
                0x0000000000014450       0x34 /tmp/UiApp.dll.Q98Kv2.ltrans2.ltrans.o
                0x0000000000014450                AllocateZeroPool
 .text.AllocatePool
                0x0000000000014484        0x4 /tmp/UiApp.dll.Q98Kv2.ltrans2.ltrans.o
                0x0000000000014484                AllocatePool
 .text.DebugPrintLevelEnabled
                0x0000000000014488        0x8 /tmp/UiApp.dll.Q98Kv2.ltrans2.ltrans.o
                0x0000000000014488                DebugPrintLevelEnabled
 .text.DebugCodeEnabled
                0x0000000000014490        0x8 /tmp/UiApp.dll.Q98Kv2.ltrans2.ltrans.o
                0x0000000000014490                DebugCodeEnabled
 .text.DebugPrintEnabled
                0x0000000000014498        0x8 /tmp/UiApp.dll.Q98Kv2.ltrans2.ltrans.o
                0x0000000000014498                DebugPrintEnabled
 .text.DebugAssertEnabled
                0x00000000000144a0        0x8 /tmp/UiApp.dll.Q98Kv2.ltrans2.ltrans.o
                0x00000000000144a0                DebugAssertEnabled
 .text.BasePrintLibFillBuffer
                0x00000000000144a8       0x34 /tmp/UiApp.dll.Q98Kv2.ltrans2.ltrans.o
                0x00000000000144a8                BasePrintLibFillBuffer
 .text.AsciiStrLen
                0x00000000000144dc       0x90 /tmp/UiApp.dll.Q98Kv2.ltrans2.ltrans.o
                0x00000000000144dc                AsciiStrLen
 .text.DebugAssert
                0x000000000001456c       0x8c /tmp/UiApp.dll.Q98Kv2.ltrans2.ltrans.o
                0x000000000001456c                DebugAssert
 .text.SetDevicePathNodeLength
                0x00000000000145f8       0x60 /tmp/UiApp.dll.Q98Kv2.ltrans2.ltrans.o
                0x00000000000145f8                SetDevicePathNodeLength
 .text.DevicePathNodeLength
                0x0000000000014658       0x50 /tmp/UiApp.dll.Q98Kv2.ltrans2.ltrans.o
                0x0000000000014658                DevicePathNodeLength
 .text.NextDevicePathNode
                0x00000000000146a8       0x50 /tmp/UiApp.dll.Q98Kv2.ltrans2.ltrans.o
                0x00000000000146a8                NextDevicePathNode
 .text.DevicePathSubType
                0x00000000000146f8       0x48 /tmp/UiApp.dll.Q98Kv2.ltrans2.ltrans.o
                0x00000000000146f8                DevicePathSubType
 .text.DevicePathType
                0x0000000000014740       0x48 /tmp/UiApp.dll.Q98Kv2.ltrans2.ltrans.o
                0x0000000000014740                DevicePathType
 .text.IsDevicePathEndType
                0x0000000000014788       0x58 /tmp/UiApp.dll.Q98Kv2.ltrans2.ltrans.o
                0x0000000000014788                IsDevicePathEndType
 .text.IsDevicePathEnd
                0x00000000000147e0       0x70 /tmp/UiApp.dll.Q98Kv2.ltrans2.ltrans.o
                0x00000000000147e0                IsDevicePathEnd
 .text.IsDevicePathValid
                0x0000000000014850       0xe0 /tmp/UiApp.dll.Q98Kv2.ltrans2.ltrans.o
                0x0000000000014850                IsDevicePathValid
 .text.UefiDevicePathLibGetDevicePathSize
                0x0000000000014930       0x70 /tmp/UiApp.dll.Q98Kv2.ltrans2.ltrans.o
                0x0000000000014930                UefiDevicePathLibGetDevicePathSize
 .text.BasePrintLibValueToString
                0x00000000000149a0       0x2c /tmp/UiApp.dll.Q98Kv2.ltrans2.ltrans.o
                0x00000000000149a0                BasePrintLibValueToString
 .text.SPrintLength
                0x00000000000149cc       0x40 /tmp/UiApp.dll.Q98Kv2.ltrans2.ltrans.o
 .text.UnicodeValueToStringS
                0x0000000000014a0c      0x228 /tmp/UiApp.dll.Q98Kv2.ltrans2.ltrans.o
                0x0000000000014a0c                UnicodeValueToStringS
 .text.UnicodeVSPrint
                0x0000000000014c34       0x74 /tmp/UiApp.dll.Q98Kv2.ltrans2.ltrans.o
                0x0000000000014c34                UnicodeVSPrint
 .text.UnicodeSPrint
                0x0000000000014ca8       0xa4 /tmp/UiApp.dll.Q98Kv2.ltrans2.ltrans.o
                0x0000000000014ca8                UnicodeSPrint
 .text.RShiftU64
                0x0000000000014d4c        0x8 /tmp/UiApp.dll.Q98Kv2.ltrans2.ltrans.o
 .text.DebugPrint
                0x0000000000014d54       0xd0 /tmp/UiApp.dll.Q98Kv2.ltrans2.ltrans.o
                0x0000000000014d54                DebugPrint
 .text.HiiRemovePackages
                0x0000000000014e24       0xb0 /tmp/UiApp.dll.Q98Kv2.ltrans2.ltrans.o
 .text.FreePool
                0x0000000000014ed4       0x7c /tmp/UiApp.dll.Q98Kv2.ltrans2.ltrans.o
                0x0000000000014ed4                FreePool
 .text.HiiFreeOpCodeHandle
                0x0000000000014f50       0x54 /tmp/UiApp.dll.Q98Kv2.ltrans2.ltrans.o
                0x0000000000014f50                HiiFreeOpCodeHandle
 .text.HiiAllocateOpCodeHandle
                0x0000000000014fa4       0x54 /tmp/UiApp.dll.Q98Kv2.ltrans2.ltrans.o
                0x0000000000014fa4                HiiAllocateOpCodeHandle
 .text.GetVariable2
                0x0000000000014ff8      0x164 /tmp/UiApp.dll.Q98Kv2.ltrans2.ltrans.o
                0x0000000000014ff8                GetVariable2
 .text.GetEfiGlobalVariable2
                0x000000000001515c       0x14 /tmp/UiApp.dll.Q98Kv2.ltrans2.ltrans.o
                0x000000000001515c                GetEfiGlobalVariable2
 .text.FreePages
                0x0000000000015170       0xc4 /tmp/UiApp.dll.Q98Kv2.ltrans2.ltrans.o
                0x0000000000015170                FreePages
 .text.GetPcdProtocol
                0x0000000000015234       0xc0 /tmp/UiApp.dll.Q98Kv2.ltrans2.ltrans.o
 .text.UiCustomizeFrontPageBanner
                0x00000000000152f4       0x64 /tmp/UiApp.dll.Q98Kv2.ltrans2.ltrans.o
 .text.AsciiStrSize
                0x0000000000015358       0x18 /tmp/UiApp.dll.Q98Kv2.ltrans2.ltrans.o
 .text.AsciiStrnCmp
                0x0000000000015370       0xd4 /tmp/UiApp.dll.Q98Kv2.ltrans2.ltrans.o
                0x0000000000015370                AsciiStrnCmp
 .text.AsciiStrCmp
                0x0000000000015444       0x88 /tmp/UiApp.dll.Q98Kv2.ltrans2.ltrans.o
 .text.StrLen   0x00000000000154cc       0xa4 /tmp/UiApp.dll.Q98Kv2.ltrans2.ltrans.o
                0x00000000000154cc                StrLen
 .text.StrSize  0x0000000000015570       0x1c /tmp/UiApp.dll.Q98Kv2.ltrans2.ltrans.o
                0x0000000000015570                StrSize
 .text.StrStr   0x000000000001558c       0xac /tmp/UiApp.dll.Q98Kv2.ltrans2.ltrans.o
                0x000000000001558c                StrStr
 .text.StrnCmp  0x0000000000015638       0xd4 /tmp/UiApp.dll.Q98Kv2.ltrans2.ltrans.o
                0x0000000000015638                StrnCmp
 .text.InternalHiiCompareSubString
                0x000000000001570c       0xf8 /tmp/UiApp.dll.Q98Kv2.ltrans2.ltrans.o
                0x000000000001570c                InternalHiiCompareSubString
 .text.StrCmp   0x0000000000015804       0x88 /tmp/UiApp.dll.Q98Kv2.ltrans2.ltrans.o
                0x0000000000015804                StrCmp
 .text.AsciiStrnLenS
                0x000000000001588c       0x3c /tmp/UiApp.dll.Q98Kv2.ltrans2.ltrans.o
                0x000000000001588c                AsciiStrnLenS
 .text.AsciiStrToUnicodeStrS
                0x00000000000158c8      0x218 /tmp/UiApp.dll.Q98Kv2.ltrans2.ltrans.o
                0x00000000000158c8                AsciiStrToUnicodeStrS
 .text.GetOptionalStringByIndex
                0x0000000000015ae0       0xa8 /tmp/UiApp.dll.Q98Kv2.ltrans2.ltrans.o
 .text.StrnLenS
                0x0000000000015b88       0x70 /tmp/UiApp.dll.Q98Kv2.ltrans2.ltrans.o
                0x0000000000015b88                StrnLenS
 .text.InternalSafeStringNoStrOverlap
                0x0000000000015bf8       0x3c /tmp/UiApp.dll.Q98Kv2.ltrans2.ltrans.o
                0x0000000000015bf8                InternalSafeStringNoStrOverlap
 .text.StrCatS  0x0000000000015c34      0x29c /tmp/UiApp.dll.Q98Kv2.ltrans2.ltrans.o
                0x0000000000015c34                StrCatS
 .text.StrnCpyS
                0x0000000000015ed0      0x288 /tmp/UiApp.dll.Q98Kv2.ltrans2.ltrans.o
                0x0000000000015ed0                StrnCpyS
 .text.StrCpyS  0x0000000000016158      0x22c /tmp/UiApp.dll.Q98Kv2.ltrans2.ltrans.o
                0x0000000000016158                StrCpyS
 .text.CopyMem  0x0000000000016384       0xa4 /tmp/UiApp.dll.Q98Kv2.ltrans2.ltrans.o
                0x0000000000016384                CopyMem
 .text.GetBestLanguage
                0x0000000000016428      0x1e0 /tmp/UiApp.dll.Q98Kv2.ltrans2.ltrans.o
                0x0000000000016428                GetBestLanguage
 .text.SetDevicePathEndNode
                0x0000000000016608       0x54 /tmp/UiApp.dll.Q98Kv2.ltrans2.ltrans.o
                0x0000000000016608                SetDevicePathEndNode
 .text.ReallocatePool
                0x000000000001665c       0x70 /tmp/UiApp.dll.Q98Kv2.ltrans2.ltrans.o
                0x000000000001665c                ReallocatePool
 .text.InternalHiiGrowOpCodeHandle
                0x00000000000166cc       0xbc /tmp/UiApp.dll.Q98Kv2.ltrans2.ltrans.o
 .text.InternalHiiAppendOpCodes
                0x0000000000016788       0x8c /tmp/UiApp.dll.Q98Kv2.ltrans2.ltrans.o
                0x0000000000016788                InternalHiiAppendOpCodes
 .text.InternalHiiCreateOpCodeExtended
                0x0000000000016814       0xa4 /tmp/UiApp.dll.Q98Kv2.ltrans2.ltrans.o
                0x0000000000016814                InternalHiiCreateOpCodeExtended
 .text.InternalHiiCreateOpCode
                0x00000000000168b8        0xc /tmp/UiApp.dll.Q98Kv2.ltrans2.ltrans.o
                0x00000000000168b8                InternalHiiCreateOpCode
 .text.HiiCreateOneOfOptionOpCode
                0x00000000000168c4       0xb0 /tmp/UiApp.dll.Q98Kv2.ltrans2.ltrans.o
                0x00000000000168c4                HiiCreateOneOfOptionOpCode
 .text.HiiCreateEndOpCode
                0x0000000000016974       0x54 /tmp/UiApp.dll.Q98Kv2.ltrans2.ltrans.o
                0x0000000000016974                HiiCreateEndOpCode
 .text.HiiGetFormSetFromHiiHandle
                0x00000000000169c8      0x248 /tmp/UiApp.dll.Q98Kv2.ltrans2.ltrans.o
                0x00000000000169c8                HiiGetFormSetFromHiiHandle
 .text.UefiDevicePathLibCatPrint
                0x0000000000016c10      0x184 /tmp/UiApp.dll.Q98Kv2.ltrans2.ltrans.o
                0x0000000000016c10                UefiDevicePathLibCatPrint
 .text.DevPathToTextNodeGeneric
                0x0000000000016d94       0xfc /tmp/UiApp.dll.Q98Kv2.ltrans2.ltrans.o
                0x0000000000016d94                DevPathToTextNodeGeneric
 .text.DevPathToTextEndInstance
                0x0000000000016e90        0xc /tmp/UiApp.dll.Q98Kv2.ltrans2.ltrans.o
                0x0000000000016e90                DevPathToTextEndInstance
 .text.DevPathToTextBBS
                0x0000000000016e9c       0xa0 /tmp/UiApp.dll.Q98Kv2.ltrans2.ltrans.o
                0x0000000000016e9c                DevPathToTextBBS
 .text.DevPathRelativeOffsetRange
                0x0000000000016f3c       0x10 /tmp/UiApp.dll.Q98Kv2.ltrans2.ltrans.o
                0x0000000000016f3c                DevPathRelativeOffsetRange
 .text.DevPathToTextFvFile
                0x0000000000016f4c       0x10 /tmp/UiApp.dll.Q98Kv2.ltrans2.ltrans.o
                0x0000000000016f4c                DevPathToTextFvFile
 .text.DevPathToTextFv
                0x0000000000016f5c       0x10 /tmp/UiApp.dll.Q98Kv2.ltrans2.ltrans.o
                0x0000000000016f5c                DevPathToTextFv
 .text.DevPathToTextMediaProtocol
                0x0000000000016f6c       0x10 /tmp/UiApp.dll.Q98Kv2.ltrans2.ltrans.o
                0x0000000000016f6c                DevPathToTextMediaProtocol
 .text.DevPathToTextFilePath
                0x0000000000016f7c       0x10 /tmp/UiApp.dll.Q98Kv2.ltrans2.ltrans.o
                0x0000000000016f7c                DevPathToTextFilePath
 .text.DevPathToTextCDROM
                0x0000000000016f8c       0x30 /tmp/UiApp.dll.Q98Kv2.ltrans2.ltrans.o
                0x0000000000016f8c                DevPathToTextCDROM
 .text.DevPathToTextHardDrive
                0x0000000000016fbc       0x8c /tmp/UiApp.dll.Q98Kv2.ltrans2.ltrans.o
                0x0000000000016fbc                DevPathToTextHardDrive
 .text.DevPathToTextUri
                0x0000000000017048       0x94 /tmp/UiApp.dll.Q98Kv2.ltrans2.ltrans.o
                0x0000000000017048                DevPathToTextUri
 .text.DevPathToTextBluetoothLE
                0x00000000000170dc       0x44 /tmp/UiApp.dll.Q98Kv2.ltrans2.ltrans.o
                0x00000000000170dc                DevPathToTextBluetoothLE
 .text.DevPathToTextWiFi
                0x0000000000017120       0x70 /tmp/UiApp.dll.Q98Kv2.ltrans2.ltrans.o
                0x0000000000017120                DevPathToTextWiFi
 .text.DevPathToTextBluetooth
                0x0000000000017190       0x24 /tmp/UiApp.dll.Q98Kv2.ltrans2.ltrans.o
                0x0000000000017190                DevPathToTextBluetooth
 .text.DevPathToTextVlan
                0x00000000000171b4       0x10 /tmp/UiApp.dll.Q98Kv2.ltrans2.ltrans.o
                0x00000000000171b4                DevPathToTextVlan
 .text.DevPathToTextiSCSI
                0x00000000000171c4      0x10c /tmp/UiApp.dll.Q98Kv2.ltrans2.ltrans.o
                0x00000000000171c4                DevPathToTextiSCSI
 .text.DevPathToTextUart
                0x00000000000172d0      0x118 /tmp/UiApp.dll.Q98Kv2.ltrans2.ltrans.o
                0x00000000000172d0                DevPathToTextUart
 .text.DevPathToTextInfiniBand
                0x00000000000173e8       0x1c /tmp/UiApp.dll.Q98Kv2.ltrans2.ltrans.o
                0x00000000000173e8                DevPathToTextInfiniBand
 .text.CatIPv6Address
                0x0000000000017404       0x8c /tmp/UiApp.dll.Q98Kv2.ltrans2.ltrans.o
 .text.CatIPv4Address
                0x0000000000017490       0x1c /tmp/UiApp.dll.Q98Kv2.ltrans2.ltrans.o
 .text.DevPathToTextDns
                0x00000000000174ac       0xc0 /tmp/UiApp.dll.Q98Kv2.ltrans2.ltrans.o
                0x00000000000174ac                DevPathToTextDns
 .text.CatNetworkProtocol
                0x000000000001756c       0x38 /tmp/UiApp.dll.Q98Kv2.ltrans2.ltrans.o
 .text.DevPathToTextIPv6
                0x00000000000175a4       0xe8 /tmp/UiApp.dll.Q98Kv2.ltrans2.ltrans.o
                0x00000000000175a4                DevPathToTextIPv6
 .text.DevPathToTextIPv4
                0x000000000001768c       0xf0 /tmp/UiApp.dll.Q98Kv2.ltrans2.ltrans.o
                0x000000000001768c                DevPathToTextIPv4
 .text.DevPathToTextMacAddr
                0x000000000001777c       0x8c /tmp/UiApp.dll.Q98Kv2.ltrans2.ltrans.o
                0x000000000001777c                DevPathToTextMacAddr
 .text.DevPathToTextI2O
                0x0000000000017808       0x10 /tmp/UiApp.dll.Q98Kv2.ltrans2.ltrans.o
                0x0000000000017808                DevPathToTextI2O
 .text.DevPathToTextSata
                0x0000000000017818       0x18 /tmp/UiApp.dll.Q98Kv2.ltrans2.ltrans.o
                0x0000000000017818                DevPathToTextSata
 .text.DevPathToTextUsbClass
                0x0000000000017830      0x194 /tmp/UiApp.dll.Q98Kv2.ltrans2.ltrans.o
                0x0000000000017830                DevPathToTextUsbClass
 .text.DevPathToTextLogicalUnit
                0x00000000000179c4       0x10 /tmp/UiApp.dll.Q98Kv2.ltrans2.ltrans.o
                0x00000000000179c4                DevPathToTextLogicalUnit
 .text.DevPathToTextUsb
                0x00000000000179d4       0x14 /tmp/UiApp.dll.Q98Kv2.ltrans2.ltrans.o
                0x00000000000179d4                DevPathToTextUsb
 .text.DevPathToText1394
                0x00000000000179e8       0x10 /tmp/UiApp.dll.Q98Kv2.ltrans2.ltrans.o
                0x00000000000179e8                DevPathToText1394
 .text.DevPathToTextEmmc
                0x00000000000179f8       0x10 /tmp/UiApp.dll.Q98Kv2.ltrans2.ltrans.o
                0x00000000000179f8                DevPathToTextEmmc
 .text.DevPathToTextSd
                0x0000000000017a08       0x10 /tmp/UiApp.dll.Q98Kv2.ltrans2.ltrans.o
                0x0000000000017a08                DevPathToTextSd
 .text.DevPathToTextUfs
                0x0000000000017a18       0x14 /tmp/UiApp.dll.Q98Kv2.ltrans2.ltrans.o
                0x0000000000017a18                DevPathToTextUfs
 .text.DevPathToTextNVMe
                0x0000000000017a2c       0x54 /tmp/UiApp.dll.Q98Kv2.ltrans2.ltrans.o
                0x0000000000017a2c                DevPathToTextNVMe
 .text.DevPathToTextSasEx
                0x0000000000017a80      0x18c /tmp/UiApp.dll.Q98Kv2.ltrans2.ltrans.o
                0x0000000000017a80                DevPathToTextSasEx
 .text.DevPathToTextFibreEx
                0x0000000000017c0c       0xa8 /tmp/UiApp.dll.Q98Kv2.ltrans2.ltrans.o
                0x0000000000017c0c                DevPathToTextFibreEx
 .text.DevPathToTextFibre
                0x0000000000017cb4       0x10 /tmp/UiApp.dll.Q98Kv2.ltrans2.ltrans.o
                0x0000000000017cb4                DevPathToTextFibre
 .text.DevPathToTextScsi
                0x0000000000017cc4       0x14 /tmp/UiApp.dll.Q98Kv2.ltrans2.ltrans.o
                0x0000000000017cc4                DevPathToTextScsi
 .text.DevPathToTextAtapi
                0x0000000000017cd8       0x60 /tmp/UiApp.dll.Q98Kv2.ltrans2.ltrans.o
                0x0000000000017cd8                DevPathToTextAtapi
 .text.DevPathToTextAcpiAdr
                0x0000000000017d38       0x9c /tmp/UiApp.dll.Q98Kv2.ltrans2.ltrans.o
                0x0000000000017d38                DevPathToTextAcpiAdr
 .text.DevPathToTextAcpiEx
                0x0000000000017dd4      0x28c /tmp/UiApp.dll.Q98Kv2.ltrans2.ltrans.o
                0x0000000000017dd4                DevPathToTextAcpiEx
 .text.DevPathToTextAcpi
                0x0000000000018060       0xc0 /tmp/UiApp.dll.Q98Kv2.ltrans2.ltrans.o
                0x0000000000018060                DevPathToTextAcpi
 .text.DevPathToTextBmc
                0x0000000000018120       0x3c /tmp/UiApp.dll.Q98Kv2.ltrans2.ltrans.o
                0x0000000000018120                DevPathToTextBmc
 .text.DevPathToTextController
                0x000000000001815c       0x10 /tmp/UiApp.dll.Q98Kv2.ltrans2.ltrans.o
                0x000000000001815c                DevPathToTextController
 .text.DevPathToTextMemMap
                0x000000000001816c       0x14 /tmp/UiApp.dll.Q98Kv2.ltrans2.ltrans.o
                0x000000000001816c                DevPathToTextMemMap
 .text.DevPathToTextPccard
                0x0000000000018180       0x10 /tmp/UiApp.dll.Q98Kv2.ltrans2.ltrans.o
                0x0000000000018180                DevPathToTextPccard
 .text.DevPathToTextPci
                0x0000000000018190       0x14 /tmp/UiApp.dll.Q98Kv2.ltrans2.ltrans.o
                0x0000000000018190                DevPathToTextPci
 .text.AllocateCopyPool
                0x00000000000181a4       0x8c /tmp/UiApp.dll.Q98Kv2.ltrans2.ltrans.o
                0x00000000000181a4                AllocateCopyPool
 .text.DevPathToTextUsbWWID
                0x0000000000018230       0xb4 /tmp/UiApp.dll.Q98Kv2.ltrans2.ltrans.o
                0x0000000000018230                DevPathToTextUsbWWID
 .text.UefiDevicePathLibDuplicateDevicePath
                0x00000000000182e4       0x34 /tmp/UiApp.dll.Q98Kv2.ltrans2.ltrans.o
                0x00000000000182e4                UefiDevicePathLibDuplicateDevicePath
 .text.UefiDevicePathLibGetNextDevicePathInstance
                0x0000000000018318       0xd0 /tmp/UiApp.dll.Q98Kv2.ltrans2.ltrans.o
                0x0000000000018318                UefiDevicePathLibGetNextDevicePathInstance
 .text.UefiDevicePathLibAppendDevicePathInstance
                0x00000000000183e8       0xec /tmp/UiApp.dll.Q98Kv2.ltrans2.ltrans.o
                0x00000000000183e8                UefiDevicePathLibAppendDevicePathInstance
 .text.UefiDevicePathLibAppendDevicePath
                0x00000000000184d4       0xcc /tmp/UiApp.dll.Q98Kv2.ltrans2.ltrans.o
                0x00000000000184d4                UefiDevicePathLibAppendDevicePath
 .text.FileDevicePath
                0x00000000000185a0       0xa0 /tmp/UiApp.dll.Q98Kv2.ltrans2.ltrans.o
                0x00000000000185a0                FileDevicePath
 .text.UefiDevicePathLibAppendDevicePathNode
                0x0000000000018640       0x9c /tmp/UiApp.dll.Q98Kv2.ltrans2.ltrans.o
                0x0000000000018640                UefiDevicePathLibAppendDevicePathNode
 .text.GetNextLanguage
                0x00000000000186dc       0xcc /tmp/UiApp.dll.Q98Kv2.ltrans2.ltrans.o
 .text.FrontPageCallback
                0x00000000000187a8      0x1f8 /tmp/UiApp.dll.Q98Kv2.ltrans2.ltrans.o
 .text.CompareGuid
                0x00000000000189a0       0x60 /tmp/UiApp.dll.Q98Kv2.ltrans2.ltrans.o
                0x00000000000189a0                CompareGuid
 .text.EfiGetSystemConfigurationTable
                0x0000000000018a00       0x94 /tmp/UiApp.dll.Q98Kv2.ltrans2.ltrans.o
                0x0000000000018a00                EfiGetSystemConfigurationTable
 .text.GetHobList
                0x0000000000018a94       0xb4 /tmp/UiApp.dll.Q98Kv2.ltrans2.ltrans.o
                0x0000000000018a94                GetHobList
 .text.DevPathToTextRamDisk
                0x0000000000018b48      0x1a8 /tmp/UiApp.dll.Q98Kv2.ltrans2.ltrans.o
                0x0000000000018b48                DevPathToTextRamDisk
 .text.DevPathToTextVendor
                0x0000000000018cf0      0x354 /tmp/UiApp.dll.Q98Kv2.ltrans2.ltrans.o
                0x0000000000018cf0                DevPathToTextVendor
 .text.CopyGuid
                0x0000000000019044       0x64 /tmp/UiApp.dll.Q98Kv2.ltrans2.ltrans.o
                0x0000000000019044                CopyGuid
 .text.HiiAddPackages
                0x00000000000190a8      0x1c8 /tmp/UiApp.dll.Q98Kv2.ltrans2.ltrans.o
 .text.LibPcdSet32S
                0x0000000000019270       0x34 /tmp/UiApp.dll.Q98Kv2.ltrans2.ltrans.o
                0x0000000000019270                LibPcdSet32S
 .text.UiSetConsoleMode
                0x00000000000192a4      0x604 /tmp/UiApp.dll.Q98Kv2.ltrans2.ltrans.o
 .text.LibPcdGet32
                0x00000000000198a8       0x2c /tmp/UiApp.dll.Q98Kv2.ltrans2.ltrans.o
                0x00000000000198a8                LibPcdGet32
 .text.memcpy   0x00000000000198d4       0x20 /tmp/UiApp.dll.Q98Kv2.ltrans2.ltrans.o
                0x00000000000198d4                memcpy
 .text.__stack_chk_fail
                0x00000000000198f4       0x48 /tmp/UiApp.dll.Q98Kv2.ltrans2.ltrans.o
                0x00000000000198f4                __stack_chk_fail
 .text.ProcessLibraryConstructorList
                0x000000000001993c     0x17f0 /tmp/UiApp.dll.Q98Kv2.ltrans2.ltrans.o
 .text._ModuleEntryPoint
                0x000000000001b12c     0x15ec /tmp/UiApp.dll.Q98Kv2.ltrans2.ltrans.o
                0x000000000001b12c                _ModuleEntryPoint
 *fill*         0x000000000001c718        0x8 
 .text          0x000000000001c720      0x218 /home/alastair/pftf-rpi4/Build/RPi4/DEBUG_GCC5/AARCH64/MdePkg/Library/BaseMemoryLibOptDxe/BaseMemoryLibOptDxe/OUTPUT/BaseMemoryLibOptDxe.lib(CopyMem.obj)
                0x000000000001c88c                InternalMemCopyMem
 *fill*         0x000000000001c938        0x8 
 .text          0x000000000001c940       0x20 /home/alastair/pftf-rpi4/Build/RPi4/DEBUG_GCC5/AARCH64/MdePkg/Library/BaseMemoryLibOptDxe/BaseMemoryLibOptDxe/OUTPUT/BaseMemoryLibOptDxe.lib(CompareGuid.obj)
                0x000000000001c940                InternalMemCompareGuid
 .text          0x000000000001c960      0x200 /home/alastair/pftf-rpi4/Build/RPi4/DEBUG_GCC5/AARCH64/MdePkg/Library/BaseMemoryLibOptDxe/BaseMemoryLibOptDxe/OUTPUT/BaseMemoryLibOptDxe.lib(SetMem.obj)
                0x000000000001c960                InternalMemSetMem16
                0x000000000001c96c                InternalMemSetMem32
                0x000000000001c978                InternalMemSetMem64
                0x000000000001c984                InternalMemZeroMem
                0x000000000001c98c                InternalMemSetMem
 *fill*         0x000000000001cb60       0x20 
 .text          0x000000000001cb80       0xe0 /home/alastair/pftf-rpi4/Build/RPi4/DEBUG_GCC5/AARCH64/MdePkg/Library/BaseMemoryLibOptDxe/BaseMemoryLibOptDxe/OUTPUT/BaseMemoryLibOptDxe.lib(CompareMem.obj)
                0x000000000001cb80                InternalMemCompareMem
 *(.rodata .rodata.* .gnu.linkonce.r.*)
 .rodata.InternalBaseLibIsListValid.str1.1
                0x000000000001cc60       0x83 /tmp/UiApp.dll.Q98Kv2.ltrans0.ltrans.o
                                         0x98 (size before relaxing)
 *fill*         0x000000000001cce3        0x1 
 .rodata.BOpt_DestroyMenuEntry
                0x000000000001cce4        0x6 /tmp/UiApp.dll.Q98Kv2.ltrans0.ltrans.o
 .rodata.BOpt_GetOptionNumber.str2.2
                0x000000000001ccea       0x1e /tmp/UiApp.dll.Q98Kv2.ltrans0.ltrans.o
 .rodata.BOpt_GetOptionNumber.str1.1
                0x000000000001cd08        0xd /tmp/UiApp.dll.Q98Kv2.ltrans0.ltrans.o
 *fill*         0x000000000001cd15        0x1 
 .rodata.StrnCatS.constprop.0.str2.2
                0x000000000001cd16        0x8 /tmp/UiApp.dll.Q98Kv2.ltrans0.ltrans.o
 .rodata.StrnCatS.constprop.0.str1.1
                0x000000000001cd1e      0x114 /tmp/UiApp.dll.Q98Kv2.ltrans0.ltrans.o
 .rodata.HiiConstructConfigHdr.constprop.0.str2.2
                0x000000000001ce32       0x28 /tmp/UiApp.dll.Q98Kv2.ltrans0.ltrans.o
 .rodata.HiiIsConfigHdrMatch.constprop.0.str1.1
                0x000000000001ce5a       0x61 /tmp/UiApp.dll.Q98Kv2.ltrans0.ltrans.o
 .rodata.SetMem.constprop.0.str1.1
                0x000000000001cebb       0x89 /tmp/UiApp.dll.Q98Kv2.ltrans0.ltrans.o
 .rodata.SetMem16.str1.1
                0x000000000001cf44       0x81 /tmp/UiApp.dll.Q98Kv2.ltrans0.ltrans.o
                                         0x98 (size before relaxing)
 .rodata.BmmSetConsoleMode.str1.1
                0x000000000001cfc5       0x96 /tmp/UiApp.dll.Q98Kv2.ltrans0.ltrans.o
 .rodata.BmSetConsoleMode.str1.1
                0x000000000001d05b       0x52 /tmp/UiApp.dll.Q98Kv2.ltrans0.ltrans.o
 .rodata.BootMaintExtractConfig.str1.1
                0x000000000001d0ad       0x33 /tmp/UiApp.dll.Q98Kv2.ltrans0.ltrans.o
 .rodata.BootMaintExtractConfig.str2.2
                0x000000000001d0e0       0x40 /tmp/UiApp.dll.Q98Kv2.ltrans0.ltrans.o
 .rodata.CreatePopUp.constprop.0.str1.1
                0x000000000001d120       0x90 /tmp/UiApp.dll.Q98Kv2.ltrans0.ltrans.o
 .rodata.CreatePopUp.constprop.0.str2.2
                0x000000000001d1b0        0x8 /tmp/UiApp.dll.Q98Kv2.ltrans0.ltrans.o
 .rodata.HiiSetString.constprop.0.str1.1
                0x000000000001d1b8       0x51 /tmp/UiApp.dll.Q98Kv2.ltrans0.ltrans.o
                                         0x82 (size before relaxing)
 .rodata.HiiGetString.constprop.0.str1.1
                0x000000000001d209        0xe /tmp/UiApp.dll.Q98Kv2.ltrans0.ltrans.o
                                          0xf (size before relaxing)
 *fill*         0x000000000001d217        0x1 
 .rodata.HiiGetString.constprop.0.str2.2
                0x000000000001d218       0x1a /tmp/UiApp.dll.Q98Kv2.ltrans0.ltrans.o
 .rodata.EfiBootManagerAddLoadOptionVariable.constprop.0.str1.1
                0x000000000001d232       0xe3 /tmp/UiApp.dll.Q98Kv2.ltrans0.ltrans.o
 *fill*         0x000000000001d315        0x1 
 .rodata.EfiBootManagerGetLoadOptions.part.0.constprop.0.str2.2
                0x000000000001d316       0x1e /tmp/UiApp.dll.Q98Kv2.ltrans0.ltrans.o
 .rodata.EfiBootManagerGetLoadOptions.part.0.constprop.0.str1.1
                0x000000000001d334       0x7f /tmp/UiApp.dll.Q98Kv2.ltrans0.ltrans.o
                                         0x97 (size before relaxing)
 .rodata.EfiAcquireLock.constprop.0.str1.1
                0x000000000001d3b3       0x5d /tmp/UiApp.dll.Q98Kv2.ltrans0.ltrans.o
 .rodata.EfiReleaseLock.constprop.0.str1.1
                0x000000000001d410       0x1e /tmp/UiApp.dll.Q98Kv2.ltrans0.ltrans.o
 .rodata.IsZeroBuffer.constprop.0.str1.1
                0x000000000001d42e       0x57 /tmp/UiApp.dll.Q98Kv2.ltrans0.ltrans.o
 .rodata.GetPerformanceMeasurementProtocol.str1.1
                0x000000000001d485       0x80 /tmp/UiApp.dll.Q98Kv2.ltrans0.ltrans.o
 .rodata.LogPerformanceMeasurement.constprop.0.str1.1
                0x000000000001d505       0x12 /tmp/UiApp.dll.Q98Kv2.ltrans0.ltrans.o
 .rodata.EndPerformanceMeasurementEx.constprop.0.str1.1
                0x000000000001d517        0xb /tmp/UiApp.dll.Q98Kv2.ltrans0.ltrans.o
 .rodata.EfiGetNameGuidFromFwVolDevicePathNode.str1.1
                0x000000000001d522       0x65 /tmp/UiApp.dll.Q98Kv2.ltrans0.ltrans.o
 .rodata.Print.str1.1
                0x000000000001d587       0x5c /tmp/UiApp.dll.Q98Kv2.ltrans0.ltrans.o
 .rodata.WriteUnaligned16.str1.1
                0x000000000001d5e3       0x45 /tmp/UiApp.dll.Q98Kv2.ltrans0.ltrans.o
 .rodata.BasePrintLibSPrintMarker.constprop.0.str1.1
                0x000000000001d628      0x28d /tmp/UiApp.dll.Q98Kv2.ltrans0.ltrans.o
 *fill*         0x000000000001d8b5        0x3 
 .rodata.BasePrintLibSPrintMarker.constprop.0
                0x000000000001d8b8       0x5e /tmp/UiApp.dll.Q98Kv2.ltrans0.ltrans.o
 .rodata.AsciiSPrint.constprop.0.str1.1
                0x000000000001d916       0x18 /tmp/UiApp.dll.Q98Kv2.ltrans0.ltrans.o
 .rodata.IsNull.str1.1
                0x000000000001d92e       0x22 /tmp/UiApp.dll.Q98Kv2.ltrans0.ltrans.o
 .rodata.IsListEmpty.str1.1
                0x000000000001d950       0x26 /tmp/UiApp.dll.Q98Kv2.ltrans0.ltrans.o
 .rodata.RemoveEntryList.str1.1
                0x000000000001d976       0x15 /tmp/UiApp.dll.Q98Kv2.ltrans0.ltrans.o
 *fill*         0x000000000001d98b        0x1 
 .rodata.ChooseFile.constprop.0.str2.2
                0x000000000001d98c       0x68 /tmp/UiApp.dll.Q98Kv2.ltrans0.ltrans.o
 .rodata.ChooseFile.constprop.0.str1.1
                0x000000000001d9f4       0xc0 /tmp/UiApp.dll.Q98Kv2.ltrans0.ltrans.o
 .rodata.InitializeListHead.str1.1
                0x000000000001dab4       0x19 /tmp/UiApp.dll.Q98Kv2.ltrans0.ltrans.o
 .rodata.CompareMem.str1.1
                0x000000000001dacd      0x115 /tmp/UiApp.dll.Q98Kv2.ltrans0.ltrans.o
 .rodata.BootDescriptionHandler.lto_priv.0.str2.2
                0x000000000001dbe2       0x62 /tmp/UiApp.dll.Q98Kv2.ltrans0.ltrans.o
 .rodata.ZeroMem.str1.1
                0x000000000001dc44       0x88 /tmp/UiApp.dll.Q98Kv2.ltrans0.ltrans.o
 .rodata.UefiDevicePathLibConvertDevicePathToText.constprop.0.str2.2
                0x000000000001dccc        0x4 /tmp/UiApp.dll.Q98Kv2.ltrans0.ltrans.o
 .rodata.HiiCreateOneOfOpCode.constprop.0.str1.1
                0x000000000001dcd0       0x24 /tmp/UiApp.dll.Q98Kv2.ltrans0.ltrans.o
 .rodata.BootManagerCallback.str2.2
                0x000000000001dcf4       0xb6 /tmp/UiApp.dll.Q98Kv2.ltrans0.ltrans.o
 .rodata.BootManagerCallback.str1.1
                0x000000000001ddaa      0x140 /tmp/UiApp.dll.Q98Kv2.ltrans0.ltrans.o
                                        0x182 (size before relaxing)
 .rodata.BOpt_FreeMenu.str1.1
                0x000000000001deea       0x5c /tmp/UiApp.dll.Q98Kv2.ltrans0.ltrans.o
 .rodata.BOpt_GetMenuEntry.str1.1
                0x000000000001df46       0x24 /tmp/UiApp.dll.Q98Kv2.ltrans0.ltrans.o
 .rodata.UpdateConsolePage.str1.1
                0x000000000001df6a       0x85 /tmp/UiApp.dll.Q98Kv2.ltrans0.ltrans.o
 .rodata.Var_UpdateConsoleOption.str1.1
                0x000000000001dfef       0xdf /tmp/UiApp.dll.Q98Kv2.ltrans0.ltrans.o
 .rodata.GetDriverOrder.str1.1
                0x000000000001e0ce       0x1d /tmp/UiApp.dll.Q98Kv2.ltrans0.ltrans.o
 .rodata.UpdateOrderPage.str1.1
                0x000000000001e0eb       0x1d /tmp/UiApp.dll.Q98Kv2.ltrans0.ltrans.o
                                         0x1c (size before relaxing)
 *fill*         0x000000000001e0eb        0x1 
 .rodata.UpdatePageBody
                0x000000000001e0ec        0x8 /tmp/UiApp.dll.Q98Kv2.ltrans0.ltrans.o
 .rodata.UpdateConsoleContent.str2.2
                0x000000000001e0f4       0x28 /tmp/UiApp.dll.Q98Kv2.ltrans0.ltrans.o
 .rodata.UpdateConsoleContent.str1.1
                0x000000000001e11c       0x78 /tmp/UiApp.dll.Q98Kv2.ltrans0.ltrans.o
 .rodata.BOpt_CreateMenuEntry
                0x000000000001e194        0x6 /tmp/UiApp.dll.Q98Kv2.ltrans0.ltrans.o
 .rodata.GetConsoleMenu.str2.2
                0x000000000001e19a       0x3a /tmp/UiApp.dll.Q98Kv2.ltrans0.ltrans.o
 .rodata.GetConsoleMenu.str1.1
                0x000000000001e1d4       0x8d /tmp/UiApp.dll.Q98Kv2.ltrans0.ltrans.o
 *fill*         0x000000000001e261        0x1 
 .rodata.BOpt_GetDriverOptions.str2.2
                0x000000000001e262       0x2e /tmp/UiApp.dll.Q98Kv2.ltrans0.ltrans.o
 .rodata.BOpt_GetDriverOptions.str1.1
                0x000000000001e290       0x86 /tmp/UiApp.dll.Q98Kv2.ltrans0.ltrans.o
 .rodata.BOpt_GetBootOptions.str2.2
                0x000000000001e316       0x12 /tmp/UiApp.dll.Q98Kv2.ltrans0.ltrans.o
 .rodata.BOpt_GetBootOptions.str1.1
                0x000000000001e328       0x1d /tmp/UiApp.dll.Q98Kv2.ltrans0.ltrans.o
 .rodata.BootMaintCallback.str1.1
                0x000000000001e345      0x464 /tmp/UiApp.dll.Q98Kv2.ltrans0.ltrans.o
                                        0x47b (size before relaxing)
 *fill*         0x000000000001e7a9        0x1 
 .rodata.BootMaintCallback.str2.2
                0x000000000001e7aa        0xc /tmp/UiApp.dll.Q98Kv2.ltrans0.ltrans.o
 *fill*         0x000000000001e7b6        0x2 
 .rodata.BootMaintCallback
                0x000000000001e7b8       0x50 /tmp/UiApp.dll.Q98Kv2.ltrans0.ltrans.o
 .rodata.BootMaintRouteConfig.str1.1
                0x000000000001e808      0x122 /tmp/UiApp.dll.Q98Kv2.ltrans0.ltrans.o
 .rodata.BootMaintRouteConfig.str2.2
                0x000000000001e92a       0x4a /tmp/UiApp.dll.Q98Kv2.ltrans0.ltrans.o
 .rodata.ExtractFileNameFromDevicePath.str1.1
                0x000000000001e974      0x122 /tmp/UiApp.dll.Q98Kv2.ltrans0.ltrans.o
                                         0x1b (size before relaxing)
 .rodata.CreateDeviceManagerForm.str2.2
                0x000000000001e974        0xc /tmp/UiApp.dll.Q98Kv2.ltrans0.ltrans.o
 .rodata.CreateDeviceManagerForm.str1.1
                0x000000000001e980       0x56 /tmp/UiApp.dll.Q98Kv2.ltrans0.ltrans.o
 .rodata.str2.2
                0x000000000001e9d6      0x14c /tmp/UiApp.dll.Q98Kv2.ltrans0.ltrans.o
 *fill*         0x000000000001eb22        0x6 
 .rodata.BaudRateList
                0x000000000001eb28      0x130 /tmp/UiApp.dll.Q98Kv2.ltrans0.ltrans.o
                0x000000000001eb28                BaudRateList
 .rodata.DataBitsList
                0x000000000001ec58       0x40 /tmp/UiApp.dll.Q98Kv2.ltrans0.ltrans.o
                0x000000000001ec58                DataBitsList
 .rodata.ParityList
                0x000000000001ec98       0x50 /tmp/UiApp.dll.Q98Kv2.ltrans0.ltrans.o
                0x000000000001ec98                ParityList
 .rodata.StopBitsList
                0x000000000001ece8       0x30 /tmp/UiApp.dll.Q98Kv2.ltrans0.ltrans.o
                0x000000000001ece8                StopBitsList
 .rodata.TerminalType
                0x000000000001ed18       0x12 /tmp/UiApp.dll.Q98Kv2.ltrans0.ltrans.o
 .rodata.__FUNCTION__.1977
                0x000000000001ed2a        0x9 /tmp/UiApp.dll.Q98Kv2.ltrans0.ltrans.o
 .rodata._gPcd_FixedAtBuild_PcdDriverHealthConfigureForm
                0x000000000001ed33       0x10 /tmp/UiApp.dll.Q98Kv2.ltrans0.ltrans.o
                0x000000000001ed33                _gPcd_FixedAtBuild_PcdDriverHealthConfigureForm
 *fill*         0x000000000001ed43        0x5 
 .rodata.mBmLoadOptionName
                0x000000000001ed48       0x20 /tmp/UiApp.dll.Q98Kv2.ltrans0.ltrans.o
                0x000000000001ed48                mBmLoadOptionName
 .rodata.mBmLoadOptionOrderName
                0x000000000001ed68       0x20 /tmp/UiApp.dll.Q98Kv2.ltrans0.ltrans.o
                0x000000000001ed68                mBmLoadOptionOrderName
 .rodata.mConfigHdrTemplate
                0x000000000001ed88       0x70 /tmp/UiApp.dll.Q98Kv2.ltrans0.ltrans.o
 .rodata.mDeviceTypeStr
                0x000000000001edf8       0x40 /tmp/UiApp.dll.Q98Kv2.ltrans0.ltrans.o
 .rodata.mErrorString
                0x000000000001ee38      0x2b5 /tmp/UiApp.dll.Q98Kv2.ltrans0.ltrans.o
 *fill*         0x000000000001f0ed        0x3 
 .rodata.mUefiDevicePathLibToTextTable
                0x000000000001f0f0      0x320 /tmp/UiApp.dll.Q98Kv2.ltrans0.ltrans.o
 .rodata.mWarningString
                0x000000000001f410       0x96 /tmp/UiApp.dll.Q98Kv2.ltrans0.ltrans.o
 .rodata.LibGetMenuEntry.str1.1
                0x000000000001f4a6       0x8b /tmp/UiApp.dll.Q98Kv2.ltrans1.ltrans.o
 .rodata.EfiBootManagerConnectDevicePath.str1.1
                0x000000000001f4a6       0xa1 /tmp/UiApp.dll.Q98Kv2.ltrans1.ltrans.o
 .rodata.LibAppendFileName.str1.1
                0x000000000001f547       0x17 /tmp/UiApp.dll.Q98Kv2.ltrans1.ltrans.o
                                         0x2b (size before relaxing)
 .rodata.LibAppendFileName.str2.2
                0x000000000001f55e        0x4 /tmp/UiApp.dll.Q98Kv2.ltrans1.ltrans.o
 .rodata.BmGetUsbDescription.str1.1
                0x000000000001f55e       0x5a /tmp/UiApp.dll.Q98Kv2.ltrans1.ltrans.o
                                         0x76 (size before relaxing)
 .rodata.BmGetUsbDescription.str2.2
                0x000000000001f5b8      0x14c /tmp/UiApp.dll.Q98Kv2.ltrans1.ltrans.o
                                          0x4 (size before relaxing)
 .rodata.BmGetNetworkDescription.str2.2
                0x000000000001f5b8       0xb4 /tmp/UiApp.dll.Q98Kv2.ltrans1.ltrans.o
 .rodata.BmPrintDp.str1.1
                0x000000000001f66c        0x3 /tmp/UiApp.dll.Q98Kv2.ltrans1.ltrans.o
 .rodata.BmGetSingleControllerHealthStatus.str1.1
                0x000000000001f66f       0x9c /tmp/UiApp.dll.Q98Kv2.ltrans1.ltrans.o
                                         0xd1 (size before relaxing)
 .rodata.EfiBootManagerGetDriverHealthInfo.str1.1
                0x000000000001f70b       0x24 /tmp/UiApp.dll.Q98Kv2.ltrans1.ltrans.o
 .rodata.BmExpandMediaDevicePath.str1.1
                0x000000000001f72f       0x70 /tmp/UiApp.dll.Q98Kv2.ltrans1.ltrans.o
 *fill*         0x000000000001f79f        0x1 
 .rodata.BmExpandMediaDevicePath.str2.2
                0x000000000001f7a0       0x2e /tmp/UiApp.dll.Q98Kv2.ltrans1.ltrans.o
 .rodata.BmRepairNotify.str1.1
                0x000000000001f7ce       0x1a /tmp/UiApp.dll.Q98Kv2.ltrans1.ltrans.o
 .rodata.BmRepairNotify.str2.2
                0x000000000001f7e8       0x34 /tmp/UiApp.dll.Q98Kv2.ltrans1.ltrans.o
 .rodata.BmGetControllerName.str2.2
                0x000000000001f81c       0x34 /tmp/UiApp.dll.Q98Kv2.ltrans1.ltrans.o
                                         0x24 (size before relaxing)
 .rodata.BmGetControllerName.str1.1
                0x000000000001f81c        0xa /tmp/UiApp.dll.Q98Kv2.ltrans1.ltrans.o
                                          0xb (size before relaxing)
 .rodata.BmDisplayMessages.str1.1
                0x000000000001f826       0x16 /tmp/UiApp.dll.Q98Kv2.ltrans1.ltrans.o
 .rodata.BmDisplayMessages.str2.2
                0x000000000001f83c       0x2c /tmp/UiApp.dll.Q98Kv2.ltrans1.ltrans.o
 .rodata.BmRepairAllControllers.part.0.str1.1
                0x000000000001f868       0x76 /tmp/UiApp.dll.Q98Kv2.ltrans1.ltrans.o
 .rodata.BmGetBootDescription.str1.1
                0x000000000001f8de       0x38 /tmp/UiApp.dll.Q98Kv2.ltrans1.ltrans.o
 .rodata.BmUpdateSystemTableConsole.str1.1
                0x000000000001f916       0x32 /tmp/UiApp.dll.Q98Kv2.ltrans1.ltrans.o
 .rodata.BmGetMiscDescription.str2.2
                0x000000000001f948       0xa4 /tmp/UiApp.dll.Q98Kv2.ltrans1.ltrans.o
                                         0xc8 (size before relaxing)
 .rodata.BmGetMiscDescription.str1.1
                0x000000000001f9ec       0x1b /tmp/UiApp.dll.Q98Kv2.ltrans1.ltrans.o
 .rodata.BmGetDescriptionFromDiskInfo.str2.2
                0x000000000001f9ec       0x2c /tmp/UiApp.dll.Q98Kv2.ltrans1.ltrans.o
 .rodata.BmDestroyRamDisk.str1.1
                0x000000000001fa18       0x82 /tmp/UiApp.dll.Q98Kv2.ltrans1.ltrans.o
 .rodata.BmExpandLoadFile.str1.1
                0x000000000001fa9a       0x5c /tmp/UiApp.dll.Q98Kv2.ltrans1.ltrans.o
 .rodata.BmEndOfBdsPerfCode.str1.1
                0x000000000001faf6        0x4 /tmp/UiApp.dll.Q98Kv2.ltrans1.ltrans.o
 .rodata.EfiBootManagerConnectAllDefaultConsoles.str1.1
                0x000000000001fafa       0x23 /tmp/UiApp.dll.Q98Kv2.ltrans1.ltrans.o
 .rodata.EfiBootManagerConnectAllDefaultConsoles.str2.2
                0x000000000001fb1d       0x28 /tmp/UiApp.dll.Q98Kv2.ltrans1.ltrans.o
 .rodata.IsMacAddressDevicePath.str1.1
                0x000000000001fb1d       0x1f /tmp/UiApp.dll.Q98Kv2.ltrans1.ltrans.o
                                         0x8a (size before relaxing)
 .rodata.IsMacAddressDevicePath.str2.2
                0x000000000001fb3c        0xa /tmp/UiApp.dll.Q98Kv2.ltrans1.ltrans.o
 .rodata.DmExtractDevicePathFromHiiHandle.str1.1
                0x000000000001fb46       0x17 /tmp/UiApp.dll.Q98Kv2.ltrans1.ltrans.o
 .rodata.LibStrDuplicate.str1.1
                0x000000000001fb46       0x15 /tmp/UiApp.dll.Q98Kv2.ltrans1.ltrans.o
 .rodata.EfiBootManagerDeleteLoadOptionVariable.str1.1
                0x000000000001fb5b       0xc4 /tmp/UiApp.dll.Q98Kv2.ltrans1.ltrans.o
 .rodata.EfiBootManagerDeleteLoadOptionVariable.str2.2
                0x000000000001fb5b        0xe /tmp/UiApp.dll.Q98Kv2.ltrans1.ltrans.o
 .rodata.EfiBootManagerVariableToLoadOptionEx.part.0.str1.1
                0x000000000001fb5b       0x23 /tmp/UiApp.dll.Q98Kv2.ltrans1.ltrans.o
 .rodata.BmHotkeyCallback.str1.1
                0x000000000001fb7e       0xfe /tmp/UiApp.dll.Q98Kv2.ltrans1.ltrans.o
 .rodata.BmHotkeyCallback.str2.2
                0x000000000001fc7c        0xa /tmp/UiApp.dll.Q98Kv2.ltrans1.ltrans.o
 .rodata.EfiBootManagerLoadOptionToVariable.str1.1
                0x000000000001fc7c       0x19 /tmp/UiApp.dll.Q98Kv2.ltrans1.ltrans.o
 .rodata.BmGetFreeOptionNumber.str1.1
                0x000000000001fc95       0x92 /tmp/UiApp.dll.Q98Kv2.ltrans1.ltrans.o
 .rodata.BmGetFreeOptionNumber.str2.2
                0x000000000001fd27       0x12 /tmp/UiApp.dll.Q98Kv2.ltrans1.ltrans.o
 .rodata.EfiBootManagerRefreshAllBootOption.str1.1
                0x000000000001fd27       0x34 /tmp/UiApp.dll.Q98Kv2.ltrans1.ltrans.o
 *fill*         0x000000000001fd5b        0x1 
 .rodata.EfiBootManagerRefreshAllBootOption.str2.2
                0x000000000001fd5c        0xc /tmp/UiApp.dll.Q98Kv2.ltrans1.ltrans.o
 .rodata.BmGetNextLoadOptionDevicePath.str1.1
                0x000000000001fd68       0x19 /tmp/UiApp.dll.Q98Kv2.ltrans1.ltrans.o
 *fill*         0x000000000001fd81        0x1 
 .rodata.BmGetNextLoadOptionDevicePath.str2.2
                0x000000000001fd82        0xa /tmp/UiApp.dll.Q98Kv2.ltrans1.ltrans.o
 .rodata.EfiBootManagerBoot.str1.1
                0x000000000001fd8c      0x300 /tmp/UiApp.dll.Q98Kv2.ltrans1.ltrans.o
                                        0x3bc (size before relaxing)
 .rodata.EfiBootManagerBoot.str2.2
                0x000000000002008c       0x44 /tmp/UiApp.dll.Q98Kv2.ltrans1.ltrans.o
 .rodata.HiiGetSupportedLanguages.str1.1
                0x00000000000200d0       0x4c /tmp/UiApp.dll.Q98Kv2.ltrans1.ltrans.o
                                         0x66 (size before relaxing)
 .rodata.HiiUpdateForm.str1.1
                0x000000000002011c       0x69 /tmp/UiApp.dll.Q98Kv2.ltrans1.ltrans.o
 .rodata.LibCallback.str2.2
                0x000000000002011c        0xa /tmp/UiApp.dll.Q98Kv2.ltrans1.ltrans.o
 .rodata.str2.2
                0x0000000000020126       0xb2 /tmp/UiApp.dll.Q98Kv2.ltrans1.ltrans.o
                                         0xec (size before relaxing)
 .rodata.__FUNCTION__.18861
                0x00000000000201d8       0x17 /tmp/UiApp.dll.Q98Kv2.ltrans1.ltrans.o
 .rodata.__FUNCTION__.19007
                0x00000000000201ef       0x11 /tmp/UiApp.dll.Q98Kv2.ltrans1.ltrans.o
 .rodata._gPcd_FixedAtBuild_PcdBootManagerMenuFile
                0x0000000000020200       0x10 /tmp/UiApp.dll.Q98Kv2.ltrans1.ltrans.o
 .rodata.mBmBootDescriptionHandlers
                0x0000000000020210       0x30 /tmp/UiApp.dll.Q98Kv2.ltrans1.ltrans.o
 .rodata.mBmHealthStatusText
                0x0000000000020240       0x30 /tmp/UiApp.dll.Q98Kv2.ltrans1.ltrans.o
 .rodata.mConVarName
                0x0000000000020270       0x30 /tmp/UiApp.dll.Q98Kv2.ltrans1.ltrans.o
 .rodata.AsciiStrLen.str1.1
                0x00000000000202a0       0x76 /tmp/UiApp.dll.Q98Kv2.ltrans2.ltrans.o
                                         0x8d (size before relaxing)
 .rodata.DebugAssert.str1.1
                0x0000000000020316       0x1e /tmp/UiApp.dll.Q98Kv2.ltrans2.ltrans.o
 .rodata.SetDevicePathNodeLength.str1.1
                0x0000000000020316       0x9c /tmp/UiApp.dll.Q98Kv2.ltrans2.ltrans.o
 .rodata.DevicePathNodeLength.str1.1
                0x00000000000203b2       0x15 /tmp/UiApp.dll.Q98Kv2.ltrans2.ltrans.o
 .rodata.UnicodeValueToStringS.str1.1
                0x00000000000203b2       0xe7 /tmp/UiApp.dll.Q98Kv2.ltrans2.ltrans.o
                                        0x14d (size before relaxing)
 .rodata.UnicodeVSPrint.str1.1
                0x0000000000020499       0x28 /tmp/UiApp.dll.Q98Kv2.ltrans2.ltrans.o
 .rodata.HiiRemovePackages.str1.1
                0x00000000000204c1       0x96 /tmp/UiApp.dll.Q98Kv2.ltrans2.ltrans.o
 .rodata.FreePool.str1.1
                0x00000000000204c1       0x5b /tmp/UiApp.dll.Q98Kv2.ltrans2.ltrans.o
 .rodata.HiiFreeOpCodeHandle.str1.1
                0x000000000002051c       0x5b /tmp/UiApp.dll.Q98Kv2.ltrans2.ltrans.o
                                         0x1d (size before relaxing)
 .rodata.GetVariable2.str1.1
                0x000000000002051c       0x5d /tmp/UiApp.dll.Q98Kv2.ltrans2.ltrans.o
                                         0x9c (size before relaxing)
 .rodata.FreePages.str1.1
                0x0000000000020579        0xb /tmp/UiApp.dll.Q98Kv2.ltrans2.ltrans.o
 .rodata.GetPcdProtocol.str1.1
                0x0000000000020584       0x58 /tmp/UiApp.dll.Q98Kv2.ltrans2.ltrans.o
 .rodata.AsciiStrnCmp.str1.1
                0x00000000000205dc       0x70 /tmp/UiApp.dll.Q98Kv2.ltrans2.ltrans.o
 .rodata.StrLen.str1.1
                0x000000000002064c       0x3a /tmp/UiApp.dll.Q98Kv2.ltrans2.ltrans.o
                                         0x5d (size before relaxing)
 .rodata.StrStr.str1.1
                0x0000000000020686       0x32 /tmp/UiApp.dll.Q98Kv2.ltrans2.ltrans.o
 .rodata.StrnCmp.str1.1
                0x00000000000206b8       0x72 /tmp/UiApp.dll.Q98Kv2.ltrans2.ltrans.o
 .rodata.InternalHiiCompareSubString.str1.1
                0x000000000002072a       0x39 /tmp/UiApp.dll.Q98Kv2.ltrans2.ltrans.o
 .rodata.AsciiStrToUnicodeStrS.str1.1
                0x0000000000020763       0xef /tmp/UiApp.dll.Q98Kv2.ltrans2.ltrans.o
                                        0x171 (size before relaxing)
 .rodata.StrCatS.str1.1
                0x0000000000020852       0x23 /tmp/UiApp.dll.Q98Kv2.ltrans2.ltrans.o
                                         0x9f (size before relaxing)
 .rodata.StrnCpyS.str1.1
                0x0000000000020875       0x16 /tmp/UiApp.dll.Q98Kv2.ltrans2.ltrans.o
 .rodata.CopyMem.str1.1
                0x0000000000020875       0x52 /tmp/UiApp.dll.Q98Kv2.ltrans2.ltrans.o
                                         0xd3 (size before relaxing)
 .rodata.GetBestLanguage.str1.1
                0x00000000000208c7       0x23 /tmp/UiApp.dll.Q98Kv2.ltrans2.ltrans.o
 .rodata.InternalHiiGrowOpCodeHandle.str1.1
                0x00000000000208ea       0x17 /tmp/UiApp.dll.Q98Kv2.ltrans2.ltrans.o
 .rodata.InternalHiiAppendOpCodes.str1.1
                0x00000000000208ea       0x3a /tmp/UiApp.dll.Q98Kv2.ltrans2.ltrans.o
 .rodata.InternalHiiCreateOpCodeExtended.str1.1
                0x0000000000020924       0x25 /tmp/UiApp.dll.Q98Kv2.ltrans2.ltrans.o
 .rodata.UefiDevicePathLibCatPrint.str1.1
                0x0000000000020949       0x6b /tmp/UiApp.dll.Q98Kv2.ltrans2.ltrans.o
 .rodata.DevPathToTextNodeGeneric.str2.2
                0x00000000000209b4       0x22 /tmp/UiApp.dll.Q98Kv2.ltrans2.ltrans.o
                                         0x34 (size before relaxing)
 .rodata.DevPathToTextBBS.str2.2
                0x00000000000209d6       0x2c /tmp/UiApp.dll.Q98Kv2.ltrans2.ltrans.o
                                         0x3a (size before relaxing)
 .rodata.DevPathRelativeOffsetRange.str2.2
                0x0000000000020a02       0x28 /tmp/UiApp.dll.Q98Kv2.ltrans2.ltrans.o
 .rodata.DevPathToTextFvFile.str2.2
                0x0000000000020a2a       0x16 /tmp/UiApp.dll.Q98Kv2.ltrans2.ltrans.o
 .rodata.DevPathToTextFv.str2.2
                0x0000000000020a40        0xe /tmp/UiApp.dll.Q98Kv2.ltrans2.ltrans.o
 .rodata.DevPathToTextMediaProtocol.str2.2
                0x0000000000020a4e       0x14 /tmp/UiApp.dll.Q98Kv2.ltrans2.ltrans.o
 .rodata.DevPathToTextFilePath.str2.2
                0x0000000000020a62       0x14 /tmp/UiApp.dll.Q98Kv2.ltrans2.ltrans.o
                                          0x6 (size before relaxing)
 .rodata.DevPathToTextCDROM.str2.2
                0x0000000000020a62       0x48 /tmp/UiApp.dll.Q98Kv2.ltrans2.ltrans.o
 .rodata.DevPathToTextHardDrive.str2.2
                0x0000000000020aaa       0x64 /tmp/UiApp.dll.Q98Kv2.ltrans2.ltrans.o
                                         0x7e (size before relaxing)
 .rodata.DevPathToTextUri.str1.1
                0x0000000000020b0e       0x17 /tmp/UiApp.dll.Q98Kv2.ltrans2.ltrans.o
 *fill*         0x0000000000020b25        0x1 
 .rodata.DevPathToTextUri.str2.2
                0x0000000000020b26       0x10 /tmp/UiApp.dll.Q98Kv2.ltrans2.ltrans.o
 .rodata.DevPathToTextBluetoothLE.str2.2
                0x0000000000020b36       0x5a /tmp/UiApp.dll.Q98Kv2.ltrans2.ltrans.o
 .rodata.DevPathToTextWiFi.str2.2
                0x0000000000020b90       0x14 /tmp/UiApp.dll.Q98Kv2.ltrans2.ltrans.o
 .rodata.DevPathToTextBluetooth.str2.2
                0x0000000000020ba4       0x48 /tmp/UiApp.dll.Q98Kv2.ltrans2.ltrans.o
 .rodata.DevPathToTextVlan.str2.2
                0x0000000000020bec       0x12 /tmp/UiApp.dll.Q98Kv2.ltrans2.ltrans.o
 .rodata.DevPathToTextiSCSI.str2.2
                0x0000000000020bfe       0x76 /tmp/UiApp.dll.Q98Kv2.ltrans2.ltrans.o
                                         0x90 (size before relaxing)
 .rodata.DevPathToTextUart.str2.2
                0x0000000000020c74       0x5c /tmp/UiApp.dll.Q98Kv2.ltrans2.ltrans.o
                                         0x74 (size before relaxing)
 .rodata.DevPathToTextUart
                0x0000000000020cd0        0x4 /tmp/UiApp.dll.Q98Kv2.ltrans2.ltrans.o
 .rodata.DevPathToTextInfiniBand.str2.2
                0x0000000000020cd4       0x4c /tmp/UiApp.dll.Q98Kv2.ltrans2.ltrans.o
 .rodata.CatIPv6Address.str2.2
                0x0000000000020d20       0x90 /tmp/UiApp.dll.Q98Kv2.ltrans2.ltrans.o
 .rodata.CatIPv4Address.str2.2
                0x0000000000020db0       0x18 /tmp/UiApp.dll.Q98Kv2.ltrans2.ltrans.o
 .rodata.DevPathToTextDns.str2.2
                0x0000000000020dc8        0xa /tmp/UiApp.dll.Q98Kv2.ltrans2.ltrans.o
 .rodata.CatNetworkProtocol.str2.2
                0x0000000000020dd2        0x8 /tmp/UiApp.dll.Q98Kv2.ltrans2.ltrans.o
                                         0x12 (size before relaxing)
 .rodata.DevPathToTextIPv6.str2.2
                0x0000000000020dda       0x80 /tmp/UiApp.dll.Q98Kv2.ltrans2.ltrans.o
                                         0x8e (size before relaxing)
 .rodata.DevPathToTextIPv4.str2.2
                0x0000000000020e5a       0x24 /tmp/UiApp.dll.Q98Kv2.ltrans2.ltrans.o
 .rodata.DevPathToTextMacAddr.str2.2
                0x0000000000020e7e        0xa /tmp/UiApp.dll.Q98Kv2.ltrans2.ltrans.o
 .rodata.DevPathToTextI2O.str2.2
                0x0000000000020e88       0x14 /tmp/UiApp.dll.Q98Kv2.ltrans2.ltrans.o
 .rodata.DevPathToTextSata.str2.2
                0x0000000000020e9c       0x2a /tmp/UiApp.dll.Q98Kv2.ltrans2.ltrans.o
 .rodata.DevPathToTextUsbClass.str2.2
                0x0000000000020ec6      0x250 /tmp/UiApp.dll.Q98Kv2.ltrans2.ltrans.o
 *fill*         0x0000000000021116        0x2 
 .rodata.DevPathToTextUsbClass
                0x0000000000021118        0xe /tmp/UiApp.dll.Q98Kv2.ltrans2.ltrans.o
 .rodata.DevPathToTextLogicalUnit.str2.2
                0x0000000000021126       0x16 /tmp/UiApp.dll.Q98Kv2.ltrans2.ltrans.o
 .rodata.DevPathToTextUsb.str2.2
                0x000000000002113c       0x1e /tmp/UiApp.dll.Q98Kv2.ltrans2.ltrans.o
 .rodata.DevPathToText1394.str2.2
                0x000000000002115a       0x1c /tmp/UiApp.dll.Q98Kv2.ltrans2.ltrans.o
 .rodata.DevPathToTextEmmc.str2.2
                0x0000000000021176       0x16 /tmp/UiApp.dll.Q98Kv2.ltrans2.ltrans.o
 .rodata.DevPathToTextSd.str2.2
                0x000000000002118c       0x12 /tmp/UiApp.dll.Q98Kv2.ltrans2.ltrans.o
 .rodata.DevPathToTextUfs.str2.2
                0x000000000002119e       0x1e /tmp/UiApp.dll.Q98Kv2.ltrans2.ltrans.o
 .rodata.DevPathToTextNVMe.str2.2
                0x00000000000211bc       0x66 /tmp/UiApp.dll.Q98Kv2.ltrans2.ltrans.o
 .rodata.DevPathToTextSasEx.str2.2
                0x0000000000021222       0xb4 /tmp/UiApp.dll.Q98Kv2.ltrans2.ltrans.o
                                         0xc0 (size before relaxing)
 .rodata.DevPathToTextFibreEx.str2.2
                0x00000000000212d6       0x16 /tmp/UiApp.dll.Q98Kv2.ltrans2.ltrans.o
 .rodata.DevPathToTextFibre.str2.2
                0x00000000000212ec       0x26 /tmp/UiApp.dll.Q98Kv2.ltrans2.ltrans.o
 .rodata.DevPathToTextScsi.str2.2
                0x0000000000021312       0x20 /tmp/UiApp.dll.Q98Kv2.ltrans2.ltrans.o
 .rodata.DevPathToTextAtapi.str2.2
                0x0000000000021332       0x72 /tmp/UiApp.dll.Q98Kv2.ltrans2.ltrans.o
 .rodata.DevPathToTextAcpiAdr.str2.2
                0x00000000000213a4       0x26 /tmp/UiApp.dll.Q98Kv2.ltrans2.ltrans.o
 .rodata.DevPathToTextAcpiEx.str2.2
                0x00000000000213ca      0x12c /tmp/UiApp.dll.Q98Kv2.ltrans2.ltrans.o
                                        0x148 (size before relaxing)
 .rodata.DevPathToTextAcpi.str2.2
                0x00000000000214f6       0xc2 /tmp/UiApp.dll.Q98Kv2.ltrans2.ltrans.o
 .rodata.DevPathToTextBmc.str2.2
                0x00000000000215b8       0x20 /tmp/UiApp.dll.Q98Kv2.ltrans2.ltrans.o
 .rodata.DevPathToTextController.str2.2
                0x00000000000215d8       0x16 /tmp/UiApp.dll.Q98Kv2.ltrans2.ltrans.o
 .rodata.DevPathToTextMemMap.str2.2
                0x00000000000215ee       0x3e /tmp/UiApp.dll.Q98Kv2.ltrans2.ltrans.o
 .rodata.DevPathToTextPccard.str2.2
                0x000000000002162c       0x1a /tmp/UiApp.dll.Q98Kv2.ltrans2.ltrans.o
 .rodata.DevPathToTextPci.str2.2
                0x0000000000021646       0x1e /tmp/UiApp.dll.Q98Kv2.ltrans2.ltrans.o
 .rodata.AllocateCopyPool.str1.1
                0x0000000000021664       0x3f /tmp/UiApp.dll.Q98Kv2.ltrans2.ltrans.o
 .rodata.DevPathToTextUsbWWID.str1.1
                0x00000000000216a3       0x17 /tmp/UiApp.dll.Q98Kv2.ltrans2.ltrans.o
 .rodata.DevPathToTextUsbWWID.str2.2
                0x00000000000216ba       0x3a /tmp/UiApp.dll.Q98Kv2.ltrans2.ltrans.o
 .rodata.GetNextLanguage.str1.1
                0x00000000000216f4       0x8b /tmp/UiApp.dll.Q98Kv2.ltrans2.ltrans.o
 .rodata.FrontPageCallback.str2.2
                0x000000000002177f       0x1a /tmp/UiApp.dll.Q98Kv2.ltrans2.ltrans.o
 .rodata.FrontPageCallback.str1.1
                0x000000000002177f       0x12 /tmp/UiApp.dll.Q98Kv2.ltrans2.ltrans.o
 .rodata.CompareGuid.str1.1
                0x000000000002177f       0x7e /tmp/UiApp.dll.Q98Kv2.ltrans2.ltrans.o
 .rodata.GetHobList.str1.1
                0x00000000000217fd       0x19 /tmp/UiApp.dll.Q98Kv2.ltrans2.ltrans.o
                                         0x59 (size before relaxing)
 .rodata.DevPathToTextRamDisk.str2.2
                0x0000000000021816       0xca /tmp/UiApp.dll.Q98Kv2.ltrans2.ltrans.o
                                        0x136 (size before relaxing)
 .rodata.DevPathToTextVendor.str2.2
                0x00000000000218e0      0x154 /tmp/UiApp.dll.Q98Kv2.ltrans2.ltrans.o
                                        0x166 (size before relaxing)
 .rodata.CopyGuid.str1.1
                0x0000000000021a34       0x3b /tmp/UiApp.dll.Q98Kv2.ltrans2.ltrans.o
 .rodata.UiSetConsoleMode.str1.1
                0x0000000000021a6f       0x49 /tmp/UiApp.dll.Q98Kv2.ltrans2.ltrans.o
 .rodata.__stack_chk_fail.str1.1
                0x0000000000021ab8       0x2e /tmp/UiApp.dll.Q98Kv2.ltrans2.ltrans.o
 .rodata.ProcessLibraryConstructorList.str1.1
                0x0000000000021ae6      0x485 /tmp/UiApp.dll.Q98Kv2.ltrans2.ltrans.o
                                        0x796 (size before relaxing)
 *fill*         0x0000000000021f6b        0x1 
 .rodata.ProcessLibraryConstructorList.str2.2
                0x0000000000021f6c       0x28 /tmp/UiApp.dll.Q98Kv2.ltrans2.ltrans.o
                                         0x50 (size before relaxing)
 .rodata._ModuleEntryPoint.str1.1
                0x0000000000021f94       0xf0 /tmp/UiApp.dll.Q98Kv2.ltrans2.ltrans.o
                                        0x201 (size before relaxing)
 .rodata._ModuleEntryPoint.str2.2
                0x0000000000022084       0x3e /tmp/UiApp.dll.Q98Kv2.ltrans2.ltrans.o
                                         0xc8 (size before relaxing)
 .rodata.str2.2
                0x00000000000220c2       0x56 /tmp/UiApp.dll.Q98Kv2.ltrans2.ltrans.o
                                         0x96 (size before relaxing)
 .rodata.CSWTCH.42
                0x0000000000022118        0x6 /tmp/UiApp.dll.Q98Kv2.ltrans2.ltrans.o
 *fill*         0x000000000002211e        0x2 
 .rodata.CSWTCH.58
                0x0000000000022120       0x30 /tmp/UiApp.dll.Q98Kv2.ltrans2.ltrans.o
 .rodata.__FUNCTION__.1941
                0x0000000000022150        0x8 /tmp/UiApp.dll.Q98Kv2.ltrans2.ltrans.o
 .rodata.__FUNCTION__.1952
                0x0000000000022158        0x9 /tmp/UiApp.dll.Q98Kv2.ltrans2.ltrans.o
 .rodata.__FUNCTION__.1964
                0x0000000000022161        0x8 /tmp/UiApp.dll.Q98Kv2.ltrans2.ltrans.o
 .rodata.__FUNCTION__.2243
                0x0000000000022169       0x16 /tmp/UiApp.dll.Q98Kv2.ltrans2.ltrans.o
 *fill*         0x000000000002217f        0x1 
 .rodata._gPcd_FixedAtBuild_PcdFirmwareVersionString
                0x0000000000022180       0x2e /tmp/UiApp.dll.Q98Kv2.ltrans2.ltrans.o
 .rodata._gPcd_FixedAtBuild_PcdUefiVariableDefaultPlatformLangCodes
                0x00000000000221ae        0x6 /tmp/UiApp.dll.Q98Kv2.ltrans2.ltrans.o
 .rodata.mEndOfPakageList
                0x00000000000221b4        0x4 /tmp/UiApp.dll.Q98Kv2.ltrans2.ltrans.o
 .rodata.mHexStr
                0x00000000000221b8       0x10 /tmp/UiApp.dll.Q98Kv2.ltrans2.ltrans.o
 .rodata.mHiiDefaultTypeToWidth
                0x00000000000221c8        0x8 /tmp/UiApp.dll.Q98Kv2.ltrans2.ltrans.o
 .rodata.mUefiDevicePathLibEndDevicePath
                0x00000000000221d0        0x4 /tmp/UiApp.dll.Q98Kv2.ltrans2.ltrans.o
 *fill*         0x00000000000221d4        0x4 
 .rodata.mUefiDevicePathLibToTextTableGeneric
                0x00000000000221d8       0x60 /tmp/UiApp.dll.Q98Kv2.ltrans2.ltrans.o
 *(.got .got.*)
 .got           0x0000000000022238        0x8 /home/alastair/pftf-rpi4/edk2/ArmPkg/Library/GccLto/liblto-aarch64.a
                0x0000000000022238                _GLOBAL_OFFSET_TABLE_
 .got.plt       0x0000000000022240       0x18 /home/alastair/pftf-rpi4/edk2/ArmPkg/Library/GccLto/liblto-aarch64.a
 *:AutoGen.obj(.data.g*Guid)

.plt            0x0000000000022258        0x0
 .plt           0x0000000000022258        0x0 /home/alastair/pftf-rpi4/edk2/ArmPkg/Library/GccLto/liblto-aarch64.a

.data           0x0000000000023000     0x70b4
 *(.data .data.* .gnu.linkonce.d.*)
 .data.rel.ro   0x0000000000023000        0x0 /home/alastair/pftf-rpi4/edk2/ArmPkg/Library/GccLto/liblto-aarch64.a
 .data.BootOptionMenu
                0x0000000000023000       0x20 /tmp/UiApp.dll.Q98Kv2.ltrans0.ltrans.o
                0x0000000000023000                BootOptionMenu
 .data.ConsoleErrMenu
                0x0000000000023020       0x20 /tmp/UiApp.dll.Q98Kv2.ltrans0.ltrans.o
                0x0000000000023020                ConsoleErrMenu
 .data.ConsoleInpMenu
                0x0000000000023040       0x20 /tmp/UiApp.dll.Q98Kv2.ltrans0.ltrans.o
                0x0000000000023040                ConsoleInpMenu
 .data.ConsoleOutMenu
                0x0000000000023060       0x20 /tmp/UiApp.dll.Q98Kv2.ltrans0.ltrans.o
                0x0000000000023060                ConsoleOutMenu
 .data.DriverMenu
                0x0000000000023080       0x20 /tmp/UiApp.dll.Q98Kv2.ltrans0.ltrans.o
                0x0000000000023080                DriverMenu
 .data.DriverOptionMenu
                0x00000000000230a0       0x20 /tmp/UiApp.dll.Q98Kv2.ltrans0.ltrans.o
                0x00000000000230a0                DriverOptionMenu
 .data.FileExplorerGuid
                0x00000000000230c0       0x10 /tmp/UiApp.dll.Q98Kv2.ltrans0.ltrans.o
                0x00000000000230c0                FileExplorerGuid
 .data.TerminalMenu
                0x00000000000230d0       0x20 /tmp/UiApp.dll.Q98Kv2.ltrans0.ltrans.o
                0x00000000000230d0                TerminalMenu
 .data.TerminalTypeGuid
                0x00000000000230f0       0x90 /tmp/UiApp.dll.Q98Kv2.ltrans0.ltrans.o
                0x00000000000230f0                TerminalTypeGuid
 .data.gBootMaintenancePrivate
                0x0000000000023180     0x1c60 /tmp/UiApp.dll.Q98Kv2.ltrans0.ltrans.o
                0x0000000000023180                gBootMaintenancePrivate
 .data.gBootManagerPrivate
                0x0000000000024de0       0x30 /tmp/UiApp.dll.Q98Kv2.ltrans0.ltrans.o
                0x0000000000024de0                gBootManagerPrivate
 .data.gDeviceManagerPrivate
                0x0000000000024e10       0x38 /tmp/UiApp.dll.Q98Kv2.ltrans0.ltrans.o
                0x0000000000024e10                gDeviceManagerPrivate
 .data.gEdkiiFormBrowserEx2ProtocolGuid
                0x0000000000024e48       0x10 /tmp/UiApp.dll.Q98Kv2.ltrans0.ltrans.o
 .data.gEdkiiPerformanceMeasurementProtocolGuid
                0x0000000000024e58       0x10 /tmp/UiApp.dll.Q98Kv2.ltrans0.ltrans.o
 .data.gEfiCallerIdGuid
                0x0000000000024e68       0x10 /tmp/UiApp.dll.Q98Kv2.ltrans0.ltrans.o
                0x0000000000024e68                gEfiCallerIdGuid
 .data.gEfiDevicePathProtocolGuid
                0x0000000000024e78       0x10 /tmp/UiApp.dll.Q98Kv2.ltrans0.ltrans.o
                0x0000000000024e78                gEfiDevicePathProtocolGuid
 .data.gEfiDevicePathToTextProtocolGuid
                0x0000000000024e88       0x10 /tmp/UiApp.dll.Q98Kv2.ltrans0.ltrans.o
 .data.gEfiFileSystemVolumeLabelInfoIdGuid
                0x0000000000024e98       0x10 /tmp/UiApp.dll.Q98Kv2.ltrans0.ltrans.o
 .data.gEfiFormBrowser2ProtocolGuid
                0x0000000000024ea8       0x10 /tmp/UiApp.dll.Q98Kv2.ltrans0.ltrans.o
                0x0000000000024ea8                gEfiFormBrowser2ProtocolGuid
 .data.gEfiGlobalVariableGuid
                0x0000000000024eb8       0x10 /tmp/UiApp.dll.Q98Kv2.ltrans0.ltrans.o
                0x0000000000024eb8                gEfiGlobalVariableGuid
 .data.gEfiGraphicsOutputProtocolGuid
                0x0000000000024ec8       0x10 /tmp/UiApp.dll.Q98Kv2.ltrans0.ltrans.o
                0x0000000000024ec8                gEfiGraphicsOutputProtocolGuid
 .data.gEfiHiiConfigRoutingProtocolGuid
                0x0000000000024ed8       0x10 /tmp/UiApp.dll.Q98Kv2.ltrans0.ltrans.o
                0x0000000000024ed8                gEfiHiiConfigRoutingProtocolGuid
 .data.gEfiHiiPlatformSetupFormsetGuid
                0x0000000000024ee8       0x10 /tmp/UiApp.dll.Q98Kv2.ltrans0.ltrans.o
 .data.gEfiIfrBootMaintenanceGuid
                0x0000000000024ef8       0x10 /tmp/UiApp.dll.Q98Kv2.ltrans0.ltrans.o
 .data.gEfiIfrTianoGuid
                0x0000000000024f08       0x10 /tmp/UiApp.dll.Q98Kv2.ltrans0.ltrans.o
                0x0000000000024f08                gEfiIfrTianoGuid
 .data.gEfiPciIoProtocolGuid
                0x0000000000024f18       0x10 /tmp/UiApp.dll.Q98Kv2.ltrans0.ltrans.o
                0x0000000000024f18                gEfiPciIoProtocolGuid
 .data.gEfiSimpleFileSystemProtocolGuid
                0x0000000000024f28       0x10 /tmp/UiApp.dll.Q98Kv2.ltrans0.ltrans.o
                0x0000000000024f28                gEfiSimpleFileSystemProtocolGuid
 .data.gEfiSimpleTextOutProtocolGuid
                0x0000000000024f38       0x10 /tmp/UiApp.dll.Q98Kv2.ltrans0.ltrans.o
                0x0000000000024f38                gEfiSimpleTextOutProtocolGuid
 .data.gFileExplorerPrivate
                0x0000000000024f48       0x58 /tmp/UiApp.dll.Q98Kv2.ltrans0.ltrans.o
                0x0000000000024f48                gFileExplorerPrivate
 .data.mArasan  0x0000000000024fa0       0x18 /tmp/UiApp.dll.Q98Kv2.ltrans0.ltrans.o
 .data.mBmHotkeyLock
                0x0000000000024fb8       0x18 /tmp/UiApp.dll.Q98Kv2.ltrans0.ltrans.o
                0x0000000000024fb8                mBmHotkeyLock
 .data.mBootMaintGuid
                0x0000000000024fd0       0x10 /tmp/UiApp.dll.Q98Kv2.ltrans0.ltrans.o
                0x0000000000024fd0                mBootMaintGuid
 .data.mBootMaintStorageName
                0x0000000000024fe0       0x10 /tmp/UiApp.dll.Q98Kv2.ltrans0.ltrans.o
 .data.mBootManagerGuid
                0x0000000000024ff0       0x10 /tmp/UiApp.dll.Q98Kv2.ltrans0.ltrans.o
                0x0000000000024ff0                mBootManagerGuid
 .data.mDeviceManagerGuid
                0x0000000000025000       0x10 /tmp/UiApp.dll.Q98Kv2.ltrans0.ltrans.o
                0x0000000000025000                mDeviceManagerGuid
 .data.mFsOptionMenu
                0x0000000000025010       0x28 /tmp/UiApp.dll.Q98Kv2.ltrans0.ltrans.o
 .data.mSDHost  0x0000000000025038       0x18 /tmp/UiApp.dll.Q98Kv2.ltrans0.ltrans.o
 .data.gEdkiiPlatformBootManagerProtocolGuid
                0x0000000000025050       0x10 /tmp/UiApp.dll.Q98Kv2.ltrans1.ltrans.o
 .data.gEdkiiVariableLockProtocolGuid
                0x0000000000025060       0x10 /tmp/UiApp.dll.Q98Kv2.ltrans1.ltrans.o
 .data.gEfiBlockIoProtocolGuid
                0x0000000000025070       0x10 /tmp/UiApp.dll.Q98Kv2.ltrans1.ltrans.o
 .data.gEfiBootLogoProtocolGuid
                0x0000000000025080       0x10 /tmp/UiApp.dll.Q98Kv2.ltrans1.ltrans.o
                0x0000000000025080                gEfiBootLogoProtocolGuid
 .data.gEfiComponentName2ProtocolGuid
                0x0000000000025090       0x10 /tmp/UiApp.dll.Q98Kv2.ltrans1.ltrans.o
 .data.gEfiComponentNameProtocolGuid
                0x00000000000250a0       0x10 /tmp/UiApp.dll.Q98Kv2.ltrans1.ltrans.o
 .data.gEfiDiskInfoAhciInterfaceGuid
                0x00000000000250b0       0x10 /tmp/UiApp.dll.Q98Kv2.ltrans1.ltrans.o
 .data.gEfiDiskInfoIdeInterfaceGuid
                0x00000000000250c0       0x10 /tmp/UiApp.dll.Q98Kv2.ltrans1.ltrans.o
 .data.gEfiDiskInfoProtocolGuid
                0x00000000000250d0       0x10 /tmp/UiApp.dll.Q98Kv2.ltrans1.ltrans.o
 .data.gEfiDiskInfoScsiInterfaceGuid
                0x00000000000250e0       0x10 /tmp/UiApp.dll.Q98Kv2.ltrans1.ltrans.o
 .data.gEfiDiskInfoSdMmcInterfaceGuid
                0x00000000000250f0       0x10 /tmp/UiApp.dll.Q98Kv2.ltrans1.ltrans.o
 .data.gEfiDriverHealthProtocolGuid
                0x0000000000025100       0x10 /tmp/UiApp.dll.Q98Kv2.ltrans1.ltrans.o
 .data.gEfiEventReadyToBootGuid
                0x0000000000025110       0x10 /tmp/UiApp.dll.Q98Kv2.ltrans1.ltrans.o
 .data.gEfiFileInfoGuid
                0x0000000000025120       0x10 /tmp/UiApp.dll.Q98Kv2.ltrans1.ltrans.o
 .data.gEfiFirmwareVolume2ProtocolGuid
                0x0000000000025130       0x10 /tmp/UiApp.dll.Q98Kv2.ltrans1.ltrans.o
 .data.gEfiLoadFileProtocolGuid
                0x0000000000025140       0x10 /tmp/UiApp.dll.Q98Kv2.ltrans1.ltrans.o
                0x0000000000025140                gEfiLoadFileProtocolGuid
 .data.gEfiLoadedImageProtocolGuid
                0x0000000000025150       0x10 /tmp/UiApp.dll.Q98Kv2.ltrans1.ltrans.o
 .data.gEfiMemoryTypeInformationGuid
                0x0000000000025160       0x10 /tmp/UiApp.dll.Q98Kv2.ltrans1.ltrans.o
 .data.gEfiNvmExpressPassThruProtocolGuid
                0x0000000000025170       0x10 /tmp/UiApp.dll.Q98Kv2.ltrans1.ltrans.o
 .data.gEfiRamDiskProtocolGuid
                0x0000000000025180       0x10 /tmp/UiApp.dll.Q98Kv2.ltrans1.ltrans.o
 .data.gEfiSimpleTextInProtocolGuid
                0x0000000000025190       0x10 /tmp/UiApp.dll.Q98Kv2.ltrans1.ltrans.o
 .data.gEfiSimpleTextInputExProtocolGuid
                0x00000000000251a0       0x10 /tmp/UiApp.dll.Q98Kv2.ltrans1.ltrans.o
 .data.gEfiUsbIoProtocolGuid
                0x00000000000251b0       0x10 /tmp/UiApp.dll.Q98Kv2.ltrans1.ltrans.o
 .data.mBmAutoCreateBootOptionGuid
                0x00000000000251c0       0x10 /tmp/UiApp.dll.Q98Kv2.ltrans1.ltrans.o
 .data.mBmHardDriveBootVariableGuid
                0x00000000000251d0       0x10 /tmp/UiApp.dll.Q98Kv2.ltrans1.ltrans.o
 .data.mBmHotkeyBootOption
                0x00000000000251e0       0x58 /tmp/UiApp.dll.Q98Kv2.ltrans1.ltrans.o
 .data.mBmHotkeyList
                0x0000000000025238       0x10 /tmp/UiApp.dll.Q98Kv2.ltrans1.ltrans.o
 .data.mBmUefiPrefix
                0x0000000000025248        0xc /tmp/UiApp.dll.Q98Kv2.ltrans1.ltrans.o
 *fill*         0x0000000000025254        0x4 
 .data.mNewFileQuestionId
                0x0000000000025258        0x8 /tmp/UiApp.dll.Q98Kv2.ltrans1.ltrans.o
 .data.mNewFolderQuestionId
                0x0000000000025260        0x8 /tmp/UiApp.dll.Q98Kv2.ltrans1.ltrans.o
 .data.mPlatformBootDescriptionHandlers
                0x0000000000025268       0x10 /tmp/UiApp.dll.Q98Kv2.ltrans1.ltrans.o
                0x0000000000025268                mPlatformBootDescriptionHandlers
 .data.BootDiscoveryPolicyUiLibStrings
                0x0000000000025278       0xe2 /tmp/UiApp.dll.Q98Kv2.ltrans2.ltrans.o
 .data.BootDiscoveryPolicyUiLibVfrBin
                0x000000000002535a       0xad /tmp/UiApp.dll.Q98Kv2.ltrans2.ltrans.o
 .data.BootMaintenanceManagerBin
                0x0000000000025407      0x594 /tmp/UiApp.dll.Q98Kv2.ltrans2.ltrans.o
 .data.BootMaintenanceManagerUiLibStrings
                0x000000000002599b     0x1bbe /tmp/UiApp.dll.Q98Kv2.ltrans2.ltrans.o
 .data.BootManagerUiLibStrings
                0x0000000000027559      0x434 /tmp/UiApp.dll.Q98Kv2.ltrans2.ltrans.o
 .data.BootManagerVfrBin
                0x000000000002798d       0xb3 /tmp/UiApp.dll.Q98Kv2.ltrans2.ltrans.o
 .data.DeviceManagerUiLibStrings
                0x0000000000027a40      0x4b8 /tmp/UiApp.dll.Q98Kv2.ltrans2.ltrans.o
 .data.DeviceManagerVfrBin
                0x0000000000027ef8      0x12d /tmp/UiApp.dll.Q98Kv2.ltrans2.ltrans.o
 .data.FeHiiVendorDevicePath
                0x0000000000028025       0x18 /tmp/UiApp.dll.Q98Kv2.ltrans2.ltrans.o
 .data.FileExplorerLibStrings
                0x000000000002803d      0x81a /tmp/UiApp.dll.Q98Kv2.ltrans2.ltrans.o
 .data.FileExplorerVfrBin
                0x0000000000028857       0xf9 /tmp/UiApp.dll.Q98Kv2.ltrans2.ltrans.o
 .data.FrontPageVfrBin
                0x0000000000028950      0x147 /tmp/UiApp.dll.Q98Kv2.ltrans2.ltrans.o
 .data.UiAppStrings
                0x0000000000028a97      0x426 /tmp/UiApp.dll.Q98Kv2.ltrans2.ltrans.o
 *fill*         0x0000000000028ebd        0x3 
 .data.__stack_chk_guard
                0x0000000000028ec0        0x8 /tmp/UiApp.dll.Q98Kv2.ltrans2.ltrans.o
                0x0000000000028ec0                __stack_chk_guard
 .data.gBootDiscoveryPolicyMgrFormsetGuid
                0x0000000000028ec8       0x10 /tmp/UiApp.dll.Q98Kv2.ltrans2.ltrans.o
 .data.gEfiDebugPortProtocolGuid
                0x0000000000028ed8       0x10 /tmp/UiApp.dll.Q98Kv2.ltrans2.ltrans.o
 .data.gEfiDxeServicesTableGuid
                0x0000000000028ee8       0x10 /tmp/UiApp.dll.Q98Kv2.ltrans2.ltrans.o
 .data.gEfiHiiConfigAccessProtocolGuid
                0x0000000000028ef8       0x10 /tmp/UiApp.dll.Q98Kv2.ltrans2.ltrans.o
 .data.gEfiHiiDatabaseProtocolGuid
                0x0000000000028f08       0x10 /tmp/UiApp.dll.Q98Kv2.ltrans2.ltrans.o
 .data.gEfiHiiFontProtocolGuid
                0x0000000000028f18       0x10 /tmp/UiApp.dll.Q98Kv2.ltrans2.ltrans.o
 .data.gEfiHiiImageProtocolGuid
                0x0000000000028f28       0x10 /tmp/UiApp.dll.Q98Kv2.ltrans2.ltrans.o
 .data.gEfiHiiStringProtocolGuid
                0x0000000000028f38       0x10 /tmp/UiApp.dll.Q98Kv2.ltrans2.ltrans.o
 .data.gEfiHobListGuid
                0x0000000000028f48       0x10 /tmp/UiApp.dll.Q98Kv2.ltrans2.ltrans.o
 .data.gEfiIfrFrontPageGuid
                0x0000000000028f58       0x10 /tmp/UiApp.dll.Q98Kv2.ltrans2.ltrans.o
 .data.gEfiPcAnsiGuid
                0x0000000000028f68       0x10 /tmp/UiApp.dll.Q98Kv2.ltrans2.ltrans.o
 .data.gEfiPersistentVirtualCdGuid
                0x0000000000028f78       0x10 /tmp/UiApp.dll.Q98Kv2.ltrans2.ltrans.o
 .data.gEfiPersistentVirtualDiskGuid
                0x0000000000028f88       0x10 /tmp/UiApp.dll.Q98Kv2.ltrans2.ltrans.o
 .data.gEfiSasDevicePathGuid
                0x0000000000028f98       0x10 /tmp/UiApp.dll.Q98Kv2.ltrans2.ltrans.o
 .data.gEfiSerialIoProtocolGuid
                0x0000000000028fa8       0x10 /tmp/UiApp.dll.Q98Kv2.ltrans2.ltrans.o
 .data.gEfiSmbiosProtocolGuid
                0x0000000000028fb8       0x10 /tmp/UiApp.dll.Q98Kv2.ltrans2.ltrans.o
 .data.gEfiUartDevicePathGuid
                0x0000000000028fc8       0x10 /tmp/UiApp.dll.Q98Kv2.ltrans2.ltrans.o
 .data.gEfiVT100Guid
                0x0000000000028fd8       0x10 /tmp/UiApp.dll.Q98Kv2.ltrans2.ltrans.o
 .data.gEfiVT100PlusGuid
                0x0000000000028fe8       0x10 /tmp/UiApp.dll.Q98Kv2.ltrans2.ltrans.o
 .data.gEfiVTUTF8Guid
                0x0000000000028ff8       0x10 /tmp/UiApp.dll.Q98Kv2.ltrans2.ltrans.o
 .data.gEfiVirtualCdGuid
                0x0000000000029008       0x10 /tmp/UiApp.dll.Q98Kv2.ltrans2.ltrans.o
 .data.gEfiVirtualDiskGuid
                0x0000000000029018       0x10 /tmp/UiApp.dll.Q98Kv2.ltrans2.ltrans.o
 .data.gFrontPagePrivate
                0x0000000000029028       0x38 /tmp/UiApp.dll.Q98Kv2.ltrans2.ltrans.o
 .data.gPcdProtocolGuid
                0x0000000000029060       0x10 /tmp/UiApp.dll.Q98Kv2.ltrans2.ltrans.o
 .data.mBmmHiiVendorDevicePath
                0x0000000000029070       0x18 /tmp/UiApp.dll.Q98Kv2.ltrans2.ltrans.o
 .data.mBootManagerHiiVendorDevicePath
                0x0000000000029088       0x18 /tmp/UiApp.dll.Q98Kv2.ltrans2.ltrans.o
 .data.mDeviceManagerHiiVendorDevicePath
                0x00000000000290a0       0x18 /tmp/UiApp.dll.Q98Kv2.ltrans2.ltrans.o
 .data.mFontBin
                0x00000000000290b8      0xda0 /tmp/UiApp.dll.Q98Kv2.ltrans2.ltrans.o
 .data.mFontPackageGuid
                0x0000000000029e58       0x10 /tmp/UiApp.dll.Q98Kv2.ltrans2.ltrans.o
 .data.mFrontPageGuid
                0x0000000000029e68       0x10 /tmp/UiApp.dll.Q98Kv2.ltrans2.ltrans.o
 .data.mFrontPageHiiVendorDevicePath
                0x0000000000029e78       0x18 /tmp/UiApp.dll.Q98Kv2.ltrans2.ltrans.o
 .data.mUiStringPackGuid
                0x0000000000029e90       0x10 /tmp/UiApp.dll.Q98Kv2.ltrans2.ltrans.o
 .data.mVendorDevicePath
                0x0000000000029ea0       0x18 /tmp/UiApp.dll.Q98Kv2.ltrans2.ltrans.o
 *(.bss .bss.*)
 .bss.UsePl011Uart
                0x0000000000029eb8        0x1 /tmp/UiApp.dll.Q98Kv2.ltrans0.ltrans.o
 .bss.UsePl011UartSet
                0x0000000000029eb9        0x1 /tmp/UiApp.dll.Q98Kv2.ltrans0.ltrans.o
 *fill*         0x0000000000029eba        0x6 
 .bss.gBS       0x0000000000029ec0        0x8 /tmp/UiApp.dll.Q98Kv2.ltrans0.ltrans.o
                0x0000000000029ec0                gBS
 .bss.gHiiConfigRouting
                0x0000000000029ec8        0x8 /tmp/UiApp.dll.Q98Kv2.ltrans0.ltrans.o
                0x0000000000029ec8                gHiiConfigRouting
 .bss.gHiiDatabase
                0x0000000000029ed0        0x8 /tmp/UiApp.dll.Q98Kv2.ltrans0.ltrans.o
                0x0000000000029ed0                gHiiDatabase
 .bss.gHiiDriverList
                0x0000000000029ed8        0x8 /tmp/UiApp.dll.Q98Kv2.ltrans0.ltrans.o
 .bss.gHiiString
                0x0000000000029ee0        0x8 /tmp/UiApp.dll.Q98Kv2.ltrans0.ltrans.o
                0x0000000000029ee0                gHiiString
 .bss.gRT       0x0000000000029ee8        0x8 /tmp/UiApp.dll.Q98Kv2.ltrans0.ltrans.o
                0x0000000000029ee8                gRT
 .bss.gST       0x0000000000029ef0        0x8 /tmp/UiApp.dll.Q98Kv2.ltrans0.ltrans.o
                0x0000000000029ef0                gST
 .bss.mBmBootHorizontalResolution
                0x0000000000029ef8        0x4 /tmp/UiApp.dll.Q98Kv2.ltrans0.ltrans.o
                0x0000000000029ef8                mBmBootHorizontalResolution
 .bss.mBmBootTextModeColumn
                0x0000000000029efc        0x4 /tmp/UiApp.dll.Q98Kv2.ltrans0.ltrans.o
                0x0000000000029efc                mBmBootTextModeColumn
 .bss.mBmBootTextModeRow
                0x0000000000029f00        0x4 /tmp/UiApp.dll.Q98Kv2.ltrans0.ltrans.o
                0x0000000000029f00                mBmBootTextModeRow
 .bss.mBmBootVerticalResolution
                0x0000000000029f04        0x4 /tmp/UiApp.dll.Q98Kv2.ltrans0.ltrans.o
                0x0000000000029f04                mBmBootVerticalResolution
 .bss.mBmSetupHorizontalResolution
                0x0000000000029f08        0x4 /tmp/UiApp.dll.Q98Kv2.ltrans0.ltrans.o
                0x0000000000029f08                mBmSetupHorizontalResolution
 .bss.mBmSetupTextModeColumn
                0x0000000000029f0c        0x4 /tmp/UiApp.dll.Q98Kv2.ltrans0.ltrans.o
                0x0000000000029f0c                mBmSetupTextModeColumn
 .bss.mBmSetupTextModeRow
                0x0000000000029f10        0x4 /tmp/UiApp.dll.Q98Kv2.ltrans0.ltrans.o
                0x0000000000029f10                mBmSetupTextModeRow
 .bss.mBmSetupVerticalResolution
                0x0000000000029f14        0x4 /tmp/UiApp.dll.Q98Kv2.ltrans0.ltrans.o
                0x0000000000029f14                mBmSetupVerticalResolution
 .bss.mBmmBootHorizontalResolution
                0x0000000000029f18        0x4 /tmp/UiApp.dll.Q98Kv2.ltrans0.ltrans.o
                0x0000000000029f18                mBmmBootHorizontalResolution
 .bss.mBmmBootTextModeColumn
                0x0000000000029f1c        0x4 /tmp/UiApp.dll.Q98Kv2.ltrans0.ltrans.o
                0x0000000000029f1c                mBmmBootTextModeColumn
 .bss.mBmmBootTextModeRow
                0x0000000000029f20        0x4 /tmp/UiApp.dll.Q98Kv2.ltrans0.ltrans.o
                0x0000000000029f20                mBmmBootTextModeRow
 .bss.mBmmBootVerticalResolution
                0x0000000000029f24        0x4 /tmp/UiApp.dll.Q98Kv2.ltrans0.ltrans.o
                0x0000000000029f24                mBmmBootVerticalResolution
 .bss.mBmmSetupHorizontalResolution
                0x0000000000029f28        0x4 /tmp/UiApp.dll.Q98Kv2.ltrans0.ltrans.o
                0x0000000000029f28                mBmmSetupHorizontalResolution
 .bss.mBmmSetupTextModeColumn
                0x0000000000029f2c        0x4 /tmp/UiApp.dll.Q98Kv2.ltrans0.ltrans.o
                0x0000000000029f2c                mBmmSetupTextModeColumn
 .bss.mBmmSetupTextModeRow
                0x0000000000029f30        0x4 /tmp/UiApp.dll.Q98Kv2.ltrans0.ltrans.o
                0x0000000000029f30                mBmmSetupTextModeRow
 .bss.mBmmSetupVerticalResolution
                0x0000000000029f34        0x4 /tmp/UiApp.dll.Q98Kv2.ltrans0.ltrans.o
                0x0000000000029f34                mBmmSetupVerticalResolution
 .bss.mEndOpCodeHandle
                0x0000000000029f38        0x8 /tmp/UiApp.dll.Q98Kv2.ltrans0.ltrans.o
                0x0000000000029f38                mEndOpCodeHandle
 .bss.mFirstEnterBMMForm
                0x0000000000029f40        0x1 /tmp/UiApp.dll.Q98Kv2.ltrans0.ltrans.o
 *fill*         0x0000000000029f41        0x1 
 .bss.mKeyInput
                0x0000000000029f42        0x2 /tmp/UiApp.dll.Q98Kv2.ltrans0.ltrans.o
 *fill*         0x0000000000029f44        0x4 
 .bss.mMacDeviceList
                0x0000000000029f48       0x18 /tmp/UiApp.dll.Q98Kv2.ltrans0.ltrans.o
                0x0000000000029f48                mMacDeviceList
 .bss.mPerformanceMeasurement
                0x0000000000029f60        0x8 /tmp/UiApp.dll.Q98Kv2.ltrans0.ltrans.o
                0x0000000000029f60                mPerformanceMeasurement
 .bss.mQuestionIdUpdate
                0x0000000000029f68        0x2 /tmp/UiApp.dll.Q98Kv2.ltrans0.ltrans.o
                0x0000000000029f68                mQuestionIdUpdate
 *fill*         0x0000000000029f6a        0x6 
 .bss.mSelectedMacAddrString
                0x0000000000029f70        0x8 /tmp/UiApp.dll.Q98Kv2.ltrans0.ltrans.o
                0x0000000000029f70                mSelectedMacAddrString
 .bss.mStartLabel
                0x0000000000029f78        0x8 /tmp/UiApp.dll.Q98Kv2.ltrans0.ltrans.o
                0x0000000000029f78                mStartLabel
 .bss.mStartOpCodeHandle
                0x0000000000029f80        0x8 /tmp/UiApp.dll.Q98Kv2.ltrans0.ltrans.o
                0x0000000000029f80                mStartOpCodeHandle
 .bss.mUefiFormBrowser2
                0x0000000000029f88        0x8 /tmp/UiApp.dll.Q98Kv2.ltrans0.ltrans.o
 .bss.gDS       0x0000000000029f90        0x8 /tmp/UiApp.dll.Q98Kv2.ltrans1.ltrans.o
                0x0000000000029f90                gDS
 .bss.gImageHandle
                0x0000000000029f98        0x8 /tmp/UiApp.dll.Q98Kv2.ltrans1.ltrans.o
                0x0000000000029f98                gImageHandle
 .bss.mLibEndOpCodeHandle
                0x0000000000029fa0        0x8 /tmp/UiApp.dll.Q98Kv2.ltrans1.ltrans.o
 .bss.mLibStartOpCodeHandle
                0x0000000000029fa8        0x8 /tmp/UiApp.dll.Q98Kv2.ltrans1.ltrans.o
 .bss.mNewFileName
                0x0000000000029fb0       0x28 /tmp/UiApp.dll.Q98Kv2.ltrans1.ltrans.o
 .bss.mNewFolderName
                0x0000000000029fd8       0x28 /tmp/UiApp.dll.Q98Kv2.ltrans1.ltrans.o
 .bss.mRamDisk  0x000000000002a000        0x8 /tmp/UiApp.dll.Q98Kv2.ltrans1.ltrans.o
 .bss.gCurrentLanguageIndex
                0x000000000002a008        0x1 /tmp/UiApp.dll.Q98Kv2.ltrans2.ltrans.o
 *fill*         0x000000000002a009        0x7 
 .bss.gFormBrowser2
                0x000000000002a010        0x8 /tmp/UiApp.dll.Q98Kv2.ltrans2.ltrans.o
 .bss.gHiiDriverList
                0x000000000002a018        0x8 /tmp/UiApp.dll.Q98Kv2.ltrans2.ltrans.o
 .bss.gHiiFont  0x000000000002a020        0x8 /tmp/UiApp.dll.Q98Kv2.ltrans2.ltrans.o
 .bss.gHiiImage
                0x000000000002a028        0x8 /tmp/UiApp.dll.Q98Kv2.ltrans2.ltrans.o
 .bss.gHiiVendorDevicePath
                0x000000000002a030        0x8 /tmp/UiApp.dll.Q98Kv2.ltrans2.ltrans.o
 .bss.gLanguageString
                0x000000000002a038        0x8 /tmp/UiApp.dll.Q98Kv2.ltrans2.ltrans.o
 .bss.gLanguageToken
                0x000000000002a040        0x8 /tmp/UiApp.dll.Q98Kv2.ltrans2.ltrans.o
 .bss.gStringPackHandle
                0x000000000002a048        0x8 /tmp/UiApp.dll.Q98Kv2.ltrans2.ltrans.o
 .bss.mAllMenuInit
                0x000000000002a050        0x1 /tmp/UiApp.dll.Q98Kv2.ltrans2.ltrans.o
 *fill*         0x000000000002a051        0x7 
 .bss.mBPDriverHandle
                0x000000000002a058        0x8 /tmp/UiApp.dll.Q98Kv2.ltrans2.ltrans.o
 .bss.mBPHiiHandle
                0x000000000002a060        0x8 /tmp/UiApp.dll.Q98Kv2.ltrans2.ltrans.o
 .bss.mBmModeInitialized
                0x000000000002a068        0x1 /tmp/UiApp.dll.Q98Kv2.ltrans2.ltrans.o
 .bss.mBmmModeInitialized
                0x000000000002a069        0x1 /tmp/UiApp.dll.Q98Kv2.ltrans2.ltrans.o
 *fill*         0x000000000002a06a        0x2 
 .bss.mBootHorizontalResolution
                0x000000000002a06c        0x4 /tmp/UiApp.dll.Q98Kv2.ltrans2.ltrans.o
 .bss.mBootTextModeColumn
                0x000000000002a070        0x4 /tmp/UiApp.dll.Q98Kv2.ltrans2.ltrans.o
 .bss.mBootTextModeRow
                0x000000000002a074        0x4 /tmp/UiApp.dll.Q98Kv2.ltrans2.ltrans.o
 .bss.mBootVerticalResolution
                0x000000000002a078        0x4 /tmp/UiApp.dll.Q98Kv2.ltrans2.ltrans.o
 *fill*         0x000000000002a07c        0x4 
 .bss.mHobList  0x000000000002a080        0x8 /tmp/UiApp.dll.Q98Kv2.ltrans2.ltrans.o
 .bss.mLanguageString
                0x000000000002a088        0x8 /tmp/UiApp.dll.Q98Kv2.ltrans2.ltrans.o
 .bss.mModeInitialized
                0x000000000002a090        0x1 /tmp/UiApp.dll.Q98Kv2.ltrans2.ltrans.o
 *fill*         0x000000000002a091        0x7 
 .bss.mPcd      0x000000000002a098        0x8 /tmp/UiApp.dll.Q98Kv2.ltrans2.ltrans.o
 .bss.mResetRequired
                0x000000000002a0a0        0x1 /tmp/UiApp.dll.Q98Kv2.ltrans2.ltrans.o
 *fill*         0x000000000002a0a1        0x3 
 .bss.mSetupHorizontalResolution
                0x000000000002a0a4        0x4 /tmp/UiApp.dll.Q98Kv2.ltrans2.ltrans.o
 .bss.mSetupTextModeColumn
                0x000000000002a0a8        0x4 /tmp/UiApp.dll.Q98Kv2.ltrans2.ltrans.o
 .bss.mSetupTextModeRow
                0x000000000002a0ac        0x4 /tmp/UiApp.dll.Q98Kv2.ltrans2.ltrans.o
 .bss.mSetupVerticalResolution
                0x000000000002a0b0        0x4 /tmp/UiApp.dll.Q98Kv2.ltrans2.ltrans.o

.dynbss         0x000000000002a0b4        0x0
 .dynbss        0x000000000002a0b4        0x0 /home/alastair/pftf-rpi4/edk2/ArmPkg/Library/GccLto/liblto-aarch64.a

.eh_frame
 *(.eh_frame)

.rela           0x000000000002a0b8      0xa98
 *(.rela .rela.*)
 .rela.got      0x000000000002a0b8        0x0 /home/alastair/pftf-rpi4/edk2/ArmPkg/Library/GccLto/liblto-aarch64.a
 .rela.plt      0x000000000002a0b8        0x0 /home/alastair/pftf-rpi4/edk2/ArmPkg/Library/GccLto/liblto-aarch64.a
 .rela.bss      0x000000000002a0b8        0x0 /home/alastair/pftf-rpi4/edk2/ArmPkg/Library/GccLto/liblto-aarch64.a
 .rela.data.rel.ro
                0x000000000002a0b8        0x0 /home/alastair/pftf-rpi4/edk2/ArmPkg/Library/GccLto/liblto-aarch64.a
 .rela.ifunc    0x000000000002a0b8        0x0 /home/alastair/pftf-rpi4/edk2/ArmPkg/Library/GccLto/liblto-aarch64.a
 .rela.data.gBootMaintenancePrivate
                0x000000000002a0b8       0x48 /home/alastair/pftf-rpi4/edk2/ArmPkg/Library/GccLto/liblto-aarch64.a
 .rela.data.gBootManagerPrivate
                0x000000000002a100       0x48 /home/alastair/pftf-rpi4/edk2/ArmPkg/Library/GccLto/liblto-aarch64.a
 .rela.data.gDeviceManagerPrivate
                0x000000000002a148       0x48 /home/alastair/pftf-rpi4/edk2/ArmPkg/Library/GccLto/liblto-aarch64.a
 .rela.data.gFileExplorerPrivate
                0x000000000002a190       0x60 /home/alastair/pftf-rpi4/edk2/ArmPkg/Library/GccLto/liblto-aarch64.a
 .rela.rodata.mBmLoadOptionName
                0x000000000002a1f0       0x60 /home/alastair/pftf-rpi4/edk2/ArmPkg/Library/GccLto/liblto-aarch64.a
 .rela.rodata.mBmLoadOptionOrderName
                0x000000000002a250       0x48 /home/alastair/pftf-rpi4/edk2/ArmPkg/Library/GccLto/liblto-aarch64.a
 .rela.rodata.mDeviceTypeStr
                0x000000000002a298       0xc0 /home/alastair/pftf-rpi4/edk2/ArmPkg/Library/GccLto/liblto-aarch64.a
 .rela.rodata.mUefiDevicePathLibToTextTable
                0x000000000002a358      0x498 /home/alastair/pftf-rpi4/edk2/ArmPkg/Library/GccLto/liblto-aarch64.a
 .rela.data.mBmHotkeyList
                0x000000000002a7f0       0x30 /home/alastair/pftf-rpi4/edk2/ArmPkg/Library/GccLto/liblto-aarch64.a
 .rela.data.mPlatformBootDescriptionHandlers
                0x000000000002a820       0x30 /home/alastair/pftf-rpi4/edk2/ArmPkg/Library/GccLto/liblto-aarch64.a
 .rela.rodata.mBmBootDescriptionHandlers
                0x000000000002a850       0x90 /home/alastair/pftf-rpi4/edk2/ArmPkg/Library/GccLto/liblto-aarch64.a
 .rela.rodata.mBmHealthStatusText
                0x000000000002a8e0       0x90 /home/alastair/pftf-rpi4/edk2/ArmPkg/Library/GccLto/liblto-aarch64.a
 .rela.rodata.mConVarName
                0x000000000002a970       0x90 /home/alastair/pftf-rpi4/edk2/ArmPkg/Library/GccLto/liblto-aarch64.a
 .rela.data.gFrontPagePrivate
                0x000000000002aa00       0x48 /home/alastair/pftf-rpi4/edk2/ArmPkg/Library/GccLto/liblto-aarch64.a
 .rela.rodata.CSWTCH.58
                0x000000000002aa48       0x90 /home/alastair/pftf-rpi4/edk2/ArmPkg/Library/GccLto/liblto-aarch64.a
 .rela.rodata.mUefiDevicePathLibToTextTableGeneric
                0x000000000002aad8       0x78 /home/alastair/pftf-rpi4/edk2/ArmPkg/Library/GccLto/liblto-aarch64.a

.hii
 *(.hii)

.build-id       0x000000000002ab50       0x24
 *(.note.gnu.build-id)
 .note.gnu.build-id
                0x000000000002ab50       0x24 /home/alastair/pftf-rpi4/edk2/ArmPkg/Library/GccLto/liblto-aarch64.a

/DISCARD/
 *(.note.GNU-stack)
 *(.gnu_debuglink)
 *(.interp)
 *(.dynsym)
 *(.dynstr)
 *(.dynamic)
 *(.hash .gnu.hash)
 *(.comment)
 *(COMMON)
                0x0000000000000228                PECOFF_HEADER_SIZE = 0x228
OUTPUT(/home/alastair/pftf-rpi4/Build/RPi4/DEBUG_GCC5/AARCH64/MdeModulePkg/Application/UiApp/UiApp/DEBUG/UiApp.dll elf64-littleaarch64)
LOAD linker stubs

.debug_info     0x0000000000000000    0xb6c9f
 .debug_info    0x0000000000000000     0xeb3e /tmp/UiApp.dll.Q98Kv2.ltrans0.ltrans.o
 .debug_info    0x000000000000eb3e     0xc1bf /tmp/UiApp.dll.Q98Kv2.ltrans1.ltrans.o
 .debug_info    0x000000000001acfd     0xd296 /tmp/UiApp.dll.Q98Kv2.ltrans2.ltrans.o
 .debug_info    0x0000000000027f93     0x1929 /tmp/ccXLXemY.debug.temp.o
                0x0000000000027f93                ApplicationEntryPoint.c.95c936b6
 .debug_info    0x00000000000298bc      0x187 /tmp/ccuwh8z1.debug.temp.o
                0x00000000000298bc                BaseStackCheckGcc.c.9918e4ed
 .debug_info    0x0000000000029a43      0x1d7 /tmp/cck2W3H1.debug.temp.o
                0x0000000000029a43                memcpy.c.992e94b8
 .debug_info    0x0000000000029c1a      0x188 /tmp/ccoBQNI0.debug.temp.o
                0x0000000000029c1a                memset.c.d190684e
 .debug_info    0x0000000000029da2     0x224a /tmp/ccpy9nAZ.debug.temp.o
                0x0000000000029da2                AutoGen.c.5a56cbc1
 .debug_info    0x000000000002bfec     0x4322 /tmp/ccX9icb1.debug.temp.o
                0x000000000002bfec                FrontPage.c.62c635b1
 .debug_info    0x000000000003030e     0x2fc1 /tmp/ccwe7F9Z.debug.temp.o
                0x000000000003030e                String.c.21ac8f9a
 .debug_info    0x00000000000332cf     0x3197 /tmp/ccQUKTI0.debug.temp.o
                0x00000000000332cf                FrontPageCustomizedUi.c.deb103c9
 .debug_info    0x0000000000036466     0x3395 /tmp/ccYI1wMY.debug.temp.o
                0x0000000000036466                FrontPageCustomizedUiSupport.c.666fbd0b
 .debug_info    0x00000000000397fb      0x5d6 /tmp/ccynLRz0.debug.temp.o
                0x00000000000397fb                FrontPageVfr.c.2252924c
 .debug_info    0x0000000000039dd1     0x2beb /tmp/cc2k3k1Y.debug.temp.o
                0x0000000000039dd1                DxePcdLib.c.27e87d0b
 .debug_info    0x000000000003c9bc      0x21d /tmp/ccgv7ROY.debug.temp.o
                0x000000000003c9bc                MemLibGuid.c.2ca06148
 .debug_info    0x000000000003cbd9      0x191 /tmp/cc7IhR1Z.debug.temp.o
                0x000000000003cbd9                CopyMemWrapper.c.8ed793a8
 .debug_info    0x000000000003cd6a      0x1db /tmp/ccgMiaWZ.debug.temp.o
                0x000000000003cd6a                RShiftU64.c.a990dafe
 .debug_info    0x000000000003cf45      0x1d0 /tmp/ccoeBIz2.debug.temp.o
                0x000000000003cf45                CpuDeadLoop.c.e33e7959
 .debug_info    0x000000000003d115     0x1004 /tmp/cc89Rov0.debug.temp.o
                0x000000000003d115                SafeString.c.d8550fea
 .debug_info    0x000000000003e119      0x7f3 /tmp/ccu8zALY.debug.temp.o
                0x000000000003e119                String.c.753c3495
 .debug_info    0x000000000003e90c      0x43c /tmp/ccIGsEq2.debug.temp.o
                0x000000000003e90c                Math64.c.5e992ad5
 .debug_info    0x000000000003ed48      0x1db /tmp/ccSXYPu1.debug.temp.o
                0x000000000003ed48                MultU64x32.c.c8a7ecd3
 .debug_info    0x000000000003ef23      0x1db /tmp/ccHrOVSZ.debug.temp.o
                0x000000000003ef23                LShiftU64.c.b38ec6e2
 .debug_info    0x000000000003f0fe      0x68f /tmp/ccRL0t71.debug.temp.o
                0x000000000003f0fe                PrintLib.c.260a037f
 .debug_info    0x000000000003f78d      0x79a /tmp/ccflTjNZ.debug.temp.o
                0x000000000003f78d                PrintLibInternal.c.92769e0a
 .debug_info    0x000000000003ff27      0x3f2 /tmp/ccCnyV0Z.debug.temp.o
                0x000000000003ff27                DebugLib.c.0df38b98
 .debug_info    0x0000000000040319     0x18e1 /tmp/cc9hyaUZ.debug.temp.o
                0x0000000000040319                UefiBootServicesTableLib.c.c00a3dd8
 .debug_info    0x0000000000041bfa     0x1de0 /tmp/cc21llNZ.debug.temp.o
                0x0000000000041bfa                MemoryAllocationLib.c.774777c4
 .debug_info    0x00000000000439da     0x18b2 /tmp/ccKWBlX1.debug.temp.o
                0x00000000000439da                UefiRuntimeServicesTableLib.c.7b9e7237
 .debug_info    0x000000000004528c     0x1953 /tmp/cc1aFA5Z.debug.temp.o
                0x000000000004528c                DevicePathUtilitiesDxeSmm.c.e3408512
 .debug_info    0x0000000000046bdf     0x1afe /tmp/ccmqEJs1.debug.temp.o
                0x0000000000046bdf                UefiDevicePathLib.c.c981cbf5
 .debug_info    0x00000000000486dd     0x1d7d /tmp/ccAOfzxZ.debug.temp.o
                0x00000000000486dd                DevicePathUtilities.c.94f518f0
 .debug_info    0x000000000004a45a     0x3d60 /tmp/cchG3pwZ.debug.temp.o
                0x000000000004a45a                DevicePathToText.c.c18353b7
 .debug_info    0x000000000004e1ba     0x1cda /tmp/ccBSCCd0.debug.temp.o
                0x000000000004e1ba                Console.c.85380a39
 .debug_info    0x000000000004fe94     0x27ac /tmp/cco3PPPZ.debug.temp.o
                0x000000000004fe94                UefiLib.c.2c69044c
 .debug_info    0x0000000000052640     0x2966 /tmp/cchh678Z.debug.temp.o
                0x0000000000052640                UefiHiiServicesLib.c.57cd5a7f
 .debug_info    0x0000000000054fa6     0x1eae /tmp/ccrZtxQY.debug.temp.o
                0x0000000000054fa6                DxeServicesTableLib.c.0552c477
 .debug_info    0x0000000000056e54     0x22fe /tmp/ccfDM0k1.debug.temp.o
                0x0000000000056e54                HobLib.c.fefb3825
 .debug_info    0x0000000000059152     0x50c1 /tmp/ccuzzRj1.debug.temp.o
                0x0000000000059152                HiiLib.c.b2279ad8
 .debug_info    0x000000000005e213     0x2b6a /tmp/ccxr8Vv0.debug.temp.o
                0x000000000005e213                HiiString.c.d0f43445
 .debug_info    0x0000000000060d7d     0x2a1b /tmp/cc0kzjFY.debug.temp.o
                0x0000000000060d7d                HiiLanguage.c.1635079f
 .debug_info    0x0000000000063798      0x502 /tmp/ccLowxqY.debug.temp.o
                0x0000000000063798                BaseReportStatusCodeLib.c.f05e4fbb
 .debug_info    0x0000000000063c9a     0x272c /tmp/ccOGc8QZ.debug.temp.o
                0x0000000000063c9a                BmConnect.c.61ed0be0
 .debug_info    0x00000000000663c6     0x2b62 /tmp/cccB7H00.debug.temp.o
                0x00000000000663c6                BmConsole.c.eabdfa4b
 .debug_info    0x0000000000068f28     0x3e41 /tmp/ccBAPAPY.debug.temp.o
                0x0000000000068f28                BmBoot.c.fc5b4c66
 .debug_info    0x000000000006cd69     0x5375 /tmp/ccJ3wbH2.debug.temp.o
                0x000000000006cd69                BmBootDescription.c.881fae43
 .debug_info    0x00000000000720de     0x3384 /tmp/ccMJKxz0.debug.temp.o
                0x00000000000720de                BmLoadOption.c.af141ef8
 .debug_info    0x0000000000075462     0x2e99 /tmp/ccGRln0Z.debug.temp.o
                0x0000000000075462                BmHotkey.c.c30e9ef0
 .debug_info    0x00000000000782fb     0x281e /tmp/ccm3aFyY.debug.temp.o
                0x00000000000782fb                BmDriverHealth.c.f9829727
 .debug_info    0x000000000007ab19     0x253b /tmp/cclS07I1.debug.temp.o
                0x000000000007ab19                BmMisc.c.65e95ac4
 .debug_info    0x000000000007d054     0x2f60 /tmp/ccmE61gZ.debug.temp.o
                0x000000000007d054                FileExplorer.c.31be6e5a
 .debug_info    0x000000000007ffb4      0x282 /tmp/ccqqSvwY.debug.temp.o
                0x000000000007ffb4                AutoGen.c.14fff343
 .debug_info    0x0000000000080236      0x296 /tmp/ccTyef5X.debug.temp.o
                0x0000000000080236                FileExplorerVfr.c.669b19e7
 .debug_info    0x00000000000804cc     0x1aba /tmp/ccvnVB4Y.debug.temp.o
                0x00000000000804cc                BootDiscoveryPolicyUiLib.c.16045044
 .debug_info    0x0000000000081f86      0x266 /tmp/ccQwoZX1.debug.temp.o
                0x0000000000081f86                BootDiscoveryPolicyUiLibVfr.c.f08d720d
 .debug_info    0x00000000000821ec      0x252 /tmp/ccvXWyr2.debug.temp.o
                0x00000000000821ec                AutoGen.c.2f8c7a67
 .debug_info    0x000000000008243e     0x3451 /tmp/ccpQnC9Z.debug.temp.o
                0x000000000008243e                DeviceManager.c.9d8fed3b
 .debug_info    0x000000000008588f      0x26a /tmp/cc8AEeA1.debug.temp.o
                0x000000000008588f                AutoGen.c.15419cce
 .debug_info    0x0000000000085af9      0x27f /tmp/cchFPuC1.debug.temp.o
                0x0000000000085af9                DeviceManagerVfr.c.3042c31d
 .debug_info    0x0000000000085d78     0x2a41 /tmp/ccpHjFh0.debug.temp.o
                0x0000000000085d78                BootManager.c.20393c43
 .debug_info    0x00000000000887b9      0x282 /tmp/ccgEALCZ.debug.temp.o
                0x00000000000887b9                AutoGen.c.bad56f82
 .debug_info    0x0000000000088a3b      0x296 /tmp/ccjp9NH0.debug.temp.o
                0x0000000000088a3b                BootManagerVfr.c.bfcc7dfa
 .debug_info    0x0000000000088cd1     0x1a62 /tmp/ccuDssmY.debug.temp.o
                0x0000000000088cd1                PlatformUiAppLib.c.a0e4ac29
 .debug_info    0x000000000008a733     0x44c1 /tmp/ccFjeET1.debug.temp.o
                0x000000000008a733                BootMaintenance.c.7ea55645
 .debug_info    0x000000000008ebf4     0x45fb /tmp/cclZ3Pb2.debug.temp.o
                0x000000000008ebf4                BootOption.c.36c32231
 .debug_info    0x00000000000931ef     0x4724 /tmp/ccFoK7iY.debug.temp.o
                0x00000000000931ef                ConsoleOption.c.0ba3e0c7
 .debug_info    0x0000000000097913     0x3cf8 /tmp/ccx4WvuY.debug.temp.o
                0x0000000000097913                Data.c.3301c021
 .debug_info    0x000000000009b60b     0x4200 /tmp/cccD4R4Y.debug.temp.o
                0x000000000009b60b                Variable.c.adfe4b89
 .debug_info    0x000000000009f80b     0x4143 /tmp/cckQRlOZ.debug.temp.o
                0x000000000009f80b                UpdatePage.c.43d00576
 .debug_info    0x00000000000a394e     0x3c7d /tmp/cc9OkTVY.debug.temp.o
                0x00000000000a394e                BmLib.c.0534f97d
 .debug_info    0x00000000000a75cb      0x55d /tmp/cc7K71J2.debug.temp.o
                0x00000000000a75cb                BootMaintenanceManagerCustomizedUi.c.0b65157e
 .debug_info    0x00000000000a7b28     0x401e /tmp/ccQl6g7Y.debug.temp.o
                0x00000000000a7b28                BootMaintenanceManagerCustomizedUiSupport.c.1135565e
 .debug_info    0x00000000000abb46      0x2ca /tmp/ccBGXek0.debug.temp.o
                0x00000000000abb46                AutoGen.c.e6589fbf
 .debug_info    0x00000000000abe10      0x2df /tmp/ccKG5gX1.debug.temp.o
                0x00000000000abe10                BootMaintenanceManager.c.fdcdf172
 .debug_info    0x00000000000ac0ef      0x17a /tmp/ccdErvpZ.debug.temp.o
                0x00000000000ac0ef                ZeroMemWrapper.c.8dc042f6
 .debug_info    0x00000000000ac269      0x1a7 /tmp/ccOPcyI1.debug.temp.o
                0x00000000000ac269                CompareMemWrapper.c.96cbdc30
 .debug_info    0x00000000000ac410      0x186 /tmp/ccUlrJiZ.debug.temp.o
                0x00000000000ac410                SetMem16Wrapper.c.ab3f09e9
 .debug_info    0x00000000000ac596      0x1bb /tmp/ccbsni51.debug.temp.o
                0x00000000000ac596                SetMemWrapper.c.36d74bb8
 .debug_info    0x00000000000ac751      0x183 /tmp/ccHgKZ8Z.debug.temp.o
                0x00000000000ac751                IsZeroBufferWrapper.c.fee66244
 .debug_info    0x00000000000ac8d4      0x28a /tmp/ccIgerP1.debug.temp.o
                0x00000000000ac8d4                ScanMemGeneric.c.8b8547a5
 .debug_info    0x00000000000acb5e      0x1e5 /tmp/ccQmTW2Y.debug.temp.o
                0x00000000000acb5e                DivU64x32Remainder.c.19070deb
 .debug_info    0x00000000000acd43      0x428 /tmp/ccgTdfpY.debug.temp.o
                0x00000000000acd43                LinkedList.c.6e13becc
 .debug_info    0x00000000000ad16b      0x33d /tmp/ccKyus00.debug.temp.o
                0x00000000000ad16b                Unaligned.c.4a0798dc
 .debug_info    0x00000000000ad4a8      0x18d /tmp/cc7Ehhw1.debug.temp.o
                0x00000000000ad4a8                BaseDebugPrintErrorLevelLib.c.afda57b5
 .debug_info    0x00000000000ad635      0x201 /tmp/ccfyTez0.debug.temp.o
                0x00000000000ad635                DebugDualSerialPortLib.c.3fe30e88
 .debug_info    0x00000000000ad836      0x2e6 /tmp/cc5UOYk1.debug.temp.o
                0x00000000000ad836                DualSerialPortLibCommon.c.2dc6badf
 .debug_info    0x00000000000adb1c     0x2762 /tmp/ccM7Aa4Y.debug.temp.o
                0x00000000000adb1c                UefiLibPrint.c.10301016
 .debug_info    0x00000000000b027e     0x1c06 /tmp/ccRuQ8g0.debug.temp.o
                0x00000000000b027e                UefiNotTiano.c.c6756db9
 .debug_info    0x00000000000b1e84     0x2756 /tmp/ccvWjh1Z.debug.temp.o
                0x00000000000b1e84                DxeServicesLib.c.7e331950
 .debug_info    0x00000000000b45da     0x1c8c /tmp/ccn7znk2.debug.temp.o
                0x00000000000b45da                DxePerformanceLib.c.c601e708
 .debug_info    0x00000000000b6266      0x503 /tmp/ccTXd1KY.debug.temp.o
                0x00000000000b6266                IoLibNoIo.c.335a48c4
 .debug_info    0x00000000000b6769      0x536 /tmp/ccDjFz6Y.debug.temp.o
                0x00000000000b6769                PL011UartLib.c.f54a0051

.debug_abbrev   0x0000000000000000     0x9ecb
 .debug_abbrev  0x0000000000000000      0x2f7 /tmp/UiApp.dll.Q98Kv2.ltrans0.ltrans.o
 .debug_abbrev  0x00000000000002f7      0x261 /tmp/UiApp.dll.Q98Kv2.ltrans1.ltrans.o
 .debug_abbrev  0x0000000000000558      0x2ae /tmp/UiApp.dll.Q98Kv2.ltrans2.ltrans.o
 .debug_abbrev  0x0000000000000806      0x1fc /tmp/ccXLXemY.debug.temp.o
 .debug_abbrev  0x0000000000000a02       0xc7 /tmp/ccuwh8z1.debug.temp.o
 .debug_abbrev  0x0000000000000ac9       0xee /tmp/cck2W3H1.debug.temp.o
 .debug_abbrev  0x0000000000000bb7       0xc0 /tmp/ccoBQNI0.debug.temp.o
 .debug_abbrev  0x0000000000000c77      0x236 /tmp/ccpy9nAZ.debug.temp.o
 .debug_abbrev  0x0000000000000ead      0x30c /tmp/ccX9icb1.debug.temp.o
 .debug_abbrev  0x00000000000011b9      0x24b /tmp/ccwe7F9Z.debug.temp.o
 .debug_abbrev  0x0000000000001404      0x25c /tmp/ccQUKTI0.debug.temp.o
 .debug_abbrev  0x0000000000001660      0x2c8 /tmp/ccYI1wMY.debug.temp.o
 .debug_abbrev  0x0000000000001928       0xbc /tmp/ccynLRz0.debug.temp.o
 .debug_abbrev  0x00000000000019e4      0x25c /tmp/cc2k3k1Y.debug.temp.o
 .debug_abbrev  0x0000000000001c40       0xce /tmp/ccgv7ROY.debug.temp.o
 .debug_abbrev  0x0000000000001d0e       0xb8 /tmp/cc7IhR1Z.debug.temp.o
 .debug_abbrev  0x0000000000001dc6       0xb1 /tmp/ccgMiaWZ.debug.temp.o
 .debug_abbrev  0x0000000000001e77       0xb6 /tmp/ccoeBIz2.debug.temp.o
 .debug_abbrev  0x0000000000001f2d      0x138 /tmp/cc89Rov0.debug.temp.o
 .debug_abbrev  0x0000000000002065      0x126 /tmp/ccu8zALY.debug.temp.o
 .debug_abbrev  0x000000000000218b       0xf9 /tmp/ccIGsEq2.debug.temp.o
 .debug_abbrev  0x0000000000002284       0xc0 /tmp/ccSXYPu1.debug.temp.o
 .debug_abbrev  0x0000000000002344       0xb1 /tmp/ccHrOVSZ.debug.temp.o
 .debug_abbrev  0x00000000000023f5      0x150 /tmp/ccRL0t71.debug.temp.o
 .debug_abbrev  0x0000000000002545      0x161 /tmp/ccflTjNZ.debug.temp.o
 .debug_abbrev  0x00000000000026a6      0x165 /tmp/ccCnyV0Z.debug.temp.o
 .debug_abbrev  0x000000000000280b      0x1dd /tmp/cc9hyaUZ.debug.temp.o
 .debug_abbrev  0x00000000000029e8      0x242 /tmp/cc21llNZ.debug.temp.o
 .debug_abbrev  0x0000000000002c2a      0x1c3 /tmp/ccKWBlX1.debug.temp.o
 .debug_abbrev  0x0000000000002ded      0x1d4 /tmp/cc1aFA5Z.debug.temp.o
 .debug_abbrev  0x0000000000002fc1      0x1fe /tmp/ccmqEJs1.debug.temp.o
 .debug_abbrev  0x00000000000031bf      0x240 /tmp/ccAOfzxZ.debug.temp.o
 .debug_abbrev  0x00000000000033ff      0x2ca /tmp/cchG3pwZ.debug.temp.o
 .debug_abbrev  0x00000000000036c9      0x276 /tmp/ccBSCCd0.debug.temp.o
 .debug_abbrev  0x000000000000393f      0x267 /tmp/cco3PPPZ.debug.temp.o
 .debug_abbrev  0x0000000000003ba6      0x216 /tmp/cchh678Z.debug.temp.o
 .debug_abbrev  0x0000000000003dbc      0x1ea /tmp/ccrZtxQY.debug.temp.o
 .debug_abbrev  0x0000000000003fa6      0x25a /tmp/ccfDM0k1.debug.temp.o
 .debug_abbrev  0x0000000000004200      0x315 /tmp/ccuzzRj1.debug.temp.o
 .debug_abbrev  0x0000000000004515      0x249 /tmp/ccxr8Vv0.debug.temp.o
 .debug_abbrev  0x000000000000475e      0x209 /tmp/cc0kzjFY.debug.temp.o
 .debug_abbrev  0x0000000000004967      0x124 /tmp/ccLowxqY.debug.temp.o
 .debug_abbrev  0x0000000000004a8b      0x214 /tmp/ccOGc8QZ.debug.temp.o
 .debug_abbrev  0x0000000000004c9f      0x258 /tmp/cccB7H00.debug.temp.o
 .debug_abbrev  0x0000000000004ef7      0x281 /tmp/ccBAPAPY.debug.temp.o
 .debug_abbrev  0x0000000000005178      0x382 /tmp/ccJ3wbH2.debug.temp.o
 .debug_abbrev  0x00000000000054fa      0x2b7 /tmp/ccMJKxz0.debug.temp.o
 .debug_abbrev  0x00000000000057b1      0x2e5 /tmp/ccGRln0Z.debug.temp.o
 .debug_abbrev  0x0000000000005a96      0x26c /tmp/ccm3aFyY.debug.temp.o
 .debug_abbrev  0x0000000000005d02      0x25a /tmp/cclS07I1.debug.temp.o
 .debug_abbrev  0x0000000000005f5c      0x2c0 /tmp/ccmE61gZ.debug.temp.o
 .debug_abbrev  0x000000000000621c       0xa8 /tmp/ccqqSvwY.debug.temp.o
 .debug_abbrev  0x00000000000062c4       0xac /tmp/ccTyef5X.debug.temp.o
 .debug_abbrev  0x0000000000006370      0x1fa /tmp/ccvnVB4Y.debug.temp.o
 .debug_abbrev  0x000000000000656a       0xac /tmp/ccQwoZX1.debug.temp.o
 .debug_abbrev  0x0000000000006616       0xa8 /tmp/ccvXWyr2.debug.temp.o
 .debug_abbrev  0x00000000000066be      0x2d5 /tmp/ccpQnC9Z.debug.temp.o
 .debug_abbrev  0x0000000000006993       0xa8 /tmp/cc8AEeA1.debug.temp.o
 .debug_abbrev  0x0000000000006a3b       0xb5 /tmp/cchFPuC1.debug.temp.o
 .debug_abbrev  0x0000000000006af0      0x28e /tmp/ccpHjFh0.debug.temp.o
 .debug_abbrev  0x0000000000006d7e       0xa8 /tmp/ccgEALCZ.debug.temp.o
 .debug_abbrev  0x0000000000006e26       0xac /tmp/ccjp9NH0.debug.temp.o
 .debug_abbrev  0x0000000000006ed2      0x1e7 /tmp/ccuDssmY.debug.temp.o
 .debug_abbrev  0x00000000000070b9      0x2fe /tmp/ccFjeET1.debug.temp.o
 .debug_abbrev  0x00000000000073b7      0x309 /tmp/cclZ3Pb2.debug.temp.o
 .debug_abbrev  0x00000000000076c0      0x330 /tmp/ccFoK7iY.debug.temp.o
 .debug_abbrev  0x00000000000079f0      0x249 /tmp/ccx4WvuY.debug.temp.o
 .debug_abbrev  0x0000000000007c39      0x2db /tmp/cccD4R4Y.debug.temp.o
 .debug_abbrev  0x0000000000007f14      0x2be /tmp/cckQRlOZ.debug.temp.o
 .debug_abbrev  0x00000000000081d2      0x282 /tmp/cc9OkTVY.debug.temp.o
 .debug_abbrev  0x0000000000008454      0x144 /tmp/cc7K71J2.debug.temp.o
 .debug_abbrev  0x0000000000008598      0x2c0 /tmp/ccQl6g7Y.debug.temp.o
 .debug_abbrev  0x0000000000008858       0xa8 /tmp/ccBGXek0.debug.temp.o
 .debug_abbrev  0x0000000000008900       0xb5 /tmp/ccKG5gX1.debug.temp.o
 .debug_abbrev  0x00000000000089b5       0xb1 /tmp/ccdErvpZ.debug.temp.o
 .debug_abbrev  0x0000000000008a66       0xb1 /tmp/ccOPcyI1.debug.temp.o
 .debug_abbrev  0x0000000000008b17       0xb1 /tmp/ccUlrJiZ.debug.temp.o
 .debug_abbrev  0x0000000000008bc8       0xc6 /tmp/ccbsni51.debug.temp.o
 .debug_abbrev  0x0000000000008c8e       0xb1 /tmp/ccHgKZ8Z.debug.temp.o
 .debug_abbrev  0x0000000000008d3f       0xc7 /tmp/ccIgerP1.debug.temp.o
 .debug_abbrev  0x0000000000008e06       0xb3 /tmp/ccQmTW2Y.debug.temp.o
 .debug_abbrev  0x0000000000008eb9      0x139 /tmp/ccgTdfpY.debug.temp.o
 .debug_abbrev  0x0000000000008ff2       0xc9 /tmp/ccKyus00.debug.temp.o
 .debug_abbrev  0x00000000000090bb       0xc6 /tmp/cc7Ehhw1.debug.temp.o
 .debug_abbrev  0x0000000000009181       0xc4 /tmp/ccfyTez0.debug.temp.o
 .debug_abbrev  0x0000000000009245      0x108 /tmp/cc5UOYk1.debug.temp.o
 .debug_abbrev  0x000000000000934d      0x283 /tmp/ccM7Aa4Y.debug.temp.o
 .debug_abbrev  0x00000000000095d0      0x233 /tmp/ccRuQ8g0.debug.temp.o
 .debug_abbrev  0x0000000000009803      0x225 /tmp/ccvWjh1Z.debug.temp.o
 .debug_abbrev  0x0000000000009a28      0x240 /tmp/ccn7znk2.debug.temp.o
 .debug_abbrev  0x0000000000009c68      0x11f /tmp/ccTXd1KY.debug.temp.o
 .debug_abbrev  0x0000000000009d87      0x144 /tmp/ccDjFz6Y.debug.temp.o

.debug_loc      0x0000000000000000    0x32e77
 .debug_loc     0x0000000000000000    0x12b63 /tmp/UiApp.dll.Q98Kv2.ltrans0.ltrans.o
 .debug_loc     0x0000000000012b63     0xee67 /tmp/UiApp.dll.Q98Kv2.ltrans1.ltrans.o
 .debug_loc     0x00000000000219ca    0x114ad /tmp/UiApp.dll.Q98Kv2.ltrans2.ltrans.o

.debug_aranges  0x0000000000000000     0x1380
 .debug_aranges
                0x0000000000000000      0x650 /tmp/UiApp.dll.Q98Kv2.ltrans0.ltrans.o
 .debug_aranges
                0x0000000000000650      0x430 /tmp/UiApp.dll.Q98Kv2.ltrans1.ltrans.o
 .debug_aranges
                0x0000000000000a80      0x900 /tmp/UiApp.dll.Q98Kv2.ltrans2.ltrans.o

.debug_ranges   0x0000000000000000     0x6100
 .debug_ranges  0x0000000000000000     0x2350 /tmp/UiApp.dll.Q98Kv2.ltrans0.ltrans.o
 .debug_ranges  0x0000000000002350     0x1f40 /tmp/UiApp.dll.Q98Kv2.ltrans1.ltrans.o
 .debug_ranges  0x0000000000004290     0x1e70 /tmp/UiApp.dll.Q98Kv2.ltrans2.ltrans.o

.debug_line     0x0000000000000000    0x28cc8
 .debug_line    0x0000000000000000     0x80d0 /tmp/UiApp.dll.Q98Kv2.ltrans0.ltrans.o
 .debug_line    0x00000000000080d0     0x6e12 /tmp/UiApp.dll.Q98Kv2.ltrans1.ltrans.o
 .debug_line    0x000000000000eee2     0x6fa1 /tmp/UiApp.dll.Q98Kv2.ltrans2.ltrans.o
 .debug_line    0x0000000000015e83      0x34f /tmp/ccXLXemY.debug.temp.o
 .debug_line    0x00000000000161d2      0x170 /tmp/ccuwh8z1.debug.temp.o
 .debug_line    0x0000000000016342      0x171 /tmp/cck2W3H1.debug.temp.o
 .debug_line    0x00000000000164b3      0x171 /tmp/ccoBQNI0.debug.temp.o
 .debug_line    0x0000000000016624      0x2ee /tmp/ccpy9nAZ.debug.temp.o
 .debug_line    0x0000000000016912      0x588 /tmp/ccX9icb1.debug.temp.o
 .debug_line    0x0000000000016e9a      0x4c8 /tmp/ccwe7F9Z.debug.temp.o
 .debug_line    0x0000000000017362      0x4ec /tmp/ccQUKTI0.debug.temp.o
 .debug_line    0x000000000001784e      0x4ce /tmp/ccYI1wMY.debug.temp.o
 .debug_line    0x0000000000017d1c      0x25f /tmp/ccynLRz0.debug.temp.o
 .debug_line    0x0000000000017f7b      0x384 /tmp/cc2k3k1Y.debug.temp.o
 .debug_line    0x00000000000182ff      0x173 /tmp/ccgv7ROY.debug.temp.o
 .debug_line    0x0000000000018472      0x173 /tmp/cc7IhR1Z.debug.temp.o
 .debug_line    0x00000000000185e5      0x14a /tmp/ccgMiaWZ.debug.temp.o
 .debug_line    0x000000000001872f      0x14c /tmp/ccoeBIz2.debug.temp.o
 .debug_line    0x000000000001887b      0x14b /tmp/cc89Rov0.debug.temp.o
 .debug_line    0x00000000000189c6      0x147 /tmp/ccu8zALY.debug.temp.o
 .debug_line    0x0000000000018b0d      0x147 /tmp/ccIGsEq2.debug.temp.o
 .debug_line    0x0000000000018c54      0x14b /tmp/ccSXYPu1.debug.temp.o
 .debug_line    0x0000000000018d9f      0x14a /tmp/ccHrOVSZ.debug.temp.o
 .debug_line    0x0000000000018ee9      0x166 /tmp/ccRL0t71.debug.temp.o
 .debug_line    0x000000000001904f      0x184 /tmp/ccflTjNZ.debug.temp.o
 .debug_line    0x00000000000191d3      0x20c /tmp/ccCnyV0Z.debug.temp.o
 .debug_line    0x00000000000193df      0x330 /tmp/cc9hyaUZ.debug.temp.o
 .debug_line    0x000000000001970f      0x328 /tmp/cc21llNZ.debug.temp.o
 .debug_line    0x0000000000019a37      0x2e9 /tmp/ccKWBlX1.debug.temp.o
 .debug_line    0x0000000000019d20      0x372 /tmp/cc1aFA5Z.debug.temp.o
 .debug_line    0x000000000001a092      0x36a /tmp/ccmqEJs1.debug.temp.o
 .debug_line    0x000000000001a3fc      0x36c /tmp/ccAOfzxZ.debug.temp.o
 .debug_line    0x000000000001a768      0x3db /tmp/cchG3pwZ.debug.temp.o
 .debug_line    0x000000000001ab43      0x34a /tmp/ccBSCCd0.debug.temp.o
 .debug_line    0x000000000001ae8d      0x36d /tmp/cco3PPPZ.debug.temp.o
 .debug_line    0x000000000001b1fa      0x400 /tmp/cchh678Z.debug.temp.o
 .debug_line    0x000000000001b5fa      0x42d /tmp/ccrZtxQY.debug.temp.o
 .debug_line    0x000000000001ba27      0x3c1 /tmp/ccfDM0k1.debug.temp.o
 .debug_line    0x000000000001bde8      0x515 /tmp/ccuzzRj1.debug.temp.o
 .debug_line    0x000000000001c2fd      0x4f8 /tmp/ccxr8Vv0.debug.temp.o
 .debug_line    0x000000000001c7f5      0x4fa /tmp/cc0kzjFY.debug.temp.o
 .debug_line    0x000000000001ccef      0x2b0 /tmp/ccLowxqY.debug.temp.o
 .debug_line    0x000000000001cf9f      0x4d7 /tmp/ccOGc8QZ.debug.temp.o
 .debug_line    0x000000000001d476      0x573 /tmp/cccB7H00.debug.temp.o
 .debug_line    0x000000000001d9e9      0x61f /tmp/ccBAPAPY.debug.temp.o
 .debug_line    0x000000000001e008      0x5f0 /tmp/ccJ3wbH2.debug.temp.o
 .debug_line    0x000000000001e5f8      0x5c8 /tmp/ccMJKxz0.debug.temp.o
 .debug_line    0x000000000001ebc0      0x539 /tmp/ccGRln0Z.debug.temp.o
 .debug_line    0x000000000001f0f9      0x56c /tmp/ccm3aFyY.debug.temp.o
 .debug_line    0x000000000001f665      0x56e /tmp/cclS07I1.debug.temp.o
 .debug_line    0x000000000001fbd3      0x55e /tmp/ccmE61gZ.debug.temp.o
 .debug_line    0x0000000000020131      0x286 /tmp/ccqqSvwY.debug.temp.o
 .debug_line    0x00000000000203b7      0x28e /tmp/ccTyef5X.debug.temp.o
 .debug_line    0x0000000000020645      0x498 /tmp/ccvnVB4Y.debug.temp.o
 .debug_line    0x0000000000020add      0x2b5 /tmp/ccQwoZX1.debug.temp.o
 .debug_line    0x0000000000020d92      0x2a1 /tmp/ccvXWyr2.debug.temp.o
 .debug_line    0x0000000000021033      0x4ea /tmp/ccpQnC9Z.debug.temp.o
 .debug_line    0x000000000002151d      0x28f /tmp/cc8AEeA1.debug.temp.o
 .debug_line    0x00000000000217ac      0x298 /tmp/cchFPuC1.debug.temp.o
 .debug_line    0x0000000000021a44      0x5e2 /tmp/ccpHjFh0.debug.temp.o
 .debug_line    0x0000000000022026      0x289 /tmp/ccgEALCZ.debug.temp.o
 .debug_line    0x00000000000222af      0x290 /tmp/ccjp9NH0.debug.temp.o
 .debug_line    0x000000000002253f      0x420 /tmp/ccuDssmY.debug.temp.o
 .debug_line    0x000000000002295f      0x6a0 /tmp/ccFjeET1.debug.temp.o
 .debug_line    0x0000000000022fff      0x6bf /tmp/cclZ3Pb2.debug.temp.o
 .debug_line    0x00000000000236be      0x688 /tmp/ccFoK7iY.debug.temp.o
 .debug_line    0x0000000000023d46      0x67f /tmp/ccx4WvuY.debug.temp.o
 .debug_line    0x00000000000243c5      0x69b /tmp/cccD4R4Y.debug.temp.o
 .debug_line    0x0000000000024a60      0x685 /tmp/cckQRlOZ.debug.temp.o
 .debug_line    0x00000000000250e5      0x680 /tmp/cc9OkTVY.debug.temp.o
 .debug_line    0x0000000000025765      0x37c /tmp/cc7K71J2.debug.temp.o
 .debug_line    0x0000000000025ae1      0x6d3 /tmp/ccQl6g7Y.debug.temp.o
 .debug_line    0x00000000000261b4      0x2aa /tmp/ccBGXek0.debug.temp.o
 .debug_line    0x000000000002645e      0x2b9 /tmp/ccKG5gX1.debug.temp.o
 .debug_line    0x0000000000026717      0x173 /tmp/ccdErvpZ.debug.temp.o
 .debug_line    0x000000000002688a      0x176 /tmp/ccOPcyI1.debug.temp.o
 .debug_line    0x0000000000026a00      0x174 /tmp/ccUlrJiZ.debug.temp.o
 .debug_line    0x0000000000026b74      0x172 /tmp/ccbsni51.debug.temp.o
 .debug_line    0x0000000000026ce6      0x178 /tmp/ccHgKZ8Z.debug.temp.o
 .debug_line    0x0000000000026e5e      0x177 /tmp/ccIgerP1.debug.temp.o
 .debug_line    0x0000000000026fd5      0x153 /tmp/ccQmTW2Y.debug.temp.o
 .debug_line    0x0000000000027128      0x14b /tmp/ccgTdfpY.debug.temp.o
 .debug_line    0x0000000000027273      0x14e /tmp/ccKyus00.debug.temp.o
 .debug_line    0x00000000000273c1      0x198 /tmp/cc7Ehhw1.debug.temp.o
 .debug_line    0x0000000000027559      0x228 /tmp/ccfyTez0.debug.temp.o
 .debug_line    0x0000000000027781      0x240 /tmp/cc5UOYk1.debug.temp.o
 .debug_line    0x00000000000279c1      0x3a1 /tmp/ccM7Aa4Y.debug.temp.o
 .debug_line    0x0000000000027d62      0x341 /tmp/ccRuQ8g0.debug.temp.o
 .debug_line    0x00000000000280a3      0x48b /tmp/ccvWjh1Z.debug.temp.o
 .debug_line    0x000000000002852e      0x386 /tmp/ccn7znk2.debug.temp.o
 .debug_line    0x00000000000288b4      0x16b /tmp/ccTXd1KY.debug.temp.o
 .debug_line    0x0000000000028a1f      0x2a9 /tmp/ccDjFz6Y.debug.temp.o

.debug_str      0x0000000000000000    0x12c13
 .debug_str     0x0000000000000000      0x5d6 /tmp/UiApp.dll.Q98Kv2.ltrans0.ltrans.o
                                        0x5dd (size before relaxing)
 .debug_str     0x00000000000005d6      0x1a2 /tmp/UiApp.dll.Q98Kv2.ltrans1.ltrans.o
                                        0x584 (size before relaxing)
 .debug_str     0x0000000000000778       0xf6 /tmp/UiApp.dll.Q98Kv2.ltrans2.ltrans.o
                                        0x5c9 (size before relaxing)
 .debug_str     0x000000000000086e     0x13e6 /tmp/ccXLXemY.debug.temp.o
                                       0x157f (size before relaxing)
 .debug_str     0x0000000000001c54      0x27a /tmp/ccuwh8z1.debug.temp.o
                                        0x3af (size before relaxing)
 .debug_str     0x0000000000001ece       0xd3 /tmp/cck2W3H1.debug.temp.o
                                        0x34e (size before relaxing)
 .debug_str     0x0000000000001fa1       0x55 /tmp/ccoBQNI0.debug.temp.o
                                        0x342 (size before relaxing)
 .debug_str     0x0000000000001ff6     0x1008 /tmp/ccpy9nAZ.debug.temp.o
                                       0x253c (size before relaxing)
 .debug_str     0x0000000000002ffe     0x1ac5 /tmp/ccX9icb1.debug.temp.o
                                       0x3c9d (size before relaxing)
 .debug_str     0x0000000000004ac3      0x14c /tmp/ccwe7F9Z.debug.temp.o
                                       0x2bcf (size before relaxing)
 .debug_str     0x0000000000004c0f       0xc0 /tmp/ccQUKTI0.debug.temp.o
                                       0x2d02 (size before relaxing)
 .debug_str     0x0000000000004ccf      0x27a /tmp/ccYI1wMY.debug.temp.o
                                       0x2d94 (size before relaxing)
 .debug_str     0x0000000000004f49       0x71 /tmp/ccynLRz0.debug.temp.o
                                        0xccb (size before relaxing)
 .debug_str     0x0000000000004fba      0x995 /tmp/cc2k3k1Y.debug.temp.o
                                       0x2118 (size before relaxing)
 .debug_str     0x000000000000594f      0x10c /tmp/ccgv7ROY.debug.temp.o
                                        0x3ad (size before relaxing)
 .debug_str     0x0000000000005a5b       0x71 /tmp/cc7IhR1Z.debug.temp.o
                                        0x370 (size before relaxing)
 .debug_str     0x0000000000005acc       0x9f /tmp/ccgMiaWZ.debug.temp.o
                                        0x465 (size before relaxing)
 .debug_str     0x0000000000005b6b       0x4f /tmp/ccoeBIz2.debug.temp.o
                                        0x461 (size before relaxing)
 .debug_str     0x0000000000005bba      0x2c8 /tmp/cc89Rov0.debug.temp.o
                                        0x82d (size before relaxing)
 .debug_str     0x0000000000005e82      0x2e1 /tmp/ccu8zALY.debug.temp.o
                                        0x7e2 (size before relaxing)
 .debug_str     0x0000000000006163      0x1b0 /tmp/ccIGsEq2.debug.temp.o
                                        0x5df (size before relaxing)
 .debug_str     0x0000000000006313       0x42 /tmp/ccSXYPu1.debug.temp.o
                                        0x472 (size before relaxing)
 .debug_str     0x0000000000006355       0x41 /tmp/ccHrOVSZ.debug.temp.o
                                        0x465 (size before relaxing)
 .debug_str     0x0000000000006396      0x261 /tmp/ccRL0t71.debug.temp.o
                                        0x5a2 (size before relaxing)
 .debug_str     0x00000000000065f7      0x243 /tmp/ccflTjNZ.debug.temp.o
                                        0x70c (size before relaxing)
 .debug_str     0x000000000000683a      0x1c2 /tmp/ccCnyV0Z.debug.temp.o
                                        0x5c4 (size before relaxing)
 .debug_str     0x00000000000069fc       0xfd /tmp/cc9hyaUZ.debug.temp.o
                                       0x156d (size before relaxing)
 .debug_str     0x0000000000006af9      0x300 /tmp/cc21llNZ.debug.temp.o
                                       0x17d9 (size before relaxing)
 .debug_str     0x0000000000006df9      0x10c /tmp/ccKWBlX1.debug.temp.o
                                       0x156f (size before relaxing)
 .debug_str     0x0000000000006f05      0x142 /tmp/cc1aFA5Z.debug.temp.o
                                       0x1658 (size before relaxing)
 .debug_str     0x0000000000007047       0xf2 /tmp/ccmqEJs1.debug.temp.o
                                       0x17d8 (size before relaxing)
 .debug_str     0x0000000000007139      0x283 /tmp/ccAOfzxZ.debug.temp.o
                                       0x1974 (size before relaxing)
 .debug_str     0x00000000000073bc      0xdb6 /tmp/cchG3pwZ.debug.temp.o
                                       0x25ec (size before relaxing)
 .debug_str     0x0000000000008172      0x228 /tmp/ccBSCCd0.debug.temp.o
                                       0x1a3a (size before relaxing)
 .debug_str     0x000000000000839a      0x604 /tmp/cco3PPPZ.debug.temp.o
                                       0x20b1 (size before relaxing)
 .debug_str     0x000000000000899e       0xeb /tmp/cchh678Z.debug.temp.o
                                       0x21db (size before relaxing)
 .debug_str     0x0000000000008a89      0x63a /tmp/ccrZtxQY.debug.temp.o
                                       0x1c34 (size before relaxing)
 .debug_str     0x00000000000090c3      0x5c1 /tmp/ccfDM0k1.debug.temp.o
                                       0x1c13 (size before relaxing)
 .debug_str     0x0000000000009684      0xd65 /tmp/ccuzzRj1.debug.temp.o
                                       0x35e9 (size before relaxing)
 .debug_str     0x000000000000a3e9       0xc6 /tmp/ccxr8Vv0.debug.temp.o
                                       0x2450 (size before relaxing)
 .debug_str     0x000000000000a4af       0x89 /tmp/cc0kzjFY.debug.temp.o
                                       0x23c2 (size before relaxing)
 .debug_str     0x000000000000a538      0x257 /tmp/ccLowxqY.debug.temp.o
                                        0x6b3 (size before relaxing)
 .debug_str     0x000000000000a78f      0x760 /tmp/ccOGc8QZ.debug.temp.o
                                       0x2812 (size before relaxing)
 .debug_str     0x000000000000aeef      0x3f5 /tmp/cccB7H00.debug.temp.o
                                       0x2b95 (size before relaxing)
 .debug_str     0x000000000000b2e4      0xfce /tmp/ccBAPAPY.debug.temp.o
                                       0x3656 (size before relaxing)
 .debug_str     0x000000000000c2b2      0xd51 /tmp/ccJ3wbH2.debug.temp.o
                                       0x42eb (size before relaxing)
 .debug_str     0x000000000000d003      0x8c5 /tmp/ccMJKxz0.debug.temp.o
                                       0x2d44 (size before relaxing)
 .debug_str     0x000000000000d8c8      0x5ee /tmp/ccGRln0Z.debug.temp.o
                                       0x2a4b (size before relaxing)
 .debug_str     0x000000000000deb6      0x41d /tmp/ccm3aFyY.debug.temp.o
                                       0x27e8 (size before relaxing)
 .debug_str     0x000000000000e2d3      0x27a /tmp/cclS07I1.debug.temp.o
                                       0x251d (size before relaxing)
 .debug_str     0x000000000000e54d      0x6e9 /tmp/ccmE61gZ.debug.temp.o
                                       0x2538 (size before relaxing)
 .debug_str     0x000000000000ec36       0x7c /tmp/ccqqSvwY.debug.temp.o
                                        0x5a3 (size before relaxing)
 .debug_str     0x000000000000ecb2       0x84 /tmp/ccTyef5X.debug.temp.o
                                        0x5be (size before relaxing)
 .debug_str     0x000000000000ed36      0x1bc /tmp/ccvnVB4Y.debug.temp.o
                                       0x184f (size before relaxing)
 .debug_str     0x000000000000eef2       0xa2 /tmp/ccQwoZX1.debug.temp.o
                                        0x591 (size before relaxing)
 .debug_str     0x000000000000ef94       0x8e /tmp/ccvXWyr2.debug.temp.o
                                        0x55e (size before relaxing)
 .debug_str     0x000000000000f022      0x3ab /tmp/ccpQnC9Z.debug.temp.o
                                       0x2a0b (size before relaxing)
 .debug_str     0x000000000000f3cd       0x82 /tmp/cc8AEeA1.debug.temp.o
                                        0x564 (size before relaxing)
 .debug_str     0x000000000000f44f       0x8b /tmp/cchFPuC1.debug.temp.o
                                        0x581 (size before relaxing)
 .debug_str     0x000000000000f4da      0x50b /tmp/ccpHjFh0.debug.temp.o
                                       0x262a (size before relaxing)
 .debug_str     0x000000000000f9e5       0x7e /tmp/ccgEALCZ.debug.temp.o
                                        0x59b (size before relaxing)
 .debug_str     0x000000000000fa63       0x85 /tmp/ccjp9NH0.debug.temp.o
                                        0x5b4 (size before relaxing)
 .debug_str     0x000000000000fae8      0x13d /tmp/ccuDssmY.debug.temp.o
                                       0x1790 (size before relaxing)
 .debug_str     0x000000000000fc25      0xaf7 /tmp/ccFjeET1.debug.temp.o
                                       0x38b9 (size before relaxing)
 .debug_str     0x000000000001071c      0x2c6 /tmp/cclZ3Pb2.debug.temp.o
                                       0x391b (size before relaxing)
 .debug_str     0x00000000000109e2      0x4b9 /tmp/ccFoK7iY.debug.temp.o
                                       0x384b (size before relaxing)
 .debug_str     0x0000000000010e9b       0x56 /tmp/ccx4WvuY.debug.temp.o
                                       0x3280 (size before relaxing)
 .debug_str     0x0000000000010ef1      0x1be /tmp/cccD4R4Y.debug.temp.o
                                       0x35dc (size before relaxing)
 .debug_str     0x00000000000110af      0x1da /tmp/cckQRlOZ.debug.temp.o
                                       0x350c (size before relaxing)
 .debug_str     0x0000000000011289       0x9c /tmp/cc9OkTVY.debug.temp.o
                                       0x326f (size before relaxing)
 .debug_str     0x0000000000011325       0x9c /tmp/cc7K71J2.debug.temp.o
                                        0x86c (size before relaxing)
 .debug_str     0x00000000000113c1      0x170 /tmp/ccQl6g7Y.debug.temp.o
                                       0x34c4 (size before relaxing)
 .debug_str     0x0000000000011531       0x94 /tmp/ccBGXek0.debug.temp.o
                                        0x670 (size before relaxing)
 .debug_str     0x00000000000115c5       0xa3 /tmp/ccKG5gX1.debug.temp.o
                                        0x699 (size before relaxing)
 .debug_str     0x0000000000011668       0x52 /tmp/ccdErvpZ.debug.temp.o
                                        0x358 (size before relaxing)
 .debug_str     0x00000000000116ba       0x55 /tmp/ccOPcyI1.debug.temp.o
                                        0x381 (size before relaxing)
 .debug_str     0x000000000001170f       0x53 /tmp/ccUlrJiZ.debug.temp.o
                                        0x360 (size before relaxing)
 .debug_str     0x0000000000011762       0x59 /tmp/ccbsni51.debug.temp.o
                                        0x364 (size before relaxing)
 .debug_str     0x00000000000117bb       0x57 /tmp/ccHgKZ8Z.debug.temp.o
                                        0x362 (size before relaxing)
 .debug_str     0x0000000000011812       0xb8 /tmp/ccIgerP1.debug.temp.o
                                        0x3ca (size before relaxing)
 .debug_str     0x00000000000118ca       0x5d /tmp/ccQmTW2Y.debug.temp.o
                                        0x47e (size before relaxing)
 .debug_str     0x0000000000011927      0x11a /tmp/ccgTdfpY.debug.temp.o
                                        0x571 (size before relaxing)
 .debug_str     0x0000000000011a41       0xde /tmp/ccKyus00.debug.temp.o
                                        0x508 (size before relaxing)
 .debug_str     0x0000000000011b1f      0x115 /tmp/cc7Ehhw1.debug.temp.o
                                        0x3e0 (size before relaxing)
 .debug_str     0x0000000000011c34      0x102 /tmp/ccfyTez0.debug.temp.o
                                        0x516 (size before relaxing)
 .debug_str     0x0000000000011d36       0xf3 /tmp/cc5UOYk1.debug.temp.o
                                        0x5b3 (size before relaxing)
 .debug_str     0x0000000000011e29      0x278 /tmp/ccM7Aa4Y.debug.temp.o
                                       0x2174 (size before relaxing)
 .debug_str     0x00000000000120a1      0x15f /tmp/ccRuQ8g0.debug.temp.o
                                       0x1a6f (size before relaxing)
 .debug_str     0x0000000000012200      0x3e3 /tmp/ccvWjh1Z.debug.temp.o
                                       0x1f13 (size before relaxing)
 .debug_str     0x00000000000125e3      0x2ee /tmp/ccn7znk2.debug.temp.o
                                       0x1885 (size before relaxing)
 .debug_str     0x00000000000128d1      0x1ab /tmp/ccTXd1KY.debug.temp.o
                                        0x44d (size before relaxing)
 .debug_str     0x0000000000012a7c      0x197 /tmp/ccDjFz6Y.debug.temp.o
                                        0x818 (size before relaxing)

.debug_frame    0x0000000000000000     0x3d98
 .debug_frame   0x0000000000000000     0x1538 /tmp/UiApp.dll.Q98Kv2.ltrans0.ltrans.o
 .debug_frame   0x0000000000001538      0xfa8 /tmp/UiApp.dll.Q98Kv2.ltrans1.ltrans.o
 .debug_frame   0x00000000000024e0     0x18b8 /tmp/UiApp.dll.Q98Kv2.ltrans2.ltrans.o
