Archive member included to satisfy reference by file (symbol)

/home/alastair/pftf-rpi4/Build/RPi4/RELEASE_GCC5/AARCH64/MdePkg/Library/UefiApplicationEntryPoint/UefiApplicationEntryPoint/OUTPUT/UefiApplicationEntryPoint.lib(ApplicationEntryPoint.obj)
                              (_ModuleEntryPoint)
/home/alastair/pftf-rpi4/Build/RPi4/RELEASE_GCC5/AARCH64/MdePkg/Library/BaseStackCheckLib/BaseStackCheckLib/OUTPUT/BaseStackCheckLib.lib(BaseStackCheckGcc.obj)
                              /home/alastair/pftf-rpi4/edk2/ArmPkg/Library/GccLto/liblto-aarch64.a (__stack_chk_fail)
/home/alastair/pftf-rpi4/Build/RPi4/RELEASE_GCC5/AARCH64/ArmPkg/Library/CompilerIntrinsicsLib/CompilerIntrinsicsLib/OUTPUT/CompilerIntrinsicsLib.lib(memcpy.obj)
                              /home/alastair/pftf-rpi4/edk2/ArmPkg/Library/GccLto/liblto-aarch64.a (memcpy)
/home/alastair/pftf-rpi4/Build/RPi4/RELEASE_GCC5/AARCH64/ArmPkg/Library/CompilerIntrinsicsLib/CompilerIntrinsicsLib/OUTPUT/CompilerIntrinsicsLib.lib(memset.obj)
                              /home/alastair/pftf-rpi4/edk2/ArmPkg/Library/GccLto/liblto-aarch64.a (memset)
/home/alastair/pftf-rpi4/Build/RPi4/RELEASE_GCC5/AARCH64/MdeModulePkg/Application/UiApp/UiApp/OUTPUT/UiApp.lib(AutoGen.obj)
                              ApplicationEntryPoint.obj (symbol from plugin) (ProcessLibraryConstructorList)
/home/alastair/pftf-rpi4/Build/RPi4/RELEASE_GCC5/AARCH64/MdeModulePkg/Application/UiApp/UiApp/OUTPUT/UiApp.lib(FrontPage.obj)
                              AutoGen.obj (symbol from plugin) (InitializeUserInterface)
/home/alastair/pftf-rpi4/Build/RPi4/RELEASE_GCC5/AARCH64/MdeModulePkg/Application/UiApp/UiApp/OUTPUT/UiApp.lib(String.obj)
                              FrontPage.obj (symbol from plugin) (InitializeStringSupport)
/home/alastair/pftf-rpi4/Build/RPi4/RELEASE_GCC5/AARCH64/MdeModulePkg/Application/UiApp/UiApp/OUTPUT/UiApp.lib(FrontPageCustomizedUi.obj)
                              FrontPage.obj (symbol from plugin) (UiCustomizeFrontPage)
/home/alastair/pftf-rpi4/Build/RPi4/RELEASE_GCC5/AARCH64/MdeModulePkg/Application/UiApp/UiApp/OUTPUT/UiApp.lib(FrontPageCustomizedUiSupport.obj)
                              FrontPageCustomizedUi.obj (symbol from plugin) (UiSupportLibCallbackHandler)
/home/alastair/pftf-rpi4/Build/RPi4/RELEASE_GCC5/AARCH64/MdeModulePkg/Application/UiApp/UiApp/OUTPUT/UiApp.lib(FrontPageVfr.obj)
                              FrontPage.obj (symbol from plugin) (FrontPageVfrBin)
/home/alastair/pftf-rpi4/Build/RPi4/RELEASE_GCC5/AARCH64/MdePkg/Library/DxePcdLib/DxePcdLib/OUTPUT/DxePcdLib.lib(DxePcdLib.obj)
                              FrontPage.obj (symbol from plugin) (LibPcdGet32)
/home/alastair/pftf-rpi4/Build/RPi4/RELEASE_GCC5/AARCH64/MdePkg/Library/BaseMemoryLibOptDxe/BaseMemoryLibOptDxe/OUTPUT/BaseMemoryLibOptDxe.lib(MemLibGuid.obj)
                              FrontPageCustomizedUiSupport.obj (symbol from plugin) (CompareGuid)
/home/alastair/pftf-rpi4/Build/RPi4/RELEASE_GCC5/AARCH64/MdePkg/Library/BaseMemoryLibOptDxe/BaseMemoryLibOptDxe/OUTPUT/BaseMemoryLibOptDxe.lib(CopyMemWrapper.obj)
                              FrontPageCustomizedUiSupport.obj (symbol from plugin) (CopyMem)
/home/alastair/pftf-rpi4/Build/RPi4/RELEASE_GCC5/AARCH64/MdePkg/Library/BaseMemoryLibOptDxe/BaseMemoryLibOptDxe/OUTPUT/BaseMemoryLibOptDxe.lib(CopyMem.obj)
                              MemLibGuid.obj (symbol from plugin) (InternalMemCopyMem)
/home/alastair/pftf-rpi4/Build/RPi4/RELEASE_GCC5/AARCH64/MdePkg/Library/BaseMemoryLibOptDxe/BaseMemoryLibOptDxe/OUTPUT/BaseMemoryLibOptDxe.lib(CompareGuid.obj)
                              MemLibGuid.obj (symbol from plugin) (InternalMemCompareGuid)
/home/alastair/pftf-rpi4/Build/RPi4/RELEASE_GCC5/AARCH64/MdePkg/Library/BaseLib/BaseLib/OUTPUT/BaseLib.lib(RShiftU64.obj)
                              FrontPage.obj (symbol from plugin) (RShiftU64)
/home/alastair/pftf-rpi4/Build/RPi4/RELEASE_GCC5/AARCH64/MdePkg/Library/BaseLib/BaseLib/OUTPUT/BaseLib.lib(CpuDeadLoop.obj)
                              BaseStackCheckGcc.obj (symbol from plugin) (CpuDeadLoop)
/home/alastair/pftf-rpi4/Build/RPi4/RELEASE_GCC5/AARCH64/MdePkg/Library/BaseLib/BaseLib/OUTPUT/BaseLib.lib(SafeString.obj)
                              FrontPage.obj (symbol from plugin) (StrnLenS)
/home/alastair/pftf-rpi4/Build/RPi4/RELEASE_GCC5/AARCH64/MdePkg/Library/BaseLib/BaseLib/OUTPUT/BaseLib.lib(String.obj)
                              SafeString.obj (symbol from plugin) (InternalIsDecimalDigitCharacter)
/home/alastair/pftf-rpi4/Build/RPi4/RELEASE_GCC5/AARCH64/MdePkg/Library/BaseLib/BaseLib/OUTPUT/BaseLib.lib(Math64.obj)
                              RShiftU64.obj (symbol from plugin) (InternalMathRShiftU64)
/home/alastair/pftf-rpi4/Build/RPi4/RELEASE_GCC5/AARCH64/MdePkg/Library/BaseLib/BaseLib/OUTPUT/BaseLib.lib(CpuBreakpoint.obj)
                              BaseStackCheckGcc.obj (symbol from plugin) (CpuBreakpoint)
/home/alastair/pftf-rpi4/Build/RPi4/RELEASE_GCC5/AARCH64/MdePkg/Library/BaseLib/BaseLib/OUTPUT/BaseLib.lib(SwapBytes32.obj)
                              SafeString.obj (symbol from plugin) (SwapBytes32)
/home/alastair/pftf-rpi4/Build/RPi4/RELEASE_GCC5/AARCH64/MdePkg/Library/BaseLib/BaseLib/OUTPUT/BaseLib.lib(SwapBytes16.obj)
                              SafeString.obj (symbol from plugin) (SwapBytes16)
/home/alastair/pftf-rpi4/Build/RPi4/RELEASE_GCC5/AARCH64/MdePkg/Library/BaseLib/BaseLib/OUTPUT/BaseLib.lib(MultU64x32.obj)
                              SafeString.obj (symbol from plugin) (MultU64x32)
/home/alastair/pftf-rpi4/Build/RPi4/RELEASE_GCC5/AARCH64/MdePkg/Library/BaseLib/BaseLib/OUTPUT/BaseLib.lib(LShiftU64.obj)
                              SafeString.obj (symbol from plugin) (LShiftU64)
/home/alastair/pftf-rpi4/Build/RPi4/RELEASE_GCC5/AARCH64/MdePkg/Library/BaseLib/BaseLib/OUTPUT/BaseLib.lib(DivU64x32.obj)
                              SafeString.obj (symbol from plugin) (DivU64x32)
/home/alastair/pftf-rpi4/Build/RPi4/RELEASE_GCC5/AARCH64/MdePkg/Library/UefiBootServicesTableLib/UefiBootServicesTableLib/OUTPUT/UefiBootServicesTableLib.lib(UefiBootServicesTableLib.obj)
                              AutoGen.obj (symbol from plugin) (UefiBootServicesTableLibConstructor)
/home/alastair/pftf-rpi4/Build/RPi4/RELEASE_GCC5/AARCH64/MdePkg/Library/BasePrintLib/BasePrintLib/OUTPUT/BasePrintLib.lib(PrintLib.obj)
                              FrontPage.obj (symbol from plugin) (UnicodeValueToStringS)
/home/alastair/pftf-rpi4/Build/RPi4/RELEASE_GCC5/AARCH64/MdePkg/Library/BasePrintLib/BasePrintLib/OUTPUT/BasePrintLib.lib(PrintLibInternal.obj)
                              PrintLib.obj (symbol from plugin) (BasePrintLibConvertValueToStringS)
/home/alastair/pftf-rpi4/Build/RPi4/RELEASE_GCC5/AARCH64/MdePkg/Library/UefiMemoryAllocationLib/UefiMemoryAllocationLib/OUTPUT/UefiMemoryAllocationLib.lib(MemoryAllocationLib.obj)
                              FrontPage.obj (symbol from plugin) (AllocatePool)
/home/alastair/pftf-rpi4/Build/RPi4/RELEASE_GCC5/AARCH64/MdePkg/Library/UefiRuntimeServicesTableLib/UefiRuntimeServicesTableLib/OUTPUT/UefiRuntimeServicesTableLib.lib(UefiRuntimeServicesTableLib.obj)
                              AutoGen.obj (symbol from plugin) (UefiRuntimeServicesTableLibConstructor)
/home/alastair/pftf-rpi4/Build/RPi4/RELEASE_GCC5/AARCH64/MdePkg/Library/UefiDevicePathLib/UefiDevicePathLib/OUTPUT/UefiDevicePathLib.lib(DevicePathUtilitiesDxeSmm.obj)
                              FrontPageCustomizedUiSupport.obj (symbol from plugin) (DevicePathFromHandle)
/home/alastair/pftf-rpi4/Build/RPi4/RELEASE_GCC5/AARCH64/MdePkg/Library/UefiDevicePathLib/UefiDevicePathLib/OUTPUT/UefiDevicePathLib.lib(UefiDevicePathLib.obj)
                              FrontPageCustomizedUiSupport.obj (symbol from plugin) (ConvertDevicePathToText)
/home/alastair/pftf-rpi4/Build/RPi4/RELEASE_GCC5/AARCH64/MdePkg/Library/UefiDevicePathLib/UefiDevicePathLib/OUTPUT/UefiDevicePathLib.lib(DevicePathUtilities.obj)
                              UefiDevicePathLib.obj (symbol from plugin) (UefiDevicePathLibGetDevicePathSize)
/home/alastair/pftf-rpi4/Build/RPi4/RELEASE_GCC5/AARCH64/MdePkg/Library/UefiDevicePathLib/UefiDevicePathLib/OUTPUT/UefiDevicePathLib.lib(DevicePathToText.obj)
                              UefiDevicePathLib.obj (symbol from plugin) (UefiDevicePathLibConvertDeviceNodeToText)
/home/alastair/pftf-rpi4/Build/RPi4/RELEASE_GCC5/AARCH64/MdePkg/Library/UefiDevicePathLib/UefiDevicePathLib/OUTPUT/UefiDevicePathLib.lib(DevicePathFromText.obj)
                              UefiDevicePathLib.obj (symbol from plugin) (UefiDevicePathLibConvertTextToDeviceNode)
/home/alastair/pftf-rpi4/Build/RPi4/RELEASE_GCC5/AARCH64/MdePkg/Library/UefiLib/UefiLib/OUTPUT/UefiLib.lib(Console.obj)
                              FrontPage.obj (symbol from plugin) (CreatePopUp)
/home/alastair/pftf-rpi4/Build/RPi4/RELEASE_GCC5/AARCH64/MdePkg/Library/UefiLib/UefiLib/OUTPUT/UefiLib.lib(UefiLib.obj)
                              AutoGen.obj (symbol from plugin) (UefiLibConstructor)
/home/alastair/pftf-rpi4/Build/RPi4/RELEASE_GCC5/AARCH64/MdeModulePkg/Library/UefiHiiServicesLib/UefiHiiServicesLib/OUTPUT/UefiHiiServicesLib.lib(UefiHiiServicesLib.obj)
                              AutoGen.obj (symbol from plugin) (UefiHiiServicesLibConstructor)
/home/alastair/pftf-rpi4/Build/RPi4/RELEASE_GCC5/AARCH64/MdePkg/Library/DxeServicesTableLib/DxeServicesTableLib/OUTPUT/DxeServicesTableLib.lib(DxeServicesTableLib.obj)
                              AutoGen.obj (symbol from plugin) (DxeServicesTableLibConstructor)
/home/alastair/pftf-rpi4/Build/RPi4/RELEASE_GCC5/AARCH64/MdePkg/Library/DxeHobLib/DxeHobLib/OUTPUT/DxeHobLib.lib(HobLib.obj)
                              AutoGen.obj (symbol from plugin) (HobLibConstructor)
/home/alastair/pftf-rpi4/Build/RPi4/RELEASE_GCC5/AARCH64/MdeModulePkg/Library/UefiHiiLib/UefiHiiLib/OUTPUT/UefiHiiLib.lib(HiiLib.obj)
                              FrontPage.obj (symbol from plugin) (HiiAddPackages)
/home/alastair/pftf-rpi4/Build/RPi4/RELEASE_GCC5/AARCH64/MdeModulePkg/Library/UefiHiiLib/UefiHiiLib/OUTPUT/UefiHiiLib.lib(HiiString.obj)
                              FrontPage.obj (symbol from plugin) (HiiSetString)
/home/alastair/pftf-rpi4/Build/RPi4/RELEASE_GCC5/AARCH64/MdeModulePkg/Library/UefiHiiLib/UefiHiiLib/OUTPUT/UefiHiiLib.lib(HiiLanguage.obj)
                              HiiString.obj (symbol from plugin) (HiiGetSupportedLanguages)
/home/alastair/pftf-rpi4/Build/RPi4/RELEASE_GCC5/AARCH64/MdePkg/Library/BaseReportStatusCodeLibNull/BaseReportStatusCodeLibNull/OUTPUT/BaseReportStatusCodeLibNull.lib(BaseReportStatusCodeLib.obj)
                              FrontPage.obj (symbol from plugin) (ReportStatusCode)
/home/alastair/pftf-rpi4/Build/RPi4/RELEASE_GCC5/AARCH64/MdeModulePkg/Library/UefiBootManagerLib/UefiBootManagerLib/OUTPUT/UefiBootManagerLib.lib(BmConnect.obj)
                              FrontPage.obj (symbol from plugin) (EfiBootManagerConnectAll)
/home/alastair/pftf-rpi4/Build/RPi4/RELEASE_GCC5/AARCH64/MdeModulePkg/Library/UefiBootManagerLib/UefiBootManagerLib/OUTPUT/UefiBootManagerLib.lib(BmConsole.obj)
                              BmConnect.obj (symbol from plugin) (EfiBootManagerConnectAllDefaultConsoles)
/home/alastair/pftf-rpi4/Build/RPi4/RELEASE_GCC5/AARCH64/MdeModulePkg/Library/UefiBootManagerLib/UefiBootManagerLib/OUTPUT/UefiBootManagerLib.lib(BmBoot.obj)
                              FrontPage.obj (symbol from plugin) (EfiBootManagerRefreshAllBootOption)
/home/alastair/pftf-rpi4/Build/RPi4/RELEASE_GCC5/AARCH64/MdeModulePkg/Library/UefiBootManagerLib/UefiBootManagerLib/OUTPUT/UefiBootManagerLib.lib(BmBootDescription.obj)
                              BmBoot.obj (symbol from plugin) (BmGetBootDescription)
/home/alastair/pftf-rpi4/Build/RPi4/RELEASE_GCC5/AARCH64/MdeModulePkg/Library/UefiBootManagerLib/UefiBootManagerLib/OUTPUT/UefiBootManagerLib.lib(BmLoadOption.obj)
                              BmBoot.obj (symbol from plugin) (mBmLoadOptionName)
/home/alastair/pftf-rpi4/Build/RPi4/RELEASE_GCC5/AARCH64/MdeModulePkg/Library/UefiBootManagerLib/UefiBootManagerLib/OUTPUT/UefiBootManagerLib.lib(BmHotkey.obj)
                              BmBoot.obj (symbol from plugin) (BmStopHotkeyService)
/home/alastair/pftf-rpi4/Build/RPi4/RELEASE_GCC5/AARCH64/MdeModulePkg/Library/UefiBootManagerLib/UefiBootManagerLib/OUTPUT/UefiBootManagerLib.lib(BmDriverHealth.obj)
                              BmBoot.obj (symbol from plugin) (BmRepairAllControllers)
/home/alastair/pftf-rpi4/Build/RPi4/RELEASE_GCC5/AARCH64/MdeModulePkg/Library/UefiBootManagerLib/UefiBootManagerLib/OUTPUT/UefiBootManagerLib.lib(BmMisc.obj)
                              BmConsole.obj (symbol from plugin) (BmDelPartMatchInstance)
/home/alastair/pftf-rpi4/Build/RPi4/RELEASE_GCC5/AARCH64/MdeModulePkg/Library/FileExplorerLib/FileExplorerLib/OUTPUT/FileExplorerLib.lib(FileExplorer.obj)
                              AutoGen.obj (symbol from plugin) (FileExplorerLibConstructor)
/home/alastair/pftf-rpi4/Build/RPi4/RELEASE_GCC5/AARCH64/MdeModulePkg/Library/FileExplorerLib/FileExplorerLib/OUTPUT/FileExplorerLib.lib(AutoGen.obj)
                              FileExplorer.obj (symbol from plugin) (FileExplorerLibStrings)
/home/alastair/pftf-rpi4/Build/RPi4/RELEASE_GCC5/AARCH64/MdeModulePkg/Library/FileExplorerLib/FileExplorerLib/OUTPUT/FileExplorerLib.lib(FileExplorerVfr.obj)
                              FileExplorer.obj (symbol from plugin) (FileExplorerVfrBin)
/home/alastair/pftf-rpi4/Build/RPi4/RELEASE_GCC5/AARCH64/MdeModulePkg/Library/BootDiscoveryPolicyUiLib/BootDiscoveryPolicyUiLib/OUTPUT/BootDiscoveryPolicyUiLib.lib(BootDiscoveryPolicyUiLib.obj)
                              AutoGen.obj (symbol from plugin) (BootDiscoveryPolicyUiLibConstructor)
/home/alastair/pftf-rpi4/Build/RPi4/RELEASE_GCC5/AARCH64/MdeModulePkg/Library/BootDiscoveryPolicyUiLib/BootDiscoveryPolicyUiLib/OUTPUT/BootDiscoveryPolicyUiLib.lib(BootDiscoveryPolicyUiLibVfr.obj)
                              BootDiscoveryPolicyUiLib.obj (symbol from plugin) (BootDiscoveryPolicyUiLibVfrBin)
/home/alastair/pftf-rpi4/Build/RPi4/RELEASE_GCC5/AARCH64/MdeModulePkg/Library/BootDiscoveryPolicyUiLib/BootDiscoveryPolicyUiLib/OUTPUT/BootDiscoveryPolicyUiLib.lib(AutoGen.obj)
                              BootDiscoveryPolicyUiLib.obj (symbol from plugin) (BootDiscoveryPolicyUiLibStrings)
/home/alastair/pftf-rpi4/Build/RPi4/RELEASE_GCC5/AARCH64/MdeModulePkg/Library/DeviceManagerUiLib/DeviceManagerUiLib/OUTPUT/DeviceManagerUiLib.lib(DeviceManager.obj)
                              AutoGen.obj (symbol from plugin) (DeviceManagerUiLibConstructor)
/home/alastair/pftf-rpi4/Build/RPi4/RELEASE_GCC5/AARCH64/MdeModulePkg/Library/DeviceManagerUiLib/DeviceManagerUiLib/OUTPUT/DeviceManagerUiLib.lib(AutoGen.obj)
                              DeviceManager.obj (symbol from plugin) (DeviceManagerUiLibStrings)
/home/alastair/pftf-rpi4/Build/RPi4/RELEASE_GCC5/AARCH64/MdeModulePkg/Library/DeviceManagerUiLib/DeviceManagerUiLib/OUTPUT/DeviceManagerUiLib.lib(DeviceManagerVfr.obj)
                              DeviceManager.obj (symbol from plugin) (DeviceManagerVfrBin)
/home/alastair/pftf-rpi4/Build/RPi4/RELEASE_GCC5/AARCH64/MdeModulePkg/Library/BootManagerUiLib/BootManagerUiLib/OUTPUT/BootManagerUiLib.lib(BootManager.obj)
                              AutoGen.obj (symbol from plugin) (BootManagerUiLibConstructor)
/home/alastair/pftf-rpi4/Build/RPi4/RELEASE_GCC5/AARCH64/MdeModulePkg/Library/BootManagerUiLib/BootManagerUiLib/OUTPUT/BootManagerUiLib.lib(AutoGen.obj)
                              BootManager.obj (symbol from plugin) (BootManagerUiLibStrings)
/home/alastair/pftf-rpi4/Build/RPi4/RELEASE_GCC5/AARCH64/MdeModulePkg/Library/BootManagerUiLib/BootManagerUiLib/OUTPUT/BootManagerUiLib.lib(BootManagerVfr.obj)
                              BootManager.obj (symbol from plugin) (BootManagerVfrBin)
/home/alastair/pftf-rpi4/Build/RPi4/RELEASE_GCC5/AARCH64/Platform/RaspberryPi/Library/PlatformUiAppLib/PlatformUiAppLib/OUTPUT/PlatformUiAppLib.lib(PlatformUiAppLib.obj)
                              AutoGen.obj (symbol from plugin) (PlatformUiAppLibConstructor)
/home/alastair/pftf-rpi4/Build/RPi4/RELEASE_GCC5/AARCH64/MdeModulePkg/Library/BootMaintenanceManagerUiLib/BootMaintenanceManagerUiLib/OUTPUT/BootMaintenanceManagerUiLib.lib(BootMaintenance.obj)
                              AutoGen.obj (symbol from plugin) (BootMaintenanceManagerUiLibConstructor)
/home/alastair/pftf-rpi4/Build/RPi4/RELEASE_GCC5/AARCH64/MdeModulePkg/Library/BootMaintenanceManagerUiLib/BootMaintenanceManagerUiLib/OUTPUT/BootMaintenanceManagerUiLib.lib(BootOption.obj)
                              BootMaintenance.obj (symbol from plugin) (BOpt_GetMenuEntry)
/home/alastair/pftf-rpi4/Build/RPi4/RELEASE_GCC5/AARCH64/MdeModulePkg/Library/BootMaintenanceManagerUiLib/BootMaintenanceManagerUiLib/OUTPUT/BootMaintenanceManagerUiLib.lib(ConsoleOption.obj)
                              BootMaintenance.obj (symbol from plugin) (ChangeTerminalDevicePath)
/home/alastair/pftf-rpi4/Build/RPi4/RELEASE_GCC5/AARCH64/MdeModulePkg/Library/BootMaintenanceManagerUiLib/BootMaintenanceManagerUiLib/OUTPUT/BootMaintenanceManagerUiLib.lib(Data.obj)
                              ConsoleOption.obj (symbol from plugin) (TerminalTypeGuid)
/home/alastair/pftf-rpi4/Build/RPi4/RELEASE_GCC5/AARCH64/MdeModulePkg/Library/BootMaintenanceManagerUiLib/BootMaintenanceManagerUiLib/OUTPUT/BootMaintenanceManagerUiLib.lib(Variable.obj)
                              BootMaintenance.obj (symbol from plugin) (Var_DelBootOption)
/home/alastair/pftf-rpi4/Build/RPi4/RELEASE_GCC5/AARCH64/MdeModulePkg/Library/BootMaintenanceManagerUiLib/BootMaintenanceManagerUiLib/OUTPUT/BootMaintenanceManagerUiLib.lib(UpdatePage.obj)
                              BootMaintenance.obj (symbol from plugin) (CreateUpdateData)
/home/alastair/pftf-rpi4/Build/RPi4/RELEASE_GCC5/AARCH64/MdeModulePkg/Library/BootMaintenanceManagerUiLib/BootMaintenanceManagerUiLib/OUTPUT/BootMaintenanceManagerUiLib.lib(BmLib.obj)
                              Variable.obj (symbol from plugin) (EfiLibDeleteVariable)
/home/alastair/pftf-rpi4/Build/RPi4/RELEASE_GCC5/AARCH64/MdeModulePkg/Library/BootMaintenanceManagerUiLib/BootMaintenanceManagerUiLib/OUTPUT/BootMaintenanceManagerUiLib.lib(BootMaintenanceManagerCustomizedUi.obj)
                              BootMaintenance.obj (symbol from plugin) (UiCustomizeBMMPage)
/home/alastair/pftf-rpi4/Build/RPi4/RELEASE_GCC5/AARCH64/MdeModulePkg/Library/BootMaintenanceManagerUiLib/BootMaintenanceManagerUiLib/OUTPUT/BootMaintenanceManagerUiLib.lib(BootMaintenanceManagerCustomizedUiSupport.obj)
                              BootMaintenanceManagerCustomizedUi.obj (symbol from plugin) (BmmCreateBootNextMenu)
/home/alastair/pftf-rpi4/Build/RPi4/RELEASE_GCC5/AARCH64/MdeModulePkg/Library/BootMaintenanceManagerUiLib/BootMaintenanceManagerUiLib/OUTPUT/BootMaintenanceManagerUiLib.lib(AutoGen.obj)
                              BootMaintenance.obj (symbol from plugin) (BootMaintenanceManagerUiLibStrings)
/home/alastair/pftf-rpi4/Build/RPi4/RELEASE_GCC5/AARCH64/MdeModulePkg/Library/BootMaintenanceManagerUiLib/BootMaintenanceManagerUiLib/OUTPUT/BootMaintenanceManagerUiLib.lib(BootMaintenanceManager.obj)
                              BootMaintenance.obj (symbol from plugin) (BootMaintenanceManagerBin)
/home/alastair/pftf-rpi4/Build/RPi4/RELEASE_GCC5/AARCH64/MdePkg/Library/BaseDebugLibNull/BaseDebugLibNull/OUTPUT/BaseDebugLibNull.lib(DebugLib.obj)
                              BmBoot.obj (symbol from plugin) (DebugCodeEnabled)
/home/alastair/pftf-rpi4/Build/RPi4/RELEASE_GCC5/AARCH64/MdePkg/Library/BaseMemoryLibOptDxe/BaseMemoryLibOptDxe/OUTPUT/BaseMemoryLibOptDxe.lib(ZeroMemWrapper.obj)
                              SafeString.obj (symbol from plugin) (ZeroMem)
/home/alastair/pftf-rpi4/Build/RPi4/RELEASE_GCC5/AARCH64/MdePkg/Library/BaseMemoryLibOptDxe/BaseMemoryLibOptDxe/OUTPUT/BaseMemoryLibOptDxe.lib(CompareMemWrapper.obj)
                              HiiLib.obj (symbol from plugin) (CompareMem)
/home/alastair/pftf-rpi4/Build/RPi4/RELEASE_GCC5/AARCH64/MdePkg/Library/BaseMemoryLibOptDxe/BaseMemoryLibOptDxe/OUTPUT/BaseMemoryLibOptDxe.lib(SetMem16Wrapper.obj)
                              Console.obj (symbol from plugin) (SetMem16)
/home/alastair/pftf-rpi4/Build/RPi4/RELEASE_GCC5/AARCH64/MdePkg/Library/BaseMemoryLibOptDxe/BaseMemoryLibOptDxe/OUTPUT/BaseMemoryLibOptDxe.lib(SetMemWrapper.obj)
                              BootManager.obj (symbol from plugin) (SetMem)
/home/alastair/pftf-rpi4/Build/RPi4/RELEASE_GCC5/AARCH64/MdePkg/Library/BaseMemoryLibOptDxe/BaseMemoryLibOptDxe/OUTPUT/BaseMemoryLibOptDxe.lib(IsZeroBufferWrapper.obj)
                              FileExplorer.obj (symbol from plugin) (IsZeroBuffer)
/home/alastair/pftf-rpi4/Build/RPi4/RELEASE_GCC5/AARCH64/MdePkg/Library/BaseMemoryLibOptDxe/BaseMemoryLibOptDxe/OUTPUT/BaseMemoryLibOptDxe.lib(SetMem.obj)
                              SetMem16Wrapper.obj (symbol from plugin) (InternalMemSetMem16)
/home/alastair/pftf-rpi4/Build/RPi4/RELEASE_GCC5/AARCH64/MdePkg/Library/BaseMemoryLibOptDxe/BaseMemoryLibOptDxe/OUTPUT/BaseMemoryLibOptDxe.lib(CompareMem.obj)
                              CompareMemWrapper.obj (symbol from plugin) (InternalMemCompareMem)
/home/alastair/pftf-rpi4/Build/RPi4/RELEASE_GCC5/AARCH64/MdePkg/Library/BaseMemoryLibOptDxe/BaseMemoryLibOptDxe/OUTPUT/BaseMemoryLibOptDxe.lib(ScanMemGeneric.obj)
                              IsZeroBufferWrapper.obj (symbol from plugin) (InternalMemIsZeroBuffer)
/home/alastair/pftf-rpi4/Build/RPi4/RELEASE_GCC5/AARCH64/MdePkg/Library/BaseMemoryLibOptDxe/BaseMemoryLibOptDxe/OUTPUT/BaseMemoryLibOptDxe.lib(SetMem64Wrapper.obj)
                              SetMemWrapper.obj (symbol from plugin) (SetMem64)
/home/alastair/pftf-rpi4/Build/RPi4/RELEASE_GCC5/AARCH64/MdePkg/Library/BaseLib/BaseLib/OUTPUT/BaseLib.lib(SwapBytes64.obj)
                              DevicePathFromText.obj (symbol from plugin) (SwapBytes64)
/home/alastair/pftf-rpi4/Build/RPi4/RELEASE_GCC5/AARCH64/MdePkg/Library/BaseLib/BaseLib/OUTPUT/BaseLib.lib(LowBitSet32.obj)
                              BmHotkey.obj (symbol from plugin) (LowBitSet32)
/home/alastair/pftf-rpi4/Build/RPi4/RELEASE_GCC5/AARCH64/MdePkg/Library/BaseLib/BaseLib/OUTPUT/BaseLib.lib(DivU64x32Remainder.obj)
                              PrintLibInternal.obj (symbol from plugin) (DivU64x32Remainder)
/home/alastair/pftf-rpi4/Build/RPi4/RELEASE_GCC5/AARCH64/MdePkg/Library/BaseLib/BaseLib/OUTPUT/BaseLib.lib(BitField.obj)
                              HiiLib.obj (symbol from plugin) (BitFieldRead32)
/home/alastair/pftf-rpi4/Build/RPi4/RELEASE_GCC5/AARCH64/MdePkg/Library/BaseLib/BaseLib/OUTPUT/BaseLib.lib(LinkedList.obj)
                              HiiLib.obj (symbol from plugin) (InitializeListHead)
/home/alastair/pftf-rpi4/Build/RPi4/RELEASE_GCC5/AARCH64/MdePkg/Library/BaseLib/BaseLib/OUTPUT/BaseLib.lib(Unaligned.obj)
                              PrintLibInternal.obj (symbol from plugin) (ReadUnaligned16)
/home/alastair/pftf-rpi4/Build/RPi4/RELEASE_GCC5/AARCH64/MdePkg/Library/UefiLib/UefiLib/OUTPUT/UefiLib.lib(UefiLibPrint.obj)
                              BmDriverHealth.obj (symbol from plugin) (Print)
/home/alastair/pftf-rpi4/Build/RPi4/RELEASE_GCC5/AARCH64/MdePkg/Library/UefiLib/UefiLib/OUTPUT/UefiLib.lib(UefiNotTiano.obj)
                              BmBoot.obj (symbol from plugin) (EfiCreateEventLegacyBootEx)
/home/alastair/pftf-rpi4/Build/RPi4/RELEASE_GCC5/AARCH64/MdeModulePkg/Library/UefiSortLib/UefiSortLib/OUTPUT/UefiSortLib.lib(UefiSortLib.obj)
                              BmLoadOption.obj (symbol from plugin) (PerformQuickSort)
/home/alastair/pftf-rpi4/Build/RPi4/RELEASE_GCC5/AARCH64/MdePkg/Library/DxeServicesLib/DxeServicesLib/OUTPUT/DxeServicesLib.lib(DxeServicesLib.obj)
                              BmBoot.obj (symbol from plugin) (GetSectionFromFv)
/home/alastair/pftf-rpi4/Build/RPi4/RELEASE_GCC5/AARCH64/MdeModulePkg/Library/DxePerformanceLib/DxePerformanceLib/OUTPUT/DxePerformanceLib.lib(DxePerformanceLib.obj)
                              BmBoot.obj (symbol from plugin) (StartPerformanceMeasurementEx)

Discarded input sections

 .text          0x0000000000000000       0x10 /home/alastair/pftf-rpi4/edk2/ArmPkg/Library/GccLto/liblto-aarch64.a
 .data          0x0000000000000000        0x0 /home/alastair/pftf-rpi4/edk2/ArmPkg/Library/GccLto/liblto-aarch64.a
 .bss           0x0000000000000000        0x0 /home/alastair/pftf-rpi4/edk2/ArmPkg/Library/GccLto/liblto-aarch64.a
 .text          0x0000000000000000        0x0 /tmp/UiApp.dll.xW15Dc.ltrans0.ltrans.o
 .data          0x0000000000000000        0x0 /tmp/UiApp.dll.xW15Dc.ltrans0.ltrans.o
 .bss           0x0000000000000000        0x0 /tmp/UiApp.dll.xW15Dc.ltrans0.ltrans.o
 .text.ReportStatusCode.constprop.0
                0x0000000000000000        0x8 /tmp/UiApp.dll.xW15Dc.ltrans0.ltrans.o
 .text.ReportStatusCodeEx.constprop.0
                0x0000000000000000        0x8 /tmp/UiApp.dll.xW15Dc.ltrans0.ltrans.o
 .text.BmCollectLoadOptions
                0x0000000000000000      0x138 /tmp/UiApp.dll.xW15Dc.ltrans0.ltrans.o
 .rodata._gPcd_FixedAtBuild_PcdMaximumUnicodeStringLength
                0x0000000000000000        0x4 /tmp/UiApp.dll.xW15Dc.ltrans0.ltrans.o
 .rodata._gPcd_FixedAtBuild_PcdPerformanceLibraryPropertyMask
                0x0000000000000000        0x1 /tmp/UiApp.dll.xW15Dc.ltrans0.ltrans.o
 .rodata._gUefiDriverRevision
                0x0000000000000000        0x4 /tmp/UiApp.dll.xW15Dc.ltrans0.ltrans.o
 .rodata.mBmmCallbackInfo
                0x0000000000000000        0x8 /tmp/UiApp.dll.xW15Dc.ltrans0.ltrans.o
 .comment       0x0000000000000000       0x2b /tmp/UiApp.dll.xW15Dc.ltrans0.ltrans.o
 .note.GNU-stack
                0x0000000000000000        0x0 /tmp/UiApp.dll.xW15Dc.ltrans0.ltrans.o
 .text          0x0000000000000000        0x0 /tmp/UiApp.dll.xW15Dc.ltrans1.ltrans.o
 .data          0x0000000000000000        0x0 /tmp/UiApp.dll.xW15Dc.ltrans1.ltrans.o
 .bss           0x0000000000000000        0x0 /tmp/UiApp.dll.xW15Dc.ltrans1.ltrans.o
 .text.__memset
                0x0000000000000000       0x1c /tmp/UiApp.dll.xW15Dc.ltrans1.ltrans.o
 .comment       0x0000000000000000       0x2b /tmp/UiApp.dll.xW15Dc.ltrans1.ltrans.o
 .note.GNU-stack
                0x0000000000000000        0x0 /tmp/UiApp.dll.xW15Dc.ltrans1.ltrans.o
 .comment       0x0000000000000000       0x2b /tmp/ccL0M6ng.debug.temp.o
 .note.GNU-stack
                0x0000000000000000        0x0 /tmp/ccL0M6ng.debug.temp.o
 .comment       0x0000000000000000       0x2b /tmp/ccG0Tunc.debug.temp.o
 .note.GNU-stack
                0x0000000000000000        0x0 /tmp/ccG0Tunc.debug.temp.o
 .comment       0x0000000000000000       0x2b /tmp/ccxkIdfg.debug.temp.o
 .note.GNU-stack
                0x0000000000000000        0x0 /tmp/ccxkIdfg.debug.temp.o
 .comment       0x0000000000000000       0x2b /tmp/ccb3IcHf.debug.temp.o
 .note.GNU-stack
                0x0000000000000000        0x0 /tmp/ccb3IcHf.debug.temp.o
 .comment       0x0000000000000000       0x2b /tmp/ccsL2Gig.debug.temp.o
 .note.GNU-stack
                0x0000000000000000        0x0 /tmp/ccsL2Gig.debug.temp.o
 .comment       0x0000000000000000       0x2b /tmp/ccnfKoTc.debug.temp.o
 .note.GNU-stack
                0x0000000000000000        0x0 /tmp/ccnfKoTc.debug.temp.o
 .comment       0x0000000000000000       0x2b /tmp/cc88IPsg.debug.temp.o
 .note.GNU-stack
                0x0000000000000000        0x0 /tmp/cc88IPsg.debug.temp.o
 .comment       0x0000000000000000       0x2b /tmp/cc9OgZsg.debug.temp.o
 .note.GNU-stack
                0x0000000000000000        0x0 /tmp/cc9OgZsg.debug.temp.o
 .comment       0x0000000000000000       0x2b /tmp/ccVbxrrf.debug.temp.o
 .note.GNU-stack
                0x0000000000000000        0x0 /tmp/ccVbxrrf.debug.temp.o
 .comment       0x0000000000000000       0x2b /tmp/cc85aQtd.debug.temp.o
 .note.GNU-stack
                0x0000000000000000        0x0 /tmp/cc85aQtd.debug.temp.o
 .comment       0x0000000000000000       0x2b /tmp/cc0MjXxc.debug.temp.o
 .note.GNU-stack
                0x0000000000000000        0x0 /tmp/cc0MjXxc.debug.temp.o
 .comment       0x0000000000000000       0x2b /tmp/ccFfGydc.debug.temp.o
 .note.GNU-stack
                0x0000000000000000        0x0 /tmp/ccFfGydc.debug.temp.o
 .comment       0x0000000000000000       0x2b /tmp/ccTymtWd.debug.temp.o
 .note.GNU-stack
                0x0000000000000000        0x0 /tmp/ccTymtWd.debug.temp.o
 .comment       0x0000000000000000       0x2b /tmp/ccVXRLpg.debug.temp.o
 .note.GNU-stack
                0x0000000000000000        0x0 /tmp/ccVXRLpg.debug.temp.o
 .comment       0x0000000000000000       0x2b /tmp/ccYcVAwg.debug.temp.o
 .note.GNU-stack
                0x0000000000000000        0x0 /tmp/ccYcVAwg.debug.temp.o
 .comment       0x0000000000000000       0x2b /tmp/ccYBuefd.debug.temp.o
 .note.GNU-stack
                0x0000000000000000        0x0 /tmp/ccYBuefd.debug.temp.o
 .comment       0x0000000000000000       0x2b /tmp/ccIcHv2e.debug.temp.o
 .note.GNU-stack
                0x0000000000000000        0x0 /tmp/ccIcHv2e.debug.temp.o
 .comment       0x0000000000000000       0x2b /tmp/ccOQpukc.debug.temp.o
 .note.GNU-stack
                0x0000000000000000        0x0 /tmp/ccOQpukc.debug.temp.o
 .debug_info    0x0000000000000000      0x1db /tmp/ccTYUKhg.debug.temp.o
 .debug_abbrev  0x0000000000000000       0xc0 /tmp/ccTYUKhg.debug.temp.o
 .debug_line    0x0000000000000000      0x14e /tmp/ccTYUKhg.debug.temp.o
 .debug_str     0x0000000000000000      0x474 /tmp/ccTYUKhg.debug.temp.o
 .comment       0x0000000000000000       0x2b /tmp/ccTYUKhg.debug.temp.o
 .note.GNU-stack
                0x0000000000000000        0x0 /tmp/ccTYUKhg.debug.temp.o
 .debug_info    0x0000000000000000      0x1c3 /tmp/cc1UhVVe.debug.temp.o
 .debug_abbrev  0x0000000000000000       0xb1 /tmp/cc1UhVVe.debug.temp.o
 .debug_line    0x0000000000000000      0x14e /tmp/cc1UhVVe.debug.temp.o
 .debug_str     0x0000000000000000      0x45d /tmp/cc1UhVVe.debug.temp.o
 .comment       0x0000000000000000       0x2b /tmp/cc1UhVVe.debug.temp.o
 .note.GNU-stack
                0x0000000000000000        0x0 /tmp/cc1UhVVe.debug.temp.o
 .comment       0x0000000000000000       0x2b /tmp/ccvPrDCe.debug.temp.o
 .note.GNU-stack
                0x0000000000000000        0x0 /tmp/ccvPrDCe.debug.temp.o
 .comment       0x0000000000000000       0x2b /tmp/cciwaS1c.debug.temp.o
 .note.GNU-stack
                0x0000000000000000        0x0 /tmp/cciwaS1c.debug.temp.o
 .debug_info    0x0000000000000000      0x1cf /tmp/cc2rqGZf.debug.temp.o
 .debug_abbrev  0x0000000000000000       0xb1 /tmp/cc2rqGZf.debug.temp.o
 .debug_line    0x0000000000000000      0x14c /tmp/cc2rqGZf.debug.temp.o
 .debug_str     0x0000000000000000      0x464 /tmp/cc2rqGZf.debug.temp.o
 .comment       0x0000000000000000       0x2b /tmp/cc2rqGZf.debug.temp.o
 .note.GNU-stack
                0x0000000000000000        0x0 /tmp/cc2rqGZf.debug.temp.o
 .comment       0x0000000000000000       0x2b /tmp/ccWaofZe.debug.temp.o
 .note.GNU-stack
                0x0000000000000000        0x0 /tmp/ccWaofZe.debug.temp.o
 .comment       0x0000000000000000       0x2b /tmp/ccn1PjPc.debug.temp.o
 .note.GNU-stack
                0x0000000000000000        0x0 /tmp/ccn1PjPc.debug.temp.o
 .comment       0x0000000000000000       0x2b /tmp/cc0ryYne.debug.temp.o
 .note.GNU-stack
                0x0000000000000000        0x0 /tmp/cc0ryYne.debug.temp.o
 .comment       0x0000000000000000       0x2b /tmp/ccfv3eye.debug.temp.o
 .note.GNU-stack
                0x0000000000000000        0x0 /tmp/ccfv3eye.debug.temp.o
 .comment       0x0000000000000000       0x2b /tmp/ccn0Mv9b.debug.temp.o
 .note.GNU-stack
                0x0000000000000000        0x0 /tmp/ccn0Mv9b.debug.temp.o
 .comment       0x0000000000000000       0x2b /tmp/ccXQs4Uc.debug.temp.o
 .note.GNU-stack
                0x0000000000000000        0x0 /tmp/ccXQs4Uc.debug.temp.o
 .comment       0x0000000000000000       0x2b /tmp/ccXSVURf.debug.temp.o
 .note.GNU-stack
                0x0000000000000000        0x0 /tmp/ccXSVURf.debug.temp.o
 .comment       0x0000000000000000       0x2b /tmp/cchekaDf.debug.temp.o
 .note.GNU-stack
                0x0000000000000000        0x0 /tmp/cchekaDf.debug.temp.o
 .comment       0x0000000000000000       0x2b /tmp/cccXUcWe.debug.temp.o
 .note.GNU-stack
                0x0000000000000000        0x0 /tmp/cccXUcWe.debug.temp.o
 .debug_info    0x0000000000000000     0x45d4 /tmp/ccP4Uwkg.debug.temp.o
 .debug_abbrev  0x0000000000000000      0x2b0 /tmp/ccP4Uwkg.debug.temp.o
 .debug_line    0x0000000000000000      0x3d1 /tmp/ccP4Uwkg.debug.temp.o
 .debug_str     0x0000000000000000     0x2f13 /tmp/ccP4Uwkg.debug.temp.o
 .comment       0x0000000000000000       0x2b /tmp/ccP4Uwkg.debug.temp.o
 .note.GNU-stack
                0x0000000000000000        0x0 /tmp/ccP4Uwkg.debug.temp.o
 .comment       0x0000000000000000       0x2b /tmp/ccTp4LZc.debug.temp.o
 .note.GNU-stack
                0x0000000000000000        0x0 /tmp/ccTp4LZc.debug.temp.o
 .comment       0x0000000000000000       0x2b /tmp/ccaCiTde.debug.temp.o
 .note.GNU-stack
                0x0000000000000000        0x0 /tmp/ccaCiTde.debug.temp.o
 .comment       0x0000000000000000       0x2b /tmp/ccbiENHc.debug.temp.o
 .note.GNU-stack
                0x0000000000000000        0x0 /tmp/ccbiENHc.debug.temp.o
 .comment       0x0000000000000000       0x2b /tmp/ccI82MPc.debug.temp.o
 .note.GNU-stack
                0x0000000000000000        0x0 /tmp/ccI82MPc.debug.temp.o
 .comment       0x0000000000000000       0x2b /tmp/ccNRckYb.debug.temp.o
 .note.GNU-stack
                0x0000000000000000        0x0 /tmp/ccNRckYb.debug.temp.o
 .comment       0x0000000000000000       0x2b /tmp/ccIHx9gg.debug.temp.o
 .note.GNU-stack
                0x0000000000000000        0x0 /tmp/ccIHx9gg.debug.temp.o
 .comment       0x0000000000000000       0x2b /tmp/cc49bCcd.debug.temp.o
 .note.GNU-stack
                0x0000000000000000        0x0 /tmp/cc49bCcd.debug.temp.o
 .comment       0x0000000000000000       0x2b /tmp/ccWg0Cye.debug.temp.o
 .note.GNU-stack
                0x0000000000000000        0x0 /tmp/ccWg0Cye.debug.temp.o
 .comment       0x0000000000000000       0x2b /tmp/cct5TkTc.debug.temp.o
 .note.GNU-stack
                0x0000000000000000        0x0 /tmp/cct5TkTc.debug.temp.o
 .comment       0x0000000000000000       0x2b /tmp/cc5zwiwe.debug.temp.o
 .note.GNU-stack
                0x0000000000000000        0x0 /tmp/cc5zwiwe.debug.temp.o
 .comment       0x0000000000000000       0x2b /tmp/cctEbBKd.debug.temp.o
 .note.GNU-stack
                0x0000000000000000        0x0 /tmp/cctEbBKd.debug.temp.o
 .comment       0x0000000000000000       0x2b /tmp/cczaTAye.debug.temp.o
 .note.GNU-stack
                0x0000000000000000        0x0 /tmp/cczaTAye.debug.temp.o
 .comment       0x0000000000000000       0x2b /tmp/ccjS1ktc.debug.temp.o
 .note.GNU-stack
                0x0000000000000000        0x0 /tmp/ccjS1ktc.debug.temp.o
 .comment       0x0000000000000000       0x2b /tmp/ccGKa1Re.debug.temp.o
 .note.GNU-stack
                0x0000000000000000        0x0 /tmp/ccGKa1Re.debug.temp.o
 .comment       0x0000000000000000       0x2b /tmp/cckSFZed.debug.temp.o
 .note.GNU-stack
                0x0000000000000000        0x0 /tmp/cckSFZed.debug.temp.o
 .comment       0x0000000000000000       0x2b /tmp/ccxrLvXb.debug.temp.o
 .note.GNU-stack
                0x0000000000000000        0x0 /tmp/ccxrLvXb.debug.temp.o
 .comment       0x0000000000000000       0x2b /tmp/cccH8zYd.debug.temp.o
 .note.GNU-stack
                0x0000000000000000        0x0 /tmp/cccH8zYd.debug.temp.o
 .comment       0x0000000000000000       0x2b /tmp/cc1RROdf.debug.temp.o
 .note.GNU-stack
                0x0000000000000000        0x0 /tmp/cc1RROdf.debug.temp.o
 .comment       0x0000000000000000       0x2b /tmp/cco8RJdf.debug.temp.o
 .note.GNU-stack
                0x0000000000000000        0x0 /tmp/cco8RJdf.debug.temp.o
 .comment       0x0000000000000000       0x2b /tmp/ccABTZYe.debug.temp.o
 .note.GNU-stack
                0x0000000000000000        0x0 /tmp/ccABTZYe.debug.temp.o
 .comment       0x0000000000000000       0x2b /tmp/ccGWbRDf.debug.temp.o
 .note.GNU-stack
                0x0000000000000000        0x0 /tmp/ccGWbRDf.debug.temp.o
 .comment       0x0000000000000000       0x2b /tmp/ccrHaRoe.debug.temp.o
 .note.GNU-stack
                0x0000000000000000        0x0 /tmp/ccrHaRoe.debug.temp.o
 .comment       0x0000000000000000       0x2b /tmp/ccRQQQ4e.debug.temp.o
 .note.GNU-stack
                0x0000000000000000        0x0 /tmp/ccRQQQ4e.debug.temp.o
 .comment       0x0000000000000000       0x2b /tmp/ccpRQsgd.debug.temp.o
 .note.GNU-stack
                0x0000000000000000        0x0 /tmp/ccpRQsgd.debug.temp.o
 .comment       0x0000000000000000       0x2b /tmp/ccNSQ9Vf.debug.temp.o
 .note.GNU-stack
                0x0000000000000000        0x0 /tmp/ccNSQ9Vf.debug.temp.o
 .comment       0x0000000000000000       0x2b /tmp/ccTtnvhd.debug.temp.o
 .note.GNU-stack
                0x0000000000000000        0x0 /tmp/ccTtnvhd.debug.temp.o
 .comment       0x0000000000000000       0x2b /tmp/ccBkLwwg.debug.temp.o
 .note.GNU-stack
                0x0000000000000000        0x0 /tmp/ccBkLwwg.debug.temp.o
 .comment       0x0000000000000000       0x2b /tmp/cc75Zfre.debug.temp.o
 .note.GNU-stack
                0x0000000000000000        0x0 /tmp/cc75Zfre.debug.temp.o
 .comment       0x0000000000000000       0x2b /tmp/ccunLgXc.debug.temp.o
 .note.GNU-stack
                0x0000000000000000        0x0 /tmp/ccunLgXc.debug.temp.o
 .comment       0x0000000000000000       0x2b /tmp/ccFqv3Uc.debug.temp.o
 .note.GNU-stack
                0x0000000000000000        0x0 /tmp/ccFqv3Uc.debug.temp.o
 .comment       0x0000000000000000       0x2b /tmp/ccUICILe.debug.temp.o
 .note.GNU-stack
                0x0000000000000000        0x0 /tmp/ccUICILe.debug.temp.o
 .comment       0x0000000000000000       0x2b /tmp/ccG8ogPc.debug.temp.o
 .note.GNU-stack
                0x0000000000000000        0x0 /tmp/ccG8ogPc.debug.temp.o
 .comment       0x0000000000000000       0x2b /tmp/cc4vlMRf.debug.temp.o
 .note.GNU-stack
                0x0000000000000000        0x0 /tmp/cc4vlMRf.debug.temp.o
 .comment       0x0000000000000000       0x2b /tmp/ccGL3Naf.debug.temp.o
 .note.GNU-stack
                0x0000000000000000        0x0 /tmp/ccGL3Naf.debug.temp.o
 .comment       0x0000000000000000       0x2b /tmp/ccufjt4f.debug.temp.o
 .note.GNU-stack
                0x0000000000000000        0x0 /tmp/ccufjt4f.debug.temp.o
 .comment       0x0000000000000000       0x2b /tmp/ccfDer6c.debug.temp.o
 .note.GNU-stack
                0x0000000000000000        0x0 /tmp/ccfDer6c.debug.temp.o
 .comment       0x0000000000000000       0x2b /tmp/cccklRtc.debug.temp.o
 .note.GNU-stack
                0x0000000000000000        0x0 /tmp/cccklRtc.debug.temp.o
 .comment       0x0000000000000000       0x2b /tmp/ccrrYpFc.debug.temp.o
 .note.GNU-stack
                0x0000000000000000        0x0 /tmp/ccrrYpFc.debug.temp.o
 .comment       0x0000000000000000       0x2b /tmp/ccZtHZaf.debug.temp.o
 .note.GNU-stack
                0x0000000000000000        0x0 /tmp/ccZtHZaf.debug.temp.o
 .comment       0x0000000000000000       0x2b /tmp/ccsvtl6e.debug.temp.o
 .note.GNU-stack
                0x0000000000000000        0x0 /tmp/ccsvtl6e.debug.temp.o
 .comment       0x0000000000000000       0x2b /tmp/ccOKSGrc.debug.temp.o
 .note.GNU-stack
                0x0000000000000000        0x0 /tmp/ccOKSGrc.debug.temp.o
 .comment       0x0000000000000000       0x2b /tmp/ccSCr8Tc.debug.temp.o
 .note.GNU-stack
                0x0000000000000000        0x0 /tmp/ccSCr8Tc.debug.temp.o
 .comment       0x0000000000000000       0x2b /tmp/cc41tJce.debug.temp.o
 .note.GNU-stack
                0x0000000000000000        0x0 /tmp/cc41tJce.debug.temp.o
 .comment       0x0000000000000000       0x2b /tmp/ccRviuSd.debug.temp.o
 .note.GNU-stack
                0x0000000000000000        0x0 /tmp/ccRviuSd.debug.temp.o
 .comment       0x0000000000000000       0x2b /tmp/ccqvb9If.debug.temp.o
 .note.GNU-stack
                0x0000000000000000        0x0 /tmp/ccqvb9If.debug.temp.o
 .comment       0x0000000000000000       0x2b /tmp/ccog8HLd.debug.temp.o
 .note.GNU-stack
                0x0000000000000000        0x0 /tmp/ccog8HLd.debug.temp.o
 .comment       0x0000000000000000       0x2b /tmp/cc08s0Pf.debug.temp.o
 .note.GNU-stack
                0x0000000000000000        0x0 /tmp/cc08s0Pf.debug.temp.o
 .comment       0x0000000000000000       0x2b /tmp/cce4GIvd.debug.temp.o
 .note.GNU-stack
                0x0000000000000000        0x0 /tmp/cce4GIvd.debug.temp.o
 .debug_info    0x0000000000000000      0x17a /tmp/ccaSoyOc.debug.temp.o
 .debug_abbrev  0x0000000000000000       0xb1 /tmp/ccaSoyOc.debug.temp.o
 .debug_line    0x0000000000000000      0x176 /tmp/ccaSoyOc.debug.temp.o
 .debug_str     0x0000000000000000      0x35a /tmp/ccaSoyOc.debug.temp.o
 .comment       0x0000000000000000       0x2b /tmp/ccaSoyOc.debug.temp.o
 .note.GNU-stack
                0x0000000000000000        0x0 /tmp/ccaSoyOc.debug.temp.o
 .debug_info    0x0000000000000000      0x1c3 /tmp/cc4B0gZd.debug.temp.o
 .debug_abbrev  0x0000000000000000       0xb1 /tmp/cc4B0gZd.debug.temp.o
 .debug_line    0x0000000000000000      0x14e /tmp/cc4B0gZd.debug.temp.o
 .debug_str     0x0000000000000000      0x45d /tmp/cc4B0gZd.debug.temp.o
 .comment       0x0000000000000000       0x2b /tmp/cc4B0gZd.debug.temp.o
 .note.GNU-stack
                0x0000000000000000        0x0 /tmp/cc4B0gZd.debug.temp.o
 .debug_info    0x0000000000000000      0x1e7 /tmp/ccndblnc.debug.temp.o
 .debug_abbrev  0x0000000000000000       0xc0 /tmp/ccndblnc.debug.temp.o
 .debug_line    0x0000000000000000      0x14e /tmp/ccndblnc.debug.temp.o
 .debug_str     0x0000000000000000      0x473 /tmp/ccndblnc.debug.temp.o
 .comment       0x0000000000000000       0x2b /tmp/ccndblnc.debug.temp.o
 .note.GNU-stack
                0x0000000000000000        0x0 /tmp/ccndblnc.debug.temp.o
 .comment       0x0000000000000000       0x2b /tmp/ccVKgOcg.debug.temp.o
 .note.GNU-stack
                0x0000000000000000        0x0 /tmp/ccVKgOcg.debug.temp.o
 .debug_info    0x0000000000000000      0x89f /tmp/ccxhpzOe.debug.temp.o
 .debug_abbrev  0x0000000000000000       0xf9 /tmp/ccxhpzOe.debug.temp.o
 .debug_line    0x0000000000000000      0x14b /tmp/ccxhpzOe.debug.temp.o
 .debug_str     0x0000000000000000      0x650 /tmp/ccxhpzOe.debug.temp.o
 .comment       0x0000000000000000       0x2b /tmp/ccxhpzOe.debug.temp.o
 .note.GNU-stack
                0x0000000000000000        0x0 /tmp/ccxhpzOe.debug.temp.o
 .comment       0x0000000000000000       0x2b /tmp/ccRPz1Ed.debug.temp.o
 .note.GNU-stack
                0x0000000000000000        0x0 /tmp/ccRPz1Ed.debug.temp.o
 .comment       0x0000000000000000       0x2b /tmp/cckSWN4f.debug.temp.o
 .note.GNU-stack
                0x0000000000000000        0x0 /tmp/cckSWN4f.debug.temp.o
 .comment       0x0000000000000000       0x2b /tmp/cc3DnE3f.debug.temp.o
 .note.GNU-stack
                0x0000000000000000        0x0 /tmp/cc3DnE3f.debug.temp.o
 .comment       0x0000000000000000       0x2b /tmp/ccgYKf0c.debug.temp.o
 .note.GNU-stack
                0x0000000000000000        0x0 /tmp/ccgYKf0c.debug.temp.o
 .debug_info    0x0000000000000000     0x1bef /tmp/cckVT3Ze.debug.temp.o
 .debug_abbrev  0x0000000000000000      0x22d /tmp/cckVT3Ze.debug.temp.o
 .debug_line    0x0000000000000000      0x368 /tmp/cckVT3Ze.debug.temp.o
 .debug_str     0x0000000000000000     0x17ac /tmp/cckVT3Ze.debug.temp.o
 .comment       0x0000000000000000       0x2b /tmp/cckVT3Ze.debug.temp.o
 .note.GNU-stack
                0x0000000000000000        0x0 /tmp/cckVT3Ze.debug.temp.o
 .comment       0x0000000000000000       0x2b /tmp/ccSgYf3b.debug.temp.o
 .note.GNU-stack
                0x0000000000000000        0x0 /tmp/ccSgYf3b.debug.temp.o
 .comment       0x0000000000000000       0x2b /tmp/ccTJS8ce.debug.temp.o
 .note.GNU-stack
                0x0000000000000000        0x0 /tmp/ccTJS8ce.debug.temp.o
 .data          0x0000000000000000        0x0 /home/alastair/pftf-rpi4/Build/RPi4/RELEASE_GCC5/AARCH64/MdePkg/Library/BaseMemoryLibOptDxe/BaseMemoryLibOptDxe/OUTPUT/BaseMemoryLibOptDxe.lib(CopyMem.obj)
 .bss           0x0000000000000000        0x0 /home/alastair/pftf-rpi4/Build/RPi4/RELEASE_GCC5/AARCH64/MdePkg/Library/BaseMemoryLibOptDxe/BaseMemoryLibOptDxe/OUTPUT/BaseMemoryLibOptDxe.lib(CopyMem.obj)
 .data          0x0000000000000000        0x0 /home/alastair/pftf-rpi4/Build/RPi4/RELEASE_GCC5/AARCH64/MdePkg/Library/BaseMemoryLibOptDxe/BaseMemoryLibOptDxe/OUTPUT/BaseMemoryLibOptDxe.lib(CompareGuid.obj)
 .bss           0x0000000000000000        0x0 /home/alastair/pftf-rpi4/Build/RPi4/RELEASE_GCC5/AARCH64/MdePkg/Library/BaseMemoryLibOptDxe/BaseMemoryLibOptDxe/OUTPUT/BaseMemoryLibOptDxe.lib(CompareGuid.obj)
 .text          0x0000000000000000        0x8 /home/alastair/pftf-rpi4/Build/RPi4/RELEASE_GCC5/AARCH64/MdePkg/Library/BaseLib/BaseLib/OUTPUT/BaseLib.lib(CpuBreakpoint.obj)
 .data          0x0000000000000000        0x0 /home/alastair/pftf-rpi4/Build/RPi4/RELEASE_GCC5/AARCH64/MdePkg/Library/BaseLib/BaseLib/OUTPUT/BaseLib.lib(CpuBreakpoint.obj)
 .bss           0x0000000000000000        0x0 /home/alastair/pftf-rpi4/Build/RPi4/RELEASE_GCC5/AARCH64/MdePkg/Library/BaseLib/BaseLib/OUTPUT/BaseLib.lib(CpuBreakpoint.obj)
 .data          0x0000000000000000        0x0 /home/alastair/pftf-rpi4/Build/RPi4/RELEASE_GCC5/AARCH64/MdePkg/Library/BaseMemoryLibOptDxe/BaseMemoryLibOptDxe/OUTPUT/BaseMemoryLibOptDxe.lib(SetMem.obj)
 .bss           0x0000000000000000        0x0 /home/alastair/pftf-rpi4/Build/RPi4/RELEASE_GCC5/AARCH64/MdePkg/Library/BaseMemoryLibOptDxe/BaseMemoryLibOptDxe/OUTPUT/BaseMemoryLibOptDxe.lib(SetMem.obj)
 .data          0x0000000000000000        0x0 /home/alastair/pftf-rpi4/Build/RPi4/RELEASE_GCC5/AARCH64/MdePkg/Library/BaseMemoryLibOptDxe/BaseMemoryLibOptDxe/OUTPUT/BaseMemoryLibOptDxe.lib(CompareMem.obj)
 .bss           0x0000000000000000        0x0 /home/alastair/pftf-rpi4/Build/RPi4/RELEASE_GCC5/AARCH64/MdePkg/Library/BaseMemoryLibOptDxe/BaseMemoryLibOptDxe/OUTPUT/BaseMemoryLibOptDxe.lib(CompareMem.obj)

Memory Configuration

Name             Origin             Length             Attributes
*default*        0x0000000000000000 0xffffffffffffffff

Linker script and memory map

LOAD /home/alastair/pftf-rpi4/edk2/ArmPkg/Library/GccLto/liblto-aarch64.a
START GROUP
LOAD /tmp/UiApp.dll.xW15Dc.ltrans0.ltrans.o
LOAD /tmp/UiApp.dll.xW15Dc.ltrans1.ltrans.o
LOAD /tmp/ccL0M6ng.debug.temp.o
LOAD /tmp/ccG0Tunc.debug.temp.o
LOAD /tmp/ccxkIdfg.debug.temp.o
LOAD /tmp/ccb3IcHf.debug.temp.o
LOAD /tmp/ccsL2Gig.debug.temp.o
LOAD /tmp/ccnfKoTc.debug.temp.o
LOAD /tmp/cc88IPsg.debug.temp.o
LOAD /tmp/cc9OgZsg.debug.temp.o
LOAD /tmp/ccVbxrrf.debug.temp.o
LOAD /tmp/cc85aQtd.debug.temp.o
LOAD /tmp/cc0MjXxc.debug.temp.o
LOAD /tmp/ccFfGydc.debug.temp.o
LOAD /tmp/ccTymtWd.debug.temp.o
LOAD /tmp/ccVXRLpg.debug.temp.o
LOAD /tmp/ccYcVAwg.debug.temp.o
LOAD /tmp/ccYBuefd.debug.temp.o
LOAD /tmp/ccIcHv2e.debug.temp.o
LOAD /tmp/ccOQpukc.debug.temp.o
LOAD /tmp/ccTYUKhg.debug.temp.o
LOAD /tmp/cc1UhVVe.debug.temp.o
LOAD /tmp/ccvPrDCe.debug.temp.o
LOAD /tmp/cciwaS1c.debug.temp.o
LOAD /tmp/cc2rqGZf.debug.temp.o
LOAD /tmp/ccWaofZe.debug.temp.o
LOAD /tmp/ccn1PjPc.debug.temp.o
LOAD /tmp/cc0ryYne.debug.temp.o
LOAD /tmp/ccfv3eye.debug.temp.o
LOAD /tmp/ccn0Mv9b.debug.temp.o
LOAD /tmp/ccXQs4Uc.debug.temp.o
LOAD /tmp/ccXSVURf.debug.temp.o
LOAD /tmp/cchekaDf.debug.temp.o
LOAD /tmp/cccXUcWe.debug.temp.o
LOAD /tmp/ccP4Uwkg.debug.temp.o
LOAD /tmp/ccTp4LZc.debug.temp.o
LOAD /tmp/ccaCiTde.debug.temp.o
LOAD /tmp/ccbiENHc.debug.temp.o
LOAD /tmp/ccI82MPc.debug.temp.o
LOAD /tmp/ccNRckYb.debug.temp.o
LOAD /tmp/ccIHx9gg.debug.temp.o
LOAD /tmp/cc49bCcd.debug.temp.o
LOAD /tmp/ccWg0Cye.debug.temp.o
LOAD /tmp/cct5TkTc.debug.temp.o
LOAD /tmp/cc5zwiwe.debug.temp.o
LOAD /tmp/cctEbBKd.debug.temp.o
LOAD /tmp/cczaTAye.debug.temp.o
LOAD /tmp/ccjS1ktc.debug.temp.o
LOAD /tmp/ccGKa1Re.debug.temp.o
LOAD /tmp/cckSFZed.debug.temp.o
LOAD /tmp/ccxrLvXb.debug.temp.o
LOAD /tmp/cccH8zYd.debug.temp.o
LOAD /tmp/cc1RROdf.debug.temp.o
LOAD /tmp/cco8RJdf.debug.temp.o
LOAD /tmp/ccABTZYe.debug.temp.o
LOAD /tmp/ccGWbRDf.debug.temp.o
LOAD /tmp/ccrHaRoe.debug.temp.o
LOAD /tmp/ccRQQQ4e.debug.temp.o
LOAD /tmp/ccpRQsgd.debug.temp.o
LOAD /tmp/ccNSQ9Vf.debug.temp.o
LOAD /tmp/ccTtnvhd.debug.temp.o
LOAD /tmp/ccBkLwwg.debug.temp.o
LOAD /tmp/cc75Zfre.debug.temp.o
LOAD /tmp/ccunLgXc.debug.temp.o
LOAD /tmp/ccFqv3Uc.debug.temp.o
LOAD /tmp/ccUICILe.debug.temp.o
LOAD /tmp/ccG8ogPc.debug.temp.o
LOAD /tmp/cc4vlMRf.debug.temp.o
LOAD /tmp/ccGL3Naf.debug.temp.o
LOAD /tmp/ccufjt4f.debug.temp.o
LOAD /tmp/ccfDer6c.debug.temp.o
LOAD /tmp/cccklRtc.debug.temp.o
LOAD /tmp/ccrrYpFc.debug.temp.o
LOAD /tmp/ccZtHZaf.debug.temp.o
LOAD /tmp/ccsvtl6e.debug.temp.o
LOAD /tmp/ccOKSGrc.debug.temp.o
LOAD /tmp/ccSCr8Tc.debug.temp.o
LOAD /tmp/cc41tJce.debug.temp.o
LOAD /tmp/ccRviuSd.debug.temp.o
LOAD /tmp/ccqvb9If.debug.temp.o
LOAD /tmp/ccog8HLd.debug.temp.o
LOAD /tmp/cc08s0Pf.debug.temp.o
LOAD /tmp/cce4GIvd.debug.temp.o
LOAD /tmp/ccaSoyOc.debug.temp.o
LOAD /tmp/cc4B0gZd.debug.temp.o
LOAD /tmp/ccndblnc.debug.temp.o
LOAD /tmp/ccVKgOcg.debug.temp.o
LOAD /tmp/ccxhpzOe.debug.temp.o
LOAD /tmp/ccRPz1Ed.debug.temp.o
LOAD /tmp/cckSWN4f.debug.temp.o
LOAD /tmp/cc3DnE3f.debug.temp.o
LOAD /tmp/ccgYKf0c.debug.temp.o
LOAD /tmp/cckVT3Ze.debug.temp.o
LOAD /tmp/ccSgYf3b.debug.temp.o
LOAD /tmp/ccTJS8ce.debug.temp.o
LOAD /home/alastair/pftf-rpi4/Build/RPi4/RELEASE_GCC5/AARCH64/MdeModulePkg/Application/UiApp/UiApp/OUTPUT/UiApp.lib
LOAD /home/alastair/pftf-rpi4/Build/RPi4/RELEASE_GCC5/AARCH64/MdePkg/Library/DxePcdLib/DxePcdLib/OUTPUT/DxePcdLib.lib
LOAD /home/alastair/pftf-rpi4/Build/RPi4/RELEASE_GCC5/AARCH64/MdePkg/Library/BaseDebugLibNull/BaseDebugLibNull/OUTPUT/BaseDebugLibNull.lib
LOAD /home/alastair/pftf-rpi4/Build/RPi4/RELEASE_GCC5/AARCH64/MdePkg/Library/BaseMemoryLibOptDxe/BaseMemoryLibOptDxe/OUTPUT/BaseMemoryLibOptDxe.lib
LOAD /home/alastair/pftf-rpi4/Build/RPi4/RELEASE_GCC5/AARCH64/MdePkg/Library/BaseLib/BaseLib/OUTPUT/BaseLib.lib
LOAD /home/alastair/pftf-rpi4/Build/RPi4/RELEASE_GCC5/AARCH64/MdePkg/Library/UefiBootServicesTableLib/UefiBootServicesTableLib/OUTPUT/UefiBootServicesTableLib.lib
LOAD /home/alastair/pftf-rpi4/Build/RPi4/RELEASE_GCC5/AARCH64/MdePkg/Library/BasePrintLib/BasePrintLib/OUTPUT/BasePrintLib.lib
LOAD /home/alastair/pftf-rpi4/Build/RPi4/RELEASE_GCC5/AARCH64/MdePkg/Library/UefiMemoryAllocationLib/UefiMemoryAllocationLib/OUTPUT/UefiMemoryAllocationLib.lib
LOAD /home/alastair/pftf-rpi4/Build/RPi4/RELEASE_GCC5/AARCH64/MdePkg/Library/UefiRuntimeServicesTableLib/UefiRuntimeServicesTableLib/OUTPUT/UefiRuntimeServicesTableLib.lib
LOAD /home/alastair/pftf-rpi4/Build/RPi4/RELEASE_GCC5/AARCH64/MdePkg/Library/UefiDevicePathLib/UefiDevicePathLib/OUTPUT/UefiDevicePathLib.lib
LOAD /home/alastair/pftf-rpi4/Build/RPi4/RELEASE_GCC5/AARCH64/MdePkg/Library/UefiLib/UefiLib/OUTPUT/UefiLib.lib
LOAD /home/alastair/pftf-rpi4/Build/RPi4/RELEASE_GCC5/AARCH64/MdeModulePkg/Library/UefiHiiServicesLib/UefiHiiServicesLib/OUTPUT/UefiHiiServicesLib.lib
LOAD /home/alastair/pftf-rpi4/Build/RPi4/RELEASE_GCC5/AARCH64/MdeModulePkg/Library/UefiSortLib/UefiSortLib/OUTPUT/UefiSortLib.lib
LOAD /home/alastair/pftf-rpi4/Build/RPi4/RELEASE_GCC5/AARCH64/MdePkg/Library/DxeServicesLib/DxeServicesLib/OUTPUT/DxeServicesLib.lib
LOAD /home/alastair/pftf-rpi4/Build/RPi4/RELEASE_GCC5/AARCH64/MdePkg/Library/DxeServicesTableLib/DxeServicesTableLib/OUTPUT/DxeServicesTableLib.lib
LOAD /home/alastair/pftf-rpi4/Build/RPi4/RELEASE_GCC5/AARCH64/MdePkg/Library/BasePeCoffGetEntryPointLib/BasePeCoffGetEntryPointLib/OUTPUT/BasePeCoffGetEntryPointLib.lib
LOAD /home/alastair/pftf-rpi4/Build/RPi4/RELEASE_GCC5/AARCH64/MdeModulePkg/Library/DxePerformanceLib/DxePerformanceLib/OUTPUT/DxePerformanceLib.lib
LOAD /home/alastair/pftf-rpi4/Build/RPi4/RELEASE_GCC5/AARCH64/MdePkg/Library/DxeHobLib/DxeHobLib/OUTPUT/DxeHobLib.lib
LOAD /home/alastair/pftf-rpi4/Build/RPi4/RELEASE_GCC5/AARCH64/MdeModulePkg/Library/UefiHiiLib/UefiHiiLib/OUTPUT/UefiHiiLib.lib
LOAD /home/alastair/pftf-rpi4/Build/RPi4/RELEASE_GCC5/AARCH64/MdePkg/Library/BaseReportStatusCodeLibNull/BaseReportStatusCodeLibNull/OUTPUT/BaseReportStatusCodeLibNull.lib
LOAD /home/alastair/pftf-rpi4/Build/RPi4/RELEASE_GCC5/AARCH64/MdeModulePkg/Library/UefiBootManagerLib/UefiBootManagerLib/OUTPUT/UefiBootManagerLib.lib
LOAD /home/alastair/pftf-rpi4/Build/RPi4/RELEASE_GCC5/AARCH64/MdeModulePkg/Library/FileExplorerLib/FileExplorerLib/OUTPUT/FileExplorerLib.lib
LOAD /home/alastair/pftf-rpi4/Build/RPi4/RELEASE_GCC5/AARCH64/MdePkg/Library/UefiApplicationEntryPoint/UefiApplicationEntryPoint/OUTPUT/UefiApplicationEntryPoint.lib
LOAD /home/alastair/pftf-rpi4/Build/RPi4/RELEASE_GCC5/AARCH64/MdePkg/Library/BaseStackCheckLib/BaseStackCheckLib/OUTPUT/BaseStackCheckLib.lib
LOAD /home/alastair/pftf-rpi4/Build/RPi4/RELEASE_GCC5/AARCH64/ArmPkg/Library/CompilerIntrinsicsLib/CompilerIntrinsicsLib/OUTPUT/CompilerIntrinsicsLib.lib
LOAD /home/alastair/pftf-rpi4/Build/RPi4/RELEASE_GCC5/AARCH64/MdeModulePkg/Library/BootDiscoveryPolicyUiLib/BootDiscoveryPolicyUiLib/OUTPUT/BootDiscoveryPolicyUiLib.lib
LOAD /home/alastair/pftf-rpi4/Build/RPi4/RELEASE_GCC5/AARCH64/MdeModulePkg/Library/DeviceManagerUiLib/DeviceManagerUiLib/OUTPUT/DeviceManagerUiLib.lib
LOAD /home/alastair/pftf-rpi4/Build/RPi4/RELEASE_GCC5/AARCH64/MdeModulePkg/Library/BootManagerUiLib/BootManagerUiLib/OUTPUT/BootManagerUiLib.lib
LOAD /home/alastair/pftf-rpi4/Build/RPi4/RELEASE_GCC5/AARCH64/Platform/RaspberryPi/Library/PlatformUiAppLib/PlatformUiAppLib/OUTPUT/PlatformUiAppLib.lib
LOAD /home/alastair/pftf-rpi4/Build/RPi4/RELEASE_GCC5/AARCH64/MdeModulePkg/Library/BootMaintenanceManagerUiLib/BootMaintenanceManagerUiLib/OUTPUT/BootMaintenanceManagerUiLib.lib
END GROUP
                0x0000000000000228                . = PECOFF_HEADER_SIZE

.gnu.version_d  0x0000000000000228        0x0
 .gnu.version_d
                0x0000000000000228        0x0 /home/alastair/pftf-rpi4/edk2/ArmPkg/Library/GccLto/liblto-aarch64.a

.gnu.version    0x0000000000000228        0x0
 .gnu.version   0x0000000000000228        0x0 /home/alastair/pftf-rpi4/edk2/ArmPkg/Library/GccLto/liblto-aarch64.a

.gnu.version_r  0x0000000000000228        0x0
 .gnu.version_r
                0x0000000000000228        0x0 /home/alastair/pftf-rpi4/edk2/ArmPkg/Library/GccLto/liblto-aarch64.a

.text           0x0000000000001000    0x17960
 *(.text .text.* .stub .gnu.linkonce.t.*)
 .text.IsZeroBuffer.constprop.0
                0x0000000000001000       0x28 /tmp/UiApp.dll.xW15Dc.ltrans0.ltrans.o
 .text.EfiLibDeleteVariable.constprop.0
                0x0000000000001028       0x28 /tmp/UiApp.dll.xW15Dc.ltrans0.ltrans.o
 .text.IsListEmpty
                0x0000000000001050       0x10 /tmp/UiApp.dll.xW15Dc.ltrans0.ltrans.o
 .text.CleanUselessBeforeSubmit
                0x0000000000001060       0xa0 /tmp/UiApp.dll.xW15Dc.ltrans0.ltrans.o
 .text.BootManagerExtractConfig
                0x0000000000001100       0x24 /tmp/UiApp.dll.xW15Dc.ltrans0.ltrans.o
 .text.DeviceManagerExtractConfig
                0x0000000000001124       0x24 /tmp/UiApp.dll.xW15Dc.ltrans0.ltrans.o
 .text.LibToLowerString
                0x0000000000001148       0x2c /tmp/UiApp.dll.xW15Dc.ltrans0.ltrans.o
 .text.LibExtractConfig
                0x0000000000001174       0x24 /tmp/UiApp.dll.xW15Dc.ltrans0.ltrans.o
 .text.InternalHiiBrowserCallback.constprop.0
                0x0000000000001198      0x13c /tmp/UiApp.dll.xW15Dc.ltrans0.ltrans.o
 .text.BOpt_DestroyMenuEntry
                0x00000000000012d4       0xd4 /tmp/UiApp.dll.xW15Dc.ltrans0.ltrans.o
 .text.LibDestroyMenuEntry
                0x00000000000013a8       0x78 /tmp/UiApp.dll.xW15Dc.ltrans0.ltrans.o
 .text.LibCreateMenuEntry
                0x0000000000001420       0x58 /tmp/UiApp.dll.xW15Dc.ltrans0.ltrans.o
 .text.EfiBootManagerFreeDriverHealthInfo
                0x0000000000001478       0x60 /tmp/UiApp.dll.xW15Dc.ltrans0.ltrans.o
 .text.BmGetSingleControllerHealthStatus
                0x00000000000014d8      0x1fc /tmp/UiApp.dll.xW15Dc.ltrans0.ltrans.o
 .text.EfiBootManagerGetDriverHealthInfo
                0x00000000000016d4      0x1b4 /tmp/UiApp.dll.xW15Dc.ltrans0.ltrans.o
 .text.BOpt_GetOptionNumber
                0x0000000000001888      0x108 /tmp/UiApp.dll.xW15Dc.ltrans0.ltrans.o
 .text.StrnCatS.constprop.0
                0x0000000000001990       0xfc /tmp/UiApp.dll.xW15Dc.ltrans0.ltrans.o
 .text.HiiConstructConfigHdr.constprop.0
                0x0000000000001a8c      0x210 /tmp/UiApp.dll.xW15Dc.ltrans0.ltrans.o
 .text.HiiIsConfigHdrMatch.constprop.0
                0x0000000000001c9c       0x8c /tmp/UiApp.dll.xW15Dc.ltrans0.ltrans.o
 .text.LibAppendFileName
                0x0000000000001d28      0x178 /tmp/UiApp.dll.xW15Dc.ltrans0.ltrans.o
 .text.LibStrDuplicate
                0x0000000000001ea0       0x48 /tmp/UiApp.dll.xW15Dc.ltrans0.ltrans.o
 .text.SetMem.constprop.0
                0x0000000000001ee8        0xc /tmp/UiApp.dll.xW15Dc.ltrans0.ltrans.o
 .text.Print    0x0000000000001ef4      0x11c /tmp/UiApp.dll.xW15Dc.ltrans0.ltrans.o
 .text.BmRepairNotify
                0x0000000000002010       0x28 /tmp/UiApp.dll.xW15Dc.ltrans0.ltrans.o
 .text.SetMem16
                0x0000000000002038       0x14 /tmp/UiApp.dll.xW15Dc.ltrans0.ltrans.o
 .text.LibGetDevicePath
                0x000000000000204c       0x70 /tmp/UiApp.dll.xW15Dc.ltrans0.ltrans.o
 .text.LibCreateNewFile
                0x00000000000020bc      0x2bc /tmp/UiApp.dll.xW15Dc.ltrans0.ltrans.o
 .text.BmmSetConsoleMode
                0x0000000000002378      0x370 /tmp/UiApp.dll.xW15Dc.ltrans0.ltrans.o
 .text.BmSetConsoleMode
                0x00000000000026e8      0x370 /tmp/UiApp.dll.xW15Dc.ltrans0.ltrans.o
 .text.BootMaintExtractConfig
                0x0000000000002a58      0x148 /tmp/UiApp.dll.xW15Dc.ltrans0.ltrans.o
 .text.BootManagerRouteConfig
                0x0000000000002ba0        0x4 /tmp/UiApp.dll.xW15Dc.ltrans0.ltrans.o
 .text.DeviceManagerRouteConfig
                0x0000000000002ba4        0x4 /tmp/UiApp.dll.xW15Dc.ltrans0.ltrans.o
 .text.LibRouteConfig
                0x0000000000002ba8        0x4 /tmp/UiApp.dll.xW15Dc.ltrans0.ltrans.o
 .text.EfiBootManagerIsValidLoadOptionVariableName.part.0
                0x0000000000002bac      0x108 /tmp/UiApp.dll.xW15Dc.ltrans0.ltrans.o
 .text.InternalAllocatePool.constprop.0
                0x0000000000002cb4       0x6c /tmp/UiApp.dll.xW15Dc.ltrans0.ltrans.o
                0x0000000000002cb4                InternalAllocatePool.constprop.0
 .text.CreatePopUp.constprop.0
                0x0000000000002d20      0x494 /tmp/UiApp.dll.xW15Dc.ltrans0.ltrans.o
                0x0000000000002d20                CreatePopUp.constprop.0
 .text.HiiSetString.constprop.0
                0x00000000000031b4      0x118 /tmp/UiApp.dll.xW15Dc.ltrans0.ltrans.o
                0x00000000000031b4                HiiSetString.constprop.0
 .text.HiiGetString.constprop.0
                0x00000000000032cc      0x168 /tmp/UiApp.dll.xW15Dc.ltrans0.ltrans.o
                0x00000000000032cc                HiiGetString.constprop.0
 .text.IsMacAddressDevicePath
                0x0000000000003434      0x2d8 /tmp/UiApp.dll.xW15Dc.ltrans0.ltrans.o
 .text.HiiGetHiiHandles.constprop.0
                0x000000000000370c       0xc8 /tmp/UiApp.dll.xW15Dc.ltrans0.ltrans.o
                0x000000000000370c                HiiGetHiiHandles.constprop.0
 .text.GetNextNode.constprop.0
                0x00000000000037d4        0x8 /tmp/UiApp.dll.xW15Dc.ltrans0.ltrans.o
                0x00000000000037d4                GetNextNode.constprop.0
 .text.LogPerformanceMeasurementEnabled.constprop.0
                0x00000000000037dc        0x8 /tmp/UiApp.dll.xW15Dc.ltrans0.ltrans.o
                0x00000000000037dc                LogPerformanceMeasurementEnabled.constprop.0
 .text.IsZeroGuid.constprop.0
                0x00000000000037e4       0x10 /tmp/UiApp.dll.xW15Dc.ltrans0.ltrans.o
                0x00000000000037e4                IsZeroGuid.constprop.0
 .text.MultU64x32.constprop.0
                0x00000000000037f4        0xc /tmp/UiApp.dll.xW15Dc.ltrans0.ltrans.o
                0x00000000000037f4                MultU64x32.constprop.0
 .text.LShiftU64.constprop.0
                0x0000000000003800        0x8 /tmp/UiApp.dll.xW15Dc.ltrans0.ltrans.o
                0x0000000000003800                LShiftU64.constprop.0
 .text.EfiAcquireLock.constprop.0
                0x0000000000003808       0x40 /tmp/UiApp.dll.xW15Dc.ltrans0.ltrans.o
                0x0000000000003808                EfiAcquireLock.constprop.0
 .text.GetPerformanceMeasurementProtocol
                0x0000000000003848       0x8c /tmp/UiApp.dll.xW15Dc.ltrans0.ltrans.o
                0x0000000000003848                GetPerformanceMeasurementProtocol
 .text.LogPerformanceMeasurement.constprop.0
                0x00000000000038d4       0x70 /tmp/UiApp.dll.xW15Dc.ltrans0.ltrans.o
                0x00000000000038d4                LogPerformanceMeasurement.constprop.0
 .text.EndPerformanceMeasurementEx.constprop.0
                0x0000000000003944       0x70 /tmp/UiApp.dll.xW15Dc.ltrans0.ltrans.o
                0x0000000000003944                EndPerformanceMeasurementEx.constprop.0
 .text.WriteUnaligned32
                0x00000000000039b4       0x2c /tmp/UiApp.dll.xW15Dc.ltrans0.ltrans.o
                0x00000000000039b4                WriteUnaligned32
 .text.WriteUnaligned16
                0x00000000000039e0       0x18 /tmp/UiApp.dll.xW15Dc.ltrans0.ltrans.o
                0x00000000000039e0                WriteUnaligned16
 .text.ReadUnaligned16
                0x00000000000039f8       0x30 /tmp/UiApp.dll.xW15Dc.ltrans0.ltrans.o
                0x00000000000039f8                ReadUnaligned16
 .text.ReadUnaligned32
                0x0000000000003a28       0x28 /tmp/UiApp.dll.xW15Dc.ltrans0.ltrans.o
                0x0000000000003a28                ReadUnaligned32
 .text.BasePrintLibSPrintMarker.constprop.0
                0x0000000000003a50      0xeec /tmp/UiApp.dll.xW15Dc.ltrans0.ltrans.o
                0x0000000000003a50                BasePrintLibSPrintMarker.constprop.0
 .text.BasePrintLibSPrint.constprop.0
                0x000000000000493c       0xa0 /tmp/UiApp.dll.xW15Dc.ltrans0.ltrans.o
 .text.ReadUnaligned64
                0x00000000000049dc       0x28 /tmp/UiApp.dll.xW15Dc.ltrans0.ltrans.o
                0x00000000000049dc                ReadUnaligned64
 .text.RemoveEntryList
                0x0000000000004a04       0x14 /tmp/UiApp.dll.xW15Dc.ltrans0.ltrans.o
                0x0000000000004a04                RemoveEntryList
 .text.LibFreeMenu
                0x0000000000004a18       0x4c /tmp/UiApp.dll.xW15Dc.ltrans0.ltrans.o
 .text.IsNull   0x0000000000004a64        0xc /tmp/UiApp.dll.xW15Dc.ltrans0.ltrans.o
                0x0000000000004a64                IsNull
 .text.GetFirstNode
                0x0000000000004a70        0x8 /tmp/UiApp.dll.xW15Dc.ltrans0.ltrans.o
                0x0000000000004a70                GetFirstNode
 .text.InsertTailList
                0x0000000000004a78       0x18 /tmp/UiApp.dll.xW15Dc.ltrans0.ltrans.o
                0x0000000000004a78                InsertTailList
 .text.InitializeListHead
                0x0000000000004a90        0x8 /tmp/UiApp.dll.xW15Dc.ltrans0.ltrans.o
                0x0000000000004a90                InitializeListHead
 .text.CompareMem
                0x0000000000004a98       0x18 /tmp/UiApp.dll.xW15Dc.ltrans0.ltrans.o
                0x0000000000004a98                CompareMem
 .text.BootDescriptionHandler.lto_priv.0
                0x0000000000004ab0       0x8c /tmp/UiApp.dll.xW15Dc.ltrans0.ltrans.o
                0x0000000000004ab0                BootDescriptionHandler.lto_priv.0
 .text.ZeroMem  0x0000000000004b3c        0xc /tmp/UiApp.dll.xW15Dc.ltrans0.ltrans.o
                0x0000000000004b3c                ZeroMem
 .text.HiiCreateActionOpCode.constprop.0
                0x0000000000004b48       0x9c /tmp/UiApp.dll.xW15Dc.ltrans0.ltrans.o
                0x0000000000004b48                HiiCreateActionOpCode.constprop.0
 .text.HiiCreateSubTitleOpCode.constprop.0
                0x0000000000004be4       0x8c /tmp/UiApp.dll.xW15Dc.ltrans0.ltrans.o
                0x0000000000004be4                HiiCreateSubTitleOpCode.constprop.0
 .text.UpdatePageEnd
                0x0000000000004c70       0x7c /tmp/UiApp.dll.xW15Dc.ltrans0.ltrans.o
 .text.HiiCreateGotoExOpCode.constprop.0
                0x0000000000004cec       0xc8 /tmp/UiApp.dll.xW15Dc.ltrans0.ltrans.o
                0x0000000000004cec                HiiCreateGotoExOpCode.constprop.0
 .text.UefiDevicePathLibConvertDevicePathToText.constprop.0
                0x0000000000004db4      0x158 /tmp/UiApp.dll.xW15Dc.ltrans0.ltrans.o
                0x0000000000004db4                UefiDevicePathLibConvertDevicePathToText.constprop.0
 .text.BmGetControllerName
                0x0000000000004f0c      0x15c /tmp/UiApp.dll.xW15Dc.ltrans0.ltrans.o
 .text.BmDisplayMessages
                0x0000000000005068       0xc0 /tmp/UiApp.dll.xW15Dc.ltrans0.ltrans.o
 .text.HiiCreateOneOfOpCode.constprop.0
                0x0000000000005128      0x10c /tmp/UiApp.dll.xW15Dc.ltrans0.ltrans.o
                0x0000000000005128                HiiCreateOneOfOpCode.constprop.0
 .text.HiiCreateGuidOpCode.constprop.0
                0x0000000000005234       0x80 /tmp/UiApp.dll.xW15Dc.ltrans0.ltrans.o
                0x0000000000005234                HiiCreateGuidOpCode.constprop.0
 .text.RefreshUpdateData
                0x00000000000052b4       0x44 /tmp/UiApp.dll.xW15Dc.ltrans0.ltrans.o
 .text.CleanUpPage
                0x00000000000052f8       0x50 /tmp/UiApp.dll.xW15Dc.ltrans0.ltrans.o
 .text.UpdatePageStart
                0x0000000000005348       0x60 /tmp/UiApp.dll.xW15Dc.ltrans0.ltrans.o
 .text.HiiCreateCheckBoxOpCode.constprop.0
                0x00000000000053a8       0xb8 /tmp/UiApp.dll.xW15Dc.ltrans0.ltrans.o
 .text.LibUpdateFileExplorePage
                0x0000000000005460      0x21c /tmp/UiApp.dll.xW15Dc.ltrans0.ltrans.o
 .text.LibCallback
                0x000000000000567c      0x4f8 /tmp/UiApp.dll.xW15Dc.ltrans0.ltrans.o
 .text.ReportProgressCodeEnabled
                0x0000000000005b74        0x8 /tmp/UiApp.dll.xW15Dc.ltrans0.ltrans.o
                0x0000000000005b74                ReportProgressCodeEnabled
                0x0000000000005b74                ReportDebugCodeEnabled
                0x0000000000005b74                ReportErrorCodeEnabled
                0x0000000000005b74                DebugCodeEnabled
 .text.RequiredDriver
                0x0000000000005b7c      0x138 /tmp/UiApp.dll.xW15Dc.ltrans0.ltrans.o
                0x0000000000005b7c                RequiredDriver
 .text.ExtractDevicePathFromHiiHandle
                0x0000000000005cb4       0x78 /tmp/UiApp.dll.xW15Dc.ltrans0.ltrans.o
                0x0000000000005cb4                ExtractDevicePathFromHiiHandle
 .text.GetConsoleOutMode
                0x0000000000005d2c       0xd8 /tmp/UiApp.dll.xW15Dc.ltrans0.ltrans.o
                0x0000000000005d2c                GetConsoleOutMode
 .text.IsIsaSerialNode
                0x0000000000005e04       0x48 /tmp/UiApp.dll.xW15Dc.ltrans0.ltrans.o
                0x0000000000005e04                IsIsaSerialNode
 .text.RetrieveUartUid
                0x0000000000005e4c       0xe4 /tmp/UiApp.dll.xW15Dc.ltrans0.ltrans.o
                0x0000000000005e4c                RetrieveUartUid
 .text.BmMatchDevicePaths
                0x0000000000005f30       0xa8 /tmp/UiApp.dll.xW15Dc.ltrans0.ltrans.o
                0x0000000000005f30                BmMatchDevicePaths
                0x0000000000005f30                MatchDevicePaths
 .text.BOpt_FreeMenu
                0x0000000000005fd8       0x4c /tmp/UiApp.dll.xW15Dc.ltrans0.ltrans.o
                0x0000000000005fd8                BOpt_FreeMenu
 .text.BOpt_GetMenuEntry
                0x0000000000006024       0x24 /tmp/UiApp.dll.xW15Dc.ltrans0.ltrans.o
                0x0000000000006024                BOpt_GetMenuEntry
 .text.UpdateConsolePage
                0x0000000000006048      0x1e4 /tmp/UiApp.dll.xW15Dc.ltrans0.ltrans.o
 .text.UpdateComAttributeFromVariable
                0x000000000000622c      0x1cc /tmp/UiApp.dll.xW15Dc.ltrans0.ltrans.o
                0x000000000000622c                UpdateComAttributeFromVariable
 .text.ChangeTerminalDevicePath
                0x00000000000063f8      0x1a8 /tmp/UiApp.dll.xW15Dc.ltrans0.ltrans.o
 .text.Var_UpdateConsoleOption
                0x00000000000065a0      0x1d4 /tmp/UiApp.dll.xW15Dc.ltrans0.ltrans.o
 .text.GetDriverOrder
                0x0000000000006774       0xa4 /tmp/UiApp.dll.xW15Dc.ltrans0.ltrans.o
                0x0000000000006774                GetDriverOrder
 .text.GetBootOrder
                0x0000000000006818       0xa4 /tmp/UiApp.dll.xW15Dc.ltrans0.ltrans.o
                0x0000000000006818                GetBootOrder
 .text.UpdateOrderPage
                0x00000000000068bc      0x208 /tmp/UiApp.dll.xW15Dc.ltrans0.ltrans.o
 .text.UpdatePageBody
                0x0000000000006ac4       0xb4 /tmp/UiApp.dll.xW15Dc.ltrans0.ltrans.o
 .text.UpdateConsoleContent
                0x0000000000006b78      0x1f0 /tmp/UiApp.dll.xW15Dc.ltrans0.ltrans.o
 .text.BOpt_CreateMenuEntry
                0x0000000000006d68       0xac /tmp/UiApp.dll.xW15Dc.ltrans0.ltrans.o
                0x0000000000006d68                BOpt_CreateMenuEntry
 .text.LibDevicePathToStr
                0x0000000000006e14       0x8c /tmp/UiApp.dll.xW15Dc.ltrans0.ltrans.o
                0x0000000000006e14                UiDevicePathToStr
                0x0000000000006e14                LibDevicePathToStr
 .text.GetConsoleMenu
                0x0000000000006ea0      0x34c /tmp/UiApp.dll.xW15Dc.ltrans0.ltrans.o
                0x0000000000006ea0                GetConsoleMenu
 .text.BOpt_GetDriverOptions
                0x00000000000071ec      0x218 /tmp/UiApp.dll.xW15Dc.ltrans0.ltrans.o
                0x00000000000071ec                BOpt_GetDriverOptions
 .text.ExtractFileNameFromDevicePath
                0x0000000000007404       0x84 /tmp/UiApp.dll.xW15Dc.ltrans0.ltrans.o
 .text.ReSendForm
                0x0000000000007488      0x198 /tmp/UiApp.dll.xW15Dc.ltrans0.ltrans.o
 .text.CreateDriverOptionFromFile
                0x0000000000007620        0x8 /tmp/UiApp.dll.xW15Dc.ltrans0.ltrans.o
 .text.CreateBootOptionFromFile
                0x0000000000007628        0x8 /tmp/UiApp.dll.xW15Dc.ltrans0.ltrans.o
 .text.ChooseFile.constprop.0
                0x0000000000007630      0x310 /tmp/UiApp.dll.xW15Dc.ltrans0.ltrans.o
 .text.CreateDeviceManagerForm
                0x0000000000007940      0x564 /tmp/UiApp.dll.xW15Dc.ltrans0.ltrans.o
                0x0000000000007940                CreateDeviceManagerForm
 .text.DeviceManagerCallback
                0x0000000000007ea4       0xd8 /tmp/UiApp.dll.xW15Dc.ltrans0.ltrans.o
 .text.BmPrintDp
                0x0000000000007f7c       0x20 /tmp/UiApp.dll.xW15Dc.ltrans0.ltrans.o
                0x0000000000007f7c                BmPrintDp
 .text.BmSetVariableAndReportStatusCodeOnError
                0x0000000000007f9c       0xc0 /tmp/UiApp.dll.xW15Dc.ltrans0.ltrans.o
                0x0000000000007f9c                BmSetVariableAndReportStatusCodeOnError
 .text.BmDelPartMatchInstance
                0x000000000000805c      0x110 /tmp/UiApp.dll.xW15Dc.ltrans0.ltrans.o
                0x000000000000805c                BmDelPartMatchInstance
 .text.BmRepairAllControllers.part.0
                0x000000000000816c      0x2ec /tmp/UiApp.dll.xW15Dc.ltrans0.ltrans.o
                0x000000000000816c                BmRepairAllControllers.part.0
 .text.EfiBootManagerFreeLoadOption
                0x0000000000008458       0x54 /tmp/UiApp.dll.xW15Dc.ltrans0.ltrans.o
                0x0000000000008458                EfiBootManagerFreeLoadOption
 .text.EfiBootManagerFreeLoadOptions
                0x00000000000084ac       0x64 /tmp/UiApp.dll.xW15Dc.ltrans0.ltrans.o
                0x00000000000084ac                EfiBootManagerFreeLoadOptions
 .text.EfiBootManagerDeleteLoadOptionVariable
                0x0000000000008510      0x150 /tmp/UiApp.dll.xW15Dc.ltrans0.ltrans.o
                0x0000000000008510                EfiBootManagerDeleteLoadOptionVariable
 .text.EfiBootManagerFindLoadOption
                0x0000000000008660       0xc0 /tmp/UiApp.dll.xW15Dc.ltrans0.ltrans.o
                0x0000000000008660                EfiBootManagerFindLoadOption
 .text.EfiBootManagerInitializeLoadOption
                0x0000000000008720       0xe4 /tmp/UiApp.dll.xW15Dc.ltrans0.ltrans.o
                0x0000000000008720                EfiBootManagerInitializeLoadOption
 .text.BootFromFile
                0x0000000000008804      0x18c /tmp/UiApp.dll.xW15Dc.ltrans0.ltrans.o
 .text.EfiBootManagerVariableToLoadOptionEx.part.0
                0x0000000000008990      0x1e4 /tmp/UiApp.dll.xW15Dc.ltrans0.ltrans.o
                0x0000000000008990                EfiBootManagerVariableToLoadOptionEx.part.0
 .text.EfiBootManagerGetLoadOptions.part.0.constprop.0
                0x0000000000008b74      0x14c /tmp/UiApp.dll.xW15Dc.ltrans0.ltrans.o
                0x0000000000008b74                EfiBootManagerGetLoadOptions.part.0.constprop.0
 .text.BOpt_GetBootOptions
                0x0000000000008cc0      0x320 /tmp/UiApp.dll.xW15Dc.ltrans0.ltrans.o
                0x0000000000008cc0                BOpt_GetBootOptions
 .text.BootMaintCallback
                0x0000000000008fe0     0x13d8 /tmp/UiApp.dll.xW15Dc.ltrans0.ltrans.o
 .text.BmHotkeyCallback
                0x000000000000a3b8      0x194 /tmp/UiApp.dll.xW15Dc.ltrans0.ltrans.o
                0x000000000000a3b8                BmHotkeyCallback
 .text.BootManagerCallback
                0x000000000000a54c      0x5b0 /tmp/UiApp.dll.xW15Dc.ltrans0.ltrans.o
 .text.EfiBootManagerLoadOptionToVariable
                0x000000000000aafc      0x1ec /tmp/UiApp.dll.xW15Dc.ltrans0.ltrans.o
                0x000000000000aafc                EfiBootManagerLoadOptionToVariable
 .text.BmGetFreeOptionNumber
                0x000000000000ace8      0x118 /tmp/UiApp.dll.xW15Dc.ltrans0.ltrans.o
                0x000000000000ace8                BmGetFreeOptionNumber
 .text.EfiBootManagerAddLoadOptionVariable.constprop.0
                0x000000000000ae00      0x1a8 /tmp/UiApp.dll.xW15Dc.ltrans0.ltrans.o
                0x000000000000ae00                EfiBootManagerAddLoadOptionVariable.constprop.0
 .text.BootMaintRouteConfig
                0x000000000000afa8      0xee8 /tmp/UiApp.dll.xW15Dc.ltrans0.ltrans.o
 .text.BmGetBootDescription
                0x000000000000be90      0x110 /tmp/UiApp.dll.xW15Dc.ltrans0.ltrans.o
                0x000000000000be90                BmGetBootDescription
 .text.BmEliminateExtraSpaces
                0x000000000000bfa0       0x44 /tmp/UiApp.dll.xW15Dc.ltrans1.ltrans.o
 .text.EfiEventEmptyFunction
                0x000000000000bfe4        0x4 /tmp/UiApp.dll.xW15Dc.ltrans1.ltrans.o
 .text.HiiRemovePackages
                0x000000000000bfe8       0x18 /tmp/UiApp.dll.xW15Dc.ltrans1.ltrans.o
 .text.AsciiStrCmp
                0x000000000000c000       0x28 /tmp/UiApp.dll.xW15Dc.ltrans1.ltrans.o
 .text.RShiftU64
                0x000000000000c028        0x8 /tmp/UiApp.dll.xW15Dc.ltrans1.ltrans.o
 .text.GetPcdProtocol
                0x000000000000c030       0x48 /tmp/UiApp.dll.xW15Dc.ltrans1.ltrans.o
 .text.FakeRouteConfig
                0x000000000000c078       0x24 /tmp/UiApp.dll.xW15Dc.ltrans1.ltrans.o
                0x000000000000c078                FakeRouteConfig
 .text.FakeExtractConfig
                0x000000000000c09c       0x24 /tmp/UiApp.dll.xW15Dc.ltrans1.ltrans.o
                0x000000000000c09c                FakeExtractConfig
 .text.BmDestroyRamDisk
                0x000000000000c0c0       0xf8 /tmp/UiApp.dll.xW15Dc.ltrans1.ltrans.o
 .text.BmEndOfBdsPerfCode
                0x000000000000c1b8       0x30 /tmp/UiApp.dll.xW15Dc.ltrans1.ltrans.o
 .text.SPrintLength
                0x000000000000c1e8       0x40 /tmp/UiApp.dll.xW15Dc.ltrans1.ltrans.o
 .text.UefiLibGetStringWidth.part.0
                0x000000000000c228       0x84 /tmp/UiApp.dll.xW15Dc.ltrans1.ltrans.o
                0x000000000000c228                UefiLibGetStringWidth.part.0
 .text.IsDevicePathEnd
                0x000000000000c2ac       0x24 /tmp/UiApp.dll.xW15Dc.ltrans1.ltrans.o
                0x000000000000c2ac                IsDevicePathEnd
 .text.EfiBootManagerConnectDevicePath
                0x000000000000c2d0      0x150 /tmp/UiApp.dll.xW15Dc.ltrans1.ltrans.o
 .text.NextDevicePathNode
                0x000000000000c420       0x28 /tmp/UiApp.dll.xW15Dc.ltrans1.ltrans.o
                0x000000000000c420                NextDevicePathNode
 .text.BmMatchPartitionDevicePathNode.part.0
                0x000000000000c448       0xb4 /tmp/UiApp.dll.xW15Dc.ltrans1.ltrans.o
 .text.IsDevicePathValid
                0x000000000000c4fc       0xd8 /tmp/UiApp.dll.xW15Dc.ltrans1.ltrans.o
 .text.UefiDevicePathLibGetDevicePathSize
                0x000000000000c5d4       0x74 /tmp/UiApp.dll.xW15Dc.ltrans1.ltrans.o
                0x000000000000c5d4                UefiDevicePathLibGetDevicePathSize
 .text.DevicePathFromHandle
                0x000000000000c648       0x6c /tmp/UiApp.dll.xW15Dc.ltrans1.ltrans.o
                0x000000000000c648                DevicePathFromHandle
 .text.FreePool
                0x000000000000c6b4       0x14 /tmp/UiApp.dll.xW15Dc.ltrans1.ltrans.o
                0x000000000000c6b4                FreePool
 .text.BmConnectUsbShortFormDevicePath
                0x000000000000c6c8      0x178 /tmp/UiApp.dll.xW15Dc.ltrans1.ltrans.o
 .text.HiiFreeOpCodeHandle
                0x000000000000c840       0x2c /tmp/UiApp.dll.xW15Dc.ltrans1.ltrans.o
                0x000000000000c840                HiiFreeOpCodeHandle
 .text.UiCustomizeFrontPageBanner
                0x000000000000c86c       0x64 /tmp/UiApp.dll.xW15Dc.ltrans1.ltrans.o
 .text.AllocateZeroPool
                0x000000000000c8d0       0x34 /tmp/UiApp.dll.xW15Dc.ltrans1.ltrans.o
                0x000000000000c8d0                AllocateZeroPool
 .text.HiiGetSupportedLanguages
                0x000000000000c904       0xc0 /tmp/UiApp.dll.xW15Dc.ltrans1.ltrans.o
                0x000000000000c904                HiiGetSupportedLanguages
 .text.AllocatePool
                0x000000000000c9c4        0x4 /tmp/UiApp.dll.xW15Dc.ltrans1.ltrans.o
                0x000000000000c9c4                AllocatePool
 .text.HiiAllocateOpCodeHandle
                0x000000000000c9c8       0x54 /tmp/UiApp.dll.xW15Dc.ltrans1.ltrans.o
                0x000000000000c9c8                HiiAllocateOpCodeHandle
 .text.GetVariable2
                0x000000000000ca1c      0x114 /tmp/UiApp.dll.xW15Dc.ltrans1.ltrans.o
                0x000000000000ca1c                GetVariable2
 .text.GetEfiGlobalVariable2
                0x000000000000cb30       0x14 /tmp/UiApp.dll.xW15Dc.ltrans1.ltrans.o
                0x000000000000cb30                GetEfiGlobalVariable2
 .text.BasePrintLibValueToString
                0x000000000000cb44       0x2c /tmp/UiApp.dll.xW15Dc.ltrans1.ltrans.o
                0x000000000000cb44                BasePrintLibValueToString
 .text.BasePrintLibFillBuffer
                0x000000000000cb70       0x34 /tmp/UiApp.dll.xW15Dc.ltrans1.ltrans.o
                0x000000000000cb70                BasePrintLibFillBuffer
 .text.UnicodeValueToStringS
                0x000000000000cba4      0x1b8 /tmp/UiApp.dll.xW15Dc.ltrans1.ltrans.o
                0x000000000000cba4                UnicodeValueToStringS
 .text.BmGetNvmeDescription
                0x000000000000cd5c      0x1e8 /tmp/UiApp.dll.xW15Dc.ltrans1.ltrans.o
                0x000000000000cd5c                BmGetNvmeDescription
 .text.UnicodeVSPrint
                0x000000000000cf44       0x54 /tmp/UiApp.dll.xW15Dc.ltrans1.ltrans.o
                0x000000000000cf44                UnicodeVSPrint
 .text.UnicodeSPrint
                0x000000000000cf98       0xa4 /tmp/UiApp.dll.xW15Dc.ltrans1.ltrans.o
                0x000000000000cf98                UnicodeSPrint
 .text.BmGetNetworkDescription
                0x000000000000d03c      0x294 /tmp/UiApp.dll.xW15Dc.ltrans1.ltrans.o
                0x000000000000d03c                BmGetNetworkDescription
 .text.AsciiStrnCmp
                0x000000000000d2d0       0x44 /tmp/UiApp.dll.xW15Dc.ltrans1.ltrans.o
                0x000000000000d2d0                AsciiStrnCmp
 .text.AsciiStrLen
                0x000000000000d314       0x1c /tmp/UiApp.dll.xW15Dc.ltrans1.ltrans.o
                0x000000000000d314                AsciiStrLen
 .text.AsciiStrSize
                0x000000000000d330       0x18 /tmp/UiApp.dll.xW15Dc.ltrans1.ltrans.o
 .text.StrStr   0x000000000000d348       0x48 /tmp/UiApp.dll.xW15Dc.ltrans1.ltrans.o
                0x000000000000d348                StrStr
 .text.StrnCmp  0x000000000000d390       0x44 /tmp/UiApp.dll.xW15Dc.ltrans1.ltrans.o
                0x000000000000d390                StrnCmp
 .text.InternalHiiCompareSubString
                0x000000000000d3d4       0x88 /tmp/UiApp.dll.xW15Dc.ltrans1.ltrans.o
                0x000000000000d3d4                InternalHiiCompareSubString
 .text.StrCmp   0x000000000000d45c       0x28 /tmp/UiApp.dll.xW15Dc.ltrans1.ltrans.o
                0x000000000000d45c                StrCmp
 .text.StrLen   0x000000000000d484       0x1c /tmp/UiApp.dll.xW15Dc.ltrans1.ltrans.o
                0x000000000000d484                StrLen
 .text.StrSize  0x000000000000d4a0       0x1c /tmp/UiApp.dll.xW15Dc.ltrans1.ltrans.o
                0x000000000000d4a0                StrSize
 .text.AsciiStrnLenS
                0x000000000000d4bc       0x3c /tmp/UiApp.dll.xW15Dc.ltrans1.ltrans.o
                0x000000000000d4bc                AsciiStrnLenS
 .text.AsciiStrToUnicodeStrS
                0x000000000000d4f8       0xa8 /tmp/UiApp.dll.xW15Dc.ltrans1.ltrans.o
 .text.GetOptionalStringByIndex
                0x000000000000d5a0       0xa8 /tmp/UiApp.dll.xW15Dc.ltrans1.ltrans.o
 .text.StrnLenS
                0x000000000000d648       0x3c /tmp/UiApp.dll.xW15Dc.ltrans1.ltrans.o
                0x000000000000d648                StrnLenS
 .text.InternalSafeStringNoStrOverlap
                0x000000000000d684       0x3c /tmp/UiApp.dll.xW15Dc.ltrans1.ltrans.o
                0x000000000000d684                InternalSafeStringNoStrOverlap
 .text.StrCatS  0x000000000000d6c0       0xc4 /tmp/UiApp.dll.xW15Dc.ltrans1.ltrans.o
                0x000000000000d6c0                StrCatS
 .text.BmGetUsbDescription
                0x000000000000d784      0x1d0 /tmp/UiApp.dll.xW15Dc.ltrans1.ltrans.o
                0x000000000000d784                BmGetUsbDescription
 .text.StrnCpyS
                0x000000000000d954       0xe0 /tmp/UiApp.dll.xW15Dc.ltrans1.ltrans.o
                0x000000000000d954                StrnCpyS
 .text.StrCpyS  0x000000000000da34       0xa0 /tmp/UiApp.dll.xW15Dc.ltrans1.ltrans.o
                0x000000000000da34                StrCpyS
 .text.CopyMem  0x000000000000dad4       0x1c /tmp/UiApp.dll.xW15Dc.ltrans1.ltrans.o
                0x000000000000dad4                CopyMem
 .text.GetBestLanguage
                0x000000000000daf0      0x198 /tmp/UiApp.dll.xW15Dc.ltrans1.ltrans.o
                0x000000000000daf0                GetBestLanguage
 .text.SetDevicePathEndNode
                0x000000000000dc88       0x10 /tmp/UiApp.dll.xW15Dc.ltrans1.ltrans.o
 .text.ReallocatePool
                0x000000000000dc98       0x70 /tmp/UiApp.dll.xW15Dc.ltrans1.ltrans.o
                0x000000000000dc98                ReallocatePool
 .text.InternalHiiGrowOpCodeHandle
                0x000000000000dd08       0x70 /tmp/UiApp.dll.xW15Dc.ltrans1.ltrans.o
                0x000000000000dd08                InternalHiiGrowOpCodeHandle
 .text.InternalHiiCreateOpCodeExtended
                0x000000000000dd78       0x4c /tmp/UiApp.dll.xW15Dc.ltrans1.ltrans.o
                0x000000000000dd78                InternalHiiCreateOpCodeExtended
 .text.InternalHiiCreateOpCode
                0x000000000000ddc4        0xc /tmp/UiApp.dll.xW15Dc.ltrans1.ltrans.o
                0x000000000000ddc4                InternalHiiCreateOpCode
 .text.HiiCreateGotoOpCode
                0x000000000000ddd0       0xa8 /tmp/UiApp.dll.xW15Dc.ltrans1.ltrans.o
                0x000000000000ddd0                HiiCreateGotoOpCode
 .text.HiiCreateOneOfOptionOpCode
                0x000000000000de78       0xb0 /tmp/UiApp.dll.xW15Dc.ltrans1.ltrans.o
                0x000000000000de78                HiiCreateOneOfOptionOpCode
 .text.HiiCreateEndOpCode
                0x000000000000df28       0x54 /tmp/UiApp.dll.xW15Dc.ltrans1.ltrans.o
                0x000000000000df28                HiiCreateEndOpCode
 .text.HiiGetFormSetFromHiiHandle
                0x000000000000df7c      0x1f0 /tmp/UiApp.dll.xW15Dc.ltrans1.ltrans.o
                0x000000000000df7c                HiiGetFormSetFromHiiHandle
 .text.UefiDevicePathLibCatPrint
                0x000000000000e16c      0x158 /tmp/UiApp.dll.xW15Dc.ltrans1.ltrans.o
                0x000000000000e16c                UefiDevicePathLibCatPrint
 .text.DevPathToTextNodeGeneric
                0x000000000000e2c4       0xe8 /tmp/UiApp.dll.xW15Dc.ltrans1.ltrans.o
                0x000000000000e2c4                DevPathToTextNodeGeneric
 .text.DevPathToTextEndInstance
                0x000000000000e3ac        0xc /tmp/UiApp.dll.xW15Dc.ltrans1.ltrans.o
                0x000000000000e3ac                DevPathToTextEndInstance
 .text.DevPathToTextBBS
                0x000000000000e3b8       0xa0 /tmp/UiApp.dll.xW15Dc.ltrans1.ltrans.o
                0x000000000000e3b8                DevPathToTextBBS
 .text.DevPathRelativeOffsetRange
                0x000000000000e458       0x10 /tmp/UiApp.dll.xW15Dc.ltrans1.ltrans.o
                0x000000000000e458                DevPathRelativeOffsetRange
 .text.DevPathToTextFvFile
                0x000000000000e468       0x10 /tmp/UiApp.dll.xW15Dc.ltrans1.ltrans.o
                0x000000000000e468                DevPathToTextFvFile
 .text.DevPathToTextFv
                0x000000000000e478       0x10 /tmp/UiApp.dll.xW15Dc.ltrans1.ltrans.o
                0x000000000000e478                DevPathToTextFv
 .text.DevPathToTextMediaProtocol
                0x000000000000e488       0x10 /tmp/UiApp.dll.xW15Dc.ltrans1.ltrans.o
                0x000000000000e488                DevPathToTextMediaProtocol
 .text.DevPathToTextFilePath
                0x000000000000e498       0x10 /tmp/UiApp.dll.xW15Dc.ltrans1.ltrans.o
                0x000000000000e498                DevPathToTextFilePath
 .text.DevPathToTextCDROM
                0x000000000000e4a8       0x30 /tmp/UiApp.dll.xW15Dc.ltrans1.ltrans.o
                0x000000000000e4a8                DevPathToTextCDROM
 .text.DevPathToTextHardDrive
                0x000000000000e4d8       0x8c /tmp/UiApp.dll.xW15Dc.ltrans1.ltrans.o
                0x000000000000e4d8                DevPathToTextHardDrive
 .text.DevPathToTextUri
                0x000000000000e564       0x6c /tmp/UiApp.dll.xW15Dc.ltrans1.ltrans.o
                0x000000000000e564                DevPathToTextUri
 .text.DevPathToTextBluetoothLE
                0x000000000000e5d0       0x44 /tmp/UiApp.dll.xW15Dc.ltrans1.ltrans.o
                0x000000000000e5d0                DevPathToTextBluetoothLE
 .text.DevPathToTextWiFi
                0x000000000000e614       0x70 /tmp/UiApp.dll.xW15Dc.ltrans1.ltrans.o
                0x000000000000e614                DevPathToTextWiFi
 .text.DevPathToTextBluetooth
                0x000000000000e684       0x24 /tmp/UiApp.dll.xW15Dc.ltrans1.ltrans.o
                0x000000000000e684                DevPathToTextBluetooth
 .text.DevPathToTextVlan
                0x000000000000e6a8       0x10 /tmp/UiApp.dll.xW15Dc.ltrans1.ltrans.o
                0x000000000000e6a8                DevPathToTextVlan
 .text.DevPathToTextiSCSI
                0x000000000000e6b8      0x10c /tmp/UiApp.dll.xW15Dc.ltrans1.ltrans.o
                0x000000000000e6b8                DevPathToTextiSCSI
 .text.DevPathToTextUart
                0x000000000000e7c4      0x118 /tmp/UiApp.dll.xW15Dc.ltrans1.ltrans.o
                0x000000000000e7c4                DevPathToTextUart
 .text.DevPathToTextInfiniBand
                0x000000000000e8dc       0x1c /tmp/UiApp.dll.xW15Dc.ltrans1.ltrans.o
                0x000000000000e8dc                DevPathToTextInfiniBand
 .text.CatIPv6Address
                0x000000000000e8f8       0x8c /tmp/UiApp.dll.xW15Dc.ltrans1.ltrans.o
 .text.CatIPv4Address
                0x000000000000e984       0x1c /tmp/UiApp.dll.xW15Dc.ltrans1.ltrans.o
 .text.DevPathToTextDns
                0x000000000000e9a0       0xc4 /tmp/UiApp.dll.xW15Dc.ltrans1.ltrans.o
                0x000000000000e9a0                DevPathToTextDns
 .text.CatNetworkProtocol
                0x000000000000ea64       0x38 /tmp/UiApp.dll.xW15Dc.ltrans1.ltrans.o
 .text.DevPathToTextIPv6
                0x000000000000ea9c       0xec /tmp/UiApp.dll.xW15Dc.ltrans1.ltrans.o
                0x000000000000ea9c                DevPathToTextIPv6
 .text.DevPathToTextIPv4
                0x000000000000eb88       0xf4 /tmp/UiApp.dll.xW15Dc.ltrans1.ltrans.o
                0x000000000000eb88                DevPathToTextIPv4
 .text.DevPathToTextMacAddr
                0x000000000000ec7c       0x8c /tmp/UiApp.dll.xW15Dc.ltrans1.ltrans.o
                0x000000000000ec7c                DevPathToTextMacAddr
 .text.DevPathToTextI2O
                0x000000000000ed08       0x10 /tmp/UiApp.dll.xW15Dc.ltrans1.ltrans.o
                0x000000000000ed08                DevPathToTextI2O
 .text.DevPathToTextSata
                0x000000000000ed18       0x18 /tmp/UiApp.dll.xW15Dc.ltrans1.ltrans.o
                0x000000000000ed18                DevPathToTextSata
 .text.DevPathToTextUsbClass
                0x000000000000ed30      0x194 /tmp/UiApp.dll.xW15Dc.ltrans1.ltrans.o
                0x000000000000ed30                DevPathToTextUsbClass
 .text.DevPathToTextLogicalUnit
                0x000000000000eec4       0x10 /tmp/UiApp.dll.xW15Dc.ltrans1.ltrans.o
                0x000000000000eec4                DevPathToTextLogicalUnit
 .text.DevPathToTextUsb
                0x000000000000eed4       0x14 /tmp/UiApp.dll.xW15Dc.ltrans1.ltrans.o
                0x000000000000eed4                DevPathToTextUsb
 .text.DevPathToText1394
                0x000000000000eee8       0x10 /tmp/UiApp.dll.xW15Dc.ltrans1.ltrans.o
                0x000000000000eee8                DevPathToText1394
 .text.DevPathToTextEmmc
                0x000000000000eef8       0x10 /tmp/UiApp.dll.xW15Dc.ltrans1.ltrans.o
                0x000000000000eef8                DevPathToTextEmmc
 .text.DevPathToTextSd
                0x000000000000ef08       0x10 /tmp/UiApp.dll.xW15Dc.ltrans1.ltrans.o
                0x000000000000ef08                DevPathToTextSd
 .text.DevPathToTextUfs
                0x000000000000ef18       0x14 /tmp/UiApp.dll.xW15Dc.ltrans1.ltrans.o
                0x000000000000ef18                DevPathToTextUfs
 .text.DevPathToTextNVMe
                0x000000000000ef2c       0x54 /tmp/UiApp.dll.xW15Dc.ltrans1.ltrans.o
                0x000000000000ef2c                DevPathToTextNVMe
 .text.DevPathToTextSasEx
                0x000000000000ef80      0x18c /tmp/UiApp.dll.xW15Dc.ltrans1.ltrans.o
                0x000000000000ef80                DevPathToTextSasEx
 .text.DevPathToTextFibreEx
                0x000000000000f10c       0xa8 /tmp/UiApp.dll.xW15Dc.ltrans1.ltrans.o
                0x000000000000f10c                DevPathToTextFibreEx
 .text.DevPathToTextFibre
                0x000000000000f1b4       0x10 /tmp/UiApp.dll.xW15Dc.ltrans1.ltrans.o
                0x000000000000f1b4                DevPathToTextFibre
 .text.DevPathToTextScsi
                0x000000000000f1c4       0x14 /tmp/UiApp.dll.xW15Dc.ltrans1.ltrans.o
                0x000000000000f1c4                DevPathToTextScsi
 .text.DevPathToTextAtapi
                0x000000000000f1d8       0x60 /tmp/UiApp.dll.xW15Dc.ltrans1.ltrans.o
                0x000000000000f1d8                DevPathToTextAtapi
 .text.DevPathToTextAcpiAdr
                0x000000000000f238       0x9c /tmp/UiApp.dll.xW15Dc.ltrans1.ltrans.o
                0x000000000000f238                DevPathToTextAcpiAdr
 .text.DevPathToTextAcpiEx
                0x000000000000f2d4      0x288 /tmp/UiApp.dll.xW15Dc.ltrans1.ltrans.o
                0x000000000000f2d4                DevPathToTextAcpiEx
 .text.DevPathToTextAcpi
                0x000000000000f55c       0xc0 /tmp/UiApp.dll.xW15Dc.ltrans1.ltrans.o
                0x000000000000f55c                DevPathToTextAcpi
 .text.DevPathToTextBmc
                0x000000000000f61c       0x3c /tmp/UiApp.dll.xW15Dc.ltrans1.ltrans.o
                0x000000000000f61c                DevPathToTextBmc
 .text.DevPathToTextController
                0x000000000000f658       0x10 /tmp/UiApp.dll.xW15Dc.ltrans1.ltrans.o
                0x000000000000f658                DevPathToTextController
 .text.DevPathToTextMemMap
                0x000000000000f668       0x14 /tmp/UiApp.dll.xW15Dc.ltrans1.ltrans.o
                0x000000000000f668                DevPathToTextMemMap
 .text.DevPathToTextPccard
                0x000000000000f67c       0x10 /tmp/UiApp.dll.xW15Dc.ltrans1.ltrans.o
                0x000000000000f67c                DevPathToTextPccard
 .text.DevPathToTextPci
                0x000000000000f68c       0x14 /tmp/UiApp.dll.xW15Dc.ltrans1.ltrans.o
                0x000000000000f68c                DevPathToTextPci
 .text.AllocateCopyPool
                0x000000000000f6a0       0x3c /tmp/UiApp.dll.xW15Dc.ltrans1.ltrans.o
                0x000000000000f6a0                AllocateCopyPool
 .text.BmGetMiscDescription
                0x000000000000f6dc      0x1e4 /tmp/UiApp.dll.xW15Dc.ltrans1.ltrans.o
                0x000000000000f6dc                BmGetMiscDescription
 .text.BmGetLoadFileDescription
                0x000000000000f8c0       0xe8 /tmp/UiApp.dll.xW15Dc.ltrans1.ltrans.o
                0x000000000000f8c0                BmGetLoadFileDescription
 .text.DevPathToTextUsbWWID
                0x000000000000f9a8       0x90 /tmp/UiApp.dll.xW15Dc.ltrans1.ltrans.o
                0x000000000000f9a8                DevPathToTextUsbWWID
 .text.UefiDevicePathLibDuplicateDevicePath
                0x000000000000fa38       0x34 /tmp/UiApp.dll.xW15Dc.ltrans1.ltrans.o
                0x000000000000fa38                UefiDevicePathLibDuplicateDevicePath
 .text.BmGetRamDiskDevicePath
                0x000000000000fa6c       0xc4 /tmp/UiApp.dll.xW15Dc.ltrans1.ltrans.o
 .text.UefiDevicePathLibGetNextDevicePathInstance
                0x000000000000fb30       0xc0 /tmp/UiApp.dll.xW15Dc.ltrans1.ltrans.o
                0x000000000000fb30                UefiDevicePathLibGetNextDevicePathInstance
 .text.EfiBootManagerConnectConsoleVariable.part.0
                0x000000000000fbf0      0x27c /tmp/UiApp.dll.xW15Dc.ltrans1.ltrans.o
 .text.UefiDevicePathLibAppendDevicePathInstance
                0x000000000000fe6c       0xec /tmp/UiApp.dll.xW15Dc.ltrans1.ltrans.o
                0x000000000000fe6c                UefiDevicePathLibAppendDevicePathInstance
 .text.UefiDevicePathLibAppendDevicePath
                0x000000000000ff58       0xcc /tmp/UiApp.dll.xW15Dc.ltrans1.ltrans.o
 .text.FileDevicePath
                0x0000000000010024       0xa0 /tmp/UiApp.dll.xW15Dc.ltrans1.ltrans.o
                0x0000000000010024                FileDevicePath
 .text.BmExpandMediaDevicePath
                0x00000000000100c4      0x224 /tmp/UiApp.dll.xW15Dc.ltrans1.ltrans.o
 .text.UefiDevicePathLibAppendDevicePathNode
                0x00000000000102e8       0x9c /tmp/UiApp.dll.xW15Dc.ltrans1.ltrans.o
                0x00000000000102e8                UefiDevicePathLibAppendDevicePathNode
 .text.BmAdjustFvFilePath
                0x0000000000010384      0x194 /tmp/UiApp.dll.xW15Dc.ltrans1.ltrans.o
 .text.GetNextLanguage
                0x0000000000010518       0x80 /tmp/UiApp.dll.xW15Dc.ltrans1.ltrans.o
 .text.FrontPageCallback
                0x0000000000010598      0x1ac /tmp/UiApp.dll.xW15Dc.ltrans1.ltrans.o
 .text.CompareGuid
                0x0000000000010744        0x4 /tmp/UiApp.dll.xW15Dc.ltrans1.ltrans.o
                0x0000000000010744                CompareGuid
 .text.BmGetDescriptionFromDiskInfo
                0x0000000000010748      0x260 /tmp/UiApp.dll.xW15Dc.ltrans1.ltrans.o
                0x0000000000010748                BmGetDescriptionFromDiskInfo
 .text.BmIsBootManagerMenuFilePath
                0x00000000000109a8       0xa4 /tmp/UiApp.dll.xW15Dc.ltrans1.ltrans.o
 .text.EfiBootManagerRefreshAllBootOption
                0x0000000000010a4c      0x5b4 /tmp/UiApp.dll.xW15Dc.ltrans1.ltrans.o
                0x0000000000010a4c                EfiBootManagerRefreshAllBootOption
 .text.BmUpdateSystemTableConsole
                0x0000000000011000      0x188 /tmp/UiApp.dll.xW15Dc.ltrans1.ltrans.o
 .text.EfiBootManagerConnectAllDefaultConsoles
                0x0000000000011188      0x150 /tmp/UiApp.dll.xW15Dc.ltrans1.ltrans.o
 .text.EfiBootManagerConnectAll
                0x00000000000112d8       0xcc /tmp/UiApp.dll.xW15Dc.ltrans1.ltrans.o
 .text.HiiUpdateForm
                0x00000000000113a4      0x4c0 /tmp/UiApp.dll.xW15Dc.ltrans1.ltrans.o
                0x00000000000113a4                HiiUpdateForm
 .text.EfiGetSystemConfigurationTable
                0x0000000000011864       0x94 /tmp/UiApp.dll.xW15Dc.ltrans1.ltrans.o
 .text.GetHobList
                0x00000000000118f8       0x3c /tmp/UiApp.dll.xW15Dc.ltrans1.ltrans.o
 .text.DevPathToTextRamDisk
                0x0000000000011934      0x1a8 /tmp/UiApp.dll.xW15Dc.ltrans1.ltrans.o
                0x0000000000011934                DevPathToTextRamDisk
 .text.DevPathToTextVendor
                0x0000000000011adc      0x350 /tmp/UiApp.dll.xW15Dc.ltrans1.ltrans.o
                0x0000000000011adc                DevPathToTextVendor
 .text.CopyGuid
                0x0000000000011e2c        0x8 /tmp/UiApp.dll.xW15Dc.ltrans1.ltrans.o
                0x0000000000011e2c                CopyGuid
 .text.HiiAddPackages
                0x0000000000011e34      0x1c8 /tmp/UiApp.dll.xW15Dc.ltrans1.ltrans.o
 .text.LibPcdSet32S
                0x0000000000011ffc       0x34 /tmp/UiApp.dll.xW15Dc.ltrans1.ltrans.o
                0x0000000000011ffc                LibPcdSet32S
 .text.UiSetConsoleMode
                0x0000000000012030      0x370 /tmp/UiApp.dll.xW15Dc.ltrans1.ltrans.o
 .text.LibPcdGet32
                0x00000000000123a0       0x2c /tmp/UiApp.dll.xW15Dc.ltrans1.ltrans.o
                0x00000000000123a0                LibPcdGet32
 .text.memcpy   0x00000000000123cc       0x20 /tmp/UiApp.dll.xW15Dc.ltrans1.ltrans.o
                0x00000000000123cc                memcpy
 .text.__stack_chk_fail
                0x00000000000123ec       0x18 /tmp/UiApp.dll.xW15Dc.ltrans1.ltrans.o
                0x00000000000123ec                __stack_chk_fail
 .text.BmExpandLoadFile
                0x0000000000012404      0x298 /tmp/UiApp.dll.xW15Dc.ltrans1.ltrans.o
 .text.BmReportLoadFailure
                0x000000000001269c       0x5c /tmp/UiApp.dll.xW15Dc.ltrans1.ltrans.o
 .text.BmCachePartitionDevicePath
                0x00000000000126f8       0xcc /tmp/UiApp.dll.xW15Dc.ltrans1.ltrans.o
 .text.BmGetNextLoadOptionDevicePath
                0x00000000000127c4      0xbd4 /tmp/UiApp.dll.xW15Dc.ltrans1.ltrans.o
 .text.EfiBootManagerBoot
                0x0000000000013398      0xd54 /tmp/UiApp.dll.xW15Dc.ltrans1.ltrans.o
                0x0000000000013398                EfiBootManagerBoot
 .text._ModuleEntryPoint
                0x00000000000140ec     0x200c /tmp/UiApp.dll.xW15Dc.ltrans1.ltrans.o
                0x00000000000140ec                _ModuleEntryPoint
 *fill*         0x00000000000160f8        0x8 
 .text          0x0000000000016100      0x218 /home/alastair/pftf-rpi4/Build/RPi4/RELEASE_GCC5/AARCH64/MdePkg/Library/BaseMemoryLibOptDxe/BaseMemoryLibOptDxe/OUTPUT/BaseMemoryLibOptDxe.lib(CopyMem.obj)
                0x000000000001626c                InternalMemCopyMem
 *fill*         0x0000000000016318        0x8 
 .text          0x0000000000016320       0x20 /home/alastair/pftf-rpi4/Build/RPi4/RELEASE_GCC5/AARCH64/MdePkg/Library/BaseMemoryLibOptDxe/BaseMemoryLibOptDxe/OUTPUT/BaseMemoryLibOptDxe.lib(CompareGuid.obj)
                0x0000000000016320                InternalMemCompareGuid
 .text          0x0000000000016340      0x200 /home/alastair/pftf-rpi4/Build/RPi4/RELEASE_GCC5/AARCH64/MdePkg/Library/BaseMemoryLibOptDxe/BaseMemoryLibOptDxe/OUTPUT/BaseMemoryLibOptDxe.lib(SetMem.obj)
                0x0000000000016340                InternalMemSetMem16
                0x000000000001634c                InternalMemSetMem32
                0x0000000000016358                InternalMemSetMem64
                0x0000000000016364                InternalMemZeroMem
                0x000000000001636c                InternalMemSetMem
 .text          0x0000000000016540       0xe0 /home/alastair/pftf-rpi4/Build/RPi4/RELEASE_GCC5/AARCH64/MdePkg/Library/BaseMemoryLibOptDxe/BaseMemoryLibOptDxe/OUTPUT/BaseMemoryLibOptDxe.lib(CompareMem.obj)
                0x0000000000016540                InternalMemCompareMem
 *(.rodata .rodata.* .gnu.linkonce.r.*)
 .rodata.BOpt_DestroyMenuEntry
                0x0000000000016620        0x6 /tmp/UiApp.dll.xW15Dc.ltrans0.ltrans.o
 .rodata.BOpt_GetOptionNumber.str2.2
                0x0000000000016626       0x1e /tmp/UiApp.dll.xW15Dc.ltrans0.ltrans.o
 .rodata.StrnCatS.constprop.0.str2.2
                0x0000000000016644        0x8 /tmp/UiApp.dll.xW15Dc.ltrans0.ltrans.o
 .rodata.HiiConstructConfigHdr.constprop.0.str2.2
                0x000000000001664c       0x28 /tmp/UiApp.dll.xW15Dc.ltrans0.ltrans.o
 .rodata.LibAppendFileName.str2.2
                0x0000000000016674        0x4 /tmp/UiApp.dll.xW15Dc.ltrans0.ltrans.o
 .rodata.BmRepairNotify.str2.2
                0x0000000000016678       0x34 /tmp/UiApp.dll.xW15Dc.ltrans0.ltrans.o
 .rodata.BootMaintExtractConfig.str2.2
                0x00000000000166ac       0x40 /tmp/UiApp.dll.xW15Dc.ltrans0.ltrans.o
 .rodata.CreatePopUp.constprop.0.str2.2
                0x00000000000166ec        0x8 /tmp/UiApp.dll.xW15Dc.ltrans0.ltrans.o
 .rodata.HiiSetString.constprop.0.str1.1
                0x00000000000166f4        0x7 /tmp/UiApp.dll.xW15Dc.ltrans0.ltrans.o
 .rodata.HiiGetString.constprop.0.str1.1
                0x00000000000166fb        0x7 /tmp/UiApp.dll.xW15Dc.ltrans0.ltrans.o
                                          0x1 (size before relaxing)
 *fill*         0x00000000000166fb        0x1 
 .rodata.HiiGetString.constprop.0.str2.2
                0x00000000000166fc       0x1a /tmp/UiApp.dll.xW15Dc.ltrans0.ltrans.o
 .rodata.IsMacAddressDevicePath.str2.2
                0x0000000000016716        0xa /tmp/UiApp.dll.xW15Dc.ltrans0.ltrans.o
 .rodata.EndPerformanceMeasurementEx.constprop.0.str1.1
                0x0000000000016720        0xb /tmp/UiApp.dll.xW15Dc.ltrans0.ltrans.o
 .rodata.BasePrintLibSPrintMarker.constprop.0.str1.1
                0x000000000001672b       0x7b /tmp/UiApp.dll.xW15Dc.ltrans0.ltrans.o
 *fill*         0x00000000000167a6        0x2 
 .rodata.BasePrintLibSPrintMarker.constprop.0
                0x00000000000167a8       0x5e /tmp/UiApp.dll.xW15Dc.ltrans0.ltrans.o
 .rodata.BootDescriptionHandler.lto_priv.0.str2.2
                0x0000000000016806       0x62 /tmp/UiApp.dll.xW15Dc.ltrans0.ltrans.o
 .rodata.UefiDevicePathLibConvertDevicePathToText.constprop.0.str2.2
                0x0000000000016868        0x4 /tmp/UiApp.dll.xW15Dc.ltrans0.ltrans.o
 .rodata.BmGetControllerName.str2.2
                0x000000000001686c        0x4 /tmp/UiApp.dll.xW15Dc.ltrans0.ltrans.o
                                          0xa (size before relaxing)
 .rodata.BmGetControllerName.str1.1
                0x000000000001686c        0xa /tmp/UiApp.dll.xW15Dc.ltrans0.ltrans.o
 .rodata.BmDisplayMessages.str2.2
                0x0000000000016876       0x2c /tmp/UiApp.dll.xW15Dc.ltrans0.ltrans.o
 .rodata.LibCallback.str2.2
                0x00000000000168a2        0xa /tmp/UiApp.dll.xW15Dc.ltrans0.ltrans.o
 .rodata.UpdatePageBody
                0x00000000000168ac        0x8 /tmp/UiApp.dll.xW15Dc.ltrans0.ltrans.o
 .rodata.UpdateConsoleContent.str2.2
                0x00000000000168b4       0x28 /tmp/UiApp.dll.xW15Dc.ltrans0.ltrans.o
 .rodata.BOpt_CreateMenuEntry
                0x00000000000168dc        0x6 /tmp/UiApp.dll.xW15Dc.ltrans0.ltrans.o
 .rodata.GetConsoleMenu.str2.2
                0x00000000000168e2       0x3a /tmp/UiApp.dll.xW15Dc.ltrans0.ltrans.o
 .rodata.BOpt_GetDriverOptions.str2.2
                0x000000000001691c       0x2e /tmp/UiApp.dll.xW15Dc.ltrans0.ltrans.o
 .rodata.ChooseFile.constprop.0.str2.2
                0x000000000001694a       0x64 /tmp/UiApp.dll.xW15Dc.ltrans0.ltrans.o
 .rodata.CreateDeviceManagerForm.str2.2
                0x00000000000169ae        0xc /tmp/UiApp.dll.xW15Dc.ltrans0.ltrans.o
 .rodata.BootFromFile.str2.2
                0x00000000000169ba       0x86 /tmp/UiApp.dll.xW15Dc.ltrans0.ltrans.o
 .rodata.EfiBootManagerGetLoadOptions.part.0.constprop.0.str2.2
                0x0000000000016a40       0x1e /tmp/UiApp.dll.xW15Dc.ltrans0.ltrans.o
 .rodata.BOpt_GetBootOptions.str2.2
                0x0000000000016a5e       0x24 /tmp/UiApp.dll.xW15Dc.ltrans0.ltrans.o
 .rodata.BootMaintCallback.str2.2
                0x0000000000016a82        0xc /tmp/UiApp.dll.xW15Dc.ltrans0.ltrans.o
 *fill*         0x0000000000016a8e        0x2 
 .rodata.BootMaintCallback
                0x0000000000016a90       0x50 /tmp/UiApp.dll.xW15Dc.ltrans0.ltrans.o
 .rodata.BootManagerCallback.str2.2
                0x0000000000016ae0       0x1e /tmp/UiApp.dll.xW15Dc.ltrans0.ltrans.o
 .rodata.BootMaintRouteConfig.str2.2
                0x0000000000016afe       0x4a /tmp/UiApp.dll.xW15Dc.ltrans0.ltrans.o
 .rodata.str2.2
                0x0000000000016b48      0x14c /tmp/UiApp.dll.xW15Dc.ltrans0.ltrans.o
 *fill*         0x0000000000016c94        0x4 
 .rodata.BaudRateList
                0x0000000000016c98      0x130 /tmp/UiApp.dll.xW15Dc.ltrans0.ltrans.o
                0x0000000000016c98                BaudRateList
 .rodata.DataBitsList
                0x0000000000016dc8       0x40 /tmp/UiApp.dll.xW15Dc.ltrans0.ltrans.o
                0x0000000000016dc8                DataBitsList
 .rodata.ParityList
                0x0000000000016e08       0x50 /tmp/UiApp.dll.xW15Dc.ltrans0.ltrans.o
                0x0000000000016e08                ParityList
 .rodata.StopBitsList
                0x0000000000016e58       0x30 /tmp/UiApp.dll.xW15Dc.ltrans0.ltrans.o
                0x0000000000016e58                StopBitsList
 .rodata.TerminalType
                0x0000000000016e88       0x12 /tmp/UiApp.dll.xW15Dc.ltrans0.ltrans.o
 .rodata._gPcd_FixedAtBuild_PcdDriverHealthConfigureForm
                0x0000000000016e9a       0x10 /tmp/UiApp.dll.xW15Dc.ltrans0.ltrans.o
                0x0000000000016e9a                _gPcd_FixedAtBuild_PcdDriverHealthConfigureForm
 *fill*         0x0000000000016eaa        0x6 
 .rodata.mBmBootDescriptionHandlers
                0x0000000000016eb0       0x30 /tmp/UiApp.dll.xW15Dc.ltrans0.ltrans.o
 .rodata.mBmLoadOptionName
                0x0000000000016ee0       0x20 /tmp/UiApp.dll.xW15Dc.ltrans0.ltrans.o
                0x0000000000016ee0                mBmLoadOptionName
 .rodata.mBmLoadOptionOrderName
                0x0000000000016f00       0x20 /tmp/UiApp.dll.xW15Dc.ltrans0.ltrans.o
 .rodata.mConfigHdrTemplate
                0x0000000000016f20       0x70 /tmp/UiApp.dll.xW15Dc.ltrans0.ltrans.o
 .rodata.mDeviceTypeStr
                0x0000000000016f90       0x40 /tmp/UiApp.dll.xW15Dc.ltrans0.ltrans.o
 .rodata.mErrorString
                0x0000000000016fd0      0x2b5 /tmp/UiApp.dll.xW15Dc.ltrans0.ltrans.o
 *fill*         0x0000000000017285        0x3 
 .rodata.mUefiDevicePathLibToTextTable
                0x0000000000017288      0x320 /tmp/UiApp.dll.xW15Dc.ltrans0.ltrans.o
 .rodata.mWarningString
                0x00000000000175a8       0x96 /tmp/UiApp.dll.xW15Dc.ltrans0.ltrans.o
 .rodata.BmEndOfBdsPerfCode.str1.1
                0x000000000001763e        0x4 /tmp/UiApp.dll.xW15Dc.ltrans1.ltrans.o
 .rodata.BmGetNetworkDescription.str2.2
                0x0000000000017642       0xb4 /tmp/UiApp.dll.xW15Dc.ltrans1.ltrans.o
 .rodata.BmGetUsbDescription.str2.2
                0x00000000000176f6       0xb4 /tmp/UiApp.dll.xW15Dc.ltrans1.ltrans.o
                                          0x4 (size before relaxing)
 .rodata.DevPathToTextNodeGeneric.str2.2
                0x00000000000176f6       0x22 /tmp/UiApp.dll.xW15Dc.ltrans1.ltrans.o
                                         0x34 (size before relaxing)
 .rodata.DevPathToTextBBS.str2.2
                0x0000000000017718       0x2c /tmp/UiApp.dll.xW15Dc.ltrans1.ltrans.o
                                         0x3a (size before relaxing)
 .rodata.DevPathRelativeOffsetRange.str2.2
                0x0000000000017744       0x28 /tmp/UiApp.dll.xW15Dc.ltrans1.ltrans.o
 .rodata.DevPathToTextFvFile.str2.2
                0x000000000001776c       0x16 /tmp/UiApp.dll.xW15Dc.ltrans1.ltrans.o
 .rodata.DevPathToTextFv.str2.2
                0x0000000000017782        0xe /tmp/UiApp.dll.xW15Dc.ltrans1.ltrans.o
 .rodata.DevPathToTextMediaProtocol.str2.2
                0x0000000000017790       0x14 /tmp/UiApp.dll.xW15Dc.ltrans1.ltrans.o
 .rodata.DevPathToTextFilePath.str2.2
                0x00000000000177a4       0x14 /tmp/UiApp.dll.xW15Dc.ltrans1.ltrans.o
                                          0x6 (size before relaxing)
 .rodata.DevPathToTextCDROM.str2.2
                0x00000000000177a4       0x48 /tmp/UiApp.dll.xW15Dc.ltrans1.ltrans.o
 .rodata.DevPathToTextHardDrive.str2.2
                0x00000000000177ec       0x64 /tmp/UiApp.dll.xW15Dc.ltrans1.ltrans.o
                                         0x7e (size before relaxing)
 .rodata.DevPathToTextUri.str2.2
                0x0000000000017850       0x10 /tmp/UiApp.dll.xW15Dc.ltrans1.ltrans.o
 .rodata.DevPathToTextBluetoothLE.str2.2
                0x0000000000017860       0x5a /tmp/UiApp.dll.xW15Dc.ltrans1.ltrans.o
 .rodata.DevPathToTextWiFi.str2.2
                0x00000000000178ba       0x14 /tmp/UiApp.dll.xW15Dc.ltrans1.ltrans.o
 .rodata.DevPathToTextBluetooth.str2.2
                0x00000000000178ce       0x48 /tmp/UiApp.dll.xW15Dc.ltrans1.ltrans.o
 .rodata.DevPathToTextVlan.str2.2
                0x0000000000017916       0x12 /tmp/UiApp.dll.xW15Dc.ltrans1.ltrans.o
 .rodata.DevPathToTextiSCSI.str2.2
                0x0000000000017928       0x76 /tmp/UiApp.dll.xW15Dc.ltrans1.ltrans.o
                                         0x90 (size before relaxing)
 .rodata.DevPathToTextUart.str2.2
                0x000000000001799e       0x5c /tmp/UiApp.dll.xW15Dc.ltrans1.ltrans.o
                                         0x74 (size before relaxing)
 *fill*         0x00000000000179fa        0x2 
 .rodata.DevPathToTextUart
                0x00000000000179fc        0x4 /tmp/UiApp.dll.xW15Dc.ltrans1.ltrans.o
 .rodata.DevPathToTextInfiniBand.str2.2
                0x0000000000017a00       0x4c /tmp/UiApp.dll.xW15Dc.ltrans1.ltrans.o
 .rodata.CatIPv6Address.str2.2
                0x0000000000017a4c       0x90 /tmp/UiApp.dll.xW15Dc.ltrans1.ltrans.o
 .rodata.CatIPv4Address.str2.2
                0x0000000000017adc       0x18 /tmp/UiApp.dll.xW15Dc.ltrans1.ltrans.o
 .rodata.DevPathToTextDns.str2.2
                0x0000000000017af4        0xa /tmp/UiApp.dll.xW15Dc.ltrans1.ltrans.o
 .rodata.CatNetworkProtocol.str2.2
                0x0000000000017afe        0x8 /tmp/UiApp.dll.xW15Dc.ltrans1.ltrans.o
                                         0x12 (size before relaxing)
 .rodata.DevPathToTextIPv6.str2.2
                0x0000000000017b06       0x80 /tmp/UiApp.dll.xW15Dc.ltrans1.ltrans.o
                                         0x8e (size before relaxing)
 .rodata.DevPathToTextIPv4.str2.2
                0x0000000000017b86       0x24 /tmp/UiApp.dll.xW15Dc.ltrans1.ltrans.o
 .rodata.DevPathToTextMacAddr.str2.2
                0x0000000000017baa        0xa /tmp/UiApp.dll.xW15Dc.ltrans1.ltrans.o
 .rodata.DevPathToTextI2O.str2.2
                0x0000000000017bb4       0x14 /tmp/UiApp.dll.xW15Dc.ltrans1.ltrans.o
 .rodata.DevPathToTextSata.str2.2
                0x0000000000017bc8       0x2a /tmp/UiApp.dll.xW15Dc.ltrans1.ltrans.o
 .rodata.DevPathToTextUsbClass.str2.2
                0x0000000000017bf2      0x250 /tmp/UiApp.dll.xW15Dc.ltrans1.ltrans.o
 *fill*         0x0000000000017e42        0x2 
 .rodata.DevPathToTextUsbClass
                0x0000000000017e44        0xe /tmp/UiApp.dll.xW15Dc.ltrans1.ltrans.o
 .rodata.DevPathToTextLogicalUnit.str2.2
                0x0000000000017e52       0x16 /tmp/UiApp.dll.xW15Dc.ltrans1.ltrans.o
 .rodata.DevPathToTextUsb.str2.2
                0x0000000000017e68       0x1e /tmp/UiApp.dll.xW15Dc.ltrans1.ltrans.o
 .rodata.DevPathToText1394.str2.2
                0x0000000000017e86       0x1c /tmp/UiApp.dll.xW15Dc.ltrans1.ltrans.o
 .rodata.DevPathToTextEmmc.str2.2
                0x0000000000017ea2       0x16 /tmp/UiApp.dll.xW15Dc.ltrans1.ltrans.o
 .rodata.DevPathToTextSd.str2.2
                0x0000000000017eb8       0x12 /tmp/UiApp.dll.xW15Dc.ltrans1.ltrans.o
 .rodata.DevPathToTextUfs.str2.2
                0x0000000000017eca       0x1e /tmp/UiApp.dll.xW15Dc.ltrans1.ltrans.o
 .rodata.DevPathToTextNVMe.str2.2
                0x0000000000017ee8       0x66 /tmp/UiApp.dll.xW15Dc.ltrans1.ltrans.o
 .rodata.DevPathToTextSasEx.str2.2
                0x0000000000017f4e       0xb4 /tmp/UiApp.dll.xW15Dc.ltrans1.ltrans.o
                                         0xc0 (size before relaxing)
 .rodata.DevPathToTextFibreEx.str2.2
                0x0000000000018002       0x16 /tmp/UiApp.dll.xW15Dc.ltrans1.ltrans.o
 .rodata.DevPathToTextFibre.str2.2
                0x0000000000018018       0x26 /tmp/UiApp.dll.xW15Dc.ltrans1.ltrans.o
 .rodata.DevPathToTextScsi.str2.2
                0x000000000001803e       0x20 /tmp/UiApp.dll.xW15Dc.ltrans1.ltrans.o
 .rodata.DevPathToTextAtapi.str2.2
                0x000000000001805e       0x72 /tmp/UiApp.dll.xW15Dc.ltrans1.ltrans.o
 .rodata.DevPathToTextAcpiAdr.str2.2
                0x00000000000180d0       0x26 /tmp/UiApp.dll.xW15Dc.ltrans1.ltrans.o
 .rodata.DevPathToTextAcpiEx.str2.2
                0x00000000000180f6      0x12c /tmp/UiApp.dll.xW15Dc.ltrans1.ltrans.o
                                        0x148 (size before relaxing)
 .rodata.DevPathToTextAcpi.str2.2
                0x0000000000018222       0xc2 /tmp/UiApp.dll.xW15Dc.ltrans1.ltrans.o
 .rodata.DevPathToTextBmc.str2.2
                0x00000000000182e4       0x20 /tmp/UiApp.dll.xW15Dc.ltrans1.ltrans.o
 .rodata.DevPathToTextController.str2.2
                0x0000000000018304       0x16 /tmp/UiApp.dll.xW15Dc.ltrans1.ltrans.o
 .rodata.DevPathToTextMemMap.str2.2
                0x000000000001831a       0x3e /tmp/UiApp.dll.xW15Dc.ltrans1.ltrans.o
 .rodata.DevPathToTextPccard.str2.2
                0x0000000000018358       0x1a /tmp/UiApp.dll.xW15Dc.ltrans1.ltrans.o
 .rodata.DevPathToTextPci.str2.2
                0x0000000000018372       0x1e /tmp/UiApp.dll.xW15Dc.ltrans1.ltrans.o
 .rodata.BmGetMiscDescription.str2.2
                0x0000000000018390       0xa4 /tmp/UiApp.dll.xW15Dc.ltrans1.ltrans.o
                                         0xc8 (size before relaxing)
 .rodata.DevPathToTextUsbWWID.str2.2
                0x0000000000018434       0x3a /tmp/UiApp.dll.xW15Dc.ltrans1.ltrans.o
 .rodata.BmExpandMediaDevicePath.str2.2
                0x000000000001846e       0x2e /tmp/UiApp.dll.xW15Dc.ltrans1.ltrans.o
 .rodata.FrontPageCallback.str2.2
                0x000000000001849c       0x1a /tmp/UiApp.dll.xW15Dc.ltrans1.ltrans.o
 .rodata.BmGetDescriptionFromDiskInfo.str2.2
                0x000000000001849c       0x2c /tmp/UiApp.dll.xW15Dc.ltrans1.ltrans.o
 .rodata.EfiBootManagerRefreshAllBootOption.str2.2
                0x00000000000184c8        0xc /tmp/UiApp.dll.xW15Dc.ltrans1.ltrans.o
 .rodata.EfiBootManagerConnectAllDefaultConsoles.str1.1
                0x00000000000184d4       0x23 /tmp/UiApp.dll.xW15Dc.ltrans1.ltrans.o
 .rodata.EfiBootManagerConnectAllDefaultConsoles.str2.2
                0x00000000000184f7       0x28 /tmp/UiApp.dll.xW15Dc.ltrans1.ltrans.o
 *fill*         0x00000000000184f7        0x1 
 .rodata.DevPathToTextRamDisk.str2.2
                0x00000000000184f8       0xca /tmp/UiApp.dll.xW15Dc.ltrans1.ltrans.o
                                        0x136 (size before relaxing)
 .rodata.DevPathToTextVendor.str2.2
                0x00000000000185c2      0x154 /tmp/UiApp.dll.xW15Dc.ltrans1.ltrans.o
                                        0x166 (size before relaxing)
 .rodata.BmGetNextLoadOptionDevicePath.str2.2
                0x0000000000018716        0xa /tmp/UiApp.dll.xW15Dc.ltrans1.ltrans.o
 .rodata.EfiBootManagerBoot.str2.2
                0x0000000000018720       0x44 /tmp/UiApp.dll.xW15Dc.ltrans1.ltrans.o
                                         0x5c (size before relaxing)
 .rodata.EfiBootManagerBoot.str1.1
                0x0000000000018764        0xb /tmp/UiApp.dll.xW15Dc.ltrans1.ltrans.o
 .rodata._ModuleEntryPoint.str2.2
                0x0000000000018764       0x66 /tmp/UiApp.dll.xW15Dc.ltrans1.ltrans.o
                                         0xf0 (size before relaxing)
 .rodata.str2.2
                0x00000000000187ca       0x56 /tmp/UiApp.dll.xW15Dc.ltrans1.ltrans.o
                                         0xc2 (size before relaxing)
 .rodata.CSWTCH.42
                0x0000000000018820        0x6 /tmp/UiApp.dll.xW15Dc.ltrans1.ltrans.o
 *fill*         0x0000000000018826        0x2 
 .rodata.CSWTCH.58
                0x0000000000018828       0x30 /tmp/UiApp.dll.xW15Dc.ltrans1.ltrans.o
 .rodata._gPcd_FixedAtBuild_PcdBootManagerMenuFile
                0x0000000000018858       0x10 /tmp/UiApp.dll.xW15Dc.ltrans1.ltrans.o
 .rodata._gPcd_FixedAtBuild_PcdFirmwareVersionString
                0x0000000000018868       0x1e /tmp/UiApp.dll.xW15Dc.ltrans1.ltrans.o
 .rodata._gPcd_FixedAtBuild_PcdUefiVariableDefaultPlatformLangCodes
                0x0000000000018886        0x6 /tmp/UiApp.dll.xW15Dc.ltrans1.ltrans.o
 *fill*         0x000000000001888c        0x4 
 .rodata.mConVarName
                0x0000000000018890       0x30 /tmp/UiApp.dll.xW15Dc.ltrans1.ltrans.o
 .rodata.mEndOfPakageList
                0x00000000000188c0        0x4 /tmp/UiApp.dll.xW15Dc.ltrans1.ltrans.o
 .rodata.mHexStr
                0x00000000000188c4       0x10 /tmp/UiApp.dll.xW15Dc.ltrans1.ltrans.o
 .rodata.mHiiDefaultTypeToWidth
                0x00000000000188d4        0x8 /tmp/UiApp.dll.xW15Dc.ltrans1.ltrans.o
 .rodata.mUefiDevicePathLibEndDevicePath
                0x00000000000188dc        0x4 /tmp/UiApp.dll.xW15Dc.ltrans1.ltrans.o
 .rodata.mUefiDevicePathLibToTextTableGeneric
                0x00000000000188e0       0x60 /tmp/UiApp.dll.xW15Dc.ltrans1.ltrans.o
 *(.got .got.*)
 .got           0x0000000000018940        0x8 /home/alastair/pftf-rpi4/edk2/ArmPkg/Library/GccLto/liblto-aarch64.a
                0x0000000000018940                _GLOBAL_OFFSET_TABLE_
 .got.plt       0x0000000000018948       0x18 /home/alastair/pftf-rpi4/edk2/ArmPkg/Library/GccLto/liblto-aarch64.a
 *:AutoGen.obj(.data.g*Guid)

.plt            0x0000000000018960        0x0
 .plt           0x0000000000018960        0x0 /home/alastair/pftf-rpi4/edk2/ArmPkg/Library/GccLto/liblto-aarch64.a

.data           0x0000000000019000     0x70ac
 *(.data .data.* .gnu.linkonce.d.*)
 .data.rel.ro   0x0000000000019000        0x0 /home/alastair/pftf-rpi4/edk2/ArmPkg/Library/GccLto/liblto-aarch64.a
 .data.BootOptionMenu
                0x0000000000019000       0x20 /tmp/UiApp.dll.xW15Dc.ltrans0.ltrans.o
                0x0000000000019000                BootOptionMenu
 .data.ConsoleErrMenu
                0x0000000000019020       0x20 /tmp/UiApp.dll.xW15Dc.ltrans0.ltrans.o
                0x0000000000019020                ConsoleErrMenu
 .data.ConsoleInpMenu
                0x0000000000019040       0x20 /tmp/UiApp.dll.xW15Dc.ltrans0.ltrans.o
                0x0000000000019040                ConsoleInpMenu
 .data.ConsoleOutMenu
                0x0000000000019060       0x20 /tmp/UiApp.dll.xW15Dc.ltrans0.ltrans.o
                0x0000000000019060                ConsoleOutMenu
 .data.DriverMenu
                0x0000000000019080       0x20 /tmp/UiApp.dll.xW15Dc.ltrans0.ltrans.o
                0x0000000000019080                DriverMenu
 .data.DriverOptionMenu
                0x00000000000190a0       0x20 /tmp/UiApp.dll.xW15Dc.ltrans0.ltrans.o
                0x00000000000190a0                DriverOptionMenu
 .data.FileExplorerGuid
                0x00000000000190c0       0x10 /tmp/UiApp.dll.xW15Dc.ltrans0.ltrans.o
                0x00000000000190c0                FileExplorerGuid
 .data.TerminalMenu
                0x00000000000190d0       0x20 /tmp/UiApp.dll.xW15Dc.ltrans0.ltrans.o
                0x00000000000190d0                TerminalMenu
 .data.TerminalTypeGuid
                0x00000000000190f0       0x90 /tmp/UiApp.dll.xW15Dc.ltrans0.ltrans.o
                0x00000000000190f0                TerminalTypeGuid
 .data.gBootMaintenancePrivate
                0x0000000000019180     0x1c60 /tmp/UiApp.dll.xW15Dc.ltrans0.ltrans.o
                0x0000000000019180                gBootMaintenancePrivate
 .data.gBootManagerPrivate
                0x000000000001ade0       0x30 /tmp/UiApp.dll.xW15Dc.ltrans0.ltrans.o
                0x000000000001ade0                gBootManagerPrivate
 .data.gDeviceManagerPrivate
                0x000000000001ae10       0x38 /tmp/UiApp.dll.xW15Dc.ltrans0.ltrans.o
                0x000000000001ae10                gDeviceManagerPrivate
 .data.gEdkiiFormBrowserEx2ProtocolGuid
                0x000000000001ae48       0x10 /tmp/UiApp.dll.xW15Dc.ltrans0.ltrans.o
 .data.gEdkiiPerformanceMeasurementProtocolGuid
                0x000000000001ae58       0x10 /tmp/UiApp.dll.xW15Dc.ltrans0.ltrans.o
 .data.gEdkiiVariableLockProtocolGuid
                0x000000000001ae68       0x10 /tmp/UiApp.dll.xW15Dc.ltrans0.ltrans.o
 .data.gEfiCallerIdGuid
                0x000000000001ae78       0x10 /tmp/UiApp.dll.xW15Dc.ltrans0.ltrans.o
                0x000000000001ae78                gEfiCallerIdGuid
 .data.gEfiComponentName2ProtocolGuid
                0x000000000001ae88       0x10 /tmp/UiApp.dll.xW15Dc.ltrans0.ltrans.o
 .data.gEfiComponentNameProtocolGuid
                0x000000000001ae98       0x10 /tmp/UiApp.dll.xW15Dc.ltrans0.ltrans.o
 .data.gEfiDevicePathProtocolGuid
                0x000000000001aea8       0x10 /tmp/UiApp.dll.xW15Dc.ltrans0.ltrans.o
                0x000000000001aea8                gEfiDevicePathProtocolGuid
 .data.gEfiDevicePathToTextProtocolGuid
                0x000000000001aeb8       0x10 /tmp/UiApp.dll.xW15Dc.ltrans0.ltrans.o
 .data.gEfiDriverHealthProtocolGuid
                0x000000000001aec8       0x10 /tmp/UiApp.dll.xW15Dc.ltrans0.ltrans.o
 .data.gEfiFileSystemVolumeLabelInfoIdGuid
                0x000000000001aed8       0x10 /tmp/UiApp.dll.xW15Dc.ltrans0.ltrans.o
 .data.gEfiFormBrowser2ProtocolGuid
                0x000000000001aee8       0x10 /tmp/UiApp.dll.xW15Dc.ltrans0.ltrans.o
                0x000000000001aee8                gEfiFormBrowser2ProtocolGuid
 .data.gEfiGlobalVariableGuid
                0x000000000001aef8       0x10 /tmp/UiApp.dll.xW15Dc.ltrans0.ltrans.o
                0x000000000001aef8                gEfiGlobalVariableGuid
 .data.gEfiGraphicsOutputProtocolGuid
                0x000000000001af08       0x10 /tmp/UiApp.dll.xW15Dc.ltrans0.ltrans.o
                0x000000000001af08                gEfiGraphicsOutputProtocolGuid
 .data.gEfiHiiConfigRoutingProtocolGuid
                0x000000000001af18       0x10 /tmp/UiApp.dll.xW15Dc.ltrans0.ltrans.o
                0x000000000001af18                gEfiHiiConfigRoutingProtocolGuid
 .data.gEfiHiiPlatformSetupFormsetGuid
                0x000000000001af28       0x10 /tmp/UiApp.dll.xW15Dc.ltrans0.ltrans.o
 .data.gEfiIfrBootMaintenanceGuid
                0x000000000001af38       0x10 /tmp/UiApp.dll.xW15Dc.ltrans0.ltrans.o
 .data.gEfiIfrTianoGuid
                0x000000000001af48       0x10 /tmp/UiApp.dll.xW15Dc.ltrans0.ltrans.o
                0x000000000001af48                gEfiIfrTianoGuid
 .data.gEfiPciIoProtocolGuid
                0x000000000001af58       0x10 /tmp/UiApp.dll.xW15Dc.ltrans0.ltrans.o
                0x000000000001af58                gEfiPciIoProtocolGuid
 .data.gEfiSimpleFileSystemProtocolGuid
                0x000000000001af68       0x10 /tmp/UiApp.dll.xW15Dc.ltrans0.ltrans.o
                0x000000000001af68                gEfiSimpleFileSystemProtocolGuid
 .data.gEfiSimpleTextOutProtocolGuid
                0x000000000001af78       0x10 /tmp/UiApp.dll.xW15Dc.ltrans0.ltrans.o
                0x000000000001af78                gEfiSimpleTextOutProtocolGuid
 .data.gFileExplorerPrivate
                0x000000000001af88       0x58 /tmp/UiApp.dll.xW15Dc.ltrans0.ltrans.o
                0x000000000001af88                gFileExplorerPrivate
 .data.mArasan  0x000000000001afe0       0x18 /tmp/UiApp.dll.xW15Dc.ltrans0.ltrans.o
 .data.mBmHotkeyBootOption
                0x000000000001aff8       0x58 /tmp/UiApp.dll.xW15Dc.ltrans0.ltrans.o
 .data.mBmHotkeyList
                0x000000000001b050       0x10 /tmp/UiApp.dll.xW15Dc.ltrans0.ltrans.o
                0x000000000001b050                mBmHotkeyList
 .data.mBmHotkeyLock
                0x000000000001b060       0x18 /tmp/UiApp.dll.xW15Dc.ltrans0.ltrans.o
                0x000000000001b060                mBmHotkeyLock
 .data.mBmUefiPrefix
                0x000000000001b078        0xc /tmp/UiApp.dll.xW15Dc.ltrans0.ltrans.o
 .data.mBootMaintGuid
                0x000000000001b084       0x10 /tmp/UiApp.dll.xW15Dc.ltrans0.ltrans.o
                0x000000000001b084                mBootMaintGuid
 .data.mBootMaintStorageName
                0x000000000001b094       0x10 /tmp/UiApp.dll.xW15Dc.ltrans0.ltrans.o
 .data.mBootManagerGuid
                0x000000000001b0a4       0x10 /tmp/UiApp.dll.xW15Dc.ltrans0.ltrans.o
                0x000000000001b0a4                mBootManagerGuid
 .data.mDeviceManagerGuid
                0x000000000001b0b4       0x10 /tmp/UiApp.dll.xW15Dc.ltrans0.ltrans.o
                0x000000000001b0b4                mDeviceManagerGuid
 *fill*         0x000000000001b0c4        0x4 
 .data.mFsOptionMenu
                0x000000000001b0c8       0x28 /tmp/UiApp.dll.xW15Dc.ltrans0.ltrans.o
 .data.mNewFileQuestionId
                0x000000000001b0f0        0x8 /tmp/UiApp.dll.xW15Dc.ltrans0.ltrans.o
 .data.mNewFolderQuestionId
                0x000000000001b0f8        0x8 /tmp/UiApp.dll.xW15Dc.ltrans0.ltrans.o
 .data.mPlatformBootDescriptionHandlers
                0x000000000001b100       0x10 /tmp/UiApp.dll.xW15Dc.ltrans0.ltrans.o
                0x000000000001b100                mPlatformBootDescriptionHandlers
 .data.mSDHost  0x000000000001b110       0x18 /tmp/UiApp.dll.xW15Dc.ltrans0.ltrans.o
 .data.BootDiscoveryPolicyUiLibStrings
                0x000000000001b128       0xe2 /tmp/UiApp.dll.xW15Dc.ltrans1.ltrans.o
 .data.BootDiscoveryPolicyUiLibVfrBin
                0x000000000001b20a       0xad /tmp/UiApp.dll.xW15Dc.ltrans1.ltrans.o
 .data.BootMaintenanceManagerBin
                0x000000000001b2b7      0x594 /tmp/UiApp.dll.xW15Dc.ltrans1.ltrans.o
 .data.BootMaintenanceManagerUiLibStrings
                0x000000000001b84b     0x1bbe /tmp/UiApp.dll.xW15Dc.ltrans1.ltrans.o
 .data.BootManagerUiLibStrings
                0x000000000001d409      0x434 /tmp/UiApp.dll.xW15Dc.ltrans1.ltrans.o
 .data.BootManagerVfrBin
                0x000000000001d83d       0xb3 /tmp/UiApp.dll.xW15Dc.ltrans1.ltrans.o
 .data.DeviceManagerUiLibStrings
                0x000000000001d8f0      0x4b8 /tmp/UiApp.dll.xW15Dc.ltrans1.ltrans.o
 .data.DeviceManagerVfrBin
                0x000000000001dda8      0x12d /tmp/UiApp.dll.xW15Dc.ltrans1.ltrans.o
 .data.FeHiiVendorDevicePath
                0x000000000001ded5       0x18 /tmp/UiApp.dll.xW15Dc.ltrans1.ltrans.o
 .data.FileExplorerLibStrings
                0x000000000001deed      0x81a /tmp/UiApp.dll.xW15Dc.ltrans1.ltrans.o
 .data.FileExplorerVfrBin
                0x000000000001e707       0xf9 /tmp/UiApp.dll.xW15Dc.ltrans1.ltrans.o
 .data.FrontPageVfrBin
                0x000000000001e800      0x147 /tmp/UiApp.dll.xW15Dc.ltrans1.ltrans.o
 .data.UiAppStrings
                0x000000000001e947      0x426 /tmp/UiApp.dll.xW15Dc.ltrans1.ltrans.o
 *fill*         0x000000000001ed6d        0x3 
 .data.__stack_chk_guard
                0x000000000001ed70        0x8 /tmp/UiApp.dll.xW15Dc.ltrans1.ltrans.o
                0x000000000001ed70                __stack_chk_guard
 .data.gBootDiscoveryPolicyMgrFormsetGuid
                0x000000000001ed78       0x10 /tmp/UiApp.dll.xW15Dc.ltrans1.ltrans.o
 .data.gEdkiiPlatformBootManagerProtocolGuid
                0x000000000001ed88       0x10 /tmp/UiApp.dll.xW15Dc.ltrans1.ltrans.o
 .data.gEfiBlockIoProtocolGuid
                0x000000000001ed98       0x10 /tmp/UiApp.dll.xW15Dc.ltrans1.ltrans.o
 .data.gEfiBootLogoProtocolGuid
                0x000000000001eda8       0x10 /tmp/UiApp.dll.xW15Dc.ltrans1.ltrans.o
 .data.gEfiDebugPortProtocolGuid
                0x000000000001edb8       0x10 /tmp/UiApp.dll.xW15Dc.ltrans1.ltrans.o
 .data.gEfiDiskInfoAhciInterfaceGuid
                0x000000000001edc8       0x10 /tmp/UiApp.dll.xW15Dc.ltrans1.ltrans.o
 .data.gEfiDiskInfoIdeInterfaceGuid
                0x000000000001edd8       0x10 /tmp/UiApp.dll.xW15Dc.ltrans1.ltrans.o
 .data.gEfiDiskInfoProtocolGuid
                0x000000000001ede8       0x10 /tmp/UiApp.dll.xW15Dc.ltrans1.ltrans.o
 .data.gEfiDiskInfoScsiInterfaceGuid
                0x000000000001edf8       0x10 /tmp/UiApp.dll.xW15Dc.ltrans1.ltrans.o
 .data.gEfiDiskInfoSdMmcInterfaceGuid
                0x000000000001ee08       0x10 /tmp/UiApp.dll.xW15Dc.ltrans1.ltrans.o
 .data.gEfiDxeServicesTableGuid
                0x000000000001ee18       0x10 /tmp/UiApp.dll.xW15Dc.ltrans1.ltrans.o
 .data.gEfiEventReadyToBootGuid
                0x000000000001ee28       0x10 /tmp/UiApp.dll.xW15Dc.ltrans1.ltrans.o
 .data.gEfiFileInfoGuid
                0x000000000001ee38       0x10 /tmp/UiApp.dll.xW15Dc.ltrans1.ltrans.o
 .data.gEfiFirmwareVolume2ProtocolGuid
                0x000000000001ee48       0x10 /tmp/UiApp.dll.xW15Dc.ltrans1.ltrans.o
 .data.gEfiHiiConfigAccessProtocolGuid
                0x000000000001ee58       0x10 /tmp/UiApp.dll.xW15Dc.ltrans1.ltrans.o
 .data.gEfiHiiDatabaseProtocolGuid
                0x000000000001ee68       0x10 /tmp/UiApp.dll.xW15Dc.ltrans1.ltrans.o
 .data.gEfiHiiFontProtocolGuid
                0x000000000001ee78       0x10 /tmp/UiApp.dll.xW15Dc.ltrans1.ltrans.o
 .data.gEfiHiiImageProtocolGuid
                0x000000000001ee88       0x10 /tmp/UiApp.dll.xW15Dc.ltrans1.ltrans.o
 .data.gEfiHiiStringProtocolGuid
                0x000000000001ee98       0x10 /tmp/UiApp.dll.xW15Dc.ltrans1.ltrans.o
 .data.gEfiHobListGuid
                0x000000000001eea8       0x10 /tmp/UiApp.dll.xW15Dc.ltrans1.ltrans.o
 .data.gEfiIfrFrontPageGuid
                0x000000000001eeb8       0x10 /tmp/UiApp.dll.xW15Dc.ltrans1.ltrans.o
 .data.gEfiLoadFileProtocolGuid
                0x000000000001eec8       0x10 /tmp/UiApp.dll.xW15Dc.ltrans1.ltrans.o
 .data.gEfiLoadedImageProtocolGuid
                0x000000000001eed8       0x10 /tmp/UiApp.dll.xW15Dc.ltrans1.ltrans.o
 .data.gEfiMemoryTypeInformationGuid
                0x000000000001eee8       0x10 /tmp/UiApp.dll.xW15Dc.ltrans1.ltrans.o
 .data.gEfiNvmExpressPassThruProtocolGuid
                0x000000000001eef8       0x10 /tmp/UiApp.dll.xW15Dc.ltrans1.ltrans.o
 .data.gEfiPcAnsiGuid
                0x000000000001ef08       0x10 /tmp/UiApp.dll.xW15Dc.ltrans1.ltrans.o
 .data.gEfiPersistentVirtualCdGuid
                0x000000000001ef18       0x10 /tmp/UiApp.dll.xW15Dc.ltrans1.ltrans.o
 .data.gEfiPersistentVirtualDiskGuid
                0x000000000001ef28       0x10 /tmp/UiApp.dll.xW15Dc.ltrans1.ltrans.o
 .data.gEfiRamDiskProtocolGuid
                0x000000000001ef38       0x10 /tmp/UiApp.dll.xW15Dc.ltrans1.ltrans.o
 .data.gEfiSasDevicePathGuid
                0x000000000001ef48       0x10 /tmp/UiApp.dll.xW15Dc.ltrans1.ltrans.o
 .data.gEfiSerialIoProtocolGuid
                0x000000000001ef58       0x10 /tmp/UiApp.dll.xW15Dc.ltrans1.ltrans.o
 .data.gEfiSimpleTextInProtocolGuid
                0x000000000001ef68       0x10 /tmp/UiApp.dll.xW15Dc.ltrans1.ltrans.o
 .data.gEfiSimpleTextInputExProtocolGuid
                0x000000000001ef78       0x10 /tmp/UiApp.dll.xW15Dc.ltrans1.ltrans.o
 .data.gEfiSmbiosProtocolGuid
                0x000000000001ef88       0x10 /tmp/UiApp.dll.xW15Dc.ltrans1.ltrans.o
 .data.gEfiUartDevicePathGuid
                0x000000000001ef98       0x10 /tmp/UiApp.dll.xW15Dc.ltrans1.ltrans.o
 .data.gEfiUsbIoProtocolGuid
                0x000000000001efa8       0x10 /tmp/UiApp.dll.xW15Dc.ltrans1.ltrans.o
 .data.gEfiVT100Guid
                0x000000000001efb8       0x10 /tmp/UiApp.dll.xW15Dc.ltrans1.ltrans.o
 .data.gEfiVT100PlusGuid
                0x000000000001efc8       0x10 /tmp/UiApp.dll.xW15Dc.ltrans1.ltrans.o
 .data.gEfiVTUTF8Guid
                0x000000000001efd8       0x10 /tmp/UiApp.dll.xW15Dc.ltrans1.ltrans.o
 .data.gEfiVirtualCdGuid
                0x000000000001efe8       0x10 /tmp/UiApp.dll.xW15Dc.ltrans1.ltrans.o
 .data.gEfiVirtualDiskGuid
                0x000000000001eff8       0x10 /tmp/UiApp.dll.xW15Dc.ltrans1.ltrans.o
 .data.gFrontPagePrivate
                0x000000000001f008       0x38 /tmp/UiApp.dll.xW15Dc.ltrans1.ltrans.o
 .data.gPcdProtocolGuid
                0x000000000001f040       0x10 /tmp/UiApp.dll.xW15Dc.ltrans1.ltrans.o
 .data.mBmAutoCreateBootOptionGuid
                0x000000000001f050       0x10 /tmp/UiApp.dll.xW15Dc.ltrans1.ltrans.o
 .data.mBmHardDriveBootVariableGuid
                0x000000000001f060       0x10 /tmp/UiApp.dll.xW15Dc.ltrans1.ltrans.o
 .data.mBmmHiiVendorDevicePath
                0x000000000001f070       0x18 /tmp/UiApp.dll.xW15Dc.ltrans1.ltrans.o
 .data.mBootManagerHiiVendorDevicePath
                0x000000000001f088       0x18 /tmp/UiApp.dll.xW15Dc.ltrans1.ltrans.o
 .data.mDeviceManagerHiiVendorDevicePath
                0x000000000001f0a0       0x18 /tmp/UiApp.dll.xW15Dc.ltrans1.ltrans.o
 .data.mFontBin
                0x000000000001f0b8      0xda0 /tmp/UiApp.dll.xW15Dc.ltrans1.ltrans.o
 .data.mFontPackageGuid
                0x000000000001fe58       0x10 /tmp/UiApp.dll.xW15Dc.ltrans1.ltrans.o
 .data.mFrontPageGuid
                0x000000000001fe68       0x10 /tmp/UiApp.dll.xW15Dc.ltrans1.ltrans.o
 .data.mFrontPageHiiVendorDevicePath
                0x000000000001fe78       0x18 /tmp/UiApp.dll.xW15Dc.ltrans1.ltrans.o
 .data.mUiStringPackGuid
                0x000000000001fe90       0x10 /tmp/UiApp.dll.xW15Dc.ltrans1.ltrans.o
 .data.mVendorDevicePath
                0x000000000001fea0       0x18 /tmp/UiApp.dll.xW15Dc.ltrans1.ltrans.o
 *(.bss .bss.*)
 .bss.gBS       0x000000000001feb8        0x8 /tmp/UiApp.dll.xW15Dc.ltrans0.ltrans.o
                0x000000000001feb8                gBS
 .bss.gHiiConfigRouting
                0x000000000001fec0        0x8 /tmp/UiApp.dll.xW15Dc.ltrans0.ltrans.o
                0x000000000001fec0                gHiiConfigRouting
 .bss.gHiiDatabase
                0x000000000001fec8        0x8 /tmp/UiApp.dll.xW15Dc.ltrans0.ltrans.o
                0x000000000001fec8                gHiiDatabase
 .bss.gHiiDriverList
                0x000000000001fed0        0x8 /tmp/UiApp.dll.xW15Dc.ltrans0.ltrans.o
 .bss.gHiiString
                0x000000000001fed8        0x8 /tmp/UiApp.dll.xW15Dc.ltrans0.ltrans.o
                0x000000000001fed8                gHiiString
 .bss.gRT       0x000000000001fee0        0x8 /tmp/UiApp.dll.xW15Dc.ltrans0.ltrans.o
                0x000000000001fee0                gRT
 .bss.gST       0x000000000001fee8        0x8 /tmp/UiApp.dll.xW15Dc.ltrans0.ltrans.o
                0x000000000001fee8                gST
 .bss.mBmBootHorizontalResolution
                0x000000000001fef0        0x4 /tmp/UiApp.dll.xW15Dc.ltrans0.ltrans.o
                0x000000000001fef0                mBmBootHorizontalResolution
 .bss.mBmBootTextModeColumn
                0x000000000001fef4        0x4 /tmp/UiApp.dll.xW15Dc.ltrans0.ltrans.o
                0x000000000001fef4                mBmBootTextModeColumn
 .bss.mBmBootTextModeRow
                0x000000000001fef8        0x4 /tmp/UiApp.dll.xW15Dc.ltrans0.ltrans.o
                0x000000000001fef8                mBmBootTextModeRow
 .bss.mBmBootVerticalResolution
                0x000000000001fefc        0x4 /tmp/UiApp.dll.xW15Dc.ltrans0.ltrans.o
                0x000000000001fefc                mBmBootVerticalResolution
 .bss.mBmSetupHorizontalResolution
                0x000000000001ff00        0x4 /tmp/UiApp.dll.xW15Dc.ltrans0.ltrans.o
                0x000000000001ff00                mBmSetupHorizontalResolution
 .bss.mBmSetupTextModeColumn
                0x000000000001ff04        0x4 /tmp/UiApp.dll.xW15Dc.ltrans0.ltrans.o
                0x000000000001ff04                mBmSetupTextModeColumn
 .bss.mBmSetupTextModeRow
                0x000000000001ff08        0x4 /tmp/UiApp.dll.xW15Dc.ltrans0.ltrans.o
                0x000000000001ff08                mBmSetupTextModeRow
 .bss.mBmSetupVerticalResolution
                0x000000000001ff0c        0x4 /tmp/UiApp.dll.xW15Dc.ltrans0.ltrans.o
                0x000000000001ff0c                mBmSetupVerticalResolution
 .bss.mBmmBootHorizontalResolution
                0x000000000001ff10        0x4 /tmp/UiApp.dll.xW15Dc.ltrans0.ltrans.o
                0x000000000001ff10                mBmmBootHorizontalResolution
 .bss.mBmmBootTextModeColumn
                0x000000000001ff14        0x4 /tmp/UiApp.dll.xW15Dc.ltrans0.ltrans.o
                0x000000000001ff14                mBmmBootTextModeColumn
 .bss.mBmmBootTextModeRow
                0x000000000001ff18        0x4 /tmp/UiApp.dll.xW15Dc.ltrans0.ltrans.o
                0x000000000001ff18                mBmmBootTextModeRow
 .bss.mBmmBootVerticalResolution
                0x000000000001ff1c        0x4 /tmp/UiApp.dll.xW15Dc.ltrans0.ltrans.o
                0x000000000001ff1c                mBmmBootVerticalResolution
 .bss.mBmmSetupHorizontalResolution
                0x000000000001ff20        0x4 /tmp/UiApp.dll.xW15Dc.ltrans0.ltrans.o
                0x000000000001ff20                mBmmSetupHorizontalResolution
 .bss.mBmmSetupTextModeColumn
                0x000000000001ff24        0x4 /tmp/UiApp.dll.xW15Dc.ltrans0.ltrans.o
                0x000000000001ff24                mBmmSetupTextModeColumn
 .bss.mBmmSetupTextModeRow
                0x000000000001ff28        0x4 /tmp/UiApp.dll.xW15Dc.ltrans0.ltrans.o
                0x000000000001ff28                mBmmSetupTextModeRow
 .bss.mBmmSetupVerticalResolution
                0x000000000001ff2c        0x4 /tmp/UiApp.dll.xW15Dc.ltrans0.ltrans.o
                0x000000000001ff2c                mBmmSetupVerticalResolution
 .bss.mEndOpCodeHandle
                0x000000000001ff30        0x8 /tmp/UiApp.dll.xW15Dc.ltrans0.ltrans.o
                0x000000000001ff30                mEndOpCodeHandle
 .bss.mFirstEnterBMMForm
                0x000000000001ff38        0x1 /tmp/UiApp.dll.xW15Dc.ltrans0.ltrans.o
 *fill*         0x000000000001ff39        0x1 
 .bss.mKeyInput
                0x000000000001ff3a        0x2 /tmp/UiApp.dll.xW15Dc.ltrans0.ltrans.o
 *fill*         0x000000000001ff3c        0x4 
 .bss.mLibEndOpCodeHandle
                0x000000000001ff40        0x8 /tmp/UiApp.dll.xW15Dc.ltrans0.ltrans.o
 .bss.mLibStartOpCodeHandle
                0x000000000001ff48        0x8 /tmp/UiApp.dll.xW15Dc.ltrans0.ltrans.o
 .bss.mMacDeviceList
                0x000000000001ff50       0x18 /tmp/UiApp.dll.xW15Dc.ltrans0.ltrans.o
 .bss.mNewFileName
                0x000000000001ff68       0x28 /tmp/UiApp.dll.xW15Dc.ltrans0.ltrans.o
 .bss.mNewFolderName
                0x000000000001ff90       0x28 /tmp/UiApp.dll.xW15Dc.ltrans0.ltrans.o
 .bss.mPerformanceMeasurement
                0x000000000001ffb8        0x8 /tmp/UiApp.dll.xW15Dc.ltrans0.ltrans.o
                0x000000000001ffb8                mPerformanceMeasurement
 .bss.mQuestionIdUpdate
                0x000000000001ffc0        0x2 /tmp/UiApp.dll.xW15Dc.ltrans0.ltrans.o
 *fill*         0x000000000001ffc2        0x6 
 .bss.mSelectedMacAddrString
                0x000000000001ffc8        0x8 /tmp/UiApp.dll.xW15Dc.ltrans0.ltrans.o
 .bss.mStartLabel
                0x000000000001ffd0        0x8 /tmp/UiApp.dll.xW15Dc.ltrans0.ltrans.o
                0x000000000001ffd0                mStartLabel
 .bss.mStartOpCodeHandle
                0x000000000001ffd8        0x8 /tmp/UiApp.dll.xW15Dc.ltrans0.ltrans.o
                0x000000000001ffd8                mStartOpCodeHandle
 .bss.mUefiFormBrowser2
                0x000000000001ffe0        0x8 /tmp/UiApp.dll.xW15Dc.ltrans0.ltrans.o
 .bss.gCurrentLanguageIndex
                0x000000000001ffe8        0x1 /tmp/UiApp.dll.xW15Dc.ltrans1.ltrans.o
 *fill*         0x000000000001ffe9        0x7 
 .bss.gDS       0x000000000001fff0        0x8 /tmp/UiApp.dll.xW15Dc.ltrans1.ltrans.o
 .bss.gFormBrowser2
                0x000000000001fff8        0x8 /tmp/UiApp.dll.xW15Dc.ltrans1.ltrans.o
 .bss.gHiiDriverList
                0x0000000000020000        0x8 /tmp/UiApp.dll.xW15Dc.ltrans1.ltrans.o
 .bss.gHiiFont  0x0000000000020008        0x8 /tmp/UiApp.dll.xW15Dc.ltrans1.ltrans.o
 .bss.gHiiImage
                0x0000000000020010        0x8 /tmp/UiApp.dll.xW15Dc.ltrans1.ltrans.o
 .bss.gHiiVendorDevicePath
                0x0000000000020018        0x8 /tmp/UiApp.dll.xW15Dc.ltrans1.ltrans.o
 .bss.gImageHandle
                0x0000000000020020        0x8 /tmp/UiApp.dll.xW15Dc.ltrans1.ltrans.o
 .bss.gLanguageString
                0x0000000000020028        0x8 /tmp/UiApp.dll.xW15Dc.ltrans1.ltrans.o
 .bss.gLanguageToken
                0x0000000000020030        0x8 /tmp/UiApp.dll.xW15Dc.ltrans1.ltrans.o
 .bss.gStringPackHandle
                0x0000000000020038        0x8 /tmp/UiApp.dll.xW15Dc.ltrans1.ltrans.o
 .bss.mAllMenuInit
                0x0000000000020040        0x1 /tmp/UiApp.dll.xW15Dc.ltrans1.ltrans.o
 *fill*         0x0000000000020041        0x7 
 .bss.mBPDriverHandle
                0x0000000000020048        0x8 /tmp/UiApp.dll.xW15Dc.ltrans1.ltrans.o
 .bss.mBPHiiHandle
                0x0000000000020050        0x8 /tmp/UiApp.dll.xW15Dc.ltrans1.ltrans.o
 .bss.mBmModeInitialized
                0x0000000000020058        0x1 /tmp/UiApp.dll.xW15Dc.ltrans1.ltrans.o
 .bss.mBmmModeInitialized
                0x0000000000020059        0x1 /tmp/UiApp.dll.xW15Dc.ltrans1.ltrans.o
 *fill*         0x000000000002005a        0x2 
 .bss.mBootHorizontalResolution
                0x000000000002005c        0x4 /tmp/UiApp.dll.xW15Dc.ltrans1.ltrans.o
 .bss.mBootTextModeColumn
                0x0000000000020060        0x4 /tmp/UiApp.dll.xW15Dc.ltrans1.ltrans.o
 .bss.mBootTextModeRow
                0x0000000000020064        0x4 /tmp/UiApp.dll.xW15Dc.ltrans1.ltrans.o
 .bss.mBootVerticalResolution
                0x0000000000020068        0x4 /tmp/UiApp.dll.xW15Dc.ltrans1.ltrans.o
 *fill*         0x000000000002006c        0x4 
 .bss.mHobList  0x0000000000020070        0x8 /tmp/UiApp.dll.xW15Dc.ltrans1.ltrans.o
 .bss.mLanguageString
                0x0000000000020078        0x8 /tmp/UiApp.dll.xW15Dc.ltrans1.ltrans.o
 .bss.mModeInitialized
                0x0000000000020080        0x1 /tmp/UiApp.dll.xW15Dc.ltrans1.ltrans.o
 *fill*         0x0000000000020081        0x7 
 .bss.mPcd      0x0000000000020088        0x8 /tmp/UiApp.dll.xW15Dc.ltrans1.ltrans.o
 .bss.mRamDisk  0x0000000000020090        0x8 /tmp/UiApp.dll.xW15Dc.ltrans1.ltrans.o
 .bss.mResetRequired
                0x0000000000020098        0x1 /tmp/UiApp.dll.xW15Dc.ltrans1.ltrans.o
 *fill*         0x0000000000020099        0x3 
 .bss.mSetupHorizontalResolution
                0x000000000002009c        0x4 /tmp/UiApp.dll.xW15Dc.ltrans1.ltrans.o
 .bss.mSetupTextModeColumn
                0x00000000000200a0        0x4 /tmp/UiApp.dll.xW15Dc.ltrans1.ltrans.o
 .bss.mSetupTextModeRow
                0x00000000000200a4        0x4 /tmp/UiApp.dll.xW15Dc.ltrans1.ltrans.o
 .bss.mSetupVerticalResolution
                0x00000000000200a8        0x4 /tmp/UiApp.dll.xW15Dc.ltrans1.ltrans.o

.dynbss         0x00000000000200ac        0x0
 .dynbss        0x00000000000200ac        0x0 /home/alastair/pftf-rpi4/edk2/ArmPkg/Library/GccLto/liblto-aarch64.a

.eh_frame
 *(.eh_frame)

.rela           0x00000000000200b0      0xa08
 *(.rela .rela.*)
 .rela.got      0x00000000000200b0        0x0 /home/alastair/pftf-rpi4/edk2/ArmPkg/Library/GccLto/liblto-aarch64.a
 .rela.plt      0x00000000000200b0        0x0 /home/alastair/pftf-rpi4/edk2/ArmPkg/Library/GccLto/liblto-aarch64.a
 .rela.bss      0x00000000000200b0        0x0 /home/alastair/pftf-rpi4/edk2/ArmPkg/Library/GccLto/liblto-aarch64.a
 .rela.data.rel.ro
                0x00000000000200b0        0x0 /home/alastair/pftf-rpi4/edk2/ArmPkg/Library/GccLto/liblto-aarch64.a
 .rela.ifunc    0x00000000000200b0        0x0 /home/alastair/pftf-rpi4/edk2/ArmPkg/Library/GccLto/liblto-aarch64.a
 .rela.data.gBootMaintenancePrivate
                0x00000000000200b0       0x48 /home/alastair/pftf-rpi4/edk2/ArmPkg/Library/GccLto/liblto-aarch64.a
 .rela.data.gBootManagerPrivate
                0x00000000000200f8       0x48 /home/alastair/pftf-rpi4/edk2/ArmPkg/Library/GccLto/liblto-aarch64.a
 .rela.data.gDeviceManagerPrivate
                0x0000000000020140       0x48 /home/alastair/pftf-rpi4/edk2/ArmPkg/Library/GccLto/liblto-aarch64.a
 .rela.data.gFileExplorerPrivate
                0x0000000000020188       0x60 /home/alastair/pftf-rpi4/edk2/ArmPkg/Library/GccLto/liblto-aarch64.a
 .rela.data.mBmHotkeyList
                0x00000000000201e8       0x30 /home/alastair/pftf-rpi4/edk2/ArmPkg/Library/GccLto/liblto-aarch64.a
 .rela.data.mPlatformBootDescriptionHandlers
                0x0000000000020218       0x30 /home/alastair/pftf-rpi4/edk2/ArmPkg/Library/GccLto/liblto-aarch64.a
 .rela.rodata.mBmBootDescriptionHandlers
                0x0000000000020248       0x90 /home/alastair/pftf-rpi4/edk2/ArmPkg/Library/GccLto/liblto-aarch64.a
 .rela.rodata.mBmLoadOptionName
                0x00000000000202d8       0x60 /home/alastair/pftf-rpi4/edk2/ArmPkg/Library/GccLto/liblto-aarch64.a
 .rela.rodata.mBmLoadOptionOrderName
                0x0000000000020338       0x48 /home/alastair/pftf-rpi4/edk2/ArmPkg/Library/GccLto/liblto-aarch64.a
 .rela.rodata.mDeviceTypeStr
                0x0000000000020380       0xc0 /home/alastair/pftf-rpi4/edk2/ArmPkg/Library/GccLto/liblto-aarch64.a
 .rela.rodata.mUefiDevicePathLibToTextTable
                0x0000000000020440      0x498 /home/alastair/pftf-rpi4/edk2/ArmPkg/Library/GccLto/liblto-aarch64.a
 .rela.data.gFrontPagePrivate
                0x00000000000208d8       0x48 /home/alastair/pftf-rpi4/edk2/ArmPkg/Library/GccLto/liblto-aarch64.a
 .rela.rodata.CSWTCH.58
                0x0000000000020920       0x90 /home/alastair/pftf-rpi4/edk2/ArmPkg/Library/GccLto/liblto-aarch64.a
 .rela.rodata.mConVarName
                0x00000000000209b0       0x90 /home/alastair/pftf-rpi4/edk2/ArmPkg/Library/GccLto/liblto-aarch64.a
 .rela.rodata.mUefiDevicePathLibToTextTableGeneric
                0x0000000000020a40       0x78 /home/alastair/pftf-rpi4/edk2/ArmPkg/Library/GccLto/liblto-aarch64.a

.hii
 *(.hii)

.build-id       0x0000000000020ab8       0x24
 *(.note.gnu.build-id)
 .note.gnu.build-id
                0x0000000000020ab8       0x24 /home/alastair/pftf-rpi4/edk2/ArmPkg/Library/GccLto/liblto-aarch64.a

/DISCARD/
 *(.note.GNU-stack)
 *(.gnu_debuglink)
 *(.interp)
 *(.dynsym)
 *(.dynstr)
 *(.dynamic)
 *(.hash .gnu.hash)
 *(.comment)
 *(COMMON)
                0x0000000000000228                PECOFF_HEADER_SIZE = 0x228
OUTPUT(/home/alastair/pftf-rpi4/Build/RPi4/RELEASE_GCC5/AARCH64/MdeModulePkg/Application/UiApp/UiApp/DEBUG/UiApp.dll elf64-littleaarch64)
LOAD linker stubs

.debug_info     0x0000000000000000    0xadda4
 .debug_info    0x0000000000000000     0xf5b9 /tmp/UiApp.dll.xW15Dc.ltrans0.ltrans.o
 .debug_info    0x000000000000f5b9    0x11133 /tmp/UiApp.dll.xW15Dc.ltrans1.ltrans.o
 .debug_info    0x00000000000206ec     0x1929 /tmp/ccL0M6ng.debug.temp.o
                0x00000000000206ec                ApplicationEntryPoint.c.95515bc3
 .debug_info    0x0000000000022015      0x17b /tmp/ccG0Tunc.debug.temp.o
                0x0000000000022015                BaseStackCheckGcc.c.3fb9ce64
 .debug_info    0x0000000000022190      0x1d7 /tmp/ccxkIdfg.debug.temp.o
                0x0000000000022190                memcpy.c.79986cd0
 .debug_info    0x0000000000022367      0x188 /tmp/ccb3IcHf.debug.temp.o
                0x0000000000022367                memset.c.02de5c04
 .debug_info    0x00000000000224ef     0x216c /tmp/ccsL2Gig.debug.temp.o
                0x00000000000224ef                AutoGen.c.ba3678cb
 .debug_info    0x000000000002465b     0x430a /tmp/ccnfKoTc.debug.temp.o
                0x000000000002465b                FrontPage.c.7129e407
 .debug_info    0x0000000000028965     0x2fa9 /tmp/cc88IPsg.debug.temp.o
                0x0000000000028965                String.c.61b3fce9
 .debug_info    0x000000000002b90e     0x317f /tmp/cc9OgZsg.debug.temp.o
                0x000000000002b90e                FrontPageCustomizedUi.c.973fc766
 .debug_info    0x000000000002ea8d     0x337d /tmp/ccVbxrrf.debug.temp.o
                0x000000000002ea8d                FrontPageCustomizedUiSupport.c.84d8d087
 .debug_info    0x0000000000031e0a      0x5be /tmp/cc85aQtd.debug.temp.o
                0x0000000000031e0a                FrontPageVfr.c.e9918946
 .debug_info    0x00000000000323c8     0x2bd3 /tmp/cc0MjXxc.debug.temp.o
                0x00000000000323c8                DxePcdLib.c.b1755c63
 .debug_info    0x0000000000034f9b      0x21d /tmp/ccFfGydc.debug.temp.o
                0x0000000000034f9b                MemLibGuid.c.89fba256
 .debug_info    0x00000000000351b8      0x185 /tmp/ccTymtWd.debug.temp.o
                0x00000000000351b8                CopyMemWrapper.c.4760c160
 .debug_info    0x000000000003533d      0x1db /tmp/ccVXRLpg.debug.temp.o
                0x000000000003533d                RShiftU64.c.b1baacba
 .debug_info    0x0000000000035518      0x1d0 /tmp/ccYcVAwg.debug.temp.o
                0x0000000000035518                CpuDeadLoop.c.755e7c7b
 .debug_info    0x00000000000356e8      0xdc8 /tmp/ccYBuefd.debug.temp.o
                0x00000000000356e8                SafeString.c.d93472dc
 .debug_info    0x00000000000364b0      0x7f3 /tmp/ccIcHv2e.debug.temp.o
                0x00000000000364b0                String.c.76785ee4
 .debug_info    0x0000000000036ca3      0x43c /tmp/ccOQpukc.debug.temp.o
                0x0000000000036ca3                Math64.c.fba6cbb7
 .debug_info    0x00000000000370df      0x1db /tmp/ccvPrDCe.debug.temp.o
                0x00000000000370df                MultU64x32.c.37505239
 .debug_info    0x00000000000372ba      0x1db /tmp/cciwaS1c.debug.temp.o
                0x00000000000372ba                LShiftU64.c.89142a4c
 .debug_info    0x0000000000037495     0x18e1 /tmp/ccWaofZe.debug.temp.o
                0x0000000000037495                UefiBootServicesTableLib.c.1b9b5282
 .debug_info    0x0000000000038d76      0x683 /tmp/ccn1PjPc.debug.temp.o
                0x0000000000038d76                PrintLib.c.9d1836b5
 .debug_info    0x00000000000393f9      0x79a /tmp/cc0ryYne.debug.temp.o
                0x00000000000393f9                PrintLibInternal.c.11bf8ed5
 .debug_info    0x0000000000039b93     0x1de0 /tmp/ccfv3eye.debug.temp.o
                0x0000000000039b93                MemoryAllocationLib.c.7e75fabe
 .debug_info    0x000000000003b973     0x18b2 /tmp/ccn0Mv9b.debug.temp.o
                0x000000000003b973                UefiRuntimeServicesTableLib.c.76abd5a8
 .debug_info    0x000000000003d225     0x1953 /tmp/ccXQs4Uc.debug.temp.o
                0x000000000003d225                DevicePathUtilitiesDxeSmm.c.cb9de9d5
 .debug_info    0x000000000003eb78     0x1afe /tmp/ccXSVURf.debug.temp.o
                0x000000000003eb78                UefiDevicePathLib.c.0e9646b4
 .debug_info    0x0000000000040676     0x1d7d /tmp/cchekaDf.debug.temp.o
                0x0000000000040676                DevicePathUtilities.c.1a32a0df
 .debug_info    0x00000000000423f3     0x3d60 /tmp/cccXUcWe.debug.temp.o
                0x00000000000423f3                DevicePathToText.c.b542a65c
 .debug_info    0x0000000000046153     0x1cda /tmp/ccTp4LZc.debug.temp.o
                0x0000000000046153                Console.c.9f111946
 .debug_info    0x0000000000047e2d     0x27ac /tmp/ccaCiTde.debug.temp.o
                0x0000000000047e2d                UefiLib.c.c9f50ead
 .debug_info    0x000000000004a5d9     0x294e /tmp/ccbiENHc.debug.temp.o
                0x000000000004a5d9                UefiHiiServicesLib.c.793cbe6e
 .debug_info    0x000000000004cf27     0x1e96 /tmp/ccI82MPc.debug.temp.o
                0x000000000004cf27                DxeServicesTableLib.c.1d63086a
 .debug_info    0x000000000004edbd     0x22e6 /tmp/ccNRckYb.debug.temp.o
                0x000000000004edbd                HobLib.c.d33bba12
 .debug_info    0x00000000000510a3     0x50c1 /tmp/ccIHx9gg.debug.temp.o
                0x00000000000510a3                HiiLib.c.4aac6cd1
 .debug_info    0x0000000000056164     0x2b6a /tmp/cc49bCcd.debug.temp.o
                0x0000000000056164                HiiString.c.65ac83c6
 .debug_info    0x0000000000058cce     0x2a1b /tmp/ccWg0Cye.debug.temp.o
                0x0000000000058cce                HiiLanguage.c.e626a2c6
 .debug_info    0x000000000005b6e9      0x502 /tmp/cct5TkTc.debug.temp.o
                0x000000000005b6e9                BaseReportStatusCodeLib.c.354a94c6
 .debug_info    0x000000000005bbeb     0x272c /tmp/cc5zwiwe.debug.temp.o
                0x000000000005bbeb                BmConnect.c.ecad1017
 .debug_info    0x000000000005e317     0x2b62 /tmp/cctEbBKd.debug.temp.o
                0x000000000005e317                BmConsole.c.8ff8d749
 .debug_info    0x0000000000060e79     0x3e1e /tmp/cczaTAye.debug.temp.o
                0x0000000000060e79                BmBoot.c.e4fa0fdd
 .debug_info    0x0000000000064c97     0x5375 /tmp/ccjS1ktc.debug.temp.o
                0x0000000000064c97                BmBootDescription.c.f5d4dbea
 .debug_info    0x000000000006a00c     0x3384 /tmp/ccGKa1Re.debug.temp.o
                0x000000000006a00c                BmLoadOption.c.38866d25
 .debug_info    0x000000000006d390     0x2e99 /tmp/cckSFZed.debug.temp.o
                0x000000000006d390                BmHotkey.c.e03a3b41
 .debug_info    0x0000000000070229     0x27fb /tmp/ccxrLvXb.debug.temp.o
                0x0000000000070229                BmDriverHealth.c.eab11ba8
 .debug_info    0x0000000000072a24     0x253b /tmp/cccH8zYd.debug.temp.o
                0x0000000000072a24                BmMisc.c.a6cc3cfe
 .debug_info    0x0000000000074f5f     0x2f60 /tmp/cc1RROdf.debug.temp.o
                0x0000000000074f5f                FileExplorer.c.b46f54d2
 .debug_info    0x0000000000077ebf      0x282 /tmp/cco8RJdf.debug.temp.o
                0x0000000000077ebf                AutoGen.c.f09074fe
 .debug_info    0x0000000000078141      0x296 /tmp/ccABTZYe.debug.temp.o
                0x0000000000078141                FileExplorerVfr.c.b6e21dcb
 .debug_info    0x00000000000783d7     0x1aba /tmp/ccGWbRDf.debug.temp.o
                0x00000000000783d7                BootDiscoveryPolicyUiLib.c.d5ac53fb
 .debug_info    0x0000000000079e91      0x266 /tmp/ccrHaRoe.debug.temp.o
                0x0000000000079e91                BootDiscoveryPolicyUiLibVfr.c.c3fc3c45
 .debug_info    0x000000000007a0f7      0x252 /tmp/ccRQQQ4e.debug.temp.o
                0x000000000007a0f7                AutoGen.c.12ddc26c
 .debug_info    0x000000000007a349     0x3451 /tmp/ccpRQsgd.debug.temp.o
                0x000000000007a349                DeviceManager.c.fdf84313
 .debug_info    0x000000000007d79a      0x26a /tmp/ccNSQ9Vf.debug.temp.o
                0x000000000007d79a                AutoGen.c.59f4b5cb
 .debug_info    0x000000000007da04      0x27f /tmp/ccTtnvhd.debug.temp.o
                0x000000000007da04                DeviceManagerVfr.c.b15d36ae
 .debug_info    0x000000000007dc83     0x2a41 /tmp/ccBkLwwg.debug.temp.o
                0x000000000007dc83                BootManager.c.94bf1117
 .debug_info    0x00000000000806c4      0x282 /tmp/cc75Zfre.debug.temp.o
                0x00000000000806c4                AutoGen.c.3a4bbc63
 .debug_info    0x0000000000080946      0x296 /tmp/ccunLgXc.debug.temp.o
                0x0000000000080946                BootManagerVfr.c.1fa15617
 .debug_info    0x0000000000080bdc     0x1a4a /tmp/ccFqv3Uc.debug.temp.o
                0x0000000000080bdc                PlatformUiAppLib.c.3dcd3300
 .debug_info    0x0000000000082626     0x44c1 /tmp/ccUICILe.debug.temp.o
                0x0000000000082626                BootMaintenance.c.afc659d1
 .debug_info    0x0000000000086ae7     0x45fb /tmp/ccG8ogPc.debug.temp.o
                0x0000000000086ae7                BootOption.c.8b5553ef
 .debug_info    0x000000000008b0e2     0x4724 /tmp/cc4vlMRf.debug.temp.o
                0x000000000008b0e2                ConsoleOption.c.7c145ab0
 .debug_info    0x000000000008f806     0x3cf8 /tmp/ccGL3Naf.debug.temp.o
                0x000000000008f806                Data.c.9296bd32
 .debug_info    0x00000000000934fe     0x4200 /tmp/ccufjt4f.debug.temp.o
                0x00000000000934fe                Variable.c.fdb62527
 .debug_info    0x00000000000976fe     0x4143 /tmp/ccfDer6c.debug.temp.o
                0x00000000000976fe                UpdatePage.c.741686c6
 .debug_info    0x000000000009b841     0x3c7d /tmp/cccklRtc.debug.temp.o
                0x000000000009b841                BmLib.c.ac2ec690
 .debug_info    0x000000000009f4be      0x55d /tmp/ccrrYpFc.debug.temp.o
                0x000000000009f4be                BootMaintenanceManagerCustomizedUi.c.7b8d41b4
 .debug_info    0x000000000009fa1b     0x401e /tmp/ccZtHZaf.debug.temp.o
                0x000000000009fa1b                BootMaintenanceManagerCustomizedUiSupport.c.56615169
 .debug_info    0x00000000000a3a39      0x2ca /tmp/ccsvtl6e.debug.temp.o
                0x00000000000a3a39                AutoGen.c.a86b5b9a
 .debug_info    0x00000000000a3d03      0x2df /tmp/ccOKSGrc.debug.temp.o
                0x00000000000a3d03                BootMaintenanceManager.c.7cd11ca2
 .debug_info    0x00000000000a3fe2      0x2ef /tmp/ccSCr8Tc.debug.temp.o
                0x00000000000a3fe2                DebugLib.c.be4a5591
 .debug_info    0x00000000000a42d1      0x16e /tmp/cc41tJce.debug.temp.o
                0x00000000000a42d1                ZeroMemWrapper.c.da3b248e
 .debug_info    0x00000000000a443f      0x19b /tmp/ccRviuSd.debug.temp.o
                0x00000000000a443f                CompareMemWrapper.c.df2c23b5
 .debug_info    0x00000000000a45da      0x17a /tmp/ccqvb9If.debug.temp.o
                0x00000000000a45da                SetMem16Wrapper.c.b8a3956a
 .debug_info    0x00000000000a4754      0x1af /tmp/ccog8HLd.debug.temp.o
                0x00000000000a4754                SetMemWrapper.c.bdf1ad9c
 .debug_info    0x00000000000a4903      0x183 /tmp/cc08s0Pf.debug.temp.o
                0x00000000000a4903                IsZeroBufferWrapper.c.8097e63f
 .debug_info    0x00000000000a4a86      0x28a /tmp/cce4GIvd.debug.temp.o
                0x00000000000a4a86                ScanMemGeneric.c.cccc6a3e
 .debug_info    0x00000000000a4d10      0x1e5 /tmp/ccVKgOcg.debug.temp.o
                0x00000000000a4d10                DivU64x32Remainder.c.f5241791
 .debug_info    0x00000000000a4ef5      0x428 /tmp/ccRPz1Ed.debug.temp.o
                0x00000000000a4ef5                LinkedList.c.7e1d43c9
 .debug_info    0x00000000000a531d      0x33d /tmp/cckSWN4f.debug.temp.o
                0x00000000000a531d                Unaligned.c.b480fc72
 .debug_info    0x00000000000a565a     0x2762 /tmp/cc3DnE3f.debug.temp.o
                0x00000000000a565a                UefiLibPrint.c.d33c8baa
 .debug_info    0x00000000000a7dbc     0x1c06 /tmp/ccgYKf0c.debug.temp.o
                0x00000000000a7dbc                UefiNotTiano.c.249077ca
 .debug_info    0x00000000000a99c2     0x2756 /tmp/ccSgYf3b.debug.temp.o
                0x00000000000a99c2                DxeServicesLib.c.e274e40e
 .debug_info    0x00000000000ac118     0x1c8c /tmp/ccTJS8ce.debug.temp.o
                0x00000000000ac118                DxePerformanceLib.c.b6166bb4

.debug_abbrev   0x0000000000000000     0x9734
 .debug_abbrev  0x0000000000000000      0x2f9 /tmp/UiApp.dll.xW15Dc.ltrans0.ltrans.o
 .debug_abbrev  0x00000000000002f9      0x2d0 /tmp/UiApp.dll.xW15Dc.ltrans1.ltrans.o
 .debug_abbrev  0x00000000000005c9      0x1fc /tmp/ccL0M6ng.debug.temp.o
 .debug_abbrev  0x00000000000007c5       0xc7 /tmp/ccG0Tunc.debug.temp.o
 .debug_abbrev  0x000000000000088c       0xee /tmp/ccxkIdfg.debug.temp.o
 .debug_abbrev  0x000000000000097a       0xc0 /tmp/ccb3IcHf.debug.temp.o
 .debug_abbrev  0x0000000000000a3a      0x236 /tmp/ccsL2Gig.debug.temp.o
 .debug_abbrev  0x0000000000000c70      0x30c /tmp/ccnfKoTc.debug.temp.o
 .debug_abbrev  0x0000000000000f7c      0x24b /tmp/cc88IPsg.debug.temp.o
 .debug_abbrev  0x00000000000011c7      0x25c /tmp/cc9OgZsg.debug.temp.o
 .debug_abbrev  0x0000000000001423      0x2c8 /tmp/ccVbxrrf.debug.temp.o
 .debug_abbrev  0x00000000000016eb       0xbc /tmp/cc85aQtd.debug.temp.o
 .debug_abbrev  0x00000000000017a7      0x25c /tmp/cc0MjXxc.debug.temp.o
 .debug_abbrev  0x0000000000001a03       0xce /tmp/ccFfGydc.debug.temp.o
 .debug_abbrev  0x0000000000001ad1       0xb8 /tmp/ccTymtWd.debug.temp.o
 .debug_abbrev  0x0000000000001b89       0xb1 /tmp/ccVXRLpg.debug.temp.o
 .debug_abbrev  0x0000000000001c3a       0xb6 /tmp/ccYcVAwg.debug.temp.o
 .debug_abbrev  0x0000000000001cf0      0x12d /tmp/ccYBuefd.debug.temp.o
 .debug_abbrev  0x0000000000001e1d      0x126 /tmp/ccIcHv2e.debug.temp.o
 .debug_abbrev  0x0000000000001f43       0xf9 /tmp/ccOQpukc.debug.temp.o
 .debug_abbrev  0x000000000000203c       0xc0 /tmp/ccvPrDCe.debug.temp.o
 .debug_abbrev  0x00000000000020fc       0xb1 /tmp/cciwaS1c.debug.temp.o
 .debug_abbrev  0x00000000000021ad      0x1dd /tmp/ccWaofZe.debug.temp.o
 .debug_abbrev  0x000000000000238a      0x150 /tmp/ccn1PjPc.debug.temp.o
 .debug_abbrev  0x00000000000024da      0x161 /tmp/cc0ryYne.debug.temp.o
 .debug_abbrev  0x000000000000263b      0x242 /tmp/ccfv3eye.debug.temp.o
 .debug_abbrev  0x000000000000287d      0x1c3 /tmp/ccn0Mv9b.debug.temp.o
 .debug_abbrev  0x0000000000002a40      0x1d4 /tmp/ccXQs4Uc.debug.temp.o
 .debug_abbrev  0x0000000000002c14      0x1fe /tmp/ccXSVURf.debug.temp.o
 .debug_abbrev  0x0000000000002e12      0x240 /tmp/cchekaDf.debug.temp.o
 .debug_abbrev  0x0000000000003052      0x2ca /tmp/cccXUcWe.debug.temp.o
 .debug_abbrev  0x000000000000331c      0x276 /tmp/ccTp4LZc.debug.temp.o
 .debug_abbrev  0x0000000000003592      0x267 /tmp/ccaCiTde.debug.temp.o
 .debug_abbrev  0x00000000000037f9      0x216 /tmp/ccbiENHc.debug.temp.o
 .debug_abbrev  0x0000000000003a0f      0x1ea /tmp/ccI82MPc.debug.temp.o
 .debug_abbrev  0x0000000000003bf9      0x25a /tmp/ccNRckYb.debug.temp.o
 .debug_abbrev  0x0000000000003e53      0x315 /tmp/ccIHx9gg.debug.temp.o
 .debug_abbrev  0x0000000000004168      0x249 /tmp/cc49bCcd.debug.temp.o
 .debug_abbrev  0x00000000000043b1      0x209 /tmp/ccWg0Cye.debug.temp.o
 .debug_abbrev  0x00000000000045ba      0x124 /tmp/cct5TkTc.debug.temp.o
 .debug_abbrev  0x00000000000046de      0x214 /tmp/cc5zwiwe.debug.temp.o
 .debug_abbrev  0x00000000000048f2      0x258 /tmp/cctEbBKd.debug.temp.o
 .debug_abbrev  0x0000000000004b4a      0x276 /tmp/cczaTAye.debug.temp.o
 .debug_abbrev  0x0000000000004dc0      0x382 /tmp/ccjS1ktc.debug.temp.o
 .debug_abbrev  0x0000000000005142      0x2b7 /tmp/ccGKa1Re.debug.temp.o
 .debug_abbrev  0x00000000000053f9      0x2e5 /tmp/cckSFZed.debug.temp.o
 .debug_abbrev  0x00000000000056de      0x261 /tmp/ccxrLvXb.debug.temp.o
 .debug_abbrev  0x000000000000593f      0x25a /tmp/cccH8zYd.debug.temp.o
 .debug_abbrev  0x0000000000005b99      0x2c0 /tmp/cc1RROdf.debug.temp.o
 .debug_abbrev  0x0000000000005e59       0xa8 /tmp/cco8RJdf.debug.temp.o
 .debug_abbrev  0x0000000000005f01       0xac /tmp/ccABTZYe.debug.temp.o
 .debug_abbrev  0x0000000000005fad      0x1fa /tmp/ccGWbRDf.debug.temp.o
 .debug_abbrev  0x00000000000061a7       0xac /tmp/ccrHaRoe.debug.temp.o
 .debug_abbrev  0x0000000000006253       0xa8 /tmp/ccRQQQ4e.debug.temp.o
 .debug_abbrev  0x00000000000062fb      0x2d5 /tmp/ccpRQsgd.debug.temp.o
 .debug_abbrev  0x00000000000065d0       0xa8 /tmp/ccNSQ9Vf.debug.temp.o
 .debug_abbrev  0x0000000000006678       0xb5 /tmp/ccTtnvhd.debug.temp.o
 .debug_abbrev  0x000000000000672d      0x28e /tmp/ccBkLwwg.debug.temp.o
 .debug_abbrev  0x00000000000069bb       0xa8 /tmp/cc75Zfre.debug.temp.o
 .debug_abbrev  0x0000000000006a63       0xac /tmp/ccunLgXc.debug.temp.o
 .debug_abbrev  0x0000000000006b0f      0x1e7 /tmp/ccFqv3Uc.debug.temp.o
 .debug_abbrev  0x0000000000006cf6      0x2fe /tmp/ccUICILe.debug.temp.o
 .debug_abbrev  0x0000000000006ff4      0x309 /tmp/ccG8ogPc.debug.temp.o
 .debug_abbrev  0x00000000000072fd      0x330 /tmp/cc4vlMRf.debug.temp.o
 .debug_abbrev  0x000000000000762d      0x249 /tmp/ccGL3Naf.debug.temp.o
 .debug_abbrev  0x0000000000007876      0x2db /tmp/ccufjt4f.debug.temp.o
 .debug_abbrev  0x0000000000007b51      0x2be /tmp/ccfDer6c.debug.temp.o
 .debug_abbrev  0x0000000000007e0f      0x282 /tmp/cccklRtc.debug.temp.o
 .debug_abbrev  0x0000000000008091      0x144 /tmp/ccrrYpFc.debug.temp.o
 .debug_abbrev  0x00000000000081d5      0x2c0 /tmp/ccZtHZaf.debug.temp.o
 .debug_abbrev  0x0000000000008495       0xa8 /tmp/ccsvtl6e.debug.temp.o
 .debug_abbrev  0x000000000000853d       0xb5 /tmp/ccOKSGrc.debug.temp.o
 .debug_abbrev  0x00000000000085f2      0x121 /tmp/ccSCr8Tc.debug.temp.o
 .debug_abbrev  0x0000000000008713       0xb1 /tmp/cc41tJce.debug.temp.o
 .debug_abbrev  0x00000000000087c4       0xb1 /tmp/ccRviuSd.debug.temp.o
 .debug_abbrev  0x0000000000008875       0xb1 /tmp/ccqvb9If.debug.temp.o
 .debug_abbrev  0x0000000000008926       0xc6 /tmp/ccog8HLd.debug.temp.o
 .debug_abbrev  0x00000000000089ec       0xb1 /tmp/cc08s0Pf.debug.temp.o
 .debug_abbrev  0x0000000000008a9d       0xc7 /tmp/cce4GIvd.debug.temp.o
 .debug_abbrev  0x0000000000008b64       0xb3 /tmp/ccVKgOcg.debug.temp.o
 .debug_abbrev  0x0000000000008c17      0x139 /tmp/ccRPz1Ed.debug.temp.o
 .debug_abbrev  0x0000000000008d50       0xc9 /tmp/cckSWN4f.debug.temp.o
 .debug_abbrev  0x0000000000008e19      0x283 /tmp/cc3DnE3f.debug.temp.o
 .debug_abbrev  0x000000000000909c      0x233 /tmp/ccgYKf0c.debug.temp.o
 .debug_abbrev  0x00000000000092cf      0x225 /tmp/ccSgYf3b.debug.temp.o
 .debug_abbrev  0x00000000000094f4      0x240 /tmp/ccTJS8ce.debug.temp.o

.debug_loc      0x0000000000000000    0x3175f
 .debug_loc     0x0000000000000000    0x18092 /tmp/UiApp.dll.xW15Dc.ltrans0.ltrans.o
 .debug_loc     0x0000000000018092    0x196cd /tmp/UiApp.dll.xW15Dc.ltrans1.ltrans.o

.debug_aranges  0x0000000000000000     0x11f0
 .debug_aranges
                0x0000000000000000      0x810 /tmp/UiApp.dll.xW15Dc.ltrans0.ltrans.o
 .debug_aranges
                0x0000000000000810      0x9e0 /tmp/UiApp.dll.xW15Dc.ltrans1.ltrans.o

.debug_ranges   0x0000000000000000     0x5cd0
 .debug_ranges  0x0000000000000000     0x28c0 /tmp/UiApp.dll.xW15Dc.ltrans0.ltrans.o
 .debug_ranges  0x00000000000028c0     0x3410 /tmp/UiApp.dll.xW15Dc.ltrans1.ltrans.o

.debug_line     0x0000000000000000    0x25110
 .debug_line    0x0000000000000000     0x9018 /tmp/UiApp.dll.xW15Dc.ltrans0.ltrans.o
 .debug_line    0x0000000000009018     0x9cb9 /tmp/UiApp.dll.xW15Dc.ltrans1.ltrans.o
 .debug_line    0x0000000000012cd1      0x351 /tmp/ccL0M6ng.debug.temp.o
 .debug_line    0x0000000000013022      0x172 /tmp/ccG0Tunc.debug.temp.o
 .debug_line    0x0000000000013194      0x173 /tmp/ccxkIdfg.debug.temp.o
 .debug_line    0x0000000000013307      0x173 /tmp/ccb3IcHf.debug.temp.o
 .debug_line    0x000000000001347a      0x2f0 /tmp/ccsL2Gig.debug.temp.o
 .debug_line    0x000000000001376a      0x58a /tmp/ccnfKoTc.debug.temp.o
 .debug_line    0x0000000000013cf4      0x4ca /tmp/cc88IPsg.debug.temp.o
 .debug_line    0x00000000000141be      0x4ee /tmp/cc9OgZsg.debug.temp.o
 .debug_line    0x00000000000146ac      0x4d0 /tmp/ccVbxrrf.debug.temp.o
 .debug_line    0x0000000000014b7c      0x261 /tmp/cc85aQtd.debug.temp.o
 .debug_line    0x0000000000014ddd      0x386 /tmp/cc0MjXxc.debug.temp.o
 .debug_line    0x0000000000015163      0x175 /tmp/ccFfGydc.debug.temp.o
 .debug_line    0x00000000000152d8      0x175 /tmp/ccTymtWd.debug.temp.o
 .debug_line    0x000000000001544d      0x14c /tmp/ccVXRLpg.debug.temp.o
 .debug_line    0x0000000000015599      0x14e /tmp/ccYcVAwg.debug.temp.o
 .debug_line    0x00000000000156e7      0x14d /tmp/ccYBuefd.debug.temp.o
 .debug_line    0x0000000000015834      0x149 /tmp/ccIcHv2e.debug.temp.o
 .debug_line    0x000000000001597d      0x149 /tmp/ccOQpukc.debug.temp.o
 .debug_line    0x0000000000015ac6      0x14d /tmp/ccvPrDCe.debug.temp.o
 .debug_line    0x0000000000015c13      0x14c /tmp/cciwaS1c.debug.temp.o
 .debug_line    0x0000000000015d5f      0x332 /tmp/ccWaofZe.debug.temp.o
 .debug_line    0x0000000000016091      0x168 /tmp/ccn1PjPc.debug.temp.o
 .debug_line    0x00000000000161f9      0x186 /tmp/cc0ryYne.debug.temp.o
 .debug_line    0x000000000001637f      0x32a /tmp/ccfv3eye.debug.temp.o
 .debug_line    0x00000000000166a9      0x2eb /tmp/ccn0Mv9b.debug.temp.o
 .debug_line    0x0000000000016994      0x374 /tmp/ccXQs4Uc.debug.temp.o
 .debug_line    0x0000000000016d08      0x36c /tmp/ccXSVURf.debug.temp.o
 .debug_line    0x0000000000017074      0x36e /tmp/cchekaDf.debug.temp.o
 .debug_line    0x00000000000173e2      0x3dd /tmp/cccXUcWe.debug.temp.o
 .debug_line    0x00000000000177bf      0x34c /tmp/ccTp4LZc.debug.temp.o
 .debug_line    0x0000000000017b0b      0x36f /tmp/ccaCiTde.debug.temp.o
 .debug_line    0x0000000000017e7a      0x402 /tmp/ccbiENHc.debug.temp.o
 .debug_line    0x000000000001827c      0x42f /tmp/ccI82MPc.debug.temp.o
 .debug_line    0x00000000000186ab      0x3c3 /tmp/ccNRckYb.debug.temp.o
 .debug_line    0x0000000000018a6e      0x517 /tmp/ccIHx9gg.debug.temp.o
 .debug_line    0x0000000000018f85      0x4fa /tmp/cc49bCcd.debug.temp.o
 .debug_line    0x000000000001947f      0x4fc /tmp/ccWg0Cye.debug.temp.o
 .debug_line    0x000000000001997b      0x2b2 /tmp/cct5TkTc.debug.temp.o
 .debug_line    0x0000000000019c2d      0x4d9 /tmp/cc5zwiwe.debug.temp.o
 .debug_line    0x000000000001a106      0x575 /tmp/cctEbBKd.debug.temp.o
 .debug_line    0x000000000001a67b      0x621 /tmp/cczaTAye.debug.temp.o
 .debug_line    0x000000000001ac9c      0x5f2 /tmp/ccjS1ktc.debug.temp.o
 .debug_line    0x000000000001b28e      0x5ca /tmp/ccGKa1Re.debug.temp.o
 .debug_line    0x000000000001b858      0x53b /tmp/cckSFZed.debug.temp.o
 .debug_line    0x000000000001bd93      0x56e /tmp/ccxrLvXb.debug.temp.o
 .debug_line    0x000000000001c301      0x570 /tmp/cccH8zYd.debug.temp.o
 .debug_line    0x000000000001c871      0x560 /tmp/cc1RROdf.debug.temp.o
 .debug_line    0x000000000001cdd1      0x288 /tmp/cco8RJdf.debug.temp.o
 .debug_line    0x000000000001d059      0x290 /tmp/ccABTZYe.debug.temp.o
 .debug_line    0x000000000001d2e9      0x49a /tmp/ccGWbRDf.debug.temp.o
 .debug_line    0x000000000001d783      0x2b7 /tmp/ccrHaRoe.debug.temp.o
 .debug_line    0x000000000001da3a      0x2a3 /tmp/ccRQQQ4e.debug.temp.o
 .debug_line    0x000000000001dcdd      0x4ec /tmp/ccpRQsgd.debug.temp.o
 .debug_line    0x000000000001e1c9      0x291 /tmp/ccNSQ9Vf.debug.temp.o
 .debug_line    0x000000000001e45a      0x29a /tmp/ccTtnvhd.debug.temp.o
 .debug_line    0x000000000001e6f4      0x5e4 /tmp/ccBkLwwg.debug.temp.o
 .debug_line    0x000000000001ecd8      0x28b /tmp/cc75Zfre.debug.temp.o
 .debug_line    0x000000000001ef63      0x292 /tmp/ccunLgXc.debug.temp.o
 .debug_line    0x000000000001f1f5      0x422 /tmp/ccFqv3Uc.debug.temp.o
 .debug_line    0x000000000001f617      0x6a2 /tmp/ccUICILe.debug.temp.o
 .debug_line    0x000000000001fcb9      0x6c1 /tmp/ccG8ogPc.debug.temp.o
 .debug_line    0x000000000002037a      0x68a /tmp/cc4vlMRf.debug.temp.o
 .debug_line    0x0000000000020a04      0x681 /tmp/ccGL3Naf.debug.temp.o
 .debug_line    0x0000000000021085      0x69d /tmp/ccufjt4f.debug.temp.o
 .debug_line    0x0000000000021722      0x687 /tmp/ccfDer6c.debug.temp.o
 .debug_line    0x0000000000021da9      0x682 /tmp/cccklRtc.debug.temp.o
 .debug_line    0x000000000002242b      0x37e /tmp/ccrrYpFc.debug.temp.o
 .debug_line    0x00000000000227a9      0x6d5 /tmp/ccZtHZaf.debug.temp.o
 .debug_line    0x0000000000022e7e      0x2ac /tmp/ccsvtl6e.debug.temp.o
 .debug_line    0x000000000002312a      0x2bb /tmp/ccOKSGrc.debug.temp.o
 .debug_line    0x00000000000233e5      0x174 /tmp/ccSCr8Tc.debug.temp.o
 .debug_line    0x0000000000023559      0x175 /tmp/cc41tJce.debug.temp.o
 .debug_line    0x00000000000236ce      0x178 /tmp/ccRviuSd.debug.temp.o
 .debug_line    0x0000000000023846      0x176 /tmp/ccqvb9If.debug.temp.o
 .debug_line    0x00000000000239bc      0x174 /tmp/ccog8HLd.debug.temp.o
 .debug_line    0x0000000000023b30      0x17a /tmp/cc08s0Pf.debug.temp.o
 .debug_line    0x0000000000023caa      0x179 /tmp/cce4GIvd.debug.temp.o
 .debug_line    0x0000000000023e23      0x155 /tmp/ccVKgOcg.debug.temp.o
 .debug_line    0x0000000000023f78      0x14d /tmp/ccRPz1Ed.debug.temp.o
 .debug_line    0x00000000000240c5      0x150 /tmp/cckSWN4f.debug.temp.o
 .debug_line    0x0000000000024215      0x3a3 /tmp/cc3DnE3f.debug.temp.o
 .debug_line    0x00000000000245b8      0x343 /tmp/ccgYKf0c.debug.temp.o
 .debug_line    0x00000000000248fb      0x48d /tmp/ccSgYf3b.debug.temp.o
 .debug_line    0x0000000000024d88      0x388 /tmp/ccTJS8ce.debug.temp.o

.debug_str      0x0000000000000000    0x122fd
 .debug_str     0x0000000000000000      0x5a4 /tmp/UiApp.dll.xW15Dc.ltrans0.ltrans.o
                                        0x5ab (size before relaxing)
 .debug_str     0x00000000000005a4      0x268 /tmp/UiApp.dll.xW15Dc.ltrans1.ltrans.o
                                        0x747 (size before relaxing)
 .debug_str     0x000000000000080c     0x13e8 /tmp/ccL0M6ng.debug.temp.o
                                       0x1581 (size before relaxing)
 .debug_str     0x0000000000001bf4      0x27c /tmp/ccG0Tunc.debug.temp.o
                                        0x3a9 (size before relaxing)
 .debug_str     0x0000000000001e70       0xd5 /tmp/ccxkIdfg.debug.temp.o
                                        0x350 (size before relaxing)
 .debug_str     0x0000000000001f45       0x55 /tmp/ccb3IcHf.debug.temp.o
                                        0x344 (size before relaxing)
 .debug_str     0x0000000000001f9a      0xd77 /tmp/ccsL2Gig.debug.temp.o
                                       0x22ad (size before relaxing)
 .debug_str     0x0000000000002d11     0x1ac5 /tmp/ccnfKoTc.debug.temp.o
                                       0x3c6d (size before relaxing)
 .debug_str     0x00000000000047d6      0x14c /tmp/cc88IPsg.debug.temp.o
                                       0x2b9f (size before relaxing)
 .debug_str     0x0000000000004922       0xc0 /tmp/cc9OgZsg.debug.temp.o
                                       0x2cd2 (size before relaxing)
 .debug_str     0x00000000000049e2      0x27a /tmp/ccVbxrrf.debug.temp.o
                                       0x2d64 (size before relaxing)
 .debug_str     0x0000000000004c5c       0x73 /tmp/cc85aQtd.debug.temp.o
                                        0xc9d (size before relaxing)
 .debug_str     0x0000000000004ccf      0x997 /tmp/cc0MjXxc.debug.temp.o
                                       0x210f (size before relaxing)
 .debug_str     0x0000000000005666      0x10e /tmp/ccFfGydc.debug.temp.o
                                        0x3af (size before relaxing)
 .debug_str     0x0000000000005774       0x71 /tmp/ccTymtWd.debug.temp.o
                                        0x36a (size before relaxing)
 .debug_str     0x00000000000057e5       0xa1 /tmp/ccVXRLpg.debug.temp.o
                                        0x467 (size before relaxing)
 .debug_str     0x0000000000005886       0x4f /tmp/ccYcVAwg.debug.temp.o
                                        0x463 (size before relaxing)
 .debug_str     0x00000000000058d5      0x2bb /tmp/ccYBuefd.debug.temp.o
                                        0x822 (size before relaxing)
 .debug_str     0x0000000000005b90      0x2e1 /tmp/ccIcHv2e.debug.temp.o
                                        0x7e4 (size before relaxing)
 .debug_str     0x0000000000005e71      0x1b0 /tmp/ccOQpukc.debug.temp.o
                                        0x5e1 (size before relaxing)
 .debug_str     0x0000000000006021       0x42 /tmp/ccvPrDCe.debug.temp.o
                                        0x474 (size before relaxing)
 .debug_str     0x0000000000006063       0x41 /tmp/cciwaS1c.debug.temp.o
                                        0x467 (size before relaxing)
 .debug_str     0x00000000000060a4       0xff /tmp/ccWaofZe.debug.temp.o
                                       0x156f (size before relaxing)
 .debug_str     0x00000000000061a3      0x263 /tmp/ccn1PjPc.debug.temp.o
                                        0x59c (size before relaxing)
 .debug_str     0x0000000000006406      0x243 /tmp/cc0ryYne.debug.temp.o
                                        0x70e (size before relaxing)
 .debug_str     0x0000000000006649      0x302 /tmp/ccfv3eye.debug.temp.o
                                       0x17db (size before relaxing)
 .debug_str     0x000000000000694b      0x10e /tmp/ccn0Mv9b.debug.temp.o
                                       0x1571 (size before relaxing)
 .debug_str     0x0000000000006a59      0x144 /tmp/ccXQs4Uc.debug.temp.o
                                       0x165a (size before relaxing)
 .debug_str     0x0000000000006b9d       0xf2 /tmp/ccXSVURf.debug.temp.o
                                       0x17da (size before relaxing)
 .debug_str     0x0000000000006c8f      0x283 /tmp/cchekaDf.debug.temp.o
                                       0x1976 (size before relaxing)
 .debug_str     0x0000000000006f12      0xdb6 /tmp/cccXUcWe.debug.temp.o
                                       0x25ee (size before relaxing)
 .debug_str     0x0000000000007cc8      0x22a /tmp/ccTp4LZc.debug.temp.o
                                       0x1a3c (size before relaxing)
 .debug_str     0x0000000000007ef2      0x604 /tmp/ccaCiTde.debug.temp.o
                                       0x20b3 (size before relaxing)
 .debug_str     0x00000000000084f6       0xed /tmp/ccbiENHc.debug.temp.o
                                       0x21d2 (size before relaxing)
 .debug_str     0x00000000000085e3      0x63c /tmp/ccI82MPc.debug.temp.o
                                       0x1c2b (size before relaxing)
 .debug_str     0x0000000000008c1f      0x5c3 /tmp/ccNRckYb.debug.temp.o
                                       0x1c0a (size before relaxing)
 .debug_str     0x00000000000091e2      0xd67 /tmp/ccIHx9gg.debug.temp.o
                                       0x35eb (size before relaxing)
 .debug_str     0x0000000000009f49       0xc6 /tmp/cc49bCcd.debug.temp.o
                                       0x2452 (size before relaxing)
 .debug_str     0x000000000000a00f       0x89 /tmp/ccWg0Cye.debug.temp.o
                                       0x23c4 (size before relaxing)
 .debug_str     0x000000000000a098      0x26f /tmp/cct5TkTc.debug.temp.o
                                        0x6b5 (size before relaxing)
 .debug_str     0x000000000000a307      0x762 /tmp/cc5zwiwe.debug.temp.o
                                       0x2814 (size before relaxing)
 .debug_str     0x000000000000aa69      0x3f5 /tmp/cctEbBKd.debug.temp.o
                                       0x2b97 (size before relaxing)
 .debug_str     0x000000000000ae5e      0xfd7 /tmp/cczaTAye.debug.temp.o
                                       0x364b (size before relaxing)
 .debug_str     0x000000000000be35      0xd51 /tmp/ccjS1ktc.debug.temp.o
                                       0x42ed (size before relaxing)
 .debug_str     0x000000000000cb86      0x8c5 /tmp/ccGKa1Re.debug.temp.o
                                       0x2d46 (size before relaxing)
 .debug_str     0x000000000000d44b      0x5ee /tmp/cckSFZed.debug.temp.o
                                       0x2a4d (size before relaxing)
 .debug_str     0x000000000000da39      0x41d /tmp/ccxrLvXb.debug.temp.o
                                       0x27dd (size before relaxing)
 .debug_str     0x000000000000de56      0x27a /tmp/cccH8zYd.debug.temp.o
                                       0x251f (size before relaxing)
 .debug_str     0x000000000000e0d0      0x6eb /tmp/cc1RROdf.debug.temp.o
                                       0x253a (size before relaxing)
 .debug_str     0x000000000000e7bb       0x7e /tmp/cco8RJdf.debug.temp.o
                                        0x5a7 (size before relaxing)
 .debug_str     0x000000000000e839       0x86 /tmp/ccABTZYe.debug.temp.o
                                        0x5c2 (size before relaxing)
 .debug_str     0x000000000000e8bf      0x1be /tmp/ccGWbRDf.debug.temp.o
                                       0x1851 (size before relaxing)
 .debug_str     0x000000000000ea7d       0xa4 /tmp/ccrHaRoe.debug.temp.o
                                        0x595 (size before relaxing)
 .debug_str     0x000000000000eb21       0x90 /tmp/ccRQQQ4e.debug.temp.o
                                        0x562 (size before relaxing)
 .debug_str     0x000000000000ebb1      0x3ad /tmp/ccpRQsgd.debug.temp.o
                                       0x2a0d (size before relaxing)
 .debug_str     0x000000000000ef5e       0x84 /tmp/ccNSQ9Vf.debug.temp.o
                                        0x568 (size before relaxing)
 .debug_str     0x000000000000efe2       0x8d /tmp/ccTtnvhd.debug.temp.o
                                        0x585 (size before relaxing)
 .debug_str     0x000000000000f06f      0x50d /tmp/ccBkLwwg.debug.temp.o
                                       0x262c (size before relaxing)
 .debug_str     0x000000000000f57c       0x80 /tmp/cc75Zfre.debug.temp.o
                                        0x59f (size before relaxing)
 .debug_str     0x000000000000f5fc       0x87 /tmp/ccunLgXc.debug.temp.o
                                        0x5b8 (size before relaxing)
 .debug_str     0x000000000000f683      0x13f /tmp/ccFqv3Uc.debug.temp.o
                                       0x1787 (size before relaxing)
 .debug_str     0x000000000000f7c2      0xb1a /tmp/ccUICILe.debug.temp.o
                                       0x38bb (size before relaxing)
 .debug_str     0x00000000000102dc      0x2c6 /tmp/ccG8ogPc.debug.temp.o
                                       0x391d (size before relaxing)
 .debug_str     0x00000000000105a2      0x4e0 /tmp/cc4vlMRf.debug.temp.o
                                       0x384d (size before relaxing)
 .debug_str     0x0000000000010a82       0x56 /tmp/ccGL3Naf.debug.temp.o
                                       0x3282 (size before relaxing)
 .debug_str     0x0000000000010ad8      0x1be /tmp/ccufjt4f.debug.temp.o
                                       0x35de (size before relaxing)
 .debug_str     0x0000000000010c96      0x1da /tmp/ccfDer6c.debug.temp.o
                                       0x350e (size before relaxing)
 .debug_str     0x0000000000010e70       0x9c /tmp/cccklRtc.debug.temp.o
                                       0x3271 (size before relaxing)
 .debug_str     0x0000000000010f0c       0x9c /tmp/ccrrYpFc.debug.temp.o
                                        0x86e (size before relaxing)
 .debug_str     0x0000000000010fa8      0x170 /tmp/ccZtHZaf.debug.temp.o
                                       0x34c6 (size before relaxing)
 .debug_str     0x0000000000011118       0x96 /tmp/ccsvtl6e.debug.temp.o
                                        0x674 (size before relaxing)
 .debug_str     0x00000000000111ae       0xa5 /tmp/ccOKSGrc.debug.temp.o
                                        0x69d (size before relaxing)
 .debug_str     0x0000000000011253      0x147 /tmp/ccSCr8Tc.debug.temp.o
                                        0x480 (size before relaxing)
 .debug_str     0x000000000001139a       0x52 /tmp/cc41tJce.debug.temp.o
                                        0x352 (size before relaxing)
 .debug_str     0x00000000000113ec       0x55 /tmp/ccRviuSd.debug.temp.o
                                        0x37b (size before relaxing)
 .debug_str     0x0000000000011441       0x53 /tmp/ccqvb9If.debug.temp.o
                                        0x35a (size before relaxing)
 .debug_str     0x0000000000011494       0x59 /tmp/ccog8HLd.debug.temp.o
                                        0x35e (size before relaxing)
 .debug_str     0x00000000000114ed       0x57 /tmp/cc08s0Pf.debug.temp.o
                                        0x364 (size before relaxing)
 .debug_str     0x0000000000011544       0xb8 /tmp/cce4GIvd.debug.temp.o
                                        0x3cc (size before relaxing)
 .debug_str     0x00000000000115fc       0x5d /tmp/ccVKgOcg.debug.temp.o
                                        0x480 (size before relaxing)
 .debug_str     0x0000000000011659      0x11a /tmp/ccRPz1Ed.debug.temp.o
                                        0x573 (size before relaxing)
 .debug_str     0x0000000000011773       0xde /tmp/cckSWN4f.debug.temp.o
                                        0x50a (size before relaxing)
 .debug_str     0x0000000000011851      0x278 /tmp/cc3DnE3f.debug.temp.o
                                       0x2176 (size before relaxing)
 .debug_str     0x0000000000011ac9      0x15f /tmp/ccgYKf0c.debug.temp.o
                                       0x1a71 (size before relaxing)
 .debug_str     0x0000000000011c28      0x3e5 /tmp/ccSgYf3b.debug.temp.o
                                       0x1f15 (size before relaxing)
 .debug_str     0x000000000001200d      0x2f0 /tmp/ccTJS8ce.debug.temp.o
                                       0x1887 (size before relaxing)

.debug_frame    0x0000000000000000     0x35a8
 .debug_frame   0x0000000000000000     0x1a98 /tmp/UiApp.dll.xW15Dc.ltrans0.ltrans.o
 .debug_frame   0x0000000000001a98     0x1b10 /tmp/UiApp.dll.xW15Dc.ltrans1.ltrans.o
