Archive member included to satisfy reference by file (symbol)

/home/alastair/pftf-rpi4/Build/RPi4/DEBUG_GCC5/AARCH64/MdePkg/Library/UefiDriverEntryPoint/UefiDriverEntryPoint/OUTPUT/UefiDriverEntryPoint.lib(DriverEntryPoint.obj)
                              (_ModuleEntryPoint)
/home/alastair/pftf-rpi4/Build/RPi4/DEBUG_GCC5/AARCH64/MdePkg/Library/BaseStackCheckLib/BaseStackCheckLib/OUTPUT/BaseStackCheckLib.lib(BaseStackCheckGcc.obj)
                              /home/alastair/pftf-rpi4/edk2/ArmPkg/Library/GccLto/liblto-aarch64.a (__stack_chk_fail)
/home/alastair/pftf-rpi4/Build/RPi4/DEBUG_GCC5/AARCH64/ArmPkg/Library/CompilerIntrinsicsLib/CompilerIntrinsicsLib/OUTPUT/CompilerIntrinsicsLib.lib(memcpy.obj)
                              /home/alastair/pftf-rpi4/edk2/ArmPkg/Library/GccLto/liblto-aarch64.a (memcpy)
/home/alastair/pftf-rpi4/Build/RPi4/DEBUG_GCC5/AARCH64/ArmPkg/Library/CompilerIntrinsicsLib/CompilerIntrinsicsLib/OUTPUT/CompilerIntrinsicsLib.lib(memset.obj)
                              /home/alastair/pftf-rpi4/edk2/ArmPkg/Library/GccLto/liblto-aarch64.a (memset)
/home/alastair/pftf-rpi4/Build/RPi4/DEBUG_GCC5/AARCH64/MdeModulePkg/Universal/BdsDxe/BdsDxe/OUTPUT/BdsDxe.lib(AutoGen.obj)
                              DriverEntryPoint.obj (symbol from plugin) (ProcessLibraryConstructorList)
/home/alastair/pftf-rpi4/Build/RPi4/DEBUG_GCC5/AARCH64/MdeModulePkg/Universal/BdsDxe/BdsDxe/OUTPUT/BdsDxe.lib(BdsEntry.obj)
                              AutoGen.obj (symbol from plugin) (BdsInitialize)
/home/alastair/pftf-rpi4/Build/RPi4/DEBUG_GCC5/AARCH64/MdeModulePkg/Universal/BdsDxe/BdsDxe/OUTPUT/BdsDxe.lib(HwErrRecSupport.obj)
                              BdsEntry.obj (symbol from plugin) (InitializeHwErrRecSupport)
/home/alastair/pftf-rpi4/Build/RPi4/DEBUG_GCC5/AARCH64/MdeModulePkg/Universal/BdsDxe/BdsDxe/OUTPUT/BdsDxe.lib(Language.obj)
                              BdsEntry.obj (symbol from plugin) (InitializeLanguage)
/home/alastair/pftf-rpi4/Build/RPi4/DEBUG_GCC5/AARCH64/MdePkg/Library/DxePcdLib/DxePcdLib/OUTPUT/DxePcdLib.lib(DxePcdLib.obj)
                              BdsEntry.obj (symbol from plugin) (LibPcdGet16)
/home/alastair/pftf-rpi4/Build/RPi4/DEBUG_GCC5/AARCH64/MdePkg/Library/BaseMemoryLibOptDxe/BaseMemoryLibOptDxe/OUTPUT/BaseMemoryLibOptDxe.lib(MemLibGuid.obj)
                              BdsEntry.obj (symbol from plugin) (CopyGuid)
/home/alastair/pftf-rpi4/Build/RPi4/DEBUG_GCC5/AARCH64/MdePkg/Library/BaseMemoryLibOptDxe/BaseMemoryLibOptDxe/OUTPUT/BaseMemoryLibOptDxe.lib(CopyMemWrapper.obj)
                              BdsEntry.obj (symbol from plugin) (CopyMem)
/home/alastair/pftf-rpi4/Build/RPi4/DEBUG_GCC5/AARCH64/MdePkg/Library/BaseMemoryLibOptDxe/BaseMemoryLibOptDxe/OUTPUT/BaseMemoryLibOptDxe.lib(CopyMem.obj)
                              MemLibGuid.obj (symbol from plugin) (InternalMemCopyMem)
/home/alastair/pftf-rpi4/Build/RPi4/DEBUG_GCC5/AARCH64/MdePkg/Library/BaseMemoryLibOptDxe/BaseMemoryLibOptDxe/OUTPUT/BaseMemoryLibOptDxe.lib(CompareGuid.obj)
                              MemLibGuid.obj (symbol from plugin) (InternalMemCompareGuid)
/home/alastair/pftf-rpi4/Build/RPi4/DEBUG_GCC5/AARCH64/MdePkg/Library/BaseLib/BaseLib/OUTPUT/BaseLib.lib(MultU64x32.obj)
                              BdsEntry.obj (symbol from plugin) (MultU64x32)
/home/alastair/pftf-rpi4/Build/RPi4/DEBUG_GCC5/AARCH64/MdePkg/Library/BaseLib/BaseLib/OUTPUT/BaseLib.lib(LowBitSet32.obj)
                              BdsEntry.obj (symbol from plugin) (LowBitSet32)
/home/alastair/pftf-rpi4/Build/RPi4/DEBUG_GCC5/AARCH64/MdePkg/Library/BaseLib/BaseLib/OUTPUT/BaseLib.lib(CpuDeadLoop.obj)
                              BaseStackCheckGcc.obj (symbol from plugin) (CpuDeadLoop)
/home/alastair/pftf-rpi4/Build/RPi4/DEBUG_GCC5/AARCH64/MdePkg/Library/BaseLib/BaseLib/OUTPUT/BaseLib.lib(String.obj)
                              BdsEntry.obj (symbol from plugin) (StrSize)
/home/alastair/pftf-rpi4/Build/RPi4/DEBUG_GCC5/AARCH64/MdePkg/Library/BaseLib/BaseLib/OUTPUT/BaseLib.lib(Math64.obj)
                              MultU64x32.obj (symbol from plugin) (InternalMathMultU64x32)
/home/alastair/pftf-rpi4/Build/RPi4/DEBUG_GCC5/AARCH64/MdePkg/Library/BaseLib/BaseLib/OUTPUT/BaseLib.lib(CpuBreakpoint.obj)
                              BaseStackCheckGcc.obj (symbol from plugin) (CpuBreakpoint)
/home/alastair/pftf-rpi4/Build/RPi4/DEBUG_GCC5/AARCH64/MdePkg/Library/BaseLib/BaseLib/OUTPUT/BaseLib.lib(SwapBytes32.obj)
                              Math64.obj (symbol from plugin) (SwapBytes32)
/home/alastair/pftf-rpi4/Build/RPi4/DEBUG_GCC5/AARCH64/MdePkg/Library/BaseLib/BaseLib/OUTPUT/BaseLib.lib(SwapBytes16.obj)
                              SwapBytes32.obj (symbol from plugin) (SwapBytes16)
/home/alastair/pftf-rpi4/Build/RPi4/DEBUG_GCC5/AARCH64/MdePkg/Library/BaseLib/BaseLib/OUTPUT/BaseLib.lib(SafeString.obj)
                              String.obj (symbol from plugin) (StrDecimalToUintnS)
/home/alastair/pftf-rpi4/Build/RPi4/DEBUG_GCC5/AARCH64/MdePkg/Library/BaseLib/BaseLib/OUTPUT/BaseLib.lib(RShiftU64.obj)
                              SafeString.obj (symbol from plugin) (RShiftU64)
/home/alastair/pftf-rpi4/Build/RPi4/DEBUG_GCC5/AARCH64/MdePkg/Library/BaseLib/BaseLib/OUTPUT/BaseLib.lib(LShiftU64.obj)
                              SafeString.obj (symbol from plugin) (LShiftU64)
/home/alastair/pftf-rpi4/Build/RPi4/DEBUG_GCC5/AARCH64/MdePkg/Library/BaseLib/BaseLib/OUTPUT/BaseLib.lib(DivU64x32.obj)
                              SafeString.obj (symbol from plugin) (DivU64x32)
/home/alastair/pftf-rpi4/Build/RPi4/DEBUG_GCC5/AARCH64/MdePkg/Library/BasePrintLib/BasePrintLib/OUTPUT/BasePrintLib.lib(PrintLib.obj)
                              BdsEntry.obj (symbol from plugin) (UnicodeSPrint)
/home/alastair/pftf-rpi4/Build/RPi4/DEBUG_GCC5/AARCH64/MdePkg/Library/BasePrintLib/BasePrintLib/OUTPUT/BasePrintLib.lib(PrintLibInternal.obj)
                              PrintLib.obj (symbol from plugin) (BasePrintLibConvertValueToStringS)
/home/alastair/pftf-rpi4/Build/RPi4/DEBUG_GCC5/AARCH64/MdePkg/Library/BaseDebugLibSerialPort/BaseDebugLibSerialPort/OUTPUT/BaseDebugLibSerialPort.lib(DebugLib.obj)
                              AutoGen.obj (symbol from plugin) (BaseDebugLibSerialPortConstructor)
/home/alastair/pftf-rpi4/Build/RPi4/DEBUG_GCC5/AARCH64/MdePkg/Library/UefiBootServicesTableLib/UefiBootServicesTableLib/OUTPUT/UefiBootServicesTableLib.lib(UefiBootServicesTableLib.obj)
                              AutoGen.obj (symbol from plugin) (UefiBootServicesTableLibConstructor)
/home/alastair/pftf-rpi4/Build/RPi4/DEBUG_GCC5/AARCH64/MdePkg/Library/UefiMemoryAllocationLib/UefiMemoryAllocationLib/OUTPUT/UefiMemoryAllocationLib.lib(MemoryAllocationLib.obj)
                              BdsEntry.obj (symbol from plugin) (AllocatePool)
/home/alastair/pftf-rpi4/Build/RPi4/DEBUG_GCC5/AARCH64/MdePkg/Library/UefiRuntimeServicesTableLib/UefiRuntimeServicesTableLib/OUTPUT/UefiRuntimeServicesTableLib.lib(UefiRuntimeServicesTableLib.obj)
                              AutoGen.obj (symbol from plugin) (UefiRuntimeServicesTableLibConstructor)
/home/alastair/pftf-rpi4/Build/RPi4/DEBUG_GCC5/AARCH64/MdePkg/Library/UefiDevicePathLib/UefiDevicePathLib/OUTPUT/UefiDevicePathLib.lib(DevicePathUtilities.obj)
                              BdsEntry.obj (symbol from plugin) (IsDevicePathValid)
/home/alastair/pftf-rpi4/Build/RPi4/DEBUG_GCC5/AARCH64/MdePkg/Library/UefiDevicePathLib/UefiDevicePathLib/OUTPUT/UefiDevicePathLib.lib(DevicePathUtilitiesDxeSmm.obj)
                              DevicePathUtilities.obj (symbol from plugin) (DevicePathFromHandle)
/home/alastair/pftf-rpi4/Build/RPi4/DEBUG_GCC5/AARCH64/MdePkg/Library/UefiDevicePathLib/UefiDevicePathLib/OUTPUT/UefiDevicePathLib.lib(UefiDevicePathLib.obj)
                              DevicePathUtilities.obj (symbol from plugin) (GetDevicePathSize)
/home/alastair/pftf-rpi4/Build/RPi4/DEBUG_GCC5/AARCH64/MdePkg/Library/UefiDevicePathLib/UefiDevicePathLib/OUTPUT/UefiDevicePathLib.lib(DevicePathToText.obj)
                              UefiDevicePathLib.obj (symbol from plugin) (UefiDevicePathLibConvertDeviceNodeToText)
/home/alastair/pftf-rpi4/Build/RPi4/DEBUG_GCC5/AARCH64/MdePkg/Library/UefiDevicePathLib/UefiDevicePathLib/OUTPUT/UefiDevicePathLib.lib(DevicePathFromText.obj)
                              UefiDevicePathLib.obj (symbol from plugin) (UefiDevicePathLibConvertTextToDeviceNode)
/home/alastair/pftf-rpi4/Build/RPi4/DEBUG_GCC5/AARCH64/MdeModulePkg/Library/UefiHiiServicesLib/UefiHiiServicesLib/OUTPUT/UefiHiiServicesLib.lib(UefiHiiServicesLib.obj)
                              AutoGen.obj (symbol from plugin) (UefiHiiServicesLibConstructor)
/home/alastair/pftf-rpi4/Build/RPi4/DEBUG_GCC5/AARCH64/MdePkg/Library/UefiLib/UefiLib/OUTPUT/UefiLib.lib(UefiLibPrint.obj)
                              BdsEntry.obj (symbol from plugin) (Print)
/home/alastair/pftf-rpi4/Build/RPi4/DEBUG_GCC5/AARCH64/MdePkg/Library/UefiLib/UefiLib/OUTPUT/UefiLib.lib(UefiLib.obj)
                              AutoGen.obj (symbol from plugin) (UefiLibConstructor)
/home/alastair/pftf-rpi4/Build/RPi4/DEBUG_GCC5/AARCH64/MdePkg/Library/DxeServicesTableLib/DxeServicesTableLib/OUTPUT/DxeServicesTableLib.lib(DxeServicesTableLib.obj)
                              AutoGen.obj (symbol from plugin) (DxeServicesTableLibConstructor)
/home/alastair/pftf-rpi4/Build/RPi4/DEBUG_GCC5/AARCH64/MdeModulePkg/Library/DxePerformanceLib/DxePerformanceLib/OUTPUT/DxePerformanceLib.lib(DxePerformanceLib.obj)
                              BdsEntry.obj (symbol from plugin) (LogPerformanceMeasurement)
/home/alastair/pftf-rpi4/Build/RPi4/DEBUG_GCC5/AARCH64/MdePkg/Library/DxeHobLib/DxeHobLib/OUTPUT/DxeHobLib.lib(HobLib.obj)
                              AutoGen.obj (symbol from plugin) (HobLibConstructor)
/home/alastair/pftf-rpi4/Build/RPi4/DEBUG_GCC5/AARCH64/MdePkg/Library/BaseReportStatusCodeLibNull/BaseReportStatusCodeLibNull/OUTPUT/BaseReportStatusCodeLibNull.lib(BaseReportStatusCodeLib.obj)
                              BdsEntry.obj (symbol from plugin) (ReportStatusCode)
/home/alastair/pftf-rpi4/Build/RPi4/DEBUG_GCC5/AARCH64/MdeModulePkg/Library/UefiBootManagerLib/UefiBootManagerLib/OUTPUT/UefiBootManagerLib.lib(BmConnect.obj)
                              BdsEntry.obj (symbol from plugin) (EfiBootManagerConnectAll)
/home/alastair/pftf-rpi4/Build/RPi4/DEBUG_GCC5/AARCH64/MdeModulePkg/Library/UefiBootManagerLib/UefiBootManagerLib/OUTPUT/UefiBootManagerLib.lib(BmConsole.obj)
                              BdsEntry.obj (symbol from plugin) (EfiBootManagerConnectConsoleVariable)
/home/alastair/pftf-rpi4/Build/RPi4/DEBUG_GCC5/AARCH64/MdeModulePkg/Library/UefiBootManagerLib/UefiBootManagerLib/OUTPUT/UefiBootManagerLib.lib(BmBoot.obj)
                              BdsEntry.obj (symbol from plugin) (EfiBootManagerBoot)
/home/alastair/pftf-rpi4/Build/RPi4/DEBUG_GCC5/AARCH64/MdeModulePkg/Library/UefiBootManagerLib/UefiBootManagerLib/OUTPUT/UefiBootManagerLib.lib(BmBootDescription.obj)
                              BmBoot.obj (symbol from plugin) (BmGetBootDescription)
/home/alastair/pftf-rpi4/Build/RPi4/DEBUG_GCC5/AARCH64/MdeModulePkg/Library/UefiBootManagerLib/UefiBootManagerLib/OUTPUT/UefiBootManagerLib.lib(BmLoadOption.obj)
                              BmBoot.obj (symbol from plugin) (mBmLoadOptionName)
/home/alastair/pftf-rpi4/Build/RPi4/DEBUG_GCC5/AARCH64/MdeModulePkg/Library/UefiBootManagerLib/UefiBootManagerLib/OUTPUT/UefiBootManagerLib.lib(BmHotkey.obj)
                              BdsEntry.obj (symbol from plugin) (EfiBootManagerHotkeyBoot)
/home/alastair/pftf-rpi4/Build/RPi4/DEBUG_GCC5/AARCH64/MdeModulePkg/Library/UefiBootManagerLib/UefiBootManagerLib/OUTPUT/UefiBootManagerLib.lib(BmDriverHealth.obj)
                              BmBoot.obj (symbol from plugin) (BmRepairAllControllers)
/home/alastair/pftf-rpi4/Build/RPi4/DEBUG_GCC5/AARCH64/MdeModulePkg/Library/UefiBootManagerLib/UefiBootManagerLib/OUTPUT/UefiBootManagerLib.lib(BmMisc.obj)
                              BmConsole.obj (symbol from plugin) (BmDelPartMatchInstance)
/home/alastair/pftf-rpi4/Build/RPi4/DEBUG_GCC5/AARCH64/Platform/RaspberryPi/Library/PlatformBootManagerLib/PlatformBootManagerLib/OUTPUT/PlatformBootManagerLib.lib(PlatformBm.obj)
                              BdsEntry.obj (symbol from plugin) (PlatformBootManagerBeforeConsole)
/home/alastair/pftf-rpi4/Build/RPi4/DEBUG_GCC5/AARCH64/MdePkg/Library/BaseMemoryLibOptDxe/BaseMemoryLibOptDxe/OUTPUT/BaseMemoryLibOptDxe.lib(ZeroMemWrapper.obj)
                              SafeString.obj (symbol from plugin) (ZeroMem)
/home/alastair/pftf-rpi4/Build/RPi4/DEBUG_GCC5/AARCH64/MdePkg/Library/BaseMemoryLibOptDxe/BaseMemoryLibOptDxe/OUTPUT/BaseMemoryLibOptDxe.lib(CompareMemWrapper.obj)
                              BmBoot.obj (symbol from plugin) (CompareMem)
/home/alastair/pftf-rpi4/Build/RPi4/DEBUG_GCC5/AARCH64/MdePkg/Library/BaseMemoryLibOptDxe/BaseMemoryLibOptDxe/OUTPUT/BaseMemoryLibOptDxe.lib(SetMemWrapper.obj)
                              DebugLib.obj (symbol from plugin) (SetMem)
/home/alastair/pftf-rpi4/Build/RPi4/DEBUG_GCC5/AARCH64/MdePkg/Library/BaseMemoryLibOptDxe/BaseMemoryLibOptDxe/OUTPUT/BaseMemoryLibOptDxe.lib(SetMem.obj)
                              ZeroMemWrapper.obj (symbol from plugin) (InternalMemZeroMem)
/home/alastair/pftf-rpi4/Build/RPi4/DEBUG_GCC5/AARCH64/MdePkg/Library/BaseMemoryLibOptDxe/BaseMemoryLibOptDxe/OUTPUT/BaseMemoryLibOptDxe.lib(CompareMem.obj)
                              CompareMemWrapper.obj (symbol from plugin) (InternalMemCompareMem)
/home/alastair/pftf-rpi4/Build/RPi4/DEBUG_GCC5/AARCH64/MdePkg/Library/BaseMemoryLibOptDxe/BaseMemoryLibOptDxe/OUTPUT/BaseMemoryLibOptDxe.lib(SetMem64Wrapper.obj)
                              SetMemWrapper.obj (symbol from plugin) (SetMem64)
/home/alastair/pftf-rpi4/Build/RPi4/DEBUG_GCC5/AARCH64/MdePkg/Library/BaseLib/BaseLib/OUTPUT/BaseLib.lib(SwapBytes64.obj)
                              DevicePathFromText.obj (symbol from plugin) (SwapBytes64)
/home/alastair/pftf-rpi4/Build/RPi4/DEBUG_GCC5/AARCH64/MdePkg/Library/BaseLib/BaseLib/OUTPUT/BaseLib.lib(DivU64x32Remainder.obj)
                              PrintLibInternal.obj (symbol from plugin) (DivU64x32Remainder)
/home/alastair/pftf-rpi4/Build/RPi4/DEBUG_GCC5/AARCH64/MdePkg/Library/BaseLib/BaseLib/OUTPUT/BaseLib.lib(LinkedList.obj)
                              BmBootDescription.obj (symbol from plugin) (InsertTailList)
/home/alastair/pftf-rpi4/Build/RPi4/DEBUG_GCC5/AARCH64/MdePkg/Library/BaseLib/BaseLib/OUTPUT/BaseLib.lib(Unaligned.obj)
                              PrintLibInternal.obj (symbol from plugin) (ReadUnaligned16)
/home/alastair/pftf-rpi4/Build/RPi4/DEBUG_GCC5/AARCH64/MdePkg/Library/BaseDebugPrintErrorLevelLib/BaseDebugPrintErrorLevelLib/OUTPUT/BaseDebugPrintErrorLevelLib.lib(BaseDebugPrintErrorLevelLib.obj)
                              DebugLib.obj (symbol from plugin) (GetDebugPrintErrorLevel)
/home/alastair/pftf-rpi4/Build/RPi4/DEBUG_GCC5/AARCH64/Platform/RaspberryPi/Library/DualSerialPortLib/DebugDualSerialPortLib/OUTPUT/DebugDualSerialPortLib.lib(DebugDualSerialPortLib.obj)
                              DebugLib.obj (symbol from plugin) (SerialPortInitialize)
/home/alastair/pftf-rpi4/Build/RPi4/DEBUG_GCC5/AARCH64/Platform/RaspberryPi/Library/DualSerialPortLib/DebugDualSerialPortLib/OUTPUT/DebugDualSerialPortLib.lib(DualSerialPortLibCommon.obj)
                              DebugLib.obj (symbol from plugin) (SerialPortWrite)
/home/alastair/pftf-rpi4/Build/RPi4/DEBUG_GCC5/AARCH64/MdePkg/Library/UefiLib/UefiLib/OUTPUT/UefiLib.lib(UefiNotTiano.obj)
                              BmBoot.obj (symbol from plugin) (EfiCreateEventLegacyBootEx)
/home/alastair/pftf-rpi4/Build/RPi4/DEBUG_GCC5/AARCH64/MdeModulePkg/Library/UefiSortLib/UefiSortLib/OUTPUT/UefiSortLib.lib(UefiSortLib.obj)
                              BmLoadOption.obj (symbol from plugin) (PerformQuickSort)
/home/alastair/pftf-rpi4/Build/RPi4/DEBUG_GCC5/AARCH64/MdeModulePkg/Library/UefiHiiLib/UefiHiiLib/OUTPUT/UefiHiiLib.lib(HiiLib.obj)
                              BmDriverHealth.obj (symbol from plugin) (HiiGetHiiHandles)
/home/alastair/pftf-rpi4/Build/RPi4/DEBUG_GCC5/AARCH64/MdeModulePkg/Library/UefiHiiLib/UefiHiiLib/OUTPUT/UefiHiiLib.lib(HiiString.obj)
                              BmDriverHealth.obj (symbol from plugin) (HiiGetString)
/home/alastair/pftf-rpi4/Build/RPi4/DEBUG_GCC5/AARCH64/MdeModulePkg/Library/UefiHiiLib/UefiHiiLib/OUTPUT/UefiHiiLib.lib(HiiLanguage.obj)
                              HiiString.obj (symbol from plugin) (HiiGetSupportedLanguages)
/home/alastair/pftf-rpi4/Build/RPi4/DEBUG_GCC5/AARCH64/MdePkg/Library/DxeServicesLib/DxeServicesLib/OUTPUT/DxeServicesLib.lib(DxeServicesLib.obj)
                              BmBoot.obj (symbol from plugin) (GetSectionFromFv)
/home/alastair/pftf-rpi4/Build/RPi4/DEBUG_GCC5/AARCH64/MdeModulePkg/Library/DxeCapsuleLibNull/DxeCapsuleLibNull/OUTPUT/DxeCapsuleLibNull.lib(DxeCapsuleLibNull.obj)
                              PlatformBm.obj (symbol from plugin) (ProcessCapsules)
/home/alastair/pftf-rpi4/Build/RPi4/DEBUG_GCC5/AARCH64/MdeModulePkg/Library/BootLogoLib/BootLogoLib/OUTPUT/BootLogoLib.lib(BootLogoLib.obj)
                              PlatformBm.obj (symbol from plugin) (BootLogoEnableLogo)
/home/alastair/pftf-rpi4/Build/RPi4/DEBUG_GCC5/AARCH64/MdePkg/Library/BaseLib/BaseLib/OUTPUT/BaseLib.lib(BitField.obj)
                              HiiLib.obj (symbol from plugin) (BitFieldRead32)
/home/alastair/pftf-rpi4/Build/RPi4/DEBUG_GCC5/AARCH64/MdePkg/Library/BaseIoLibIntrinsic/BaseIoLibIntrinsic/OUTPUT/BaseIoLibIntrinsic.lib(IoLibNoIo.obj)
                              DualSerialPortLibCommon.obj (symbol from plugin) (MmioRead8)
/home/alastair/pftf-rpi4/Build/RPi4/DEBUG_GCC5/AARCH64/ArmPlatformPkg/Library/PL011UartLib/PL011UartLib/OUTPUT/PL011UartLib.lib(PL011UartLib.obj)
                              DualSerialPortLibCommon.obj (symbol from plugin) (PL011UartWrite)

Discarded input sections

 .text          0x0000000000000000       0x10 /home/alastair/pftf-rpi4/edk2/ArmPkg/Library/GccLto/liblto-aarch64.a
 .data          0x0000000000000000        0x0 /home/alastair/pftf-rpi4/edk2/ArmPkg/Library/GccLto/liblto-aarch64.a
 .bss           0x0000000000000000        0x0 /home/alastair/pftf-rpi4/edk2/ArmPkg/Library/GccLto/liblto-aarch64.a
 .text          0x0000000000000000        0x0 /tmp/BdsDxe.dll.Ow19WE.ltrans0.ltrans.o
 .data          0x0000000000000000        0x0 /tmp/BdsDxe.dll.Ow19WE.ltrans0.ltrans.o
 .bss           0x0000000000000000        0x0 /tmp/BdsDxe.dll.Ow19WE.ltrans0.ltrans.o
 .rodata.DivU64x32.constprop.0.str1.1
                0x0000000000000000       0x4e /tmp/BdsDxe.dll.Ow19WE.ltrans0.ltrans.o
 .text.DivU64x32.constprop.0
                0x0000000000000000       0x40 /tmp/BdsDxe.dll.Ow19WE.ltrans0.ltrans.o
 .rodata.IsNodeInList.str1.1
                0x0000000000000000       0x44 /tmp/BdsDxe.dll.Ow19WE.ltrans0.ltrans.o
 .text.IsNodeInList
                0x0000000000000000       0xa0 /tmp/BdsDxe.dll.Ow19WE.ltrans0.ltrans.o
 .text.ReportStatusCodeEx.constprop.0
                0x0000000000000000        0x8 /tmp/BdsDxe.dll.Ow19WE.ltrans0.ltrans.o
 .text.ReportStatusCode.constprop.0
                0x0000000000000000        0x8 /tmp/BdsDxe.dll.Ow19WE.ltrans0.ltrans.o
 .data.gEfiUgaDrawProtocolGuid
                0x0000000000000000       0x10 /tmp/BdsDxe.dll.Ow19WE.ltrans0.ltrans.o
 .rodata._gDriverUnloadImageCount
                0x0000000000000000        0x1 /tmp/BdsDxe.dll.Ow19WE.ltrans0.ltrans.o
 .rodata._gPcd_FixedAtBuild_PcdDebugPropertyMask
                0x0000000000000000        0x1 /tmp/BdsDxe.dll.Ow19WE.ltrans0.ltrans.o
 .rodata._gPcd_FixedAtBuild_PcdFixedDebugPrintErrorLevel
                0x0000000000000000        0x4 /tmp/BdsDxe.dll.Ow19WE.ltrans0.ltrans.o
 .rodata._gPcd_FixedAtBuild_PcdMaximumUnicodeStringLength
                0x0000000000000000        0x4 /tmp/BdsDxe.dll.Ow19WE.ltrans0.ltrans.o
 .rodata._gPcd_FixedAtBuild_PcdPerformanceLibraryPropertyMask
                0x0000000000000000        0x1 /tmp/BdsDxe.dll.Ow19WE.ltrans0.ltrans.o
 .rodata._gPcd_FixedAtBuild_PcdUefiLibMaxPrintBufferSize
                0x0000000000000000        0x4 /tmp/BdsDxe.dll.Ow19WE.ltrans0.ltrans.o
 .rodata._gUefiDriverRevision
                0x0000000000000000        0x4 /tmp/BdsDxe.dll.Ow19WE.ltrans0.ltrans.o
 .comment       0x0000000000000000       0x2b /tmp/BdsDxe.dll.Ow19WE.ltrans0.ltrans.o
 .note.GNU-stack
                0x0000000000000000        0x0 /tmp/BdsDxe.dll.Ow19WE.ltrans0.ltrans.o
 .text          0x0000000000000000        0x0 /tmp/BdsDxe.dll.Ow19WE.ltrans1.ltrans.o
 .data          0x0000000000000000        0x0 /tmp/BdsDxe.dll.Ow19WE.ltrans1.ltrans.o
 .bss           0x0000000000000000        0x0 /tmp/BdsDxe.dll.Ow19WE.ltrans1.ltrans.o
 .text._DriverUnloadHandler
                0x0000000000000000        0x8 /tmp/BdsDxe.dll.Ow19WE.ltrans1.ltrans.o
 .rodata.BdsDxeOnConnectConInCallBack.str1.1
                0x0000000000000000       0x24 /tmp/BdsDxe.dll.Ow19WE.ltrans1.ltrans.o
 .text.BdsDxeOnConnectConInCallBack
                0x0000000000000000       0x50 /tmp/BdsDxe.dll.Ow19WE.ltrans1.ltrans.o
 .text.__memset
                0x0000000000000000       0x1c /tmp/BdsDxe.dll.Ow19WE.ltrans1.ltrans.o
 .comment       0x0000000000000000       0x2b /tmp/BdsDxe.dll.Ow19WE.ltrans1.ltrans.o
 .note.GNU-stack
                0x0000000000000000        0x0 /tmp/BdsDxe.dll.Ow19WE.ltrans1.ltrans.o
 .comment       0x0000000000000000       0x2b /tmp/ccsn2mmD.debug.temp.o
 .note.GNU-stack
                0x0000000000000000        0x0 /tmp/ccsn2mmD.debug.temp.o
 .comment       0x0000000000000000       0x2b /tmp/ccmtUXWB.debug.temp.o
 .note.GNU-stack
                0x0000000000000000        0x0 /tmp/ccmtUXWB.debug.temp.o
 .comment       0x0000000000000000       0x2b /tmp/ccaeybYE.debug.temp.o
 .note.GNU-stack
                0x0000000000000000        0x0 /tmp/ccaeybYE.debug.temp.o
 .comment       0x0000000000000000       0x2b /tmp/ccVJlxND.debug.temp.o
 .note.GNU-stack
                0x0000000000000000        0x0 /tmp/ccVJlxND.debug.temp.o
 .comment       0x0000000000000000       0x2b /tmp/ccaG22UC.debug.temp.o
 .note.GNU-stack
                0x0000000000000000        0x0 /tmp/ccaG22UC.debug.temp.o
 .comment       0x0000000000000000       0x2b /tmp/ccGKbAJC.debug.temp.o
 .note.GNU-stack
                0x0000000000000000        0x0 /tmp/ccGKbAJC.debug.temp.o
 .comment       0x0000000000000000       0x2b /tmp/ccuEsFhD.debug.temp.o
 .note.GNU-stack
                0x0000000000000000        0x0 /tmp/ccuEsFhD.debug.temp.o
 .comment       0x0000000000000000       0x2b /tmp/cc2UddLD.debug.temp.o
 .note.GNU-stack
                0x0000000000000000        0x0 /tmp/cc2UddLD.debug.temp.o
 .comment       0x0000000000000000       0x2b /tmp/ccpfxmMD.debug.temp.o
 .note.GNU-stack
                0x0000000000000000        0x0 /tmp/ccpfxmMD.debug.temp.o
 .comment       0x0000000000000000       0x2b /tmp/ccm556ZB.debug.temp.o
 .note.GNU-stack
                0x0000000000000000        0x0 /tmp/ccm556ZB.debug.temp.o
 .comment       0x0000000000000000       0x2b /tmp/ccsx7ZJD.debug.temp.o
 .note.GNU-stack
                0x0000000000000000        0x0 /tmp/ccsx7ZJD.debug.temp.o
 .comment       0x0000000000000000       0x2b /tmp/cchfOsZC.debug.temp.o
 .note.GNU-stack
                0x0000000000000000        0x0 /tmp/cchfOsZC.debug.temp.o
 .comment       0x0000000000000000       0x2b /tmp/ccjOrVtA.debug.temp.o
 .note.GNU-stack
                0x0000000000000000        0x0 /tmp/ccjOrVtA.debug.temp.o
 .comment       0x0000000000000000       0x2b /tmp/ccY7rvbB.debug.temp.o
 .note.GNU-stack
                0x0000000000000000        0x0 /tmp/ccY7rvbB.debug.temp.o
 .comment       0x0000000000000000       0x2b /tmp/ccx8vEwA.debug.temp.o
 .note.GNU-stack
                0x0000000000000000        0x0 /tmp/ccx8vEwA.debug.temp.o
 .comment       0x0000000000000000       0x2b /tmp/ccuaMKFA.debug.temp.o
 .note.GNU-stack
                0x0000000000000000        0x0 /tmp/ccuaMKFA.debug.temp.o
 .debug_info    0x0000000000000000      0x1db /tmp/ccl8UxvA.debug.temp.o
 .debug_abbrev  0x0000000000000000       0xc0 /tmp/ccl8UxvA.debug.temp.o
 .debug_line    0x0000000000000000      0x14c /tmp/ccl8UxvA.debug.temp.o
 .debug_str     0x0000000000000000      0x472 /tmp/ccl8UxvA.debug.temp.o
 .comment       0x0000000000000000       0x2b /tmp/ccl8UxvA.debug.temp.o
 .note.GNU-stack
                0x0000000000000000        0x0 /tmp/ccl8UxvA.debug.temp.o
 .debug_info    0x0000000000000000      0x1c3 /tmp/ccyvdh5E.debug.temp.o
 .debug_abbrev  0x0000000000000000       0xb1 /tmp/ccyvdh5E.debug.temp.o
 .debug_line    0x0000000000000000      0x14c /tmp/ccyvdh5E.debug.temp.o
 .debug_str     0x0000000000000000      0x45b /tmp/ccyvdh5E.debug.temp.o
 .comment       0x0000000000000000       0x2b /tmp/ccyvdh5E.debug.temp.o
 .note.GNU-stack
                0x0000000000000000        0x0 /tmp/ccyvdh5E.debug.temp.o
 .comment       0x0000000000000000       0x2b /tmp/cc4pAN7C.debug.temp.o
 .note.GNU-stack
                0x0000000000000000        0x0 /tmp/cc4pAN7C.debug.temp.o
 .debug_info    0x0000000000000000      0x1db /tmp/cc4ojRyA.debug.temp.o
 .debug_abbrev  0x0000000000000000       0xb1 /tmp/cc4ojRyA.debug.temp.o
 .debug_line    0x0000000000000000      0x14a /tmp/cc4ojRyA.debug.temp.o
 .debug_str     0x0000000000000000      0x465 /tmp/cc4ojRyA.debug.temp.o
 .comment       0x0000000000000000       0x2b /tmp/cc4ojRyA.debug.temp.o
 .note.GNU-stack
                0x0000000000000000        0x0 /tmp/cc4ojRyA.debug.temp.o
 .comment       0x0000000000000000       0x2b /tmp/cc2RoCXC.debug.temp.o
 .note.GNU-stack
                0x0000000000000000        0x0 /tmp/cc2RoCXC.debug.temp.o
 .comment       0x0000000000000000       0x2b /tmp/cckz5i4C.debug.temp.o
 .note.GNU-stack
                0x0000000000000000        0x0 /tmp/cckz5i4C.debug.temp.o
 .comment       0x0000000000000000       0x2b /tmp/ccrpoEED.debug.temp.o
 .note.GNU-stack
                0x0000000000000000        0x0 /tmp/ccrpoEED.debug.temp.o
 .comment       0x0000000000000000       0x2b /tmp/ccq6RCsE.debug.temp.o
 .note.GNU-stack
                0x0000000000000000        0x0 /tmp/ccq6RCsE.debug.temp.o
 .comment       0x0000000000000000       0x2b /tmp/ccZiVHuB.debug.temp.o
 .note.GNU-stack
                0x0000000000000000        0x0 /tmp/ccZiVHuB.debug.temp.o
 .comment       0x0000000000000000       0x2b /tmp/cckP5GdB.debug.temp.o
 .note.GNU-stack
                0x0000000000000000        0x0 /tmp/cckP5GdB.debug.temp.o
 .comment       0x0000000000000000       0x2b /tmp/cc67zokB.debug.temp.o
 .note.GNU-stack
                0x0000000000000000        0x0 /tmp/cc67zokB.debug.temp.o
 .comment       0x0000000000000000       0x2b /tmp/ccMnL4OB.debug.temp.o
 .note.GNU-stack
                0x0000000000000000        0x0 /tmp/ccMnL4OB.debug.temp.o
 .comment       0x0000000000000000       0x2b /tmp/ccsspI2B.debug.temp.o
 .note.GNU-stack
                0x0000000000000000        0x0 /tmp/ccsspI2B.debug.temp.o
 .comment       0x0000000000000000       0x2b /tmp/ccVCYbkC.debug.temp.o
 .note.GNU-stack
                0x0000000000000000        0x0 /tmp/ccVCYbkC.debug.temp.o
 .comment       0x0000000000000000       0x2b /tmp/ccuevbpD.debug.temp.o
 .note.GNU-stack
                0x0000000000000000        0x0 /tmp/ccuevbpD.debug.temp.o
 .comment       0x0000000000000000       0x2b /tmp/ccQaEC8D.debug.temp.o
 .note.GNU-stack
                0x0000000000000000        0x0 /tmp/ccQaEC8D.debug.temp.o
 .debug_info    0x0000000000000000     0x45d4 /tmp/cc74xngB.debug.temp.o
 .debug_abbrev  0x0000000000000000      0x2b0 /tmp/cc74xngB.debug.temp.o
 .debug_line    0x0000000000000000      0x3cf /tmp/cc74xngB.debug.temp.o
 .debug_str     0x0000000000000000     0x2f11 /tmp/cc74xngB.debug.temp.o
 .comment       0x0000000000000000       0x2b /tmp/cc74xngB.debug.temp.o
 .note.GNU-stack
                0x0000000000000000        0x0 /tmp/cc74xngB.debug.temp.o
 .comment       0x0000000000000000       0x2b /tmp/cc49qixB.debug.temp.o
 .note.GNU-stack
                0x0000000000000000        0x0 /tmp/cc49qixB.debug.temp.o
 .comment       0x0000000000000000       0x2b /tmp/ccYkK7jC.debug.temp.o
 .note.GNU-stack
                0x0000000000000000        0x0 /tmp/ccYkK7jC.debug.temp.o
 .comment       0x0000000000000000       0x2b /tmp/ccK60pmC.debug.temp.o
 .note.GNU-stack
                0x0000000000000000        0x0 /tmp/ccK60pmC.debug.temp.o
 .comment       0x0000000000000000       0x2b /tmp/cctA0RrE.debug.temp.o
 .note.GNU-stack
                0x0000000000000000        0x0 /tmp/cctA0RrE.debug.temp.o
 .comment       0x0000000000000000       0x2b /tmp/cc3jLjNE.debug.temp.o
 .note.GNU-stack
                0x0000000000000000        0x0 /tmp/cc3jLjNE.debug.temp.o
 .comment       0x0000000000000000       0x2b /tmp/ccaVWBDA.debug.temp.o
 .note.GNU-stack
                0x0000000000000000        0x0 /tmp/ccaVWBDA.debug.temp.o
 .comment       0x0000000000000000       0x2b /tmp/ccDuxk0A.debug.temp.o
 .note.GNU-stack
                0x0000000000000000        0x0 /tmp/ccDuxk0A.debug.temp.o
 .comment       0x0000000000000000       0x2b /tmp/ccMzjbIA.debug.temp.o
 .note.GNU-stack
                0x0000000000000000        0x0 /tmp/ccMzjbIA.debug.temp.o
 .comment       0x0000000000000000       0x2b /tmp/ccsFtkKA.debug.temp.o
 .note.GNU-stack
                0x0000000000000000        0x0 /tmp/ccsFtkKA.debug.temp.o
 .comment       0x0000000000000000       0x2b /tmp/ccCtGcEE.debug.temp.o
 .note.GNU-stack
                0x0000000000000000        0x0 /tmp/ccCtGcEE.debug.temp.o
 .comment       0x0000000000000000       0x2b /tmp/ccv8MmFE.debug.temp.o
 .note.GNU-stack
                0x0000000000000000        0x0 /tmp/ccv8MmFE.debug.temp.o
 .comment       0x0000000000000000       0x2b /tmp/ccPItvVB.debug.temp.o
 .note.GNU-stack
                0x0000000000000000        0x0 /tmp/ccPItvVB.debug.temp.o
 .comment       0x0000000000000000       0x2b /tmp/ccQbScMD.debug.temp.o
 .note.GNU-stack
                0x0000000000000000        0x0 /tmp/ccQbScMD.debug.temp.o
 .comment       0x0000000000000000       0x2b /tmp/cc0nwwzA.debug.temp.o
 .note.GNU-stack
                0x0000000000000000        0x0 /tmp/cc0nwwzA.debug.temp.o
 .comment       0x0000000000000000       0x2b /tmp/ccnistSC.debug.temp.o
 .note.GNU-stack
                0x0000000000000000        0x0 /tmp/ccnistSC.debug.temp.o
 .comment       0x0000000000000000       0x2b /tmp/cc5M6bOA.debug.temp.o
 .note.GNU-stack
                0x0000000000000000        0x0 /tmp/cc5M6bOA.debug.temp.o
 .comment       0x0000000000000000       0x2b /tmp/ccBTu0KD.debug.temp.o
 .note.GNU-stack
                0x0000000000000000        0x0 /tmp/ccBTu0KD.debug.temp.o
 .comment       0x0000000000000000       0x2b /tmp/ccZor4SB.debug.temp.o
 .note.GNU-stack
                0x0000000000000000        0x0 /tmp/ccZor4SB.debug.temp.o
 .comment       0x0000000000000000       0x2b /tmp/ccSqw15C.debug.temp.o
 .note.GNU-stack
                0x0000000000000000        0x0 /tmp/ccSqw15C.debug.temp.o
 .debug_info    0x0000000000000000      0x186 /tmp/cc8LguqD.debug.temp.o
 .debug_abbrev  0x0000000000000000       0xb1 /tmp/cc8LguqD.debug.temp.o
 .debug_line    0x0000000000000000      0x174 /tmp/cc8LguqD.debug.temp.o
 .debug_str     0x0000000000000000      0x360 /tmp/cc8LguqD.debug.temp.o
 .comment       0x0000000000000000       0x2b /tmp/cc8LguqD.debug.temp.o
 .note.GNU-stack
                0x0000000000000000        0x0 /tmp/cc8LguqD.debug.temp.o
 .debug_info    0x0000000000000000      0x1c3 /tmp/ccZa4LHB.debug.temp.o
 .debug_abbrev  0x0000000000000000       0xb1 /tmp/ccZa4LHB.debug.temp.o
 .debug_line    0x0000000000000000      0x14c /tmp/ccZa4LHB.debug.temp.o
 .debug_str     0x0000000000000000      0x45b /tmp/ccZa4LHB.debug.temp.o
 .comment       0x0000000000000000       0x2b /tmp/ccZa4LHB.debug.temp.o
 .note.GNU-stack
                0x0000000000000000        0x0 /tmp/ccZa4LHB.debug.temp.o
 .comment       0x0000000000000000       0x2b /tmp/ccn7b0SB.debug.temp.o
 .note.GNU-stack
                0x0000000000000000        0x0 /tmp/ccn7b0SB.debug.temp.o
 .comment       0x0000000000000000       0x2b /tmp/ccb9dp1C.debug.temp.o
 .note.GNU-stack
                0x0000000000000000        0x0 /tmp/ccb9dp1C.debug.temp.o
 .comment       0x0000000000000000       0x2b /tmp/ccpGWqWB.debug.temp.o
 .note.GNU-stack
                0x0000000000000000        0x0 /tmp/ccpGWqWB.debug.temp.o
 .comment       0x0000000000000000       0x2b /tmp/cccPZeHA.debug.temp.o
 .note.GNU-stack
                0x0000000000000000        0x0 /tmp/cccPZeHA.debug.temp.o
 .comment       0x0000000000000000       0x2b /tmp/ccA5C3XC.debug.temp.o
 .note.GNU-stack
                0x0000000000000000        0x0 /tmp/ccA5C3XC.debug.temp.o
 .comment       0x0000000000000000       0x2b /tmp/ccfj3QoB.debug.temp.o
 .note.GNU-stack
                0x0000000000000000        0x0 /tmp/ccfj3QoB.debug.temp.o
 .comment       0x0000000000000000       0x2b /tmp/ccmrrfWC.debug.temp.o
 .note.GNU-stack
                0x0000000000000000        0x0 /tmp/ccmrrfWC.debug.temp.o
 .debug_info    0x0000000000000000     0x1bef /tmp/ccmCQGAC.debug.temp.o
 .debug_abbrev  0x0000000000000000      0x22d /tmp/ccmCQGAC.debug.temp.o
 .debug_line    0x0000000000000000      0x366 /tmp/ccmCQGAC.debug.temp.o
 .debug_str     0x0000000000000000     0x17aa /tmp/ccmCQGAC.debug.temp.o
 .comment       0x0000000000000000       0x2b /tmp/ccmCQGAC.debug.temp.o
 .note.GNU-stack
                0x0000000000000000        0x0 /tmp/ccmCQGAC.debug.temp.o
 .comment       0x0000000000000000       0x2b /tmp/ccq5aU0A.debug.temp.o
 .note.GNU-stack
                0x0000000000000000        0x0 /tmp/ccq5aU0A.debug.temp.o
 .comment       0x0000000000000000       0x2b /tmp/ccV0xLJA.debug.temp.o
 .note.GNU-stack
                0x0000000000000000        0x0 /tmp/ccV0xLJA.debug.temp.o
 .comment       0x0000000000000000       0x2b /tmp/ccJiNbSB.debug.temp.o
 .note.GNU-stack
                0x0000000000000000        0x0 /tmp/ccJiNbSB.debug.temp.o
 .comment       0x0000000000000000       0x2b /tmp/ccXZj5XE.debug.temp.o
 .note.GNU-stack
                0x0000000000000000        0x0 /tmp/ccXZj5XE.debug.temp.o
 .comment       0x0000000000000000       0x2b /tmp/cctTnB0B.debug.temp.o
 .note.GNU-stack
                0x0000000000000000        0x0 /tmp/cctTnB0B.debug.temp.o
 .comment       0x0000000000000000       0x2b /tmp/ccc1sPfD.debug.temp.o
 .note.GNU-stack
                0x0000000000000000        0x0 /tmp/ccc1sPfD.debug.temp.o
 .debug_info    0x0000000000000000      0x89f /tmp/ccyjPFBB.debug.temp.o
 .debug_abbrev  0x0000000000000000       0xf9 /tmp/ccyjPFBB.debug.temp.o
 .debug_line    0x0000000000000000      0x149 /tmp/ccyjPFBB.debug.temp.o
 .debug_str     0x0000000000000000      0x64e /tmp/ccyjPFBB.debug.temp.o
 .comment       0x0000000000000000       0x2b /tmp/ccyjPFBB.debug.temp.o
 .note.GNU-stack
                0x0000000000000000        0x0 /tmp/ccyjPFBB.debug.temp.o
 .comment       0x0000000000000000       0x2b /tmp/ccnkRnKD.debug.temp.o
 .note.GNU-stack
                0x0000000000000000        0x0 /tmp/ccnkRnKD.debug.temp.o
 .comment       0x0000000000000000       0x2b /tmp/ccLAm49C.debug.temp.o
 .note.GNU-stack
                0x0000000000000000        0x0 /tmp/ccLAm49C.debug.temp.o
 .data          0x0000000000000000        0x0 /home/alastair/pftf-rpi4/Build/RPi4/DEBUG_GCC5/AARCH64/MdePkg/Library/BaseMemoryLibOptDxe/BaseMemoryLibOptDxe/OUTPUT/BaseMemoryLibOptDxe.lib(CopyMem.obj)
 .bss           0x0000000000000000        0x0 /home/alastair/pftf-rpi4/Build/RPi4/DEBUG_GCC5/AARCH64/MdePkg/Library/BaseMemoryLibOptDxe/BaseMemoryLibOptDxe/OUTPUT/BaseMemoryLibOptDxe.lib(CopyMem.obj)
 .data          0x0000000000000000        0x0 /home/alastair/pftf-rpi4/Build/RPi4/DEBUG_GCC5/AARCH64/MdePkg/Library/BaseMemoryLibOptDxe/BaseMemoryLibOptDxe/OUTPUT/BaseMemoryLibOptDxe.lib(CompareGuid.obj)
 .bss           0x0000000000000000        0x0 /home/alastair/pftf-rpi4/Build/RPi4/DEBUG_GCC5/AARCH64/MdePkg/Library/BaseMemoryLibOptDxe/BaseMemoryLibOptDxe/OUTPUT/BaseMemoryLibOptDxe.lib(CompareGuid.obj)
 .text          0x0000000000000000        0x8 /home/alastair/pftf-rpi4/Build/RPi4/DEBUG_GCC5/AARCH64/MdePkg/Library/BaseLib/BaseLib/OUTPUT/BaseLib.lib(CpuBreakpoint.obj)
 .data          0x0000000000000000        0x0 /home/alastair/pftf-rpi4/Build/RPi4/DEBUG_GCC5/AARCH64/MdePkg/Library/BaseLib/BaseLib/OUTPUT/BaseLib.lib(CpuBreakpoint.obj)
 .bss           0x0000000000000000        0x0 /home/alastair/pftf-rpi4/Build/RPi4/DEBUG_GCC5/AARCH64/MdePkg/Library/BaseLib/BaseLib/OUTPUT/BaseLib.lib(CpuBreakpoint.obj)
 .data          0x0000000000000000        0x0 /home/alastair/pftf-rpi4/Build/RPi4/DEBUG_GCC5/AARCH64/MdePkg/Library/BaseMemoryLibOptDxe/BaseMemoryLibOptDxe/OUTPUT/BaseMemoryLibOptDxe.lib(SetMem.obj)
 .bss           0x0000000000000000        0x0 /home/alastair/pftf-rpi4/Build/RPi4/DEBUG_GCC5/AARCH64/MdePkg/Library/BaseMemoryLibOptDxe/BaseMemoryLibOptDxe/OUTPUT/BaseMemoryLibOptDxe.lib(SetMem.obj)
 .data          0x0000000000000000        0x0 /home/alastair/pftf-rpi4/Build/RPi4/DEBUG_GCC5/AARCH64/MdePkg/Library/BaseMemoryLibOptDxe/BaseMemoryLibOptDxe/OUTPUT/BaseMemoryLibOptDxe.lib(CompareMem.obj)
 .bss           0x0000000000000000        0x0 /home/alastair/pftf-rpi4/Build/RPi4/DEBUG_GCC5/AARCH64/MdePkg/Library/BaseMemoryLibOptDxe/BaseMemoryLibOptDxe/OUTPUT/BaseMemoryLibOptDxe.lib(CompareMem.obj)

Memory Configuration

Name             Origin             Length             Attributes
*default*        0x0000000000000000 0xffffffffffffffff

Linker script and memory map

LOAD /home/alastair/pftf-rpi4/edk2/ArmPkg/Library/GccLto/liblto-aarch64.a
START GROUP
LOAD /tmp/BdsDxe.dll.Ow19WE.ltrans0.ltrans.o
LOAD /tmp/BdsDxe.dll.Ow19WE.ltrans1.ltrans.o
LOAD /tmp/ccsn2mmD.debug.temp.o
LOAD /tmp/ccmtUXWB.debug.temp.o
LOAD /tmp/ccaeybYE.debug.temp.o
LOAD /tmp/ccVJlxND.debug.temp.o
LOAD /tmp/ccaG22UC.debug.temp.o
LOAD /tmp/ccGKbAJC.debug.temp.o
LOAD /tmp/ccuEsFhD.debug.temp.o
LOAD /tmp/cc2UddLD.debug.temp.o
LOAD /tmp/ccpfxmMD.debug.temp.o
LOAD /tmp/ccm556ZB.debug.temp.o
LOAD /tmp/ccsx7ZJD.debug.temp.o
LOAD /tmp/cchfOsZC.debug.temp.o
LOAD /tmp/ccjOrVtA.debug.temp.o
LOAD /tmp/ccY7rvbB.debug.temp.o
LOAD /tmp/ccx8vEwA.debug.temp.o
LOAD /tmp/ccuaMKFA.debug.temp.o
LOAD /tmp/ccl8UxvA.debug.temp.o
LOAD /tmp/ccyvdh5E.debug.temp.o
LOAD /tmp/cc4pAN7C.debug.temp.o
LOAD /tmp/cc4ojRyA.debug.temp.o
LOAD /tmp/cc2RoCXC.debug.temp.o
LOAD /tmp/cckz5i4C.debug.temp.o
LOAD /tmp/ccrpoEED.debug.temp.o
LOAD /tmp/ccq6RCsE.debug.temp.o
LOAD /tmp/ccZiVHuB.debug.temp.o
LOAD /tmp/cckP5GdB.debug.temp.o
LOAD /tmp/cc67zokB.debug.temp.o
LOAD /tmp/ccMnL4OB.debug.temp.o
LOAD /tmp/ccsspI2B.debug.temp.o
LOAD /tmp/ccVCYbkC.debug.temp.o
LOAD /tmp/ccuevbpD.debug.temp.o
LOAD /tmp/ccQaEC8D.debug.temp.o
LOAD /tmp/cc74xngB.debug.temp.o
LOAD /tmp/cc49qixB.debug.temp.o
LOAD /tmp/ccYkK7jC.debug.temp.o
LOAD /tmp/ccK60pmC.debug.temp.o
LOAD /tmp/cctA0RrE.debug.temp.o
LOAD /tmp/cc3jLjNE.debug.temp.o
LOAD /tmp/ccaVWBDA.debug.temp.o
LOAD /tmp/ccDuxk0A.debug.temp.o
LOAD /tmp/ccMzjbIA.debug.temp.o
LOAD /tmp/ccsFtkKA.debug.temp.o
LOAD /tmp/ccCtGcEE.debug.temp.o
LOAD /tmp/ccv8MmFE.debug.temp.o
LOAD /tmp/ccPItvVB.debug.temp.o
LOAD /tmp/ccQbScMD.debug.temp.o
LOAD /tmp/cc0nwwzA.debug.temp.o
LOAD /tmp/ccnistSC.debug.temp.o
LOAD /tmp/cc5M6bOA.debug.temp.o
LOAD /tmp/ccBTu0KD.debug.temp.o
LOAD /tmp/ccZor4SB.debug.temp.o
LOAD /tmp/ccSqw15C.debug.temp.o
LOAD /tmp/cc8LguqD.debug.temp.o
LOAD /tmp/ccZa4LHB.debug.temp.o
LOAD /tmp/ccn7b0SB.debug.temp.o
LOAD /tmp/ccb9dp1C.debug.temp.o
LOAD /tmp/ccpGWqWB.debug.temp.o
LOAD /tmp/cccPZeHA.debug.temp.o
LOAD /tmp/ccA5C3XC.debug.temp.o
LOAD /tmp/ccfj3QoB.debug.temp.o
LOAD /tmp/ccmrrfWC.debug.temp.o
LOAD /tmp/ccmCQGAC.debug.temp.o
LOAD /tmp/ccq5aU0A.debug.temp.o
LOAD /tmp/ccV0xLJA.debug.temp.o
LOAD /tmp/ccJiNbSB.debug.temp.o
LOAD /tmp/ccXZj5XE.debug.temp.o
LOAD /tmp/cctTnB0B.debug.temp.o
LOAD /tmp/ccc1sPfD.debug.temp.o
LOAD /tmp/ccyjPFBB.debug.temp.o
LOAD /tmp/ccnkRnKD.debug.temp.o
LOAD /tmp/ccLAm49C.debug.temp.o
LOAD /home/alastair/pftf-rpi4/Build/RPi4/DEBUG_GCC5/AARCH64/MdeModulePkg/Universal/BdsDxe/BdsDxe/OUTPUT/BdsDxe.lib
LOAD /home/alastair/pftf-rpi4/Build/RPi4/DEBUG_GCC5/AARCH64/MdePkg/Library/DxePcdLib/DxePcdLib/OUTPUT/DxePcdLib.lib
LOAD /home/alastair/pftf-rpi4/Build/RPi4/DEBUG_GCC5/AARCH64/MdePkg/Library/BaseMemoryLibOptDxe/BaseMemoryLibOptDxe/OUTPUT/BaseMemoryLibOptDxe.lib
LOAD /home/alastair/pftf-rpi4/Build/RPi4/DEBUG_GCC5/AARCH64/MdePkg/Library/BaseLib/BaseLib/OUTPUT/BaseLib.lib
LOAD /home/alastair/pftf-rpi4/Build/RPi4/DEBUG_GCC5/AARCH64/MdePkg/Library/BaseIoLibIntrinsic/BaseIoLibIntrinsic/OUTPUT/BaseIoLibIntrinsic.lib
LOAD /home/alastair/pftf-rpi4/Build/RPi4/DEBUG_GCC5/AARCH64/ArmPlatformPkg/Library/PL011UartLib/PL011UartLib/OUTPUT/PL011UartLib.lib
LOAD /home/alastair/pftf-rpi4/Build/RPi4/DEBUG_GCC5/AARCH64/MdePkg/Library/BaseDebugPrintErrorLevelLib/BaseDebugPrintErrorLevelLib/OUTPUT/BaseDebugPrintErrorLevelLib.lib
LOAD /home/alastair/pftf-rpi4/Build/RPi4/DEBUG_GCC5/AARCH64/Platform/RaspberryPi/Library/DualSerialPortLib/DebugDualSerialPortLib/OUTPUT/DebugDualSerialPortLib.lib
LOAD /home/alastair/pftf-rpi4/Build/RPi4/DEBUG_GCC5/AARCH64/MdePkg/Library/BasePrintLib/BasePrintLib/OUTPUT/BasePrintLib.lib
LOAD /home/alastair/pftf-rpi4/Build/RPi4/DEBUG_GCC5/AARCH64/MdePkg/Library/BaseDebugLibSerialPort/BaseDebugLibSerialPort/OUTPUT/BaseDebugLibSerialPort.lib
LOAD /home/alastair/pftf-rpi4/Build/RPi4/DEBUG_GCC5/AARCH64/MdePkg/Library/UefiBootServicesTableLib/UefiBootServicesTableLib/OUTPUT/UefiBootServicesTableLib.lib
LOAD /home/alastair/pftf-rpi4/Build/RPi4/DEBUG_GCC5/AARCH64/MdePkg/Library/UefiMemoryAllocationLib/UefiMemoryAllocationLib/OUTPUT/UefiMemoryAllocationLib.lib
LOAD /home/alastair/pftf-rpi4/Build/RPi4/DEBUG_GCC5/AARCH64/MdePkg/Library/UefiRuntimeServicesTableLib/UefiRuntimeServicesTableLib/OUTPUT/UefiRuntimeServicesTableLib.lib
LOAD /home/alastair/pftf-rpi4/Build/RPi4/DEBUG_GCC5/AARCH64/MdePkg/Library/UefiDevicePathLib/UefiDevicePathLib/OUTPUT/UefiDevicePathLib.lib
LOAD /home/alastair/pftf-rpi4/Build/RPi4/DEBUG_GCC5/AARCH64/MdeModulePkg/Library/UefiHiiServicesLib/UefiHiiServicesLib/OUTPUT/UefiHiiServicesLib.lib
LOAD /home/alastair/pftf-rpi4/Build/RPi4/DEBUG_GCC5/AARCH64/MdePkg/Library/UefiLib/UefiLib/OUTPUT/UefiLib.lib
LOAD /home/alastair/pftf-rpi4/Build/RPi4/DEBUG_GCC5/AARCH64/MdeModulePkg/Library/UefiSortLib/UefiSortLib/OUTPUT/UefiSortLib.lib
LOAD /home/alastair/pftf-rpi4/Build/RPi4/DEBUG_GCC5/AARCH64/MdeModulePkg/Library/UefiHiiLib/UefiHiiLib/OUTPUT/UefiHiiLib.lib
LOAD /home/alastair/pftf-rpi4/Build/RPi4/DEBUG_GCC5/AARCH64/MdePkg/Library/DxeServicesTableLib/DxeServicesTableLib/OUTPUT/DxeServicesTableLib.lib
LOAD /home/alastair/pftf-rpi4/Build/RPi4/DEBUG_GCC5/AARCH64/MdePkg/Library/BasePeCoffGetEntryPointLib/BasePeCoffGetEntryPointLib/OUTPUT/BasePeCoffGetEntryPointLib.lib
LOAD /home/alastair/pftf-rpi4/Build/RPi4/DEBUG_GCC5/AARCH64/MdeModulePkg/Library/DxePerformanceLib/DxePerformanceLib/OUTPUT/DxePerformanceLib.lib
LOAD /home/alastair/pftf-rpi4/Build/RPi4/DEBUG_GCC5/AARCH64/MdePkg/Library/DxeHobLib/DxeHobLib/OUTPUT/DxeHobLib.lib
LOAD /home/alastair/pftf-rpi4/Build/RPi4/DEBUG_GCC5/AARCH64/MdePkg/Library/DxeServicesLib/DxeServicesLib/OUTPUT/DxeServicesLib.lib
LOAD /home/alastair/pftf-rpi4/Build/RPi4/DEBUG_GCC5/AARCH64/MdePkg/Library/BaseReportStatusCodeLibNull/BaseReportStatusCodeLibNull/OUTPUT/BaseReportStatusCodeLibNull.lib
LOAD /home/alastair/pftf-rpi4/Build/RPi4/DEBUG_GCC5/AARCH64/MdeModulePkg/Library/DxeCapsuleLibNull/DxeCapsuleLibNull/OUTPUT/DxeCapsuleLibNull.lib
LOAD /home/alastair/pftf-rpi4/Build/RPi4/DEBUG_GCC5/AARCH64/MdeModulePkg/Library/BootLogoLib/BootLogoLib/OUTPUT/BootLogoLib.lib
LOAD /home/alastair/pftf-rpi4/Build/RPi4/DEBUG_GCC5/AARCH64/MdeModulePkg/Library/UefiBootManagerLib/UefiBootManagerLib/OUTPUT/UefiBootManagerLib.lib
LOAD /home/alastair/pftf-rpi4/Build/RPi4/DEBUG_GCC5/AARCH64/MdePkg/Library/UefiDriverEntryPoint/UefiDriverEntryPoint/OUTPUT/UefiDriverEntryPoint.lib
LOAD /home/alastair/pftf-rpi4/Build/RPi4/DEBUG_GCC5/AARCH64/Platform/RaspberryPi/Library/PlatformBootManagerLib/PlatformBootManagerLib/OUTPUT/PlatformBootManagerLib.lib
LOAD /home/alastair/pftf-rpi4/Build/RPi4/DEBUG_GCC5/AARCH64/MdePkg/Library/BaseStackCheckLib/BaseStackCheckLib/OUTPUT/BaseStackCheckLib.lib
LOAD /home/alastair/pftf-rpi4/Build/RPi4/DEBUG_GCC5/AARCH64/ArmPkg/Library/CompilerIntrinsicsLib/CompilerIntrinsicsLib/OUTPUT/CompilerIntrinsicsLib.lib
END GROUP
                0x0000000000000228                . = PECOFF_HEADER_SIZE

.gnu.version_d  0x0000000000000228        0x0
 .gnu.version_d
                0x0000000000000228        0x0 /home/alastair/pftf-rpi4/edk2/ArmPkg/Library/GccLto/liblto-aarch64.a

.gnu.version    0x0000000000000228        0x0
 .gnu.version   0x0000000000000228        0x0 /home/alastair/pftf-rpi4/edk2/ArmPkg/Library/GccLto/liblto-aarch64.a

.gnu.version_r  0x0000000000000228        0x0
 .gnu.version_r
                0x0000000000000228        0x0 /home/alastair/pftf-rpi4/edk2/ArmPkg/Library/GccLto/liblto-aarch64.a

.text           0x0000000000001000    0x16d90
 *(.text .text.* .stub .gnu.linkonce.t.*)
 .text.SerialPortWritable.constprop.0
                0x0000000000001000        0x8 /tmp/BdsDxe.dll.Ow19WE.ltrans0.ltrans.o
 .text.BmGenerateKeyShiftState
                0x0000000000001008      0x10c /tmp/BdsDxe.dll.Ow19WE.ltrans0.ltrans.o
 .text.BmEliminateExtraSpaces
                0x0000000000001114       0x44 /tmp/BdsDxe.dll.Ow19WE.ltrans0.ltrans.o
 .text.InternalBaseLibIsListValid
                0x0000000000001158       0xac /tmp/BdsDxe.dll.Ow19WE.ltrans0.ltrans.o
 .text.RemoveEntryList
                0x0000000000001204       0x74 /tmp/BdsDxe.dll.Ow19WE.ltrans0.ltrans.o
 .text.GetFirstNode
                0x0000000000001278       0x44 /tmp/BdsDxe.dll.Ow19WE.ltrans0.ltrans.o
 .text.InsertTailList.constprop.0
                0x00000000000012bc       0x64 /tmp/BdsDxe.dll.Ow19WE.ltrans0.ltrans.o
 .text.IsNull   0x0000000000001320       0x4c /tmp/BdsDxe.dll.Ow19WE.ltrans0.ltrans.o
 .text.GetNextNode
                0x000000000000136c       0x44 /tmp/BdsDxe.dll.Ow19WE.ltrans0.ltrans.o
 .text.BmGetActiveConsoleIn
                0x00000000000013b0       0xdc /tmp/BdsDxe.dll.Ow19WE.ltrans0.ltrans.o
 .text.EfiBootManagerFreeDriverHealthInfo
                0x000000000000148c       0x60 /tmp/BdsDxe.dll.Ow19WE.ltrans0.ltrans.o
 .text.EfiReleaseLock.constprop.0
                0x00000000000014ec       0x6c /tmp/BdsDxe.dll.Ow19WE.ltrans0.ltrans.o
 .text.EfiAcquireLock.constprop.0
                0x0000000000001558       0x70 /tmp/BdsDxe.dll.Ow19WE.ltrans0.ltrans.o
 .text.UnicodeValueToStringS.constprop.0
                0x00000000000015c8       0xf4 /tmp/BdsDxe.dll.Ow19WE.ltrans0.ltrans.o
 .text.SetMem.constprop.0
                0x00000000000016bc        0xc /tmp/BdsDxe.dll.Ow19WE.ltrans0.ltrans.o
 .text.BmGetLoadFileDescription
                0x00000000000016c8       0xe8 /tmp/BdsDxe.dll.Ow19WE.ltrans0.ltrans.o
 .text.EfiCreateEventReadyToBootEx.constprop.0
                0x00000000000017b0       0xac /tmp/BdsDxe.dll.Ow19WE.ltrans0.ltrans.o
 .text.GetSectionFromFv.constprop.0
                0x000000000000185c      0x170 /tmp/BdsDxe.dll.Ow19WE.ltrans0.ltrans.o
 .text.StrCpyS.constprop.0
                0x00000000000019cc      0x1f8 /tmp/BdsDxe.dll.Ow19WE.ltrans0.ltrans.o
 .text.Connect.lto_priv.0
                0x0000000000001bc4       0x9c /tmp/BdsDxe.dll.Ow19WE.ltrans0.ltrans.o
                0x0000000000001bc4                Connect.lto_priv.0
 .text.BmStopHotkeyService
                0x0000000000001c60      0x264 /tmp/BdsDxe.dll.Ow19WE.ltrans0.ltrans.o
                0x0000000000001c60                BmStopHotkeyService
 .text.BmRegisterHotkeyNotify
                0x0000000000001ec4       0xf4 /tmp/BdsDxe.dll.Ow19WE.ltrans0.ltrans.o
 .text.BmTxtInExCallback
                0x0000000000001fb8      0x19c /tmp/BdsDxe.dll.Ow19WE.ltrans0.ltrans.o
 .text.BmProcessKeyOption
                0x0000000000002154      0x260 /tmp/BdsDxe.dll.Ow19WE.ltrans0.ltrans.o
 .text.BmGetNetworkDescription
                0x00000000000023b4      0x350 /tmp/BdsDxe.dll.Ow19WE.ltrans0.ltrans.o
 .text.BmGetSingleControllerHealthStatus
                0x0000000000002704      0x2c8 /tmp/BdsDxe.dll.Ow19WE.ltrans0.ltrans.o
 .text.EfiBootManagerGetDriverHealthInfo
                0x00000000000029cc      0x290 /tmp/BdsDxe.dll.Ow19WE.ltrans0.ltrans.o
 .text.BmForEachVariable
                0x0000000000002c5c      0x1ac /tmp/BdsDxe.dll.Ow19WE.ltrans0.ltrans.o
 .text.BmRepairNotify
                0x0000000000002e08       0x6c /tmp/BdsDxe.dll.Ow19WE.ltrans0.ltrans.o
 .text.AddOutput.lto_priv.0
                0x0000000000002e74      0x148 /tmp/BdsDxe.dll.Ow19WE.ltrans0.ltrans.o
                0x0000000000002e74                AddOutput.lto_priv.0
 .text.EfiBootManagerIsValidLoadOptionVariableName.part.0
                0x0000000000002fbc      0x10c /tmp/BdsDxe.dll.Ow19WE.ltrans0.ltrans.o
 .text.BmCollectKeyOptions
                0x00000000000030c8      0x258 /tmp/BdsDxe.dll.Ow19WE.ltrans0.ltrans.o
 .text.BmGetBootDescription
                0x0000000000003320      0x1b0 /tmp/BdsDxe.dll.Ow19WE.ltrans0.ltrans.o
 .text.BmGetUsbDescription
                0x00000000000034d0      0x208 /tmp/BdsDxe.dll.Ow19WE.ltrans0.ltrans.o
 .text.BmGetMiscDescription
                0x00000000000036d8      0x2a8 /tmp/BdsDxe.dll.Ow19WE.ltrans0.ltrans.o
 .text.BmGetDescriptionFromDiskInfo
                0x0000000000003980      0x2e4 /tmp/BdsDxe.dll.Ow19WE.ltrans0.ltrans.o
 .text.LibPcdGet16.constprop.0
                0x0000000000003c64       0x20 /tmp/BdsDxe.dll.Ow19WE.ltrans0.ltrans.o
                0x0000000000003c64                LibPcdGet16.constprop.0
 .text.MultU64x32.constprop.0
                0x0000000000003c84       0x10 /tmp/BdsDxe.dll.Ow19WE.ltrans0.ltrans.o
                0x0000000000003c84                MultU64x32.constprop.0
 .text.EndPerformanceMeasurementEx.constprop.0
                0x0000000000003c94       0xac /tmp/BdsDxe.dll.Ow19WE.ltrans0.ltrans.o
                0x0000000000003c94                EndPerformanceMeasurementEx.constprop.0
 .text.LShiftU64.constprop.0
                0x0000000000003d40        0x8 /tmp/BdsDxe.dll.Ow19WE.ltrans0.ltrans.o
                0x0000000000003d40                LShiftU64.constprop.0
 .text.LogPerformanceMeasurement.constprop.0
                0x0000000000003d48       0xac /tmp/BdsDxe.dll.Ow19WE.ltrans0.ltrans.o
                0x0000000000003d48                LogPerformanceMeasurement.constprop.0
 .text.LogPerformanceMeasurementEnabled.constprop.0
                0x0000000000003df4        0x8 /tmp/BdsDxe.dll.Ow19WE.ltrans0.ltrans.o
                0x0000000000003df4                LogPerformanceMeasurementEnabled.constprop.0
 .text.FileDevicePath.constprop.0
                0x0000000000003dfc       0xa4 /tmp/BdsDxe.dll.Ow19WE.ltrans0.ltrans.o
                0x0000000000003dfc                FileDevicePath.constprop.0
 .text.IsZeroGuid.constprop.0
                0x0000000000003ea0       0x10 /tmp/BdsDxe.dll.Ow19WE.ltrans0.ltrans.o
                0x0000000000003ea0                IsZeroGuid.constprop.0
 .text.LowBitSet32.constprop.0
                0x0000000000003eb0        0x8 /tmp/BdsDxe.dll.Ow19WE.ltrans0.ltrans.o
                0x0000000000003eb0                LowBitSet32.constprop.0
 .text.EfiInitializeFwVolDevicepathNode
                0x0000000000003eb8       0x38 /tmp/BdsDxe.dll.Ow19WE.ltrans0.ltrans.o
                0x0000000000003eb8                EfiInitializeFwVolDevicepathNode
 .text.EfiGetNameGuidFromFwVolDevicePathNode
                0x0000000000003ef0       0x78 /tmp/BdsDxe.dll.Ow19WE.ltrans0.ltrans.o
                0x0000000000003ef0                EfiGetNameGuidFromFwVolDevicePathNode
 .text.EfiSignalEventReadyToBoot
                0x0000000000003f68       0x7c /tmp/BdsDxe.dll.Ow19WE.ltrans0.ltrans.o
                0x0000000000003f68                EfiSignalEventReadyToBoot
 .text.SerialPortWrite
                0x0000000000003fe4      0x120 /tmp/BdsDxe.dll.Ow19WE.ltrans0.ltrans.o
                0x0000000000003fe4                SerialPortWrite
 .text.WriteUnaligned16
                0x0000000000004104       0x50 /tmp/BdsDxe.dll.Ow19WE.ltrans0.ltrans.o
                0x0000000000004104                WriteUnaligned16
 .text.WriteUnaligned32
                0x0000000000004154       0x58 /tmp/BdsDxe.dll.Ow19WE.ltrans0.ltrans.o
 .text.ReadUnaligned16
                0x00000000000041ac       0x5c /tmp/BdsDxe.dll.Ow19WE.ltrans0.ltrans.o
                0x00000000000041ac                ReadUnaligned16
 .text.ReadUnaligned32
                0x0000000000004208       0x50 /tmp/BdsDxe.dll.Ow19WE.ltrans0.ltrans.o
 .text.BasePrintLibSPrintMarker.constprop.0
                0x0000000000004258     0x1004 /tmp/BdsDxe.dll.Ow19WE.ltrans0.ltrans.o
                0x0000000000004258                BasePrintLibSPrintMarker.constprop.0
 .text.BasePrintLibSPrint.constprop.0
                0x000000000000525c       0xa0 /tmp/BdsDxe.dll.Ow19WE.ltrans0.ltrans.o
 .text.AsciiSPrint.constprop.0
                0x00000000000052fc       0xac /tmp/BdsDxe.dll.Ow19WE.ltrans0.ltrans.o
                0x00000000000052fc                AsciiSPrint.constprop.0
 .text.UnicodeVSPrintAsciiFormat.constprop.0
                0x00000000000053a8       0x74 /tmp/BdsDxe.dll.Ow19WE.ltrans0.ltrans.o
 .text.AsciiPrint.constprop.0
                0x000000000000541c      0x158 /tmp/BdsDxe.dll.Ow19WE.ltrans0.ltrans.o
                0x000000000000541c                AsciiPrint.constprop.0
 .text.ReadUnaligned64
                0x0000000000005574       0x38 /tmp/BdsDxe.dll.Ow19WE.ltrans0.ltrans.o
                0x0000000000005574                ReadUnaligned64
 .text.CompareMem
                0x00000000000055ac       0xd0 /tmp/BdsDxe.dll.Ow19WE.ltrans0.ltrans.o
                0x00000000000055ac                CompareMem
 .text.ZeroMem  0x000000000000567c       0x70 /tmp/BdsDxe.dll.Ow19WE.ltrans0.ltrans.o
                0x000000000000567c                ZeroMem
 .text.UefiDevicePathLibConvertDevicePathToText.constprop.0
                0x00000000000056ec      0x160 /tmp/BdsDxe.dll.Ow19WE.ltrans0.ltrans.o
                0x00000000000056ec                UefiDevicePathLibConvertDevicePathToText.constprop.0
 .text.FilterAndProcess.constprop.0
                0x000000000000584c      0x160 /tmp/BdsDxe.dll.Ow19WE.ltrans0.ltrans.o
                0x000000000000584c                FilterAndProcess.constprop.0
 .text.BmPrintDp
                0x00000000000059ac       0x64 /tmp/BdsDxe.dll.Ow19WE.ltrans0.ltrans.o
 .text.BmGetControllerName
                0x0000000000005a10      0x158 /tmp/BdsDxe.dll.Ow19WE.ltrans0.ltrans.o
 .text.BmDisplayMessages
                0x0000000000005b68      0x2c4 /tmp/BdsDxe.dll.Ow19WE.ltrans0.ltrans.o
 .text.PrintXY.constprop.0
                0x0000000000005e2c      0x2dc /tmp/BdsDxe.dll.Ow19WE.ltrans0.ltrans.o
 .text.EfiBootManagerAddKeyOptionVariable.constprop.0
                0x0000000000006108      0x324 /tmp/BdsDxe.dll.Ow19WE.ltrans0.ltrans.o
                0x0000000000006108                EfiBootManagerAddKeyOptionVariable.constprop.0
 .text.EfiBootManagerRegisterContinueKeyOption.constprop.0
                0x000000000000642c      0x1b8 /tmp/BdsDxe.dll.Ow19WE.ltrans0.ltrans.o
                0x000000000000642c                EfiBootManagerRegisterContinueKeyOption.constprop.0
 .text.BmGetNvmeDescription
                0x00000000000065e4      0x248 /tmp/BdsDxe.dll.Ow19WE.ltrans0.ltrans.o
 .text.SerialConPrint.lto_priv.0
                0x000000000000682c       0x20 /tmp/BdsDxe.dll.Ow19WE.ltrans0.ltrans.o
                0x000000000000682c                SerialConPrint.lto_priv.0
 .text.PlatformBootManagerWaitCallback
                0x000000000000684c      0x1e8 /tmp/BdsDxe.dll.Ow19WE.ltrans0.ltrans.o
                0x000000000000684c                PlatformBootManagerWaitCallback
 .text.BmMatchDevicePaths.part.0
                0x0000000000006a34       0x9c /tmp/BdsDxe.dll.Ow19WE.ltrans0.ltrans.o
                0x0000000000006a34                BmMatchDevicePaths.part.0
 .text.BmDelPartMatchInstance
                0x0000000000006ad0      0x110 /tmp/BdsDxe.dll.Ow19WE.ltrans0.ltrans.o
                0x0000000000006ad0                BmDelPartMatchInstance
 .text.BmRepairAllControllers.part.0
                0x0000000000006be0      0x460 /tmp/BdsDxe.dll.Ow19WE.ltrans0.ltrans.o
                0x0000000000006be0                BmRepairAllControllers.part.0
 .text.EfiBootManagerStartHotkeyService
                0x0000000000007040      0x340 /tmp/BdsDxe.dll.Ow19WE.ltrans0.ltrans.o
                0x0000000000007040                EfiBootManagerStartHotkeyService
 .text.BmGetNextLoadOptionBuffer
                0x0000000000007380      0x5c8 /tmp/BdsDxe.dll.Ow19WE.ltrans0.ltrans.o
                0x0000000000007380                BmGetNextLoadOptionBuffer
 .text.EfiBootManagerFreeLoadOption
                0x0000000000007948       0x54 /tmp/BdsDxe.dll.Ow19WE.ltrans0.ltrans.o
                0x0000000000007948                EfiBootManagerFreeLoadOption
 .text.EfiBootManagerFreeLoadOptions
                0x000000000000799c       0x64 /tmp/BdsDxe.dll.Ow19WE.ltrans0.ltrans.o
                0x000000000000799c                EfiBootManagerFreeLoadOptions
 .text.EfiBootManagerDeleteLoadOptionVariable
                0x0000000000007a00      0x188 /tmp/BdsDxe.dll.Ow19WE.ltrans0.ltrans.o
                0x0000000000007a00                EfiBootManagerDeleteLoadOptionVariable
 .text.EfiBootManagerFindLoadOption
                0x0000000000007b88       0xc0 /tmp/BdsDxe.dll.Ow19WE.ltrans0.ltrans.o
                0x0000000000007b88                EfiBootManagerFindLoadOption
 .text.EfiBootManagerInitializeLoadOption
                0x0000000000007c48       0xe4 /tmp/BdsDxe.dll.Ow19WE.ltrans0.ltrans.o
                0x0000000000007c48                EfiBootManagerInitializeLoadOption
 .text.EfiBootManagerVariableToLoadOptionEx.part.0
                0x0000000000007d2c      0x268 /tmp/BdsDxe.dll.Ow19WE.ltrans0.ltrans.o
                0x0000000000007d2c                EfiBootManagerVariableToLoadOptionEx.part.0
 .text.BmCollectLoadOptions
                0x0000000000007f94      0x168 /tmp/BdsDxe.dll.Ow19WE.ltrans0.ltrans.o
 .text.BmHotkeyCallback
                0x00000000000080fc      0x2c4 /tmp/BdsDxe.dll.Ow19WE.ltrans0.ltrans.o
 .text.EfiBootManagerGetLoadOptions
                0x00000000000083c0      0x25c /tmp/BdsDxe.dll.Ow19WE.ltrans0.ltrans.o
                0x00000000000083c0                EfiBootManagerGetLoadOptions
 .text.EfiBootManagerLoadOptionToVariable
                0x000000000000861c      0x278 /tmp/BdsDxe.dll.Ow19WE.ltrans0.ltrans.o
                0x000000000000861c                EfiBootManagerLoadOptionToVariable
 .text.BmGetFreeOptionNumber
                0x0000000000008894      0x1a4 /tmp/BdsDxe.dll.Ow19WE.ltrans0.ltrans.o
                0x0000000000008894                BmGetFreeOptionNumber
 .text.EfiBootManagerAddLoadOptionVariable.constprop.0
                0x0000000000008a38      0x20c /tmp/BdsDxe.dll.Ow19WE.ltrans0.ltrans.o
                0x0000000000008a38                EfiBootManagerAddLoadOptionVariable.constprop.0
 .text.BmMatchPartitionDevicePathNode.part.0
                0x0000000000008c44       0xc4 /tmp/BdsDxe.dll.Ow19WE.ltrans0.ltrans.o
                0x0000000000008c44                BmMatchPartitionDevicePathNode.part.0
 .text.EfiBootManagerGetBootManagerMenu
                0x0000000000008d08      0x414 /tmp/BdsDxe.dll.Ow19WE.ltrans0.ltrans.o
                0x0000000000008d08                EfiBootManagerGetBootManagerMenu
 .text.EfiBootManagerRefreshAllBootOption
                0x000000000000911c      0x7d0 /tmp/BdsDxe.dll.Ow19WE.ltrans0.ltrans.o
                0x000000000000911c                EfiBootManagerRefreshAllBootOption
 .text.BdsDxeSetVariableAndReportStatusCodeOnError
                0x00000000000098ec       0xc0 /tmp/BdsDxe.dll.Ow19WE.ltrans0.ltrans.o
                0x00000000000098ec                BmSetVariableAndReportStatusCodeOnError
                0x00000000000098ec                BdsDxeSetVariableAndReportStatusCodeOnError
 .text.EfiBootManagerProcessLoadOption
                0x00000000000099ac      0x2c0 /tmp/BdsDxe.dll.Ow19WE.ltrans0.ltrans.o
                0x00000000000099ac                EfiBootManagerProcessLoadOption
 .text.ProcessLibraryDestructorList
                0x0000000000009c6c        0x4 /tmp/BdsDxe.dll.Ow19WE.ltrans1.ltrans.o
                0x0000000000009c6c                EfiEventEmptyFunction
                0x0000000000009c6c                ProcessLibraryDestructorList
 .text.InternalAllocatePool
                0x0000000000009c70       0x64 /tmp/BdsDxe.dll.Ow19WE.ltrans1.ltrans.o
 .text.BaseDebugLibSerialPortConstructor
                0x0000000000009cd4        0x8 /tmp/BdsDxe.dll.Ow19WE.ltrans1.ltrans.o
 .text.CpuDeadLoop
                0x0000000000009cdc       0x18 /tmp/BdsDxe.dll.Ow19WE.ltrans1.ltrans.o
 .text.BdsReadKeys.part.0
                0x0000000000009cf4       0x64 /tmp/BdsDxe.dll.Ow19WE.ltrans1.ltrans.o
 .text.BmEndOfBdsPerfCode
                0x0000000000009d58       0x30 /tmp/BdsDxe.dll.Ow19WE.ltrans1.ltrans.o
 .text.ReportProgressCodeEnabled
                0x0000000000009d88        0x8 /tmp/BdsDxe.dll.Ow19WE.ltrans1.ltrans.o
                0x0000000000009d88                ReportProgressCodeEnabled
                0x0000000000009d88                ReportDebugCodeEnabled
                0x0000000000009d88                ReportErrorCodeEnabled
 .text.DevicePathFromHandle
                0x0000000000009d90       0x6c /tmp/BdsDxe.dll.Ow19WE.ltrans1.ltrans.o
                0x0000000000009d90                DevicePathFromHandle
 .text.AllocateZeroPool
                0x0000000000009dfc       0x3c /tmp/BdsDxe.dll.Ow19WE.ltrans1.ltrans.o
                0x0000000000009dfc                AllocateZeroPool
 .text.AllocatePool
                0x0000000000009e38        0xc /tmp/BdsDxe.dll.Ow19WE.ltrans1.ltrans.o
                0x0000000000009e38                AllocatePool
 .text.DebugPrintLevelEnabled
                0x0000000000009e44        0x8 /tmp/BdsDxe.dll.Ow19WE.ltrans1.ltrans.o
                0x0000000000009e44                DebugPrintLevelEnabled
 .text.DebugCodeEnabled
                0x0000000000009e4c        0x8 /tmp/BdsDxe.dll.Ow19WE.ltrans1.ltrans.o
                0x0000000000009e4c                DebugCodeEnabled
 .text.DebugPrintEnabled
                0x0000000000009e54        0x8 /tmp/BdsDxe.dll.Ow19WE.ltrans1.ltrans.o
                0x0000000000009e54                DebugPrintEnabled
 .text.DebugAssertEnabled
                0x0000000000009e5c        0x8 /tmp/BdsDxe.dll.Ow19WE.ltrans1.ltrans.o
                0x0000000000009e5c                DebugAssertEnabled
 .text.DebugAssert
                0x0000000000009e64       0x84 /tmp/BdsDxe.dll.Ow19WE.ltrans1.ltrans.o
                0x0000000000009e64                DebugAssert
 .text.BmReportLoadFailure
                0x0000000000009ee8       0x5c /tmp/BdsDxe.dll.Ow19WE.ltrans1.ltrans.o
 .text.GetPerformanceMeasurementProtocol
                0x0000000000009f44       0xb8 /tmp/BdsDxe.dll.Ow19WE.ltrans1.ltrans.o
                0x0000000000009f44                GetPerformanceMeasurementProtocol
 .text.SetDevicePathNodeLength
                0x0000000000009ffc       0x60 /tmp/BdsDxe.dll.Ow19WE.ltrans1.ltrans.o
                0x0000000000009ffc                SetDevicePathNodeLength
 .text.DevicePathNodeLength
                0x000000000000a05c       0x50 /tmp/BdsDxe.dll.Ow19WE.ltrans1.ltrans.o
                0x000000000000a05c                DevicePathNodeLength
 .text.NextDevicePathNode
                0x000000000000a0ac       0x50 /tmp/BdsDxe.dll.Ow19WE.ltrans1.ltrans.o
                0x000000000000a0ac                NextDevicePathNode
 .text.DevicePathSubType
                0x000000000000a0fc       0x48 /tmp/BdsDxe.dll.Ow19WE.ltrans1.ltrans.o
                0x000000000000a0fc                DevicePathSubType
 .text.DevicePathType
                0x000000000000a144       0x48 /tmp/BdsDxe.dll.Ow19WE.ltrans1.ltrans.o
                0x000000000000a144                DevicePathType
 .text.IsDevicePathEndType
                0x000000000000a18c       0x58 /tmp/BdsDxe.dll.Ow19WE.ltrans1.ltrans.o
                0x000000000000a18c                IsDevicePathEndType
 .text.IsDevicePathEnd
                0x000000000000a1e4       0x70 /tmp/BdsDxe.dll.Ow19WE.ltrans1.ltrans.o
                0x000000000000a1e4                IsDevicePathEnd
 .text.EfiBootManagerConnectDevicePath
                0x000000000000a254      0x194 /tmp/BdsDxe.dll.Ow19WE.ltrans1.ltrans.o
                0x000000000000a254                EfiBootManagerConnectDevicePath
 .text.IsDevicePathValid
                0x000000000000a3e8       0xe0 /tmp/BdsDxe.dll.Ow19WE.ltrans1.ltrans.o
 .text.UefiDevicePathLibGetDevicePathSize
                0x000000000000a4c8       0x70 /tmp/BdsDxe.dll.Ow19WE.ltrans1.ltrans.o
                0x000000000000a4c8                UefiDevicePathLibGetDevicePathSize
 .text.SPrintLength
                0x000000000000a538       0x40 /tmp/BdsDxe.dll.Ow19WE.ltrans1.ltrans.o
 .text.AsciiStrLen
                0x000000000000a578       0x90 /tmp/BdsDxe.dll.Ow19WE.ltrans1.ltrans.o
 .text.AsciiStrSize
                0x000000000000a608       0x18 /tmp/BdsDxe.dll.Ow19WE.ltrans1.ltrans.o
 .text.AsciiStrnCmp
                0x000000000000a620       0xd4 /tmp/BdsDxe.dll.Ow19WE.ltrans1.ltrans.o
 .text.IsLangInSupportedLangCodes
                0x000000000000a6f4       0xd8 /tmp/BdsDxe.dll.Ow19WE.ltrans1.ltrans.o
 .text.DebugPrint
                0x000000000000a7cc       0xd0 /tmp/BdsDxe.dll.Ow19WE.ltrans1.ltrans.o
                0x000000000000a7cc                DebugPrint
 .text.FreePool
                0x000000000000a89c       0x7c /tmp/BdsDxe.dll.Ow19WE.ltrans1.ltrans.o
                0x000000000000a89c                FreePool
 .text.BmExpandMediaDevicePath
                0x000000000000a918      0x2ec /tmp/BdsDxe.dll.Ow19WE.ltrans1.ltrans.o
 .text.BmConnectUsbShortFormDevicePath
                0x000000000000ac04      0x194 /tmp/BdsDxe.dll.Ow19WE.ltrans1.ltrans.o
 .text.GetVariable2
                0x000000000000ad98      0x164 /tmp/BdsDxe.dll.Ow19WE.ltrans1.ltrans.o
                0x000000000000ad98                GetVariable2
 .text.GetEfiGlobalVariable2
                0x000000000000aefc       0x14 /tmp/BdsDxe.dll.Ow19WE.ltrans1.ltrans.o
                0x000000000000aefc                GetEfiGlobalVariable2
 .text.InitializeLangVariable
                0x000000000000af10       0xfc /tmp/BdsDxe.dll.Ow19WE.ltrans1.ltrans.o
 .text.FreePages
                0x000000000000b00c       0xc4 /tmp/BdsDxe.dll.Ow19WE.ltrans1.ltrans.o
 .text.BmDestroyRamDisk
                0x000000000000b0d0      0x270 /tmp/BdsDxe.dll.Ow19WE.ltrans1.ltrans.o
                0x000000000000b0d0                BmDestroyRamDisk
 .text.BdsFormalizeConsoleVariable
                0x000000000000b340       0xf8 /tmp/BdsDxe.dll.Ow19WE.ltrans1.ltrans.o
 .text.CheckDeferredLoadImageOnReadyToBoot
                0x000000000000b438      0x140 /tmp/BdsDxe.dll.Ow19WE.ltrans1.ltrans.o
 .text.BasePrintLibValueToString
                0x000000000000b578       0x2c /tmp/BdsDxe.dll.Ow19WE.ltrans1.ltrans.o
                0x000000000000b578                BasePrintLibValueToString
 .text.BasePrintLibFillBuffer
                0x000000000000b5a4       0x34 /tmp/BdsDxe.dll.Ow19WE.ltrans1.ltrans.o
                0x000000000000b5a4                BasePrintLibFillBuffer
 .text.UnicodeVSPrint
                0x000000000000b5d8       0x74 /tmp/BdsDxe.dll.Ow19WE.ltrans1.ltrans.o
                0x000000000000b5d8                UnicodeVSPrint
 .text.Print    0x000000000000b64c      0x174 /tmp/BdsDxe.dll.Ow19WE.ltrans1.ltrans.o
                0x000000000000b64c                Print
 .text.UnicodeSPrint
                0x000000000000b7c0       0xa4 /tmp/BdsDxe.dll.Ow19WE.ltrans1.ltrans.o
                0x000000000000b7c0                UnicodeSPrint
 .text.AsciiStrnLenS
                0x000000000000b864       0x3c /tmp/BdsDxe.dll.Ow19WE.ltrans1.ltrans.o
                0x000000000000b864                AsciiStrnLenS
 .text.AsciiStrToUnicodeStrS
                0x000000000000b8a0      0x17c /tmp/BdsDxe.dll.Ow19WE.ltrans1.ltrans.o
                0x000000000000b8a0                AsciiStrToUnicodeStrS
 .text.StrnLenS
                0x000000000000ba1c       0x70 /tmp/BdsDxe.dll.Ow19WE.ltrans1.ltrans.o
                0x000000000000ba1c                StrnLenS
 .text.StrCatS  0x000000000000ba8c      0x2ac /tmp/BdsDxe.dll.Ow19WE.ltrans1.ltrans.o
                0x000000000000ba8c                StrCatS
 .text.StrLen   0x000000000000bd38       0xa4 /tmp/BdsDxe.dll.Ow19WE.ltrans1.ltrans.o
                0x000000000000bd38                StrLen
 .text.StrSize  0x000000000000bddc       0x1c /tmp/BdsDxe.dll.Ow19WE.ltrans1.ltrans.o
                0x000000000000bddc                StrSize
 .text.StrnCmp  0x000000000000bdf8       0xc8 /tmp/BdsDxe.dll.Ow19WE.ltrans1.ltrans.o
                0x000000000000bdf8                StrnCmp
 .text.StrCmp   0x000000000000bec0       0x88 /tmp/BdsDxe.dll.Ow19WE.ltrans1.ltrans.o
                0x000000000000bec0                StrCmp
 .text.CopyMem  0x000000000000bf48       0xa4 /tmp/BdsDxe.dll.Ow19WE.ltrans1.ltrans.o
                0x000000000000bf48                CopyMem
 .text.GetBestLanguage
                0x000000000000bfec      0x1e0 /tmp/BdsDxe.dll.Ow19WE.ltrans1.ltrans.o
                0x000000000000bfec                GetBestLanguage
 .text.SetDevicePathEndNode
                0x000000000000c1cc       0x54 /tmp/BdsDxe.dll.Ow19WE.ltrans1.ltrans.o
                0x000000000000c1cc                SetDevicePathEndNode
 .text.ReallocatePool
                0x000000000000c220       0x70 /tmp/BdsDxe.dll.Ow19WE.ltrans1.ltrans.o
                0x000000000000c220                ReallocatePool
 .text.UefiDevicePathLibCatPrint
                0x000000000000c290      0x184 /tmp/BdsDxe.dll.Ow19WE.ltrans1.ltrans.o
                0x000000000000c290                UefiDevicePathLibCatPrint
 .text.DevPathToTextNodeGeneric
                0x000000000000c414       0xfc /tmp/BdsDxe.dll.Ow19WE.ltrans1.ltrans.o
                0x000000000000c414                DevPathToTextNodeGeneric
 .text.DevPathToTextEndInstance
                0x000000000000c510        0xc /tmp/BdsDxe.dll.Ow19WE.ltrans1.ltrans.o
                0x000000000000c510                DevPathToTextEndInstance
 .text.DevPathToTextBBS
                0x000000000000c51c       0xa0 /tmp/BdsDxe.dll.Ow19WE.ltrans1.ltrans.o
                0x000000000000c51c                DevPathToTextBBS
 .text.DevPathRelativeOffsetRange
                0x000000000000c5bc       0x10 /tmp/BdsDxe.dll.Ow19WE.ltrans1.ltrans.o
                0x000000000000c5bc                DevPathRelativeOffsetRange
 .text.DevPathToTextFvFile
                0x000000000000c5cc       0x10 /tmp/BdsDxe.dll.Ow19WE.ltrans1.ltrans.o
                0x000000000000c5cc                DevPathToTextFvFile
 .text.DevPathToTextFv
                0x000000000000c5dc       0x10 /tmp/BdsDxe.dll.Ow19WE.ltrans1.ltrans.o
                0x000000000000c5dc                DevPathToTextFv
 .text.DevPathToTextMediaProtocol
                0x000000000000c5ec       0x10 /tmp/BdsDxe.dll.Ow19WE.ltrans1.ltrans.o
                0x000000000000c5ec                DevPathToTextMediaProtocol
 .text.DevPathToTextFilePath
                0x000000000000c5fc       0x10 /tmp/BdsDxe.dll.Ow19WE.ltrans1.ltrans.o
                0x000000000000c5fc                DevPathToTextFilePath
 .text.DevPathToTextCDROM
                0x000000000000c60c       0x30 /tmp/BdsDxe.dll.Ow19WE.ltrans1.ltrans.o
                0x000000000000c60c                DevPathToTextCDROM
 .text.DevPathToTextHardDrive
                0x000000000000c63c       0x8c /tmp/BdsDxe.dll.Ow19WE.ltrans1.ltrans.o
                0x000000000000c63c                DevPathToTextHardDrive
 .text.DevPathToTextUri
                0x000000000000c6c8       0x94 /tmp/BdsDxe.dll.Ow19WE.ltrans1.ltrans.o
                0x000000000000c6c8                DevPathToTextUri
 .text.DevPathToTextBluetoothLE
                0x000000000000c75c       0x44 /tmp/BdsDxe.dll.Ow19WE.ltrans1.ltrans.o
                0x000000000000c75c                DevPathToTextBluetoothLE
 .text.DevPathToTextWiFi
                0x000000000000c7a0       0x70 /tmp/BdsDxe.dll.Ow19WE.ltrans1.ltrans.o
                0x000000000000c7a0                DevPathToTextWiFi
 .text.DevPathToTextBluetooth
                0x000000000000c810       0x24 /tmp/BdsDxe.dll.Ow19WE.ltrans1.ltrans.o
                0x000000000000c810                DevPathToTextBluetooth
 .text.DevPathToTextVlan
                0x000000000000c834       0x10 /tmp/BdsDxe.dll.Ow19WE.ltrans1.ltrans.o
                0x000000000000c834                DevPathToTextVlan
 .text.DevPathToTextiSCSI
                0x000000000000c844      0x10c /tmp/BdsDxe.dll.Ow19WE.ltrans1.ltrans.o
                0x000000000000c844                DevPathToTextiSCSI
 .text.DevPathToTextUart
                0x000000000000c950      0x118 /tmp/BdsDxe.dll.Ow19WE.ltrans1.ltrans.o
                0x000000000000c950                DevPathToTextUart
 .text.DevPathToTextInfiniBand
                0x000000000000ca68       0x1c /tmp/BdsDxe.dll.Ow19WE.ltrans1.ltrans.o
                0x000000000000ca68                DevPathToTextInfiniBand
 .text.CatIPv6Address
                0x000000000000ca84       0x8c /tmp/BdsDxe.dll.Ow19WE.ltrans1.ltrans.o
 .text.CatIPv4Address
                0x000000000000cb10       0x1c /tmp/BdsDxe.dll.Ow19WE.ltrans1.ltrans.o
 .text.DevPathToTextDns
                0x000000000000cb2c       0xc0 /tmp/BdsDxe.dll.Ow19WE.ltrans1.ltrans.o
                0x000000000000cb2c                DevPathToTextDns
 .text.CatNetworkProtocol
                0x000000000000cbec       0x38 /tmp/BdsDxe.dll.Ow19WE.ltrans1.ltrans.o
 .text.DevPathToTextIPv6
                0x000000000000cc24       0xe8 /tmp/BdsDxe.dll.Ow19WE.ltrans1.ltrans.o
                0x000000000000cc24                DevPathToTextIPv6
 .text.DevPathToTextIPv4
                0x000000000000cd0c       0xf0 /tmp/BdsDxe.dll.Ow19WE.ltrans1.ltrans.o
                0x000000000000cd0c                DevPathToTextIPv4
 .text.DevPathToTextMacAddr
                0x000000000000cdfc       0x8c /tmp/BdsDxe.dll.Ow19WE.ltrans1.ltrans.o
                0x000000000000cdfc                DevPathToTextMacAddr
 .text.DevPathToTextI2O
                0x000000000000ce88       0x10 /tmp/BdsDxe.dll.Ow19WE.ltrans1.ltrans.o
                0x000000000000ce88                DevPathToTextI2O
 .text.DevPathToTextSata
                0x000000000000ce98       0x18 /tmp/BdsDxe.dll.Ow19WE.ltrans1.ltrans.o
                0x000000000000ce98                DevPathToTextSata
 .text.DevPathToTextUsbClass
                0x000000000000ceb0      0x194 /tmp/BdsDxe.dll.Ow19WE.ltrans1.ltrans.o
                0x000000000000ceb0                DevPathToTextUsbClass
 .text.DevPathToTextLogicalUnit
                0x000000000000d044       0x10 /tmp/BdsDxe.dll.Ow19WE.ltrans1.ltrans.o
                0x000000000000d044                DevPathToTextLogicalUnit
 .text.DevPathToTextUsb
                0x000000000000d054       0x14 /tmp/BdsDxe.dll.Ow19WE.ltrans1.ltrans.o
                0x000000000000d054                DevPathToTextUsb
 .text.DevPathToText1394
                0x000000000000d068       0x10 /tmp/BdsDxe.dll.Ow19WE.ltrans1.ltrans.o
                0x000000000000d068                DevPathToText1394
 .text.DevPathToTextEmmc
                0x000000000000d078       0x10 /tmp/BdsDxe.dll.Ow19WE.ltrans1.ltrans.o
                0x000000000000d078                DevPathToTextEmmc
 .text.DevPathToTextSd
                0x000000000000d088       0x10 /tmp/BdsDxe.dll.Ow19WE.ltrans1.ltrans.o
                0x000000000000d088                DevPathToTextSd
 .text.DevPathToTextUfs
                0x000000000000d098       0x14 /tmp/BdsDxe.dll.Ow19WE.ltrans1.ltrans.o
                0x000000000000d098                DevPathToTextUfs
 .text.DevPathToTextNVMe
                0x000000000000d0ac       0x54 /tmp/BdsDxe.dll.Ow19WE.ltrans1.ltrans.o
                0x000000000000d0ac                DevPathToTextNVMe
 .text.DevPathToTextSasEx
                0x000000000000d100      0x18c /tmp/BdsDxe.dll.Ow19WE.ltrans1.ltrans.o
                0x000000000000d100                DevPathToTextSasEx
 .text.DevPathToTextFibreEx
                0x000000000000d28c       0xa8 /tmp/BdsDxe.dll.Ow19WE.ltrans1.ltrans.o
                0x000000000000d28c                DevPathToTextFibreEx
 .text.DevPathToTextFibre
                0x000000000000d334       0x10 /tmp/BdsDxe.dll.Ow19WE.ltrans1.ltrans.o
                0x000000000000d334                DevPathToTextFibre
 .text.DevPathToTextScsi
                0x000000000000d344       0x14 /tmp/BdsDxe.dll.Ow19WE.ltrans1.ltrans.o
                0x000000000000d344                DevPathToTextScsi
 .text.DevPathToTextAtapi
                0x000000000000d358       0x60 /tmp/BdsDxe.dll.Ow19WE.ltrans1.ltrans.o
                0x000000000000d358                DevPathToTextAtapi
 .text.DevPathToTextAcpiAdr
                0x000000000000d3b8       0x9c /tmp/BdsDxe.dll.Ow19WE.ltrans1.ltrans.o
                0x000000000000d3b8                DevPathToTextAcpiAdr
 .text.DevPathToTextAcpiEx
                0x000000000000d454      0x28c /tmp/BdsDxe.dll.Ow19WE.ltrans1.ltrans.o
                0x000000000000d454                DevPathToTextAcpiEx
 .text.DevPathToTextAcpi
                0x000000000000d6e0       0xc0 /tmp/BdsDxe.dll.Ow19WE.ltrans1.ltrans.o
                0x000000000000d6e0                DevPathToTextAcpi
 .text.DevPathToTextBmc
                0x000000000000d7a0       0x3c /tmp/BdsDxe.dll.Ow19WE.ltrans1.ltrans.o
                0x000000000000d7a0                DevPathToTextBmc
 .text.DevPathToTextController
                0x000000000000d7dc       0x10 /tmp/BdsDxe.dll.Ow19WE.ltrans1.ltrans.o
                0x000000000000d7dc                DevPathToTextController
 .text.DevPathToTextMemMap
                0x000000000000d7ec       0x14 /tmp/BdsDxe.dll.Ow19WE.ltrans1.ltrans.o
                0x000000000000d7ec                DevPathToTextMemMap
 .text.DevPathToTextPccard
                0x000000000000d800       0x10 /tmp/BdsDxe.dll.Ow19WE.ltrans1.ltrans.o
                0x000000000000d800                DevPathToTextPccard
 .text.DevPathToTextPci
                0x000000000000d810       0x14 /tmp/BdsDxe.dll.Ow19WE.ltrans1.ltrans.o
                0x000000000000d810                DevPathToTextPci
 .text.InternalAllocateCopyPool
                0x000000000000d824       0xa0 /tmp/BdsDxe.dll.Ow19WE.ltrans1.ltrans.o
 .text.AllocateCopyPool
                0x000000000000d8c4       0x10 /tmp/BdsDxe.dll.Ow19WE.ltrans1.ltrans.o
                0x000000000000d8c4                AllocateCopyPool
 .text.DevPathToTextUsbWWID
                0x000000000000d8d4       0xb4 /tmp/BdsDxe.dll.Ow19WE.ltrans1.ltrans.o
                0x000000000000d8d4                DevPathToTextUsbWWID
 .text.UefiDevicePathLibDuplicateDevicePath
                0x000000000000d988       0x34 /tmp/BdsDxe.dll.Ow19WE.ltrans1.ltrans.o
                0x000000000000d988                UefiDevicePathLibDuplicateDevicePath
 .text.BmExpandLoadFile
                0x000000000000d9bc      0x338 /tmp/BdsDxe.dll.Ow19WE.ltrans1.ltrans.o
 .text.BmGetRamDiskDevicePath
                0x000000000000dcf4       0xfc /tmp/BdsDxe.dll.Ow19WE.ltrans1.ltrans.o
                0x000000000000dcf4                BmGetRamDiskDevicePath
 .text.UefiDevicePathLibGetNextDevicePathInstance
                0x000000000000ddf0       0xd0 /tmp/BdsDxe.dll.Ow19WE.ltrans1.ltrans.o
                0x000000000000ddf0                UefiDevicePathLibGetNextDevicePathInstance
 .text.UefiDevicePathLibAppendDevicePathInstance
                0x000000000000dec0       0xec /tmp/BdsDxe.dll.Ow19WE.ltrans1.ltrans.o
                0x000000000000dec0                UefiDevicePathLibAppendDevicePathInstance
 .text.BmCachePartitionDevicePath
                0x000000000000dfac       0xd8 /tmp/BdsDxe.dll.Ow19WE.ltrans1.ltrans.o
 .text.EfiBootManagerUpdateConsoleVariable
                0x000000000000e084      0x154 /tmp/BdsDxe.dll.Ow19WE.ltrans1.ltrans.o
                0x000000000000e084                EfiBootManagerUpdateConsoleVariable
 .text.EfiBootManagerConnectConsoleVariable.part.0
                0x000000000000e1d8      0x260 /tmp/BdsDxe.dll.Ow19WE.ltrans1.ltrans.o
 .text.UefiDevicePathLibAppendDevicePath
                0x000000000000e438       0xcc /tmp/BdsDxe.dll.Ow19WE.ltrans1.ltrans.o
                0x000000000000e438                UefiDevicePathLibAppendDevicePath
 .text.UefiDevicePathLibAppendDevicePathNode
                0x000000000000e504       0x9c /tmp/BdsDxe.dll.Ow19WE.ltrans1.ltrans.o
                0x000000000000e504                UefiDevicePathLibAppendDevicePathNode
 .text.BmAdjustFvFilePath
                0x000000000000e5a0      0x1a4 /tmp/BdsDxe.dll.Ow19WE.ltrans1.ltrans.o
 .text.CompareGuid
                0x000000000000e744       0x60 /tmp/BdsDxe.dll.Ow19WE.ltrans1.ltrans.o
                0x000000000000e744                CompareGuid
 .text.BmIsBootManagerMenuFilePath
                0x000000000000e7a4       0x90 /tmp/BdsDxe.dll.Ow19WE.ltrans1.ltrans.o
                0x000000000000e7a4                BmIsBootManagerMenuFilePath
 .text.BmUpdateSystemTableConsole
                0x000000000000e834      0x1c0 /tmp/BdsDxe.dll.Ow19WE.ltrans1.ltrans.o
 .text.EfiBootManagerConnectAllDefaultConsoles
                0x000000000000e9f4      0x150 /tmp/BdsDxe.dll.Ow19WE.ltrans1.ltrans.o
 .text.EfiBootManagerConnectAll
                0x000000000000eb44       0xcc /tmp/BdsDxe.dll.Ow19WE.ltrans1.ltrans.o
 .text.BmGetNextLoadOptionDevicePath
                0x000000000000ec10      0xd7c /tmp/BdsDxe.dll.Ow19WE.ltrans1.ltrans.o
                0x000000000000ec10                BmGetNextLoadOptionDevicePath
 .text.ProcessLoadOptions
                0x000000000000f98c      0x190 /tmp/BdsDxe.dll.Ow19WE.ltrans1.ltrans.o
 .text.EfiGetSystemConfigurationTable
                0x000000000000fb1c       0x94 /tmp/BdsDxe.dll.Ow19WE.ltrans1.ltrans.o
 .text.GetHobList
                0x000000000000fbb0       0xb4 /tmp/BdsDxe.dll.Ow19WE.ltrans1.ltrans.o
 .text.EfiBootManagerBoot
                0x000000000000fc64      0xa04 /tmp/BdsDxe.dll.Ow19WE.ltrans1.ltrans.o
 .text.DevPathToTextRamDisk
                0x0000000000010668      0x1a8 /tmp/BdsDxe.dll.Ow19WE.ltrans1.ltrans.o
                0x0000000000010668                DevPathToTextRamDisk
 .text.DevPathToTextVendor
                0x0000000000010810      0x354 /tmp/BdsDxe.dll.Ow19WE.ltrans1.ltrans.o
                0x0000000000010810                DevPathToTextVendor
 .text.CopyGuid
                0x0000000000010b64       0x64 /tmp/BdsDxe.dll.Ow19WE.ltrans1.ltrans.o
                0x0000000000010b64                CopyGuid
 .text.GetPcdProtocol
                0x0000000000010bc8       0xc0 /tmp/BdsDxe.dll.Ow19WE.ltrans1.ltrans.o
                0x0000000000010bc8                GetPcdProtocol
 .text.LibPcdGet32
                0x0000000000010c88       0x2c /tmp/BdsDxe.dll.Ow19WE.ltrans1.ltrans.o
 .text.BdsEntry
                0x0000000000010cb4     0x1df4 /tmp/BdsDxe.dll.Ow19WE.ltrans1.ltrans.o
 .text.memcpy   0x0000000000012aa8       0x20 /tmp/BdsDxe.dll.Ow19WE.ltrans1.ltrans.o
                0x0000000000012aa8                memcpy
 .text.__stack_chk_fail
                0x0000000000012ac8       0x3c /tmp/BdsDxe.dll.Ow19WE.ltrans1.ltrans.o
                0x0000000000012ac8                __stack_chk_fail
 .text._ModuleEntryPoint
                0x0000000000012b04      0x4d4 /tmp/BdsDxe.dll.Ow19WE.ltrans1.ltrans.o
                0x0000000000012b04                _ModuleEntryPoint
 *fill*         0x0000000000012fd8        0x8 
 .text          0x0000000000012fe0      0x218 /home/alastair/pftf-rpi4/Build/RPi4/DEBUG_GCC5/AARCH64/MdePkg/Library/BaseMemoryLibOptDxe/BaseMemoryLibOptDxe/OUTPUT/BaseMemoryLibOptDxe.lib(CopyMem.obj)
                0x000000000001314c                InternalMemCopyMem
 *fill*         0x00000000000131f8        0x8 
 .text          0x0000000000013200       0x20 /home/alastair/pftf-rpi4/Build/RPi4/DEBUG_GCC5/AARCH64/MdePkg/Library/BaseMemoryLibOptDxe/BaseMemoryLibOptDxe/OUTPUT/BaseMemoryLibOptDxe.lib(CompareGuid.obj)
                0x0000000000013200                InternalMemCompareGuid
 .text          0x0000000000013220      0x200 /home/alastair/pftf-rpi4/Build/RPi4/DEBUG_GCC5/AARCH64/MdePkg/Library/BaseMemoryLibOptDxe/BaseMemoryLibOptDxe/OUTPUT/BaseMemoryLibOptDxe.lib(SetMem.obj)
                0x0000000000013220                InternalMemSetMem16
                0x000000000001322c                InternalMemSetMem32
                0x0000000000013238                InternalMemSetMem64
                0x0000000000013244                InternalMemZeroMem
                0x000000000001324c                InternalMemSetMem
 *fill*         0x0000000000013420       0x20 
 .text          0x0000000000013440       0xe0 /home/alastair/pftf-rpi4/Build/RPi4/DEBUG_GCC5/AARCH64/MdePkg/Library/BaseMemoryLibOptDxe/BaseMemoryLibOptDxe/OUTPUT/BaseMemoryLibOptDxe.lib(CompareMem.obj)
                0x0000000000013440                InternalMemCompareMem
 *(.rodata .rodata.* .gnu.linkonce.r.*)
 .rodata.BmGenerateKeyShiftState
                0x0000000000013520        0x5 /tmp/BdsDxe.dll.Ow19WE.ltrans0.ltrans.o
 .rodata.InternalBaseLibIsListValid.str1.1
                0x0000000000013525       0x83 /tmp/BdsDxe.dll.Ow19WE.ltrans0.ltrans.o
                                         0x98 (size before relaxing)
 .rodata.RemoveEntryList.str1.1
                0x00000000000135a8       0x3b /tmp/BdsDxe.dll.Ow19WE.ltrans0.ltrans.o
 .rodata.GetFirstNode.str1.1
                0x00000000000135e3       0x22 /tmp/BdsDxe.dll.Ow19WE.ltrans0.ltrans.o
 .rodata.EfiReleaseLock.constprop.0.str1.1
                0x0000000000013605       0x5d /tmp/BdsDxe.dll.Ow19WE.ltrans0.ltrans.o
 .rodata.EfiAcquireLock.constprop.0.str1.1
                0x0000000000013662       0x1e /tmp/BdsDxe.dll.Ow19WE.ltrans0.ltrans.o
 .rodata.UnicodeValueToStringS.constprop.0.str1.1
                0x0000000000013680       0x66 /tmp/BdsDxe.dll.Ow19WE.ltrans0.ltrans.o
 .rodata.EfiCreateEventReadyToBootEx.constprop.0.str1.1
                0x00000000000136e6       0x7d /tmp/BdsDxe.dll.Ow19WE.ltrans0.ltrans.o
 .rodata.GetSectionFromFv.constprop.0.str1.1
                0x0000000000013763       0x82 /tmp/BdsDxe.dll.Ow19WE.ltrans0.ltrans.o
                                         0x9e (size before relaxing)
 .rodata.StrCpyS.constprop.0.str1.1
                0x00000000000137e5      0x153 /tmp/BdsDxe.dll.Ow19WE.ltrans0.ltrans.o
 .rodata.Connect.lto_priv.0.str1.1
                0x0000000000013938        0xc /tmp/BdsDxe.dll.Ow19WE.ltrans0.ltrans.o
 .rodata.BmStopHotkeyService.str1.1
                0x0000000000013944       0xa9 /tmp/BdsDxe.dll.Ow19WE.ltrans0.ltrans.o
 .rodata.BmRegisterHotkeyNotify.str1.1
                0x00000000000139ed       0x30 /tmp/BdsDxe.dll.Ow19WE.ltrans0.ltrans.o
 .rodata.BmProcessKeyOption.str1.1
                0x0000000000013a1d       0x66 /tmp/BdsDxe.dll.Ow19WE.ltrans0.ltrans.o
 *fill*         0x0000000000013a83        0x1 
 .rodata.BmGetNetworkDescription.str2.2
                0x0000000000013a84       0xb4 /tmp/BdsDxe.dll.Ow19WE.ltrans0.ltrans.o
 .rodata.BmGetNetworkDescription.str1.1
                0x0000000000013b38       0x5a /tmp/BdsDxe.dll.Ow19WE.ltrans0.ltrans.o
                                         0x76 (size before relaxing)
 .rodata.BmGetSingleControllerHealthStatus.str1.1
                0x0000000000013b92       0x9c /tmp/BdsDxe.dll.Ow19WE.ltrans0.ltrans.o
 .rodata.EfiBootManagerGetDriverHealthInfo.str1.1
                0x0000000000013c2e       0x24 /tmp/BdsDxe.dll.Ow19WE.ltrans0.ltrans.o
 .rodata.BmForEachVariable.str1.1
                0x0000000000013c52       0x6a /tmp/BdsDxe.dll.Ow19WE.ltrans0.ltrans.o
 .rodata.BmRepairNotify.str1.1
                0x0000000000013cbc       0x1a /tmp/BdsDxe.dll.Ow19WE.ltrans0.ltrans.o
 .rodata.BmRepairNotify.str2.2
                0x0000000000013cd6       0x34 /tmp/BdsDxe.dll.Ow19WE.ltrans0.ltrans.o
 .rodata.AddOutput.lto_priv.0.str1.1
                0x0000000000013d0a       0x8a /tmp/BdsDxe.dll.Ow19WE.ltrans0.ltrans.o
 .rodata.BmCollectKeyOptions.str2.2
                0x0000000000013d94       0x20 /tmp/BdsDxe.dll.Ow19WE.ltrans0.ltrans.o
 .rodata.BmCollectKeyOptions.str1.1
                0x0000000000013db4       0x22 /tmp/BdsDxe.dll.Ow19WE.ltrans0.ltrans.o
                                         0x3c (size before relaxing)
 .rodata.BmGetBootDescription.str1.1
                0x0000000000013dd6       0x38 /tmp/BdsDxe.dll.Ow19WE.ltrans0.ltrans.o
 .rodata.BmGetUsbDescription.str2.2
                0x0000000000013e0e        0x4 /tmp/BdsDxe.dll.Ow19WE.ltrans0.ltrans.o
 .rodata.BmGetMiscDescription.str2.2
                0x0000000000013e12       0xc8 /tmp/BdsDxe.dll.Ow19WE.ltrans0.ltrans.o
 .rodata.BmGetMiscDescription.str1.1
                0x0000000000013eda       0x38 /tmp/BdsDxe.dll.Ow19WE.ltrans0.ltrans.o
                                         0x1b (size before relaxing)
 .rodata.BmGetDescriptionFromDiskInfo.str2.2
                0x0000000000013eda       0x2c /tmp/BdsDxe.dll.Ow19WE.ltrans0.ltrans.o
 .rodata.EndPerformanceMeasurementEx.constprop.0.str1.1
                0x0000000000013f06       0x64 /tmp/BdsDxe.dll.Ow19WE.ltrans0.ltrans.o
 .rodata.FileDevicePath.constprop.0.str2.2
                0x0000000000013f6a       0x2e /tmp/BdsDxe.dll.Ow19WE.ltrans0.ltrans.o
 .rodata.EfiGetNameGuidFromFwVolDevicePathNode.str1.1
                0x0000000000013f98       0x21 /tmp/BdsDxe.dll.Ow19WE.ltrans0.ltrans.o
 .rodata.WriteUnaligned16.str1.1
                0x0000000000013fb9       0x45 /tmp/BdsDxe.dll.Ow19WE.ltrans0.ltrans.o
                                         0x5c (size before relaxing)
 .rodata.BasePrintLibSPrintMarker.constprop.0.str1.1
                0x0000000000013ffe      0x28d /tmp/BdsDxe.dll.Ow19WE.ltrans0.ltrans.o
 *fill*         0x000000000001428b        0x1 
 .rodata.BasePrintLibSPrintMarker.constprop.0
                0x000000000001428c       0x5e /tmp/BdsDxe.dll.Ow19WE.ltrans0.ltrans.o
 .rodata.AsciiSPrint.constprop.0.str1.1
                0x00000000000142ea       0x18 /tmp/BdsDxe.dll.Ow19WE.ltrans0.ltrans.o
 .rodata.UnicodeVSPrintAsciiFormat.constprop.0.str1.1
                0x0000000000014302       0x87 /tmp/BdsDxe.dll.Ow19WE.ltrans0.ltrans.o
 .rodata.AsciiPrint.constprop.0.str1.1
                0x0000000000014389       0x5c /tmp/BdsDxe.dll.Ow19WE.ltrans0.ltrans.o
 .rodata.CompareMem.str1.1
                0x00000000000143e5      0x115 /tmp/BdsDxe.dll.Ow19WE.ltrans0.ltrans.o
 .rodata.ZeroMem.str1.1
                0x00000000000144fa       0x88 /tmp/BdsDxe.dll.Ow19WE.ltrans0.ltrans.o
 .rodata.UefiDevicePathLibConvertDevicePathToText.constprop.0.str2.2
                0x0000000000014582        0x4 /tmp/BdsDxe.dll.Ow19WE.ltrans0.ltrans.o
 .rodata.FilterAndProcess.constprop.0.str1.1
                0x0000000000014586       0x83 /tmp/BdsDxe.dll.Ow19WE.ltrans0.ltrans.o
 .rodata.BmPrintDp.str1.1
                0x0000000000014609        0x3 /tmp/BdsDxe.dll.Ow19WE.ltrans0.ltrans.o
 .rodata.BmGetControllerName.str2.2
                0x000000000001460c       0x1a /tmp/BdsDxe.dll.Ow19WE.ltrans0.ltrans.o
                                         0x24 (size before relaxing)
 .rodata.BmGetControllerName.str1.1
                0x0000000000014626        0xa /tmp/BdsDxe.dll.Ow19WE.ltrans0.ltrans.o
                                          0xb (size before relaxing)
 .rodata.BmDisplayMessages.str1.1
                0x0000000000014630       0x6e /tmp/BdsDxe.dll.Ow19WE.ltrans0.ltrans.o
 .rodata.BmDisplayMessages.str2.2
                0x000000000001469e       0x2c /tmp/BdsDxe.dll.Ow19WE.ltrans0.ltrans.o
 .rodata.PrintXY.constprop.0.str2.2
                0x00000000000146ca       0x4c /tmp/BdsDxe.dll.Ow19WE.ltrans0.ltrans.o
 .rodata.PrintXY.constprop.0.str1.1
                0x0000000000014716       0x6a /tmp/BdsDxe.dll.Ow19WE.ltrans0.ltrans.o
 .rodata.EfiBootManagerAddKeyOptionVariable.constprop.0.str2.2
                0x0000000000014780       0x10 /tmp/BdsDxe.dll.Ow19WE.ltrans0.ltrans.o
 .rodata.EfiBootManagerRegisterContinueKeyOption.constprop.0.str1.1
                0x0000000000014790       0x25 /tmp/BdsDxe.dll.Ow19WE.ltrans0.ltrans.o
 *fill*         0x00000000000147b5        0x1 
 .rodata.PlatformBootManagerWaitCallback.str2.2
                0x00000000000147b6        0x4 /tmp/BdsDxe.dll.Ow19WE.ltrans0.ltrans.o
 .rodata.BmRepairAllControllers.part.0.str1.1
                0x00000000000147ba       0x76 /tmp/BdsDxe.dll.Ow19WE.ltrans0.ltrans.o
 .rodata.EfiBootManagerStartHotkeyService.str2.2
                0x0000000000014830       0x24 /tmp/BdsDxe.dll.Ow19WE.ltrans0.ltrans.o
 .rodata.EfiBootManagerStartHotkeyService.str1.1
                0x0000000000014854       0x49 /tmp/BdsDxe.dll.Ow19WE.ltrans0.ltrans.o
 .rodata.BmGetNextLoadOptionBuffer.str1.1
                0x000000000001489d       0x13 /tmp/BdsDxe.dll.Ow19WE.ltrans0.ltrans.o
                                         0x15 (size before relaxing)
 .rodata.EfiBootManagerDeleteLoadOptionVariable.str1.1
                0x00000000000148b0       0x6f /tmp/BdsDxe.dll.Ow19WE.ltrans0.ltrans.o
 .rodata.EfiBootManagerVariableToLoadOptionEx.part.0.str1.1
                0x000000000001491f       0x23 /tmp/BdsDxe.dll.Ow19WE.ltrans0.ltrans.o
 .rodata.BmCollectLoadOptions.str1.1
                0x0000000000014942       0x1f /tmp/BdsDxe.dll.Ow19WE.ltrans0.ltrans.o
 .rodata.BmHotkeyCallback.str1.1
                0x0000000000014961       0xad /tmp/BdsDxe.dll.Ow19WE.ltrans0.ltrans.o
 .rodata.EfiBootManagerGetLoadOptions.str1.1
                0x0000000000014a0e       0x7f /tmp/BdsDxe.dll.Ow19WE.ltrans0.ltrans.o
                                         0x97 (size before relaxing)
 .rodata.EfiBootManagerLoadOptionToVariable.str1.1
                0x0000000000014a8d       0x19 /tmp/BdsDxe.dll.Ow19WE.ltrans0.ltrans.o
 .rodata.BmGetFreeOptionNumber.str1.1
                0x0000000000014aa6       0x92 /tmp/BdsDxe.dll.Ow19WE.ltrans0.ltrans.o
 .rodata.BmGetFreeOptionNumber.str2.2
                0x0000000000014b38       0x12 /tmp/BdsDxe.dll.Ow19WE.ltrans0.ltrans.o
 .rodata.EfiBootManagerAddLoadOptionVariable.constprop.0.str1.1
                0x0000000000014b4a       0x1f /tmp/BdsDxe.dll.Ow19WE.ltrans0.ltrans.o
 *fill*         0x0000000000014b69        0x1 
 .rodata.EfiBootManagerGetBootManagerMenu.str2.2
                0x0000000000014b6a       0x24 /tmp/BdsDxe.dll.Ow19WE.ltrans0.ltrans.o
 .rodata.EfiBootManagerGetBootManagerMenu.str1.1
                0x0000000000014b8e       0xf3 /tmp/BdsDxe.dll.Ow19WE.ltrans0.ltrans.o
 .rodata.EfiBootManagerRefreshAllBootOption.str1.1
                0x0000000000014c81       0x34 /tmp/BdsDxe.dll.Ow19WE.ltrans0.ltrans.o
 *fill*         0x0000000000014cb5        0x1 
 .rodata.EfiBootManagerRefreshAllBootOption.str2.2
                0x0000000000014cb6        0xc /tmp/BdsDxe.dll.Ow19WE.ltrans0.ltrans.o
 .rodata.EfiBootManagerProcessLoadOption.str1.1
                0x0000000000014cc2       0x34 /tmp/BdsDxe.dll.Ow19WE.ltrans0.ltrans.o
 .rodata.str2.2
                0x0000000000014cf6      0x116 /tmp/BdsDxe.dll.Ow19WE.ltrans0.ltrans.o
                                        0x138 (size before relaxing)
 .rodata.__FUNCTION__.15438
                0x0000000000014e0c       0x11 /tmp/BdsDxe.dll.Ow19WE.ltrans0.ltrans.o
 .rodata.__FUNCTION__.15450
                0x0000000000014e1d        0xa /tmp/BdsDxe.dll.Ow19WE.ltrans0.ltrans.o
 .rodata.__FUNCTION__.15456
                0x0000000000014e27        0x8 /tmp/BdsDxe.dll.Ow19WE.ltrans0.ltrans.o
 .rodata.__FUNCTION__.18861
                0x0000000000014e2f       0x17 /tmp/BdsDxe.dll.Ow19WE.ltrans0.ltrans.o
 .rodata.__FUNCTION__.1941
                0x0000000000014e46        0x8 /tmp/BdsDxe.dll.Ow19WE.ltrans0.ltrans.o
 .rodata._gPcd_FixedAtBuild_PcdBootManagerMenuFile
                0x0000000000014e4e       0x10 /tmp/BdsDxe.dll.Ow19WE.ltrans0.ltrans.o
                0x0000000000014e4e                _gPcd_FixedAtBuild_PcdBootManagerMenuFile
 .rodata._gPcd_FixedAtBuild_PcdDriverHealthConfigureForm
                0x0000000000014e5e       0x10 /tmp/BdsDxe.dll.Ow19WE.ltrans0.ltrans.o
                0x0000000000014e5e                _gPcd_FixedAtBuild_PcdDriverHealthConfigureForm
 *fill*         0x0000000000014e6e        0x2 
 .rodata.mBdsLoadOptionName
                0x0000000000014e70       0x20 /tmp/BdsDxe.dll.Ow19WE.ltrans0.ltrans.o
                0x0000000000014e70                mBdsLoadOptionName
                0x0000000000014e70                mBmLoadOptionName
 .rodata.mBmBootDescriptionHandlers
                0x0000000000014e90       0x30 /tmp/BdsDxe.dll.Ow19WE.ltrans0.ltrans.o
 .rodata.mBmHealthStatusText
                0x0000000000014ec0       0x30 /tmp/BdsDxe.dll.Ow19WE.ltrans0.ltrans.o
 .rodata.mBmLoadOptionOrderName
                0x0000000000014ef0       0x20 /tmp/BdsDxe.dll.Ow19WE.ltrans0.ltrans.o
 .rodata.mErrorString
                0x0000000000014f10      0x2b5 /tmp/BdsDxe.dll.Ow19WE.ltrans0.ltrans.o
 *fill*         0x00000000000151c5        0x3 
 .rodata.mUefiDevicePathLibToTextTable
                0x00000000000151c8      0x320 /tmp/BdsDxe.dll.Ow19WE.ltrans0.ltrans.o
 .rodata.mWarningString
                0x00000000000154e8       0x96 /tmp/BdsDxe.dll.Ow19WE.ltrans0.ltrans.o
 .rodata.BmEndOfBdsPerfCode.str1.1
                0x000000000001557e        0x4 /tmp/BdsDxe.dll.Ow19WE.ltrans1.ltrans.o
 .rodata.DebugAssert.str1.1
                0x0000000000015582        0x7 /tmp/BdsDxe.dll.Ow19WE.ltrans1.ltrans.o
                                         0x1f (size before relaxing)
 .rodata.GetPerformanceMeasurementProtocol.str1.1
                0x0000000000015589       0x27 /tmp/BdsDxe.dll.Ow19WE.ltrans1.ltrans.o
                                         0x80 (size before relaxing)
 .rodata.SetDevicePathNodeLength.str1.1
                0x00000000000155b0       0x9c /tmp/BdsDxe.dll.Ow19WE.ltrans1.ltrans.o
 .rodata.DevicePathNodeLength.str1.1
                0x000000000001564c       0x9c /tmp/BdsDxe.dll.Ow19WE.ltrans1.ltrans.o
                                         0x15 (size before relaxing)
 .rodata.EfiBootManagerConnectDevicePath.str1.1
                0x000000000001564c       0xa1 /tmp/BdsDxe.dll.Ow19WE.ltrans1.ltrans.o
 .rodata.AsciiStrLen.str1.1
                0x00000000000156ed       0x8d /tmp/BdsDxe.dll.Ow19WE.ltrans1.ltrans.o
 .rodata.AsciiStrnCmp.str1.1
                0x000000000001577a       0x70 /tmp/BdsDxe.dll.Ow19WE.ltrans1.ltrans.o
 .rodata.FreePool.str1.1
                0x00000000000157ea       0x5b /tmp/BdsDxe.dll.Ow19WE.ltrans1.ltrans.o
                                         0x90 (size before relaxing)
 .rodata.BmExpandMediaDevicePath.str1.1
                0x0000000000015845       0x21 /tmp/BdsDxe.dll.Ow19WE.ltrans1.ltrans.o
                                         0x70 (size before relaxing)
 .rodata.GetVariable2.str1.1
                0x0000000000015866       0x5d /tmp/BdsDxe.dll.Ow19WE.ltrans1.ltrans.o
                                         0x9c (size before relaxing)
 .rodata.InitializeLangVariable.str1.1
                0x00000000000158c3       0x8f /tmp/BdsDxe.dll.Ow19WE.ltrans1.ltrans.o
 .rodata.FreePages.str1.1
                0x0000000000015952        0xb /tmp/BdsDxe.dll.Ow19WE.ltrans1.ltrans.o
 .rodata.BmDestroyRamDisk.str1.1
                0x000000000001595d       0x82 /tmp/BdsDxe.dll.Ow19WE.ltrans1.ltrans.o
 .rodata.BdsFormalizeConsoleVariable.str1.1
                0x00000000000159df       0x47 /tmp/BdsDxe.dll.Ow19WE.ltrans1.ltrans.o
 .rodata.CheckDeferredLoadImageOnReadyToBoot.str1.1
                0x0000000000015a26       0x2e /tmp/BdsDxe.dll.Ow19WE.ltrans1.ltrans.o
 .rodata.UnicodeVSPrint.str1.1
                0x0000000000015a54       0x6d /tmp/BdsDxe.dll.Ow19WE.ltrans1.ltrans.o
 .rodata.Print.str1.1
                0x0000000000015a54       0x73 /tmp/BdsDxe.dll.Ow19WE.ltrans1.ltrans.o
 .rodata.AsciiStrToUnicodeStrS.str1.1
                0x0000000000015a54       0x64 /tmp/BdsDxe.dll.Ow19WE.ltrans1.ltrans.o
                                        0x13a (size before relaxing)
 .rodata.StrnLenS.str1.1
                0x0000000000015ab8       0x23 /tmp/BdsDxe.dll.Ow19WE.ltrans1.ltrans.o
 .rodata.StrCatS.str1.1
                0x0000000000015ab8       0x59 /tmp/BdsDxe.dll.Ow19WE.ltrans1.ltrans.o
                                         0xd6 (size before relaxing)
 .rodata.StrLen.str1.1
                0x0000000000015b11       0x3a /tmp/BdsDxe.dll.Ow19WE.ltrans1.ltrans.o
 .rodata.StrnCmp.str1.1
                0x0000000000015b4b       0x72 /tmp/BdsDxe.dll.Ow19WE.ltrans1.ltrans.o
 .rodata.CopyMem.str1.1
                0x0000000000015bbd       0x52 /tmp/BdsDxe.dll.Ow19WE.ltrans1.ltrans.o
                                         0xd3 (size before relaxing)
 .rodata.GetBestLanguage.str1.1
                0x0000000000015c0f       0x23 /tmp/BdsDxe.dll.Ow19WE.ltrans1.ltrans.o
 .rodata.UefiDevicePathLibCatPrint.str1.1
                0x0000000000015c32       0x6b /tmp/BdsDxe.dll.Ow19WE.ltrans1.ltrans.o
 *fill*         0x0000000000015c9d        0x1 
 .rodata.DevPathToTextNodeGeneric.str2.2
                0x0000000000015c9e       0x22 /tmp/BdsDxe.dll.Ow19WE.ltrans1.ltrans.o
                                         0x34 (size before relaxing)
 .rodata.DevPathToTextBBS.str2.2
                0x0000000000015cc0       0x2c /tmp/BdsDxe.dll.Ow19WE.ltrans1.ltrans.o
                                         0x3a (size before relaxing)
 .rodata.DevPathRelativeOffsetRange.str2.2
                0x0000000000015cec       0x28 /tmp/BdsDxe.dll.Ow19WE.ltrans1.ltrans.o
 .rodata.DevPathToTextFvFile.str2.2
                0x0000000000015d14       0x16 /tmp/BdsDxe.dll.Ow19WE.ltrans1.ltrans.o
 .rodata.DevPathToTextFv.str2.2
                0x0000000000015d2a        0xe /tmp/BdsDxe.dll.Ow19WE.ltrans1.ltrans.o
 .rodata.DevPathToTextMediaProtocol.str2.2
                0x0000000000015d38       0x14 /tmp/BdsDxe.dll.Ow19WE.ltrans1.ltrans.o
 .rodata.DevPathToTextFilePath.str2.2
                0x0000000000015d4c        0x6 /tmp/BdsDxe.dll.Ow19WE.ltrans1.ltrans.o
 .rodata.DevPathToTextCDROM.str2.2
                0x0000000000015d52       0x48 /tmp/BdsDxe.dll.Ow19WE.ltrans1.ltrans.o
 .rodata.DevPathToTextHardDrive.str2.2
                0x0000000000015d9a       0x64 /tmp/BdsDxe.dll.Ow19WE.ltrans1.ltrans.o
                                         0x7e (size before relaxing)
 .rodata.DevPathToTextUri.str1.1
                0x0000000000015dfe       0x17 /tmp/BdsDxe.dll.Ow19WE.ltrans1.ltrans.o
 *fill*         0x0000000000015e15        0x1 
 .rodata.DevPathToTextUri.str2.2
                0x0000000000015e16       0x10 /tmp/BdsDxe.dll.Ow19WE.ltrans1.ltrans.o
 .rodata.DevPathToTextBluetoothLE.str2.2
                0x0000000000015e26       0x5a /tmp/BdsDxe.dll.Ow19WE.ltrans1.ltrans.o
 .rodata.DevPathToTextWiFi.str2.2
                0x0000000000015e80       0x14 /tmp/BdsDxe.dll.Ow19WE.ltrans1.ltrans.o
 .rodata.DevPathToTextBluetooth.str2.2
                0x0000000000015e94       0x48 /tmp/BdsDxe.dll.Ow19WE.ltrans1.ltrans.o
 .rodata.DevPathToTextVlan.str2.2
                0x0000000000015edc       0x12 /tmp/BdsDxe.dll.Ow19WE.ltrans1.ltrans.o
 .rodata.DevPathToTextiSCSI.str2.2
                0x0000000000015eee       0x76 /tmp/BdsDxe.dll.Ow19WE.ltrans1.ltrans.o
                                         0x90 (size before relaxing)
 .rodata.DevPathToTextUart.str2.2
                0x0000000000015f64       0x5c /tmp/BdsDxe.dll.Ow19WE.ltrans1.ltrans.o
                                         0x74 (size before relaxing)
 .rodata.DevPathToTextUart
                0x0000000000015fc0        0x4 /tmp/BdsDxe.dll.Ow19WE.ltrans1.ltrans.o
 .rodata.DevPathToTextInfiniBand.str2.2
                0x0000000000015fc4       0x4c /tmp/BdsDxe.dll.Ow19WE.ltrans1.ltrans.o
 .rodata.CatIPv6Address.str2.2
                0x0000000000016010       0x90 /tmp/BdsDxe.dll.Ow19WE.ltrans1.ltrans.o
 .rodata.CatIPv4Address.str2.2
                0x00000000000160a0       0x18 /tmp/BdsDxe.dll.Ow19WE.ltrans1.ltrans.o
 .rodata.DevPathToTextDns.str2.2
                0x00000000000160b8        0xa /tmp/BdsDxe.dll.Ow19WE.ltrans1.ltrans.o
 .rodata.CatNetworkProtocol.str2.2
                0x00000000000160c2        0x8 /tmp/BdsDxe.dll.Ow19WE.ltrans1.ltrans.o
                                         0x12 (size before relaxing)
 .rodata.DevPathToTextIPv6.str2.2
                0x00000000000160ca       0x80 /tmp/BdsDxe.dll.Ow19WE.ltrans1.ltrans.o
                                         0x8e (size before relaxing)
 .rodata.DevPathToTextIPv4.str2.2
                0x000000000001614a       0x24 /tmp/BdsDxe.dll.Ow19WE.ltrans1.ltrans.o
 .rodata.DevPathToTextMacAddr.str2.2
                0x000000000001616e        0xa /tmp/BdsDxe.dll.Ow19WE.ltrans1.ltrans.o
 .rodata.DevPathToTextI2O.str2.2
                0x0000000000016178       0x14 /tmp/BdsDxe.dll.Ow19WE.ltrans1.ltrans.o
 .rodata.DevPathToTextSata.str2.2
                0x000000000001618c       0x2a /tmp/BdsDxe.dll.Ow19WE.ltrans1.ltrans.o
 .rodata.DevPathToTextUsbClass.str2.2
                0x00000000000161b6      0x250 /tmp/BdsDxe.dll.Ow19WE.ltrans1.ltrans.o
 *fill*         0x0000000000016406        0x2 
 .rodata.DevPathToTextUsbClass
                0x0000000000016408        0xe /tmp/BdsDxe.dll.Ow19WE.ltrans1.ltrans.o
 .rodata.DevPathToTextLogicalUnit.str2.2
                0x0000000000016416       0x16 /tmp/BdsDxe.dll.Ow19WE.ltrans1.ltrans.o
 .rodata.DevPathToTextUsb.str2.2
                0x000000000001642c       0x1e /tmp/BdsDxe.dll.Ow19WE.ltrans1.ltrans.o
 .rodata.DevPathToText1394.str2.2
                0x000000000001644a       0x1c /tmp/BdsDxe.dll.Ow19WE.ltrans1.ltrans.o
 .rodata.DevPathToTextEmmc.str2.2
                0x0000000000016466       0x16 /tmp/BdsDxe.dll.Ow19WE.ltrans1.ltrans.o
 .rodata.DevPathToTextSd.str2.2
                0x000000000001647c       0x12 /tmp/BdsDxe.dll.Ow19WE.ltrans1.ltrans.o
 .rodata.DevPathToTextUfs.str2.2
                0x000000000001648e       0x1e /tmp/BdsDxe.dll.Ow19WE.ltrans1.ltrans.o
 .rodata.DevPathToTextNVMe.str2.2
                0x00000000000164ac       0x66 /tmp/BdsDxe.dll.Ow19WE.ltrans1.ltrans.o
 .rodata.DevPathToTextSasEx.str2.2
                0x0000000000016512       0xb4 /tmp/BdsDxe.dll.Ow19WE.ltrans1.ltrans.o
                                         0xc0 (size before relaxing)
 .rodata.DevPathToTextFibreEx.str2.2
                0x00000000000165c6       0x16 /tmp/BdsDxe.dll.Ow19WE.ltrans1.ltrans.o
 .rodata.DevPathToTextFibre.str2.2
                0x00000000000165dc       0x26 /tmp/BdsDxe.dll.Ow19WE.ltrans1.ltrans.o
 .rodata.DevPathToTextScsi.str2.2
                0x0000000000016602       0x20 /tmp/BdsDxe.dll.Ow19WE.ltrans1.ltrans.o
 .rodata.DevPathToTextAtapi.str2.2
                0x0000000000016622       0x72 /tmp/BdsDxe.dll.Ow19WE.ltrans1.ltrans.o
 .rodata.DevPathToTextAcpiAdr.str2.2
                0x0000000000016694       0x26 /tmp/BdsDxe.dll.Ow19WE.ltrans1.ltrans.o
 .rodata.DevPathToTextAcpiEx.str2.2
                0x00000000000166ba      0x12c /tmp/BdsDxe.dll.Ow19WE.ltrans1.ltrans.o
                                        0x148 (size before relaxing)
 .rodata.DevPathToTextAcpi.str2.2
                0x00000000000167e6       0xc2 /tmp/BdsDxe.dll.Ow19WE.ltrans1.ltrans.o
 .rodata.DevPathToTextBmc.str2.2
                0x00000000000168a8       0x20 /tmp/BdsDxe.dll.Ow19WE.ltrans1.ltrans.o
 .rodata.DevPathToTextController.str2.2
                0x00000000000168c8       0x16 /tmp/BdsDxe.dll.Ow19WE.ltrans1.ltrans.o
 .rodata.DevPathToTextMemMap.str2.2
                0x00000000000168de       0x3e /tmp/BdsDxe.dll.Ow19WE.ltrans1.ltrans.o
 .rodata.DevPathToTextPccard.str2.2
                0x000000000001691c       0x1a /tmp/BdsDxe.dll.Ow19WE.ltrans1.ltrans.o
 .rodata.DevPathToTextPci.str2.2
                0x0000000000016936       0x1e /tmp/BdsDxe.dll.Ow19WE.ltrans1.ltrans.o
 .rodata.InternalAllocateCopyPool.str1.1
                0x0000000000016954       0x3f /tmp/BdsDxe.dll.Ow19WE.ltrans1.ltrans.o
 .rodata.DevPathToTextUsbWWID.str1.1
                0x0000000000016993       0x17 /tmp/BdsDxe.dll.Ow19WE.ltrans1.ltrans.o
 .rodata.DevPathToTextUsbWWID.str2.2
                0x00000000000169aa       0x3a /tmp/BdsDxe.dll.Ow19WE.ltrans1.ltrans.o
 .rodata.BmExpandLoadFile.str1.1
                0x00000000000169e4       0x56 /tmp/BdsDxe.dll.Ow19WE.ltrans1.ltrans.o
 .rodata.CompareGuid.str1.1
                0x0000000000016a3a       0x7e /tmp/BdsDxe.dll.Ow19WE.ltrans1.ltrans.o
 .rodata.BmUpdateSystemTableConsole.str1.1
                0x0000000000016ab8       0x32 /tmp/BdsDxe.dll.Ow19WE.ltrans1.ltrans.o
 .rodata.EfiBootManagerConnectAllDefaultConsoles.str1.1
                0x0000000000016aea       0x23 /tmp/BdsDxe.dll.Ow19WE.ltrans1.ltrans.o
 *fill*         0x0000000000016b0d        0x1 
 .rodata.EfiBootManagerConnectAllDefaultConsoles.str2.2
                0x0000000000016b0e       0x28 /tmp/BdsDxe.dll.Ow19WE.ltrans1.ltrans.o
 .rodata.BmGetNextLoadOptionDevicePath.str1.1
                0x0000000000016b36       0x19 /tmp/BdsDxe.dll.Ow19WE.ltrans1.ltrans.o
 *fill*         0x0000000000016b4f        0x1 
 .rodata.BmGetNextLoadOptionDevicePath.str2.2
                0x0000000000016b50        0xa /tmp/BdsDxe.dll.Ow19WE.ltrans1.ltrans.o
 .rodata.ProcessLoadOptions.str1.1
                0x0000000000016b5a       0x55 /tmp/BdsDxe.dll.Ow19WE.ltrans1.ltrans.o
 .rodata.GetHobList.str1.1
                0x0000000000016baf       0x59 /tmp/BdsDxe.dll.Ow19WE.ltrans1.ltrans.o
 .rodata.EfiBootManagerBoot.str2.2
                0x0000000000016c08       0x44 /tmp/BdsDxe.dll.Ow19WE.ltrans1.ltrans.o
                                         0x5c (size before relaxing)
 .rodata.EfiBootManagerBoot.str1.1
                0x0000000000016c4c      0x243 /tmp/BdsDxe.dll.Ow19WE.ltrans1.ltrans.o
                                        0x260 (size before relaxing)
 *fill*         0x0000000000016e8f        0x1 
 .rodata.DevPathToTextRamDisk.str2.2
                0x0000000000016e90       0xca /tmp/BdsDxe.dll.Ow19WE.ltrans1.ltrans.o
                                        0x136 (size before relaxing)
 .rodata.DevPathToTextVendor.str2.2
                0x0000000000016f5a      0x154 /tmp/BdsDxe.dll.Ow19WE.ltrans1.ltrans.o
                                        0x166 (size before relaxing)
 .rodata.CopyGuid.str1.1
                0x00000000000170ae       0x3b /tmp/BdsDxe.dll.Ow19WE.ltrans1.ltrans.o
 .rodata.GetPcdProtocol.str1.1
                0x00000000000170e9       0x58 /tmp/BdsDxe.dll.Ow19WE.ltrans1.ltrans.o
 *fill*         0x0000000000017141        0x1 
 .rodata.BdsEntry.str2.2
                0x0000000000017142      0x164 /tmp/BdsDxe.dll.Ow19WE.ltrans1.ltrans.o
                                        0x21e (size before relaxing)
 .rodata.BdsEntry.str1.1
                0x00000000000172a6      0x53b /tmp/BdsDxe.dll.Ow19WE.ltrans1.ltrans.o
                                        0x61e (size before relaxing)
 *fill*         0x00000000000177e1        0x3 
 .rodata.BdsEntry
                0x00000000000177e4       0x12 /tmp/BdsDxe.dll.Ow19WE.ltrans1.ltrans.o
 .rodata.__stack_chk_fail.str1.1
                0x00000000000177f6       0x2e /tmp/BdsDxe.dll.Ow19WE.ltrans1.ltrans.o
 .rodata._ModuleEntryPoint.str1.1
                0x0000000000017824      0x28e /tmp/BdsDxe.dll.Ow19WE.ltrans1.ltrans.o
 .rodata.str2.2
                0x0000000000017ab2       0xd6 /tmp/BdsDxe.dll.Ow19WE.ltrans1.ltrans.o
                                         0xf0 (size before relaxing)
 .rodata.CSWTCH.42
                0x0000000000017b88        0x6 /tmp/BdsDxe.dll.Ow19WE.ltrans1.ltrans.o
 *fill*         0x0000000000017b8e        0x2 
 .rodata.CSWTCH.58
                0x0000000000017b90       0x30 /tmp/BdsDxe.dll.Ow19WE.ltrans1.ltrans.o
 .rodata.__FUNCTION__.15488
                0x0000000000017bc0       0x17 /tmp/BdsDxe.dll.Ow19WE.ltrans1.ltrans.o
 .rodata.__FUNCTION__.15521
                0x0000000000017bd7       0x1b /tmp/BdsDxe.dll.Ow19WE.ltrans1.ltrans.o
 .rodata.__FUNCTION__.15545
                0x0000000000017bf2       0x20 /tmp/BdsDxe.dll.Ow19WE.ltrans1.ltrans.o
 .rodata.__FUNCTION__.19007
                0x0000000000017c12       0x11 /tmp/BdsDxe.dll.Ow19WE.ltrans1.ltrans.o
 .rodata.__FUNCTION__.1964
                0x0000000000017c23        0x8 /tmp/BdsDxe.dll.Ow19WE.ltrans1.ltrans.o
 .rodata.__FUNCTION__.2243
                0x0000000000017c2b       0x16 /tmp/BdsDxe.dll.Ow19WE.ltrans1.ltrans.o
 *fill*         0x0000000000017c41        0x1 
 .rodata._gPcd_FixedAtBuild_PcdFirmwareVendor
                0x0000000000017c42       0x3a /tmp/BdsDxe.dll.Ow19WE.ltrans1.ltrans.o
 .rodata._gPcd_FixedAtBuild_PcdUefiVariableDefaultLang
                0x0000000000017c7c        0x4 /tmp/BdsDxe.dll.Ow19WE.ltrans1.ltrans.o
 .rodata._gPcd_FixedAtBuild_PcdUefiVariableDefaultLangCodes
                0x0000000000017c80        0xd /tmp/BdsDxe.dll.Ow19WE.ltrans1.ltrans.o
 .rodata._gPcd_FixedAtBuild_PcdUefiVariableDefaultPlatformLang
                0x0000000000017c8d        0x6 /tmp/BdsDxe.dll.Ow19WE.ltrans1.ltrans.o
 .rodata._gPcd_FixedAtBuild_PcdUefiVariableDefaultPlatformLangCodes
                0x0000000000017c93        0x6 /tmp/BdsDxe.dll.Ow19WE.ltrans1.ltrans.o
 *fill*         0x0000000000017c99        0x7 
 .rodata.mConVarName
                0x0000000000017ca0       0x30 /tmp/BdsDxe.dll.Ow19WE.ltrans1.ltrans.o
 .rodata.mHexStr
                0x0000000000017cd0       0x10 /tmp/BdsDxe.dll.Ow19WE.ltrans1.ltrans.o
 .rodata.mReadOnlyVariables
                0x0000000000017ce0       0x28 /tmp/BdsDxe.dll.Ow19WE.ltrans1.ltrans.o
 .rodata.mUefiDevicePathLibEndDevicePath
                0x0000000000017d08        0x4 /tmp/BdsDxe.dll.Ow19WE.ltrans1.ltrans.o
 *fill*         0x0000000000017d0c        0x4 
 .rodata.mUefiDevicePathLibToTextTableGeneric
                0x0000000000017d10       0x60 /tmp/BdsDxe.dll.Ow19WE.ltrans1.ltrans.o
 *(.got .got.*)
 .got           0x0000000000017d70        0x8 /home/alastair/pftf-rpi4/edk2/ArmPkg/Library/GccLto/liblto-aarch64.a
                0x0000000000017d70                _GLOBAL_OFFSET_TABLE_
 .got.plt       0x0000000000017d78       0x18 /home/alastair/pftf-rpi4/edk2/ArmPkg/Library/GccLto/liblto-aarch64.a
 *:AutoGen.obj(.data.g*Guid)

.plt            0x0000000000017d90        0x0
 .plt           0x0000000000017d90        0x0 /home/alastair/pftf-rpi4/edk2/ArmPkg/Library/GccLto/liblto-aarch64.a

.data           0x0000000000018000      0x638
 *(.data .data.* .gnu.linkonce.d.*)
 .data.rel.ro   0x0000000000018000        0x0 /home/alastair/pftf-rpi4/edk2/ArmPkg/Library/GccLto/liblto-aarch64.a
 .data.Fallback.15440
                0x0000000000018000       0x34 /tmp/BdsDxe.dll.Ow19WE.ltrans0.ltrans.o
 .data.gEdkiiPlatformBootManagerProtocolGuid
                0x0000000000018034       0x10 /tmp/BdsDxe.dll.Ow19WE.ltrans0.ltrans.o
 .data.gEdkiiVariableLockProtocolGuid
                0x0000000000018044       0x10 /tmp/BdsDxe.dll.Ow19WE.ltrans0.ltrans.o
                0x0000000000018044                gEdkiiVariableLockProtocolGuid
 .data.gEfiBlockIoProtocolGuid
                0x0000000000018054       0x10 /tmp/BdsDxe.dll.Ow19WE.ltrans0.ltrans.o
                0x0000000000018054                gEfiBlockIoProtocolGuid
 .data.gEfiCallerIdGuid
                0x0000000000018064       0x10 /tmp/BdsDxe.dll.Ow19WE.ltrans0.ltrans.o
                0x0000000000018064                gEfiCallerIdGuid
 .data.gEfiComponentName2ProtocolGuid
                0x0000000000018074       0x10 /tmp/BdsDxe.dll.Ow19WE.ltrans0.ltrans.o
 .data.gEfiComponentNameProtocolGuid
                0x0000000000018084       0x10 /tmp/BdsDxe.dll.Ow19WE.ltrans0.ltrans.o
 .data.gEfiDevicePathProtocolGuid
                0x0000000000018094       0x10 /tmp/BdsDxe.dll.Ow19WE.ltrans0.ltrans.o
                0x0000000000018094                gEfiDevicePathProtocolGuid
 .data.gEfiDiskInfoAhciInterfaceGuid
                0x00000000000180a4       0x10 /tmp/BdsDxe.dll.Ow19WE.ltrans0.ltrans.o
 .data.gEfiDiskInfoIdeInterfaceGuid
                0x00000000000180b4       0x10 /tmp/BdsDxe.dll.Ow19WE.ltrans0.ltrans.o
 .data.gEfiDiskInfoProtocolGuid
                0x00000000000180c4       0x10 /tmp/BdsDxe.dll.Ow19WE.ltrans0.ltrans.o
 .data.gEfiDiskInfoScsiInterfaceGuid
                0x00000000000180d4       0x10 /tmp/BdsDxe.dll.Ow19WE.ltrans0.ltrans.o
 .data.gEfiDiskInfoSdMmcInterfaceGuid
                0x00000000000180e4       0x10 /tmp/BdsDxe.dll.Ow19WE.ltrans0.ltrans.o
 .data.gEfiDriverHealthProtocolGuid
                0x00000000000180f4       0x10 /tmp/BdsDxe.dll.Ow19WE.ltrans0.ltrans.o
 .data.gEfiEventReadyToBootGuid
                0x0000000000018104       0x10 /tmp/BdsDxe.dll.Ow19WE.ltrans0.ltrans.o
                0x0000000000018104                gEfiEventReadyToBootGuid
 .data.gEfiFileInfoGuid
                0x0000000000018114       0x10 /tmp/BdsDxe.dll.Ow19WE.ltrans0.ltrans.o
 .data.gEfiFirmwareVolume2ProtocolGuid
                0x0000000000018124       0x10 /tmp/BdsDxe.dll.Ow19WE.ltrans0.ltrans.o
                0x0000000000018124                gEfiFirmwareVolume2ProtocolGuid
 .data.gEfiFormBrowser2ProtocolGuid
                0x0000000000018134       0x10 /tmp/BdsDxe.dll.Ow19WE.ltrans0.ltrans.o
 .data.gEfiGlobalVariableGuid
                0x0000000000018144       0x10 /tmp/BdsDxe.dll.Ow19WE.ltrans0.ltrans.o
                0x0000000000018144                gEfiGlobalVariableGuid
 .data.gEfiGraphicsOutputProtocolGuid
                0x0000000000018154       0x10 /tmp/BdsDxe.dll.Ow19WE.ltrans0.ltrans.o
                0x0000000000018154                gEfiGraphicsOutputProtocolGuid
 .data.gEfiHiiFontProtocolGuid
                0x0000000000018164       0x10 /tmp/BdsDxe.dll.Ow19WE.ltrans0.ltrans.o
                0x0000000000018164                gEfiHiiFontProtocolGuid
 .data.gEfiLoadFileProtocolGuid
                0x0000000000018174       0x10 /tmp/BdsDxe.dll.Ow19WE.ltrans0.ltrans.o
                0x0000000000018174                gEfiLoadFileProtocolGuid
 .data.gEfiLoadedImageProtocolGuid
                0x0000000000018184       0x10 /tmp/BdsDxe.dll.Ow19WE.ltrans0.ltrans.o
                0x0000000000018184                gEfiLoadedImageProtocolGuid
 .data.gEfiNvmExpressPassThruProtocolGuid
                0x0000000000018194       0x10 /tmp/BdsDxe.dll.Ow19WE.ltrans0.ltrans.o
 .data.gEfiSimpleFileSystemProtocolGuid
                0x00000000000181a4       0x10 /tmp/BdsDxe.dll.Ow19WE.ltrans0.ltrans.o
                0x00000000000181a4                gEfiSimpleFileSystemProtocolGuid
 .data.gEfiSimpleTextInputExProtocolGuid
                0x00000000000181b4       0x10 /tmp/BdsDxe.dll.Ow19WE.ltrans0.ltrans.o
 .data.gEfiSimpleTextOutProtocolGuid
                0x00000000000181c4       0x10 /tmp/BdsDxe.dll.Ow19WE.ltrans0.ltrans.o
                0x00000000000181c4                gEfiSimpleTextOutProtocolGuid
 .data.gEfiUsbIoProtocolGuid
                0x00000000000181d4       0x10 /tmp/BdsDxe.dll.Ow19WE.ltrans0.ltrans.o
                0x00000000000181d4                gEfiUsbIoProtocolGuid
 .data.mBmAutoCreateBootOptionGuid
                0x00000000000181e4       0x10 /tmp/BdsDxe.dll.Ow19WE.ltrans0.ltrans.o
                0x00000000000181e4                mBmAutoCreateBootOptionGuid
 *fill*         0x00000000000181f4        0x4 
 .data.mBmHotkeyBootOption
                0x00000000000181f8       0x58 /tmp/BdsDxe.dll.Ow19WE.ltrans0.ltrans.o
                0x00000000000181f8                mBmHotkeyBootOption
 .data.mBmHotkeyList
                0x0000000000018250       0x10 /tmp/BdsDxe.dll.Ow19WE.ltrans0.ltrans.o
 .data.mBmHotkeyLock
                0x0000000000018260       0x18 /tmp/BdsDxe.dll.Ow19WE.ltrans0.ltrans.o
 .data.mBmUefiPrefix
                0x0000000000018278        0xc /tmp/BdsDxe.dll.Ow19WE.ltrans0.ltrans.o
 *fill*         0x0000000000018284        0x4 
 .data.mPlatformBootDescriptionHandlers
                0x0000000000018288       0x10 /tmp/BdsDxe.dll.Ow19WE.ltrans0.ltrans.o
 .data.__stack_chk_guard
                0x0000000000018298        0x8 /tmp/BdsDxe.dll.Ow19WE.ltrans1.ltrans.o
                0x0000000000018298                __stack_chk_guard
 .data.gBds     0x00000000000182a0        0x8 /tmp/BdsDxe.dll.Ow19WE.ltrans1.ltrans.o
 .data.gBootDiscoveryPolicyMgrFormsetGuid
                0x00000000000182a8       0x10 /tmp/BdsDxe.dll.Ow19WE.ltrans1.ltrans.o
 .data.gEdkiiBootLogo2ProtocolGuid
                0x00000000000182b8       0x10 /tmp/BdsDxe.dll.Ow19WE.ltrans1.ltrans.o
 .data.gEdkiiPerformanceMeasurementProtocolGuid
                0x00000000000182c8       0x10 /tmp/BdsDxe.dll.Ow19WE.ltrans1.ltrans.o
 .data.gEdkiiPlatformLogoProtocolGuid
                0x00000000000182d8       0x10 /tmp/BdsDxe.dll.Ow19WE.ltrans1.ltrans.o
 .data.gEfiBdsArchProtocolGuid
                0x00000000000182e8       0x10 /tmp/BdsDxe.dll.Ow19WE.ltrans1.ltrans.o
 .data.gEfiBootLogoProtocolGuid
                0x00000000000182f8       0x10 /tmp/BdsDxe.dll.Ow19WE.ltrans1.ltrans.o
 .data.gEfiBootManagerPolicyConnectAllGuid
                0x0000000000018308       0x10 /tmp/BdsDxe.dll.Ow19WE.ltrans1.ltrans.o
 .data.gEfiBootManagerPolicyNetworkGuid
                0x0000000000018318       0x10 /tmp/BdsDxe.dll.Ow19WE.ltrans1.ltrans.o
 .data.gEfiBootManagerPolicyProtocolGuid
                0x0000000000018328       0x10 /tmp/BdsDxe.dll.Ow19WE.ltrans1.ltrans.o
 .data.gEfiDebugPortProtocolGuid
                0x0000000000018338       0x10 /tmp/BdsDxe.dll.Ow19WE.ltrans1.ltrans.o
 .data.gEfiDeferredImageLoadProtocolGuid
                0x0000000000018348       0x10 /tmp/BdsDxe.dll.Ow19WE.ltrans1.ltrans.o
 .data.gEfiDxeServicesTableGuid
                0x0000000000018358       0x10 /tmp/BdsDxe.dll.Ow19WE.ltrans1.ltrans.o
 .data.gEfiEndOfDxeEventGroupGuid
                0x0000000000018368       0x10 /tmp/BdsDxe.dll.Ow19WE.ltrans1.ltrans.o
 .data.gEfiHiiConfigRoutingProtocolGuid
                0x0000000000018378       0x10 /tmp/BdsDxe.dll.Ow19WE.ltrans1.ltrans.o
 .data.gEfiHiiDatabaseProtocolGuid
                0x0000000000018388       0x10 /tmp/BdsDxe.dll.Ow19WE.ltrans1.ltrans.o
 .data.gEfiHiiImageProtocolGuid
                0x0000000000018398       0x10 /tmp/BdsDxe.dll.Ow19WE.ltrans1.ltrans.o
 .data.gEfiHiiStringProtocolGuid
                0x00000000000183a8       0x10 /tmp/BdsDxe.dll.Ow19WE.ltrans1.ltrans.o
 .data.gEfiHobListGuid
                0x00000000000183b8       0x10 /tmp/BdsDxe.dll.Ow19WE.ltrans1.ltrans.o
 .data.gEfiMemoryTypeInformationGuid
                0x00000000000183c8       0x10 /tmp/BdsDxe.dll.Ow19WE.ltrans1.ltrans.o
 .data.gEfiPcAnsiGuid
                0x00000000000183d8       0x10 /tmp/BdsDxe.dll.Ow19WE.ltrans1.ltrans.o
 .data.gEfiPciIoProtocolGuid
                0x00000000000183e8       0x10 /tmp/BdsDxe.dll.Ow19WE.ltrans1.ltrans.o
 .data.gEfiPciRootBridgeIoProtocolGuid
                0x00000000000183f8       0x10 /tmp/BdsDxe.dll.Ow19WE.ltrans1.ltrans.o
 .data.gEfiPersistentVirtualCdGuid
                0x0000000000018408       0x10 /tmp/BdsDxe.dll.Ow19WE.ltrans1.ltrans.o
 .data.gEfiPersistentVirtualDiskGuid
                0x0000000000018418       0x10 /tmp/BdsDxe.dll.Ow19WE.ltrans1.ltrans.o
 .data.gEfiRamDiskProtocolGuid
                0x0000000000018428       0x10 /tmp/BdsDxe.dll.Ow19WE.ltrans1.ltrans.o
 .data.gEfiSasDevicePathGuid
                0x0000000000018438       0x10 /tmp/BdsDxe.dll.Ow19WE.ltrans1.ltrans.o
 .data.gEfiSimpleTextInProtocolGuid
                0x0000000000018448       0x10 /tmp/BdsDxe.dll.Ow19WE.ltrans1.ltrans.o
 .data.gEfiTtyTermGuid
                0x0000000000018458       0x10 /tmp/BdsDxe.dll.Ow19WE.ltrans1.ltrans.o
 .data.gEfiUartDevicePathGuid
                0x0000000000018468       0x10 /tmp/BdsDxe.dll.Ow19WE.ltrans1.ltrans.o
 .data.gEfiUsb2HcProtocolGuid
                0x0000000000018478       0x10 /tmp/BdsDxe.dll.Ow19WE.ltrans1.ltrans.o
 .data.gEfiVT100Guid
                0x0000000000018488       0x10 /tmp/BdsDxe.dll.Ow19WE.ltrans1.ltrans.o
 .data.gEfiVT100PlusGuid
                0x0000000000018498       0x10 /tmp/BdsDxe.dll.Ow19WE.ltrans1.ltrans.o
 .data.gEfiVTUTF8Guid
                0x00000000000184a8       0x10 /tmp/BdsDxe.dll.Ow19WE.ltrans1.ltrans.o
 .data.gEfiVirtualCdGuid
                0x00000000000184b8       0x10 /tmp/BdsDxe.dll.Ow19WE.ltrans1.ltrans.o
 .data.gEfiVirtualDiskGuid
                0x00000000000184c8       0x10 /tmp/BdsDxe.dll.Ow19WE.ltrans1.ltrans.o
 .data.gEsrtManagementProtocolGuid
                0x00000000000184d8       0x10 /tmp/BdsDxe.dll.Ow19WE.ltrans1.ltrans.o
 .data.gPcdProtocolGuid
                0x00000000000184e8       0x10 /tmp/BdsDxe.dll.Ow19WE.ltrans1.ltrans.o
 .data.gUefiShellFileGuid
                0x00000000000184f8       0x10 /tmp/BdsDxe.dll.Ow19WE.ltrans1.ltrans.o
 .data.mArasan  0x0000000000018508       0x18 /tmp/BdsDxe.dll.Ow19WE.ltrans1.ltrans.o
 .data.mBmHardDriveBootVariableGuid
                0x0000000000018520       0x10 /tmp/BdsDxe.dll.Ow19WE.ltrans1.ltrans.o
 .data.mSDHost  0x0000000000018530       0x18 /tmp/BdsDxe.dll.Ow19WE.ltrans1.ltrans.o
 .data.mSerialConsole
                0x0000000000018548       0x3f /tmp/BdsDxe.dll.Ow19WE.ltrans1.ltrans.o
 .data.mUsbKeyboard
                0x0000000000018587        0xf /tmp/BdsDxe.dll.Ow19WE.ltrans1.ltrans.o
 *(.bss .bss.*)
 .bss.UsePl011Uart
                0x0000000000018596        0x1 /tmp/BdsDxe.dll.Ow19WE.ltrans0.ltrans.o
 .bss.UsePl011UartSet
                0x0000000000018597        0x1 /tmp/BdsDxe.dll.Ow19WE.ltrans0.ltrans.o
 .bss.gBS       0x0000000000018598        0x8 /tmp/BdsDxe.dll.Ow19WE.ltrans0.ltrans.o
                0x0000000000018598                gBS
 .bss.gHiiDatabase
                0x00000000000185a0        0x8 /tmp/BdsDxe.dll.Ow19WE.ltrans0.ltrans.o
                0x00000000000185a0                gHiiDatabase
 .bss.gHiiString
                0x00000000000185a8        0x8 /tmp/BdsDxe.dll.Ow19WE.ltrans0.ltrans.o
                0x00000000000185a8                gHiiString
 .bss.gImageHandle
                0x00000000000185b0        0x8 /tmp/BdsDxe.dll.Ow19WE.ltrans0.ltrans.o
                0x00000000000185b0                gImageHandle
 .bss.gRT       0x00000000000185b8        0x8 /tmp/BdsDxe.dll.Ow19WE.ltrans0.ltrans.o
                0x00000000000185b8                gRT
 .bss.gST       0x00000000000185c0        0x8 /tmp/BdsDxe.dll.Ow19WE.ltrans0.ltrans.o
                0x00000000000185c0                gST
 .bss.mBmContinueKeyOption
                0x00000000000185c8        0x8 /tmp/BdsDxe.dll.Ow19WE.ltrans0.ltrans.o
 .bss.mBmHotkeyServiceStarted
                0x00000000000185d0        0x1 /tmp/BdsDxe.dll.Ow19WE.ltrans0.ltrans.o
 *fill*         0x00000000000185d1        0x7 
 .bss.mBmHotkeySupportCount
                0x00000000000185d8        0x8 /tmp/BdsDxe.dll.Ow19WE.ltrans0.ltrans.o
 .bss.mBmHotkeyTriggered
                0x00000000000185e0        0x8 /tmp/BdsDxe.dll.Ow19WE.ltrans0.ltrans.o
 .bss.mBmTxtInExRegistration
                0x00000000000185e8        0x8 /tmp/BdsDxe.dll.Ow19WE.ltrans0.ltrans.o
 .bss.mPerformanceMeasurement
                0x00000000000185f0        0x8 /tmp/BdsDxe.dll.Ow19WE.ltrans0.ltrans.o
                0x00000000000185f0                mPerformanceMeasurement
 .bss.mSerialConProtocol.lto_priv.0
                0x00000000000185f8        0x8 /tmp/BdsDxe.dll.Ow19WE.ltrans0.ltrans.o
                0x00000000000185f8                mSerialConProtocol.lto_priv.0
 .bss.gDS       0x0000000000018600        0x8 /tmp/BdsDxe.dll.Ow19WE.ltrans1.ltrans.o
 .bss.gHiiConfigRouting
                0x0000000000018608        0x8 /tmp/BdsDxe.dll.Ow19WE.ltrans1.ltrans.o
 .bss.gHiiFont  0x0000000000018610        0x8 /tmp/BdsDxe.dll.Ow19WE.ltrans1.ltrans.o
 .bss.gHiiImage
                0x0000000000018618        0x8 /tmp/BdsDxe.dll.Ow19WE.ltrans1.ltrans.o
 .bss.mHobList  0x0000000000018620        0x8 /tmp/BdsDxe.dll.Ow19WE.ltrans1.ltrans.o
 .bss.mPcd      0x0000000000018628        0x8 /tmp/BdsDxe.dll.Ow19WE.ltrans1.ltrans.o
 .bss.mRamDisk  0x0000000000018630        0x8 /tmp/BdsDxe.dll.Ow19WE.ltrans1.ltrans.o

.dynbss         0x0000000000018638        0x0
 .dynbss        0x0000000000018638        0x0 /home/alastair/pftf-rpi4/edk2/ArmPkg/Library/GccLto/liblto-aarch64.a

.eh_frame
 *(.eh_frame)

.rela           0x0000000000018638      0x8e8
 *(.rela .rela.*)
 .rela.got      0x0000000000018638        0x0 /home/alastair/pftf-rpi4/edk2/ArmPkg/Library/GccLto/liblto-aarch64.a
 .rela.plt      0x0000000000018638        0x0 /home/alastair/pftf-rpi4/edk2/ArmPkg/Library/GccLto/liblto-aarch64.a
 .rela.bss      0x0000000000018638        0x0 /home/alastair/pftf-rpi4/edk2/ArmPkg/Library/GccLto/liblto-aarch64.a
 .rela.data.rel.ro
                0x0000000000018638        0x0 /home/alastair/pftf-rpi4/edk2/ArmPkg/Library/GccLto/liblto-aarch64.a
 .rela.ifunc    0x0000000000018638        0x0 /home/alastair/pftf-rpi4/edk2/ArmPkg/Library/GccLto/liblto-aarch64.a
 .rela.data.mBmHotkeyList
                0x0000000000018638       0x30 /home/alastair/pftf-rpi4/edk2/ArmPkg/Library/GccLto/liblto-aarch64.a
 .rela.data.mPlatformBootDescriptionHandlers
                0x0000000000018668       0x30 /home/alastair/pftf-rpi4/edk2/ArmPkg/Library/GccLto/liblto-aarch64.a
 .rela.rodata.mBdsLoadOptionName
                0x0000000000018698       0x60 /home/alastair/pftf-rpi4/edk2/ArmPkg/Library/GccLto/liblto-aarch64.a
 .rela.rodata.mBmBootDescriptionHandlers
                0x00000000000186f8       0x90 /home/alastair/pftf-rpi4/edk2/ArmPkg/Library/GccLto/liblto-aarch64.a
 .rela.rodata.mBmHealthStatusText
                0x0000000000018788       0x90 /home/alastair/pftf-rpi4/edk2/ArmPkg/Library/GccLto/liblto-aarch64.a
 .rela.rodata.mBmLoadOptionOrderName
                0x0000000000018818       0x48 /home/alastair/pftf-rpi4/edk2/ArmPkg/Library/GccLto/liblto-aarch64.a
 .rela.rodata.mUefiDevicePathLibToTextTable
                0x0000000000018860      0x498 /home/alastair/pftf-rpi4/edk2/ArmPkg/Library/GccLto/liblto-aarch64.a
 .rela.data.gBds
                0x0000000000018cf8       0x18 /home/alastair/pftf-rpi4/edk2/ArmPkg/Library/GccLto/liblto-aarch64.a
 .rela.rodata.CSWTCH.58
                0x0000000000018d10       0x90 /home/alastair/pftf-rpi4/edk2/ArmPkg/Library/GccLto/liblto-aarch64.a
 .rela.rodata.mConVarName
                0x0000000000018da0       0x90 /home/alastair/pftf-rpi4/edk2/ArmPkg/Library/GccLto/liblto-aarch64.a
 .rela.rodata.mReadOnlyVariables
                0x0000000000018e30       0x78 /home/alastair/pftf-rpi4/edk2/ArmPkg/Library/GccLto/liblto-aarch64.a
 .rela.rodata.mUefiDevicePathLibToTextTableGeneric
                0x0000000000018ea8       0x78 /home/alastair/pftf-rpi4/edk2/ArmPkg/Library/GccLto/liblto-aarch64.a

.hii
 *(.hii)

.build-id       0x0000000000018f20       0x24
 *(.note.gnu.build-id)
 .note.gnu.build-id
                0x0000000000018f20       0x24 /home/alastair/pftf-rpi4/edk2/ArmPkg/Library/GccLto/liblto-aarch64.a

/DISCARD/
 *(.note.GNU-stack)
 *(.gnu_debuglink)
 *(.interp)
 *(.dynsym)
 *(.dynstr)
 *(.dynamic)
 *(.hash .gnu.hash)
 *(.comment)
 *(COMMON)
                0x0000000000000228                PECOFF_HEADER_SIZE = 0x228
OUTPUT(/home/alastair/pftf-rpi4/Build/RPi4/DEBUG_GCC5/AARCH64/MdeModulePkg/Universal/BdsDxe/BdsDxe/DEBUG/BdsDxe.dll elf64-littleaarch64)
LOAD linker stubs

.debug_info     0x0000000000000000    0x75ae6
 .debug_info    0x0000000000000000     0xb8c3 /tmp/BdsDxe.dll.Ow19WE.ltrans0.ltrans.o
 .debug_info    0x000000000000b8c3     0xf1a1 /tmp/BdsDxe.dll.Ow19WE.ltrans1.ltrans.o
 .debug_info    0x000000000001aa64     0x1a57 /tmp/ccsn2mmD.debug.temp.o
                0x000000000001aa64                DriverEntryPoint.c.9519b125
 .debug_info    0x000000000001c4bb      0x187 /tmp/ccmtUXWB.debug.temp.o
                0x000000000001c4bb                BaseStackCheckGcc.c.9918e4ed
 .debug_info    0x000000000001c642      0x1d7 /tmp/ccaeybYE.debug.temp.o
                0x000000000001c642                memcpy.c.992e94b8
 .debug_info    0x000000000001c819      0x188 /tmp/ccVJlxND.debug.temp.o
                0x000000000001c819                memset.c.d190684e
 .debug_info    0x000000000001c9a1     0x2424 /tmp/ccaG22UC.debug.temp.o
                0x000000000001c9a1                AutoGen.c.446613d9
 .debug_info    0x000000000001edc5     0x25dc /tmp/ccGKbAJC.debug.temp.o
                0x000000000001edc5                BdsEntry.c.16a9df37
 .debug_info    0x00000000000213a1     0x1ddf /tmp/ccuEsFhD.debug.temp.o
                0x00000000000213a1                HwErrRecSupport.c.3761edd9
 .debug_info    0x0000000000023180     0x1e99 /tmp/cc2UddLD.debug.temp.o
                0x0000000000023180                Language.c.31de9854
 .debug_info    0x0000000000025019     0x2beb /tmp/ccpfxmMD.debug.temp.o
                0x0000000000025019                DxePcdLib.c.27e87d0b
 .debug_info    0x0000000000027c04      0x21d /tmp/ccm556ZB.debug.temp.o
                0x0000000000027c04                MemLibGuid.c.2ca06148
 .debug_info    0x0000000000027e21      0x191 /tmp/ccsx7ZJD.debug.temp.o
                0x0000000000027e21                CopyMemWrapper.c.8ed793a8
 .debug_info    0x0000000000027fb2      0x1db /tmp/cchfOsZC.debug.temp.o
                0x0000000000027fb2                MultU64x32.c.c8a7ecd3
 .debug_info    0x000000000002818d      0x1e7 /tmp/ccjOrVtA.debug.temp.o
                0x000000000002818d                LowBitSet32.c.9e58fb31
 .debug_info    0x0000000000028374      0x1d0 /tmp/ccY7rvbB.debug.temp.o
                0x0000000000028374                CpuDeadLoop.c.e33e7959
 .debug_info    0x0000000000028544      0x7f3 /tmp/ccx8vEwA.debug.temp.o
                0x0000000000028544                String.c.753c3495
 .debug_info    0x0000000000028d37      0x43c /tmp/ccuaMKFA.debug.temp.o
                0x0000000000028d37                Math64.c.5e992ad5
 .debug_info    0x0000000000029173     0x1004 /tmp/cc4pAN7C.debug.temp.o
                0x0000000000029173                SafeString.c.d8550fea
 .debug_info    0x000000000002a177      0x1db /tmp/cc2RoCXC.debug.temp.o
                0x000000000002a177                LShiftU64.c.b38ec6e2
 .debug_info    0x000000000002a352      0x1cf /tmp/cckz5i4C.debug.temp.o
                0x000000000002a352                DivU64x32.c.5786a729
 .debug_info    0x000000000002a521      0x68f /tmp/ccrpoEED.debug.temp.o
                0x000000000002a521                PrintLib.c.260a037f
 .debug_info    0x000000000002abb0      0x79a /tmp/ccq6RCsE.debug.temp.o
                0x000000000002abb0                PrintLibInternal.c.92769e0a
 .debug_info    0x000000000002b34a      0x3f2 /tmp/ccZiVHuB.debug.temp.o
                0x000000000002b34a                DebugLib.c.0df38b98
 .debug_info    0x000000000002b73c     0x18e1 /tmp/cckP5GdB.debug.temp.o
                0x000000000002b73c                UefiBootServicesTableLib.c.c00a3dd8
 .debug_info    0x000000000002d01d     0x1de0 /tmp/cc67zokB.debug.temp.o
                0x000000000002d01d                MemoryAllocationLib.c.774777c4
 .debug_info    0x000000000002edfd     0x18b2 /tmp/ccMnL4OB.debug.temp.o
                0x000000000002edfd                UefiRuntimeServicesTableLib.c.7b9e7237
 .debug_info    0x00000000000306af     0x1d7d /tmp/ccsspI2B.debug.temp.o
                0x00000000000306af                DevicePathUtilities.c.94f518f0
 .debug_info    0x000000000003242c     0x1953 /tmp/ccVCYbkC.debug.temp.o
                0x000000000003242c                DevicePathUtilitiesDxeSmm.c.e3408512
 .debug_info    0x0000000000033d7f     0x1afe /tmp/ccuevbpD.debug.temp.o
                0x0000000000033d7f                UefiDevicePathLib.c.c981cbf5
 .debug_info    0x000000000003587d     0x3d60 /tmp/ccQaEC8D.debug.temp.o
                0x000000000003587d                DevicePathToText.c.c18353b7
 .debug_info    0x00000000000395dd     0x2966 /tmp/cc49qixB.debug.temp.o
                0x00000000000395dd                UefiHiiServicesLib.c.57cd5a7f
 .debug_info    0x000000000003bf43     0x2762 /tmp/ccYkK7jC.debug.temp.o
                0x000000000003bf43                UefiLibPrint.c.10301016
 .debug_info    0x000000000003e6a5     0x27ac /tmp/ccK60pmC.debug.temp.o
                0x000000000003e6a5                UefiLib.c.2c69044c
 .debug_info    0x0000000000040e51     0x1eae /tmp/cctA0RrE.debug.temp.o
                0x0000000000040e51                DxeServicesTableLib.c.0552c477
 .debug_info    0x0000000000042cff     0x1c8c /tmp/cc3jLjNE.debug.temp.o
                0x0000000000042cff                DxePerformanceLib.c.c601e708
 .debug_info    0x000000000004498b     0x22fe /tmp/ccaVWBDA.debug.temp.o
                0x000000000004498b                HobLib.c.fefb3825
 .debug_info    0x0000000000046c89      0x502 /tmp/ccDuxk0A.debug.temp.o
                0x0000000000046c89                BaseReportStatusCodeLib.c.f05e4fbb
 .debug_info    0x000000000004718b     0x272c /tmp/ccMzjbIA.debug.temp.o
                0x000000000004718b                BmConnect.c.61ed0be0
 .debug_info    0x00000000000498b7     0x2b62 /tmp/ccsFtkKA.debug.temp.o
                0x00000000000498b7                BmConsole.c.eabdfa4b
 .debug_info    0x000000000004c419     0x3e41 /tmp/ccCtGcEE.debug.temp.o
                0x000000000004c419                BmBoot.c.fc5b4c66
 .debug_info    0x000000000005025a     0x5375 /tmp/ccv8MmFE.debug.temp.o
                0x000000000005025a                BmBootDescription.c.881fae43
 .debug_info    0x00000000000555cf     0x3384 /tmp/ccPItvVB.debug.temp.o
                0x00000000000555cf                BmLoadOption.c.af141ef8
 .debug_info    0x0000000000058953     0x2e99 /tmp/ccQbScMD.debug.temp.o
                0x0000000000058953                BmHotkey.c.c30e9ef0
 .debug_info    0x000000000005b7ec     0x281e /tmp/cc0nwwzA.debug.temp.o
                0x000000000005b7ec                BmDriverHealth.c.f9829727
 .debug_info    0x000000000005e00a     0x253b /tmp/ccnistSC.debug.temp.o
                0x000000000005e00a                BmMisc.c.65e95ac4
 .debug_info    0x0000000000060545     0x273a /tmp/cc5M6bOA.debug.temp.o
                0x0000000000060545                PlatformBm.c.6241ef7d
 .debug_info    0x0000000000062c7f      0x17a /tmp/ccBTu0KD.debug.temp.o
                0x0000000000062c7f                ZeroMemWrapper.c.8dc042f6
 .debug_info    0x0000000000062df9      0x1a7 /tmp/ccZor4SB.debug.temp.o
                0x0000000000062df9                CompareMemWrapper.c.96cbdc30
 .debug_info    0x0000000000062fa0      0x1bb /tmp/ccSqw15C.debug.temp.o
                0x0000000000062fa0                SetMemWrapper.c.36d74bb8
 .debug_info    0x000000000006315b      0x1e5 /tmp/ccn7b0SB.debug.temp.o
                0x000000000006315b                DivU64x32Remainder.c.19070deb
 .debug_info    0x0000000000063340      0x428 /tmp/ccb9dp1C.debug.temp.o
                0x0000000000063340                LinkedList.c.6e13becc
 .debug_info    0x0000000000063768      0x33d /tmp/ccpGWqWB.debug.temp.o
                0x0000000000063768                Unaligned.c.4a0798dc
 .debug_info    0x0000000000063aa5      0x18d /tmp/cccPZeHA.debug.temp.o
                0x0000000000063aa5                BaseDebugPrintErrorLevelLib.c.afda57b5
 .debug_info    0x0000000000063c32      0x201 /tmp/ccA5C3XC.debug.temp.o
                0x0000000000063c32                DebugDualSerialPortLib.c.3fe30e88
 .debug_info    0x0000000000063e33      0x2e6 /tmp/ccfj3QoB.debug.temp.o
                0x0000000000063e33                DualSerialPortLibCommon.c.2dc6badf
 .debug_info    0x0000000000064119     0x1c06 /tmp/ccmrrfWC.debug.temp.o
                0x0000000000064119                UefiNotTiano.c.c6756db9
 .debug_info    0x0000000000065d1f     0x50c1 /tmp/ccq5aU0A.debug.temp.o
                0x0000000000065d1f                HiiLib.c.b2279ad8
 .debug_info    0x000000000006ade0     0x2b6a /tmp/ccV0xLJA.debug.temp.o
                0x000000000006ade0                HiiString.c.d0f43445
 .debug_info    0x000000000006d94a     0x2a1b /tmp/ccJiNbSB.debug.temp.o
                0x000000000006d94a                HiiLanguage.c.1635079f
 .debug_info    0x0000000000070365     0x2756 /tmp/ccXZj5XE.debug.temp.o
                0x0000000000070365                DxeServicesLib.c.7e331950
 .debug_info    0x0000000000072abb      0x336 /tmp/cctTnB0B.debug.temp.o
                0x0000000000072abb                DxeCapsuleLibNull.c.5d57ad98
 .debug_info    0x0000000000072df1     0x22bc /tmp/ccc1sPfD.debug.temp.o
                0x0000000000072df1                BootLogoLib.c.2fd33b67
 .debug_info    0x00000000000750ad      0x503 /tmp/ccnkRnKD.debug.temp.o
                0x00000000000750ad                IoLibNoIo.c.335a48c4
 .debug_info    0x00000000000755b0      0x536 /tmp/ccLAm49C.debug.temp.o
                0x00000000000755b0                PL011UartLib.c.f54a0051

.debug_abbrev   0x0000000000000000     0x6ef5
 .debug_abbrev  0x0000000000000000      0x313 /tmp/BdsDxe.dll.Ow19WE.ltrans0.ltrans.o
 .debug_abbrev  0x0000000000000313      0x2ad /tmp/BdsDxe.dll.Ow19WE.ltrans1.ltrans.o
 .debug_abbrev  0x00000000000005c0      0x1e9 /tmp/ccsn2mmD.debug.temp.o
 .debug_abbrev  0x00000000000007a9       0xc7 /tmp/ccmtUXWB.debug.temp.o
 .debug_abbrev  0x0000000000000870       0xee /tmp/ccaeybYE.debug.temp.o
 .debug_abbrev  0x000000000000095e       0xc0 /tmp/ccVJlxND.debug.temp.o
 .debug_abbrev  0x0000000000000a1e      0x236 /tmp/ccaG22UC.debug.temp.o
 .debug_abbrev  0x0000000000000c54      0x27f /tmp/ccGKbAJC.debug.temp.o
 .debug_abbrev  0x0000000000000ed3      0x1c3 /tmp/ccuEsFhD.debug.temp.o
 .debug_abbrev  0x0000000000001096      0x1e7 /tmp/cc2UddLD.debug.temp.o
 .debug_abbrev  0x000000000000127d      0x25c /tmp/ccpfxmMD.debug.temp.o
 .debug_abbrev  0x00000000000014d9       0xce /tmp/ccm556ZB.debug.temp.o
 .debug_abbrev  0x00000000000015a7       0xb8 /tmp/ccsx7ZJD.debug.temp.o
 .debug_abbrev  0x000000000000165f       0xc0 /tmp/cchfOsZC.debug.temp.o
 .debug_abbrev  0x000000000000171f       0xc0 /tmp/ccjOrVtA.debug.temp.o
 .debug_abbrev  0x00000000000017df       0xb6 /tmp/ccY7rvbB.debug.temp.o
 .debug_abbrev  0x0000000000001895      0x126 /tmp/ccx8vEwA.debug.temp.o
 .debug_abbrev  0x00000000000019bb       0xf9 /tmp/ccuaMKFA.debug.temp.o
 .debug_abbrev  0x0000000000001ab4      0x138 /tmp/cc4pAN7C.debug.temp.o
 .debug_abbrev  0x0000000000001bec       0xb1 /tmp/cc2RoCXC.debug.temp.o
 .debug_abbrev  0x0000000000001c9d       0xb1 /tmp/cckz5i4C.debug.temp.o
 .debug_abbrev  0x0000000000001d4e      0x150 /tmp/ccrpoEED.debug.temp.o
 .debug_abbrev  0x0000000000001e9e      0x161 /tmp/ccq6RCsE.debug.temp.o
 .debug_abbrev  0x0000000000001fff      0x165 /tmp/ccZiVHuB.debug.temp.o
 .debug_abbrev  0x0000000000002164      0x1dd /tmp/cckP5GdB.debug.temp.o
 .debug_abbrev  0x0000000000002341      0x242 /tmp/cc67zokB.debug.temp.o
 .debug_abbrev  0x0000000000002583      0x1c3 /tmp/ccMnL4OB.debug.temp.o
 .debug_abbrev  0x0000000000002746      0x240 /tmp/ccsspI2B.debug.temp.o
 .debug_abbrev  0x0000000000002986      0x1d4 /tmp/ccVCYbkC.debug.temp.o
 .debug_abbrev  0x0000000000002b5a      0x1fe /tmp/ccuevbpD.debug.temp.o
 .debug_abbrev  0x0000000000002d58      0x2ca /tmp/ccQaEC8D.debug.temp.o
 .debug_abbrev  0x0000000000003022      0x216 /tmp/cc49qixB.debug.temp.o
 .debug_abbrev  0x0000000000003238      0x283 /tmp/ccYkK7jC.debug.temp.o
 .debug_abbrev  0x00000000000034bb      0x267 /tmp/ccK60pmC.debug.temp.o
 .debug_abbrev  0x0000000000003722      0x1ea /tmp/cctA0RrE.debug.temp.o
 .debug_abbrev  0x000000000000390c      0x240 /tmp/cc3jLjNE.debug.temp.o
 .debug_abbrev  0x0000000000003b4c      0x25a /tmp/ccaVWBDA.debug.temp.o
 .debug_abbrev  0x0000000000003da6      0x124 /tmp/ccDuxk0A.debug.temp.o
 .debug_abbrev  0x0000000000003eca      0x214 /tmp/ccMzjbIA.debug.temp.o
 .debug_abbrev  0x00000000000040de      0x258 /tmp/ccsFtkKA.debug.temp.o
 .debug_abbrev  0x0000000000004336      0x281 /tmp/ccCtGcEE.debug.temp.o
 .debug_abbrev  0x00000000000045b7      0x382 /tmp/ccv8MmFE.debug.temp.o
 .debug_abbrev  0x0000000000004939      0x2b7 /tmp/ccPItvVB.debug.temp.o
 .debug_abbrev  0x0000000000004bf0      0x2e5 /tmp/ccQbScMD.debug.temp.o
 .debug_abbrev  0x0000000000004ed5      0x26c /tmp/cc0nwwzA.debug.temp.o
 .debug_abbrev  0x0000000000005141      0x25a /tmp/ccnistSC.debug.temp.o
 .debug_abbrev  0x000000000000539b      0x29b /tmp/cc5M6bOA.debug.temp.o
 .debug_abbrev  0x0000000000005636       0xb1 /tmp/ccBTu0KD.debug.temp.o
 .debug_abbrev  0x00000000000056e7       0xb1 /tmp/ccZor4SB.debug.temp.o
 .debug_abbrev  0x0000000000005798       0xc6 /tmp/ccSqw15C.debug.temp.o
 .debug_abbrev  0x000000000000585e       0xb3 /tmp/ccn7b0SB.debug.temp.o
 .debug_abbrev  0x0000000000005911      0x139 /tmp/ccb9dp1C.debug.temp.o
 .debug_abbrev  0x0000000000005a4a       0xc9 /tmp/ccpGWqWB.debug.temp.o
 .debug_abbrev  0x0000000000005b13       0xc6 /tmp/cccPZeHA.debug.temp.o
 .debug_abbrev  0x0000000000005bd9       0xc4 /tmp/ccA5C3XC.debug.temp.o
 .debug_abbrev  0x0000000000005c9d      0x108 /tmp/ccfj3QoB.debug.temp.o
 .debug_abbrev  0x0000000000005da5      0x233 /tmp/ccmrrfWC.debug.temp.o
 .debug_abbrev  0x0000000000005fd8      0x315 /tmp/ccq5aU0A.debug.temp.o
 .debug_abbrev  0x00000000000062ed      0x249 /tmp/ccV0xLJA.debug.temp.o
 .debug_abbrev  0x0000000000006536      0x209 /tmp/ccJiNbSB.debug.temp.o
 .debug_abbrev  0x000000000000673f      0x225 /tmp/ccXZj5XE.debug.temp.o
 .debug_abbrev  0x0000000000006964      0x114 /tmp/cctTnB0B.debug.temp.o
 .debug_abbrev  0x0000000000006a78      0x21a /tmp/ccc1sPfD.debug.temp.o
 .debug_abbrev  0x0000000000006c92      0x11f /tmp/ccnkRnKD.debug.temp.o
 .debug_abbrev  0x0000000000006db1      0x144 /tmp/ccLAm49C.debug.temp.o

.debug_loc      0x0000000000000000    0x20feb
 .debug_loc     0x0000000000000000     0xecd3 /tmp/BdsDxe.dll.Ow19WE.ltrans0.ltrans.o
 .debug_loc     0x000000000000ecd3    0x12318 /tmp/BdsDxe.dll.Ow19WE.ltrans1.ltrans.o

.debug_aranges  0x0000000000000000      0xf70
 .debug_aranges
                0x0000000000000000      0x640 /tmp/BdsDxe.dll.Ow19WE.ltrans0.ltrans.o
 .debug_aranges
                0x0000000000000640      0x930 /tmp/BdsDxe.dll.Ow19WE.ltrans1.ltrans.o

.debug_ranges   0x0000000000000000     0x3cd0
 .debug_ranges  0x0000000000000000     0x1b20 /tmp/BdsDxe.dll.Ow19WE.ltrans0.ltrans.o
 .debug_ranges  0x0000000000001b20     0x21b0 /tmp/BdsDxe.dll.Ow19WE.ltrans1.ltrans.o

.debug_line     0x0000000000000000    0x1a538
 .debug_line    0x0000000000000000     0x654c /tmp/BdsDxe.dll.Ow19WE.ltrans0.ltrans.o
 .debug_line    0x000000000000654c     0x81a9 /tmp/BdsDxe.dll.Ow19WE.ltrans1.ltrans.o
 .debug_line    0x000000000000e6f5      0x347 /tmp/ccsn2mmD.debug.temp.o
 .debug_line    0x000000000000ea3c      0x170 /tmp/ccmtUXWB.debug.temp.o
 .debug_line    0x000000000000ebac      0x171 /tmp/ccaeybYE.debug.temp.o
 .debug_line    0x000000000000ed1d      0x171 /tmp/ccVJlxND.debug.temp.o
 .debug_line    0x000000000000ee8e      0x2e9 /tmp/ccaG22UC.debug.temp.o
 .debug_line    0x000000000000f177      0x481 /tmp/ccGKbAJC.debug.temp.o
 .debug_line    0x000000000000f5f8      0x36f /tmp/ccuEsFhD.debug.temp.o
 .debug_line    0x000000000000f967      0x368 /tmp/cc2UddLD.debug.temp.o
 .debug_line    0x000000000000fccf      0x384 /tmp/ccpfxmMD.debug.temp.o
 .debug_line    0x0000000000010053      0x173 /tmp/ccm556ZB.debug.temp.o
 .debug_line    0x00000000000101c6      0x173 /tmp/ccsx7ZJD.debug.temp.o
 .debug_line    0x0000000000010339      0x14b /tmp/cchfOsZC.debug.temp.o
 .debug_line    0x0000000000010484      0x14c /tmp/ccjOrVtA.debug.temp.o
 .debug_line    0x00000000000105d0      0x14c /tmp/ccY7rvbB.debug.temp.o
 .debug_line    0x000000000001071c      0x147 /tmp/ccx8vEwA.debug.temp.o
 .debug_line    0x0000000000010863      0x147 /tmp/ccuaMKFA.debug.temp.o
 .debug_line    0x00000000000109aa      0x14b /tmp/cc4pAN7C.debug.temp.o
 .debug_line    0x0000000000010af5      0x14a /tmp/cc2RoCXC.debug.temp.o
 .debug_line    0x0000000000010c3f      0x14a /tmp/cckz5i4C.debug.temp.o
 .debug_line    0x0000000000010d89      0x166 /tmp/ccrpoEED.debug.temp.o
 .debug_line    0x0000000000010eef      0x184 /tmp/ccq6RCsE.debug.temp.o
 .debug_line    0x0000000000011073      0x20c /tmp/ccZiVHuB.debug.temp.o
 .debug_line    0x000000000001127f      0x330 /tmp/cckP5GdB.debug.temp.o
 .debug_line    0x00000000000115af      0x328 /tmp/cc67zokB.debug.temp.o
 .debug_line    0x00000000000118d7      0x2e9 /tmp/ccMnL4OB.debug.temp.o
 .debug_line    0x0000000000011bc0      0x36c /tmp/ccsspI2B.debug.temp.o
 .debug_line    0x0000000000011f2c      0x372 /tmp/ccVCYbkC.debug.temp.o
 .debug_line    0x000000000001229e      0x36a /tmp/ccuevbpD.debug.temp.o
 .debug_line    0x0000000000012608      0x3db /tmp/ccQaEC8D.debug.temp.o
 .debug_line    0x00000000000129e3      0x400 /tmp/cc49qixB.debug.temp.o
 .debug_line    0x0000000000012de3      0x3a1 /tmp/ccYkK7jC.debug.temp.o
 .debug_line    0x0000000000013184      0x36d /tmp/ccK60pmC.debug.temp.o
 .debug_line    0x00000000000134f1      0x42d /tmp/cctA0RrE.debug.temp.o
 .debug_line    0x000000000001391e      0x386 /tmp/cc3jLjNE.debug.temp.o
 .debug_line    0x0000000000013ca4      0x3c1 /tmp/ccaVWBDA.debug.temp.o
 .debug_line    0x0000000000014065      0x2b0 /tmp/ccDuxk0A.debug.temp.o
 .debug_line    0x0000000000014315      0x4d7 /tmp/ccMzjbIA.debug.temp.o
 .debug_line    0x00000000000147ec      0x573 /tmp/ccsFtkKA.debug.temp.o
 .debug_line    0x0000000000014d5f      0x61f /tmp/ccCtGcEE.debug.temp.o
 .debug_line    0x000000000001537e      0x5f0 /tmp/ccv8MmFE.debug.temp.o
 .debug_line    0x000000000001596e      0x5c8 /tmp/ccPItvVB.debug.temp.o
 .debug_line    0x0000000000015f36      0x539 /tmp/ccQbScMD.debug.temp.o
 .debug_line    0x000000000001646f      0x56c /tmp/cc0nwwzA.debug.temp.o
 .debug_line    0x00000000000169db      0x56e /tmp/ccnistSC.debug.temp.o
 .debug_line    0x0000000000016f49      0x590 /tmp/cc5M6bOA.debug.temp.o
 .debug_line    0x00000000000174d9      0x173 /tmp/ccBTu0KD.debug.temp.o
 .debug_line    0x000000000001764c      0x176 /tmp/ccZor4SB.debug.temp.o
 .debug_line    0x00000000000177c2      0x172 /tmp/ccSqw15C.debug.temp.o
 .debug_line    0x0000000000017934      0x153 /tmp/ccn7b0SB.debug.temp.o
 .debug_line    0x0000000000017a87      0x14b /tmp/ccb9dp1C.debug.temp.o
 .debug_line    0x0000000000017bd2      0x14e /tmp/ccpGWqWB.debug.temp.o
 .debug_line    0x0000000000017d20      0x198 /tmp/cccPZeHA.debug.temp.o
 .debug_line    0x0000000000017eb8      0x228 /tmp/ccA5C3XC.debug.temp.o
 .debug_line    0x00000000000180e0      0x240 /tmp/ccfj3QoB.debug.temp.o
 .debug_line    0x0000000000018320      0x341 /tmp/ccmrrfWC.debug.temp.o
 .debug_line    0x0000000000018661      0x515 /tmp/ccq5aU0A.debug.temp.o
 .debug_line    0x0000000000018b76      0x4f8 /tmp/ccV0xLJA.debug.temp.o
 .debug_line    0x000000000001906e      0x4fa /tmp/ccJiNbSB.debug.temp.o
 .debug_line    0x0000000000019568      0x48b /tmp/ccXZj5XE.debug.temp.o
 .debug_line    0x00000000000199f3      0x2cb /tmp/cctTnB0B.debug.temp.o
 .debug_line    0x0000000000019cbe      0x466 /tmp/ccc1sPfD.debug.temp.o
 .debug_line    0x000000000001a124      0x16b /tmp/ccnkRnKD.debug.temp.o
 .debug_line    0x000000000001a28f      0x2a9 /tmp/ccLAm49C.debug.temp.o

.debug_str      0x0000000000000000     0xf9b2
 .debug_str     0x0000000000000000      0x4f4 /tmp/BdsDxe.dll.Ow19WE.ltrans0.ltrans.o
                                        0x51a (size before relaxing)
 .debug_str     0x00000000000004f4      0x1f0 /tmp/BdsDxe.dll.Ow19WE.ltrans1.ltrans.o
                                        0x63e (size before relaxing)
 .debug_str     0x00000000000006e4     0x14c6 /tmp/ccsn2mmD.debug.temp.o
                                       0x1690 (size before relaxing)
 .debug_str     0x0000000000001baa      0x27a /tmp/ccmtUXWB.debug.temp.o
                                        0x3af (size before relaxing)
 .debug_str     0x0000000000001e24       0xd3 /tmp/ccaeybYE.debug.temp.o
                                        0x34e (size before relaxing)
 .debug_str     0x0000000000001ef7       0x55 /tmp/ccVJlxND.debug.temp.o
                                        0x342 (size before relaxing)
 .debug_str     0x0000000000001f4c     0x13ae /tmp/ccaG22UC.debug.temp.o
                                       0x2925 (size before relaxing)
 .debug_str     0x00000000000032fa      0x59f /tmp/ccGKbAJC.debug.temp.o
                                       0x2702 (size before relaxing)
 .debug_str     0x0000000000003899       0x68 /tmp/ccuEsFhD.debug.temp.o
                                       0x20b3 (size before relaxing)
 .debug_str     0x0000000000003901       0xe8 /tmp/cc2UddLD.debug.temp.o
                                       0x214d (size before relaxing)
 .debug_str     0x00000000000039e9      0x98f /tmp/ccpfxmMD.debug.temp.o
                                       0x2118 (size before relaxing)
 .debug_str     0x0000000000004378      0x10c /tmp/ccm556ZB.debug.temp.o
                                        0x3ad (size before relaxing)
 .debug_str     0x0000000000004484       0x71 /tmp/ccsx7ZJD.debug.temp.o
                                        0x370 (size before relaxing)
 .debug_str     0x00000000000044f5       0xb7 /tmp/cchfOsZC.debug.temp.o
                                        0x472 (size before relaxing)
 .debug_str     0x00000000000045ac       0x60 /tmp/ccjOrVtA.debug.temp.o
                                        0x471 (size before relaxing)
 .debug_str     0x000000000000460c       0x4f /tmp/ccY7rvbB.debug.temp.o
                                        0x461 (size before relaxing)
 .debug_str     0x000000000000465b      0x2e8 /tmp/ccx8vEwA.debug.temp.o
                                        0x7e2 (size before relaxing)
 .debug_str     0x0000000000004943      0x198 /tmp/ccuaMKFA.debug.temp.o
                                        0x5df (size before relaxing)
 .debug_str     0x0000000000004adb      0x2bd /tmp/cc4pAN7C.debug.temp.o
                                        0x82d (size before relaxing)
 .debug_str     0x0000000000004d98       0x41 /tmp/cc2RoCXC.debug.temp.o
                                        0x465 (size before relaxing)
 .debug_str     0x0000000000004dd9       0x41 /tmp/cckz5i4C.debug.temp.o
                                        0x462 (size before relaxing)
 .debug_str     0x0000000000004e1a      0x261 /tmp/ccrpoEED.debug.temp.o
                                        0x5a2 (size before relaxing)
 .debug_str     0x000000000000507b      0x243 /tmp/ccq6RCsE.debug.temp.o
                                        0x70c (size before relaxing)
 .debug_str     0x00000000000052be      0x1db /tmp/ccZiVHuB.debug.temp.o
                                        0x5c4 (size before relaxing)
 .debug_str     0x0000000000005499       0xfd /tmp/cckP5GdB.debug.temp.o
                                       0x156d (size before relaxing)
 .debug_str     0x0000000000005596      0x300 /tmp/cc67zokB.debug.temp.o
                                       0x17d9 (size before relaxing)
 .debug_str     0x0000000000005896      0x10c /tmp/ccMnL4OB.debug.temp.o
                                       0x156f (size before relaxing)
 .debug_str     0x00000000000059a2      0x3c6 /tmp/ccsspI2B.debug.temp.o
                                       0x1974 (size before relaxing)
 .debug_str     0x0000000000005d68       0x70 /tmp/ccVCYbkC.debug.temp.o
                                       0x1658 (size before relaxing)
 .debug_str     0x0000000000005dd8       0xbc /tmp/ccuevbpD.debug.temp.o
                                       0x17d8 (size before relaxing)
 .debug_str     0x0000000000005e94      0xdd2 /tmp/ccQaEC8D.debug.temp.o
                                       0x25ec (size before relaxing)
 .debug_str     0x0000000000006c66      0xb69 /tmp/cc49qixB.debug.temp.o
                                       0x21db (size before relaxing)
 .debug_str     0x00000000000077cf      0x2d5 /tmp/ccYkK7jC.debug.temp.o
                                       0x2174 (size before relaxing)
 .debug_str     0x0000000000007aa4      0x5ed /tmp/ccK60pmC.debug.temp.o
                                       0x20b1 (size before relaxing)
 .debug_str     0x0000000000008091      0x62d /tmp/cctA0RrE.debug.temp.o
                                       0x1c34 (size before relaxing)
 .debug_str     0x00000000000086be      0x2ee /tmp/cc3jLjNE.debug.temp.o
                                       0x1885 (size before relaxing)
 .debug_str     0x00000000000089ac      0x5c1 /tmp/ccaVWBDA.debug.temp.o
                                       0x1c13 (size before relaxing)
 .debug_str     0x0000000000008f6d      0x257 /tmp/ccDuxk0A.debug.temp.o
                                        0x6b3 (size before relaxing)
 .debug_str     0x00000000000091c4      0x81c /tmp/ccMzjbIA.debug.temp.o
                                       0x2812 (size before relaxing)
 .debug_str     0x00000000000099e0      0x3c4 /tmp/ccsFtkKA.debug.temp.o
                                       0x2b95 (size before relaxing)
 .debug_str     0x0000000000009da4      0xeb7 /tmp/ccCtGcEE.debug.temp.o
                                       0x3656 (size before relaxing)
 .debug_str     0x000000000000ac5b      0xd72 /tmp/ccv8MmFE.debug.temp.o
                                       0x42eb (size before relaxing)
 .debug_str     0x000000000000b9cd      0x833 /tmp/ccPItvVB.debug.temp.o
                                       0x2d44 (size before relaxing)
 .debug_str     0x000000000000c200      0x5e8 /tmp/ccQbScMD.debug.temp.o
                                       0x2a4b (size before relaxing)
 .debug_str     0x000000000000c7e8      0x4d5 /tmp/cc0nwwzA.debug.temp.o
                                       0x27e8 (size before relaxing)
 .debug_str     0x000000000000ccbd      0x1db /tmp/ccnistSC.debug.temp.o
                                       0x251d (size before relaxing)
 .debug_str     0x000000000000ce98      0x626 /tmp/cc5M6bOA.debug.temp.o
                                       0x2441 (size before relaxing)
 .debug_str     0x000000000000d4be       0x52 /tmp/ccBTu0KD.debug.temp.o
                                        0x358 (size before relaxing)
 .debug_str     0x000000000000d510       0x55 /tmp/ccZor4SB.debug.temp.o
                                        0x381 (size before relaxing)
 .debug_str     0x000000000000d565       0x59 /tmp/ccSqw15C.debug.temp.o
                                        0x364 (size before relaxing)
 .debug_str     0x000000000000d5be       0x5d /tmp/ccn7b0SB.debug.temp.o
                                        0x47e (size before relaxing)
 .debug_str     0x000000000000d61b      0x11a /tmp/ccb9dp1C.debug.temp.o
                                        0x571 (size before relaxing)
 .debug_str     0x000000000000d735       0xde /tmp/ccpGWqWB.debug.temp.o
                                        0x508 (size before relaxing)
 .debug_str     0x000000000000d813      0x115 /tmp/cccPZeHA.debug.temp.o
                                        0x3e0 (size before relaxing)
 .debug_str     0x000000000000d928      0x102 /tmp/ccA5C3XC.debug.temp.o
                                        0x516 (size before relaxing)
 .debug_str     0x000000000000da2a       0xf3 /tmp/ccfj3QoB.debug.temp.o
                                        0x5b3 (size before relaxing)
 .debug_str     0x000000000000db1d      0x15f /tmp/ccmrrfWC.debug.temp.o
                                       0x1a6f (size before relaxing)
 .debug_str     0x000000000000dc7c      0xe34 /tmp/ccq5aU0A.debug.temp.o
                                       0x35e9 (size before relaxing)
 .debug_str     0x000000000000eab0       0xd1 /tmp/ccV0xLJA.debug.temp.o
                                       0x2450 (size before relaxing)
 .debug_str     0x000000000000eb81       0x89 /tmp/ccJiNbSB.debug.temp.o
                                       0x23c2 (size before relaxing)
 .debug_str     0x000000000000ec0a      0x460 /tmp/ccXZj5XE.debug.temp.o
                                       0x1f13 (size before relaxing)
 .debug_str     0x000000000000f06a      0x171 /tmp/cctTnB0B.debug.temp.o
                                        0x5c9 (size before relaxing)
 .debug_str     0x000000000000f1db      0x416 /tmp/ccc1sPfD.debug.temp.o
                                       0x2005 (size before relaxing)
 .debug_str     0x000000000000f5f1      0x1ab /tmp/ccnkRnKD.debug.temp.o
                                        0x44d (size before relaxing)
 .debug_str     0x000000000000f79c      0x216 /tmp/ccLAm49C.debug.temp.o
                                        0x818 (size before relaxing)

.debug_frame    0x0000000000000000     0x2ed0
 .debug_frame   0x0000000000000000     0x14f8 /tmp/BdsDxe.dll.Ow19WE.ltrans0.ltrans.o
 .debug_frame   0x00000000000014f8     0x19d8 /tmp/BdsDxe.dll.Ow19WE.ltrans1.ltrans.o
