Archive member included to satisfy reference by file (symbol)

/home/alastair/pftf-rpi4/Build/RPi4/DEBUG_GCC5/AARCH64/MdePkg/Library/UefiDriverEntryPoint/UefiDriverEntryPoint/OUTPUT/UefiDriverEntryPoint.lib(DriverEntryPoint.obj)
                              (_ModuleEntryPoint)
/home/alastair/pftf-rpi4/Build/RPi4/DEBUG_GCC5/AARCH64/MdePkg/Library/BaseStackCheckLib/BaseStackCheckLib/OUTPUT/BaseStackCheckLib.lib(BaseStackCheckGcc.obj)
                              /home/alastair/pftf-rpi4/edk2/ArmPkg/Library/GccLto/liblto-aarch64.a (__stack_chk_fail)
/home/alastair/pftf-rpi4/Build/RPi4/DEBUG_GCC5/AARCH64/ArmPkg/Library/CompilerIntrinsicsLib/CompilerIntrinsicsLib/OUTPUT/CompilerIntrinsicsLib.lib(memcpy.obj)
                              /home/alastair/pftf-rpi4/edk2/ArmPkg/Library/GccLto/liblto-aarch64.a (memcpy)
/home/alastair/pftf-rpi4/Build/RPi4/DEBUG_GCC5/AARCH64/ArmPkg/Library/CompilerIntrinsicsLib/CompilerIntrinsicsLib/OUTPUT/CompilerIntrinsicsLib.lib(memset.obj)
                              /home/alastair/pftf-rpi4/edk2/ArmPkg/Library/GccLto/liblto-aarch64.a (memset)
/home/alastair/pftf-rpi4/Build/RPi4/DEBUG_GCC5/AARCH64/MdeModulePkg/Universal/DisplayEngineDxe/DisplayEngineDxe/OUTPUT/DisplayEngine.lib(AutoGen.obj)
                              DriverEntryPoint.obj (symbol from plugin) (ProcessLibraryConstructorList)
/home/alastair/pftf-rpi4/Build/RPi4/DEBUG_GCC5/AARCH64/MdeModulePkg/Universal/DisplayEngineDxe/DisplayEngineDxe/OUTPUT/DisplayEngine.lib(FormDisplay.obj)
                              AutoGen.obj (symbol from plugin) (InitializeDisplayEngine)
/home/alastair/pftf-rpi4/Build/RPi4/DEBUG_GCC5/AARCH64/MdeModulePkg/Universal/DisplayEngineDxe/DisplayEngineDxe/OUTPUT/DisplayEngine.lib(ProcessOptions.obj)
                              FormDisplay.obj (symbol from plugin) (EmptyEventProcess)
/home/alastair/pftf-rpi4/Build/RPi4/DEBUG_GCC5/AARCH64/MdeModulePkg/Universal/DisplayEngineDxe/DisplayEngineDxe/OUTPUT/DisplayEngine.lib(InputHandler.obj)
                              ProcessOptions.obj (symbol from plugin) (ReadString)
/home/alastair/pftf-rpi4/Build/RPi4/DEBUG_GCC5/AARCH64/MdeModulePkg/Universal/DisplayEngineDxe/DisplayEngineDxe/OUTPUT/DisplayEngine.lib(Popup.obj)
                              FormDisplay.obj (symbol from plugin) (CreatePopup)
/home/alastair/pftf-rpi4/Build/RPi4/DEBUG_GCC5/AARCH64/MdePkg/Library/BaseLib/BaseLib/OUTPUT/BaseLib.lib(MultU64x32.obj)
                              InputHandler.obj (symbol from plugin) (MultU64x32)
/home/alastair/pftf-rpi4/Build/RPi4/DEBUG_GCC5/AARCH64/MdePkg/Library/BaseLib/BaseLib/OUTPUT/BaseLib.lib(LShiftU64.obj)
                              InputHandler.obj (symbol from plugin) (LShiftU64)
/home/alastair/pftf-rpi4/Build/RPi4/DEBUG_GCC5/AARCH64/MdePkg/Library/BaseLib/BaseLib/OUTPUT/BaseLib.lib(CpuDeadLoop.obj)
                              BaseStackCheckGcc.obj (symbol from plugin) (CpuDeadLoop)
/home/alastair/pftf-rpi4/Build/RPi4/DEBUG_GCC5/AARCH64/MdePkg/Library/BaseLib/BaseLib/OUTPUT/BaseLib.lib(LinkedList.obj)
                              FormDisplay.obj (symbol from plugin) (InitializeListHead)
/home/alastair/pftf-rpi4/Build/RPi4/DEBUG_GCC5/AARCH64/MdePkg/Library/BaseLib/BaseLib/OUTPUT/BaseLib.lib(SafeString.obj)
                              FormDisplay.obj (symbol from plugin) (StrCpyS)
/home/alastair/pftf-rpi4/Build/RPi4/DEBUG_GCC5/AARCH64/MdePkg/Library/BaseLib/BaseLib/OUTPUT/BaseLib.lib(String.obj)
                              FormDisplay.obj (symbol from plugin) (StrLen)
/home/alastair/pftf-rpi4/Build/RPi4/DEBUG_GCC5/AARCH64/MdePkg/Library/BaseLib/BaseLib/OUTPUT/BaseLib.lib(Math64.obj)
                              LShiftU64.obj (symbol from plugin) (InternalMathLShiftU64)
/home/alastair/pftf-rpi4/Build/RPi4/DEBUG_GCC5/AARCH64/MdePkg/Library/BaseLib/BaseLib/OUTPUT/BaseLib.lib(CpuBreakpoint.obj)
                              BaseStackCheckGcc.obj (symbol from plugin) (CpuBreakpoint)
/home/alastair/pftf-rpi4/Build/RPi4/DEBUG_GCC5/AARCH64/MdePkg/Library/BaseLib/BaseLib/OUTPUT/BaseLib.lib(SwapBytes32.obj)
                              SafeString.obj (symbol from plugin) (SwapBytes32)
/home/alastair/pftf-rpi4/Build/RPi4/DEBUG_GCC5/AARCH64/MdePkg/Library/BaseLib/BaseLib/OUTPUT/BaseLib.lib(SwapBytes16.obj)
                              SafeString.obj (symbol from plugin) (SwapBytes16)
/home/alastair/pftf-rpi4/Build/RPi4/DEBUG_GCC5/AARCH64/MdePkg/Library/BaseLib/BaseLib/OUTPUT/BaseLib.lib(RShiftU64.obj)
                              SafeString.obj (symbol from plugin) (RShiftU64)
/home/alastair/pftf-rpi4/Build/RPi4/DEBUG_GCC5/AARCH64/MdePkg/Library/BaseLib/BaseLib/OUTPUT/BaseLib.lib(DivU64x32.obj)
                              SafeString.obj (symbol from plugin) (DivU64x32)
/home/alastair/pftf-rpi4/Build/RPi4/DEBUG_GCC5/AARCH64/MdePkg/Library/BaseMemoryLibOptDxe/BaseMemoryLibOptDxe/OUTPUT/BaseMemoryLibOptDxe.lib(MemLibGuid.obj)
                              FormDisplay.obj (symbol from plugin) (CopyGuid)
/home/alastair/pftf-rpi4/Build/RPi4/DEBUG_GCC5/AARCH64/MdePkg/Library/BaseMemoryLibOptDxe/BaseMemoryLibOptDxe/OUTPUT/BaseMemoryLibOptDxe.lib(ZeroMemWrapper.obj)
                              FormDisplay.obj (symbol from plugin) (ZeroMem)
/home/alastair/pftf-rpi4/Build/RPi4/DEBUG_GCC5/AARCH64/MdePkg/Library/BaseMemoryLibOptDxe/BaseMemoryLibOptDxe/OUTPUT/BaseMemoryLibOptDxe.lib(CompareMemWrapper.obj)
                              FormDisplay.obj (symbol from plugin) (CompareMem)
/home/alastair/pftf-rpi4/Build/RPi4/DEBUG_GCC5/AARCH64/MdePkg/Library/BaseMemoryLibOptDxe/BaseMemoryLibOptDxe/OUTPUT/BaseMemoryLibOptDxe.lib(CopyMemWrapper.obj)
                              FormDisplay.obj (symbol from plugin) (CopyMem)
/home/alastair/pftf-rpi4/Build/RPi4/DEBUG_GCC5/AARCH64/MdePkg/Library/BaseMemoryLibOptDxe/BaseMemoryLibOptDxe/OUTPUT/BaseMemoryLibOptDxe.lib(SetMem.obj)
                              ZeroMemWrapper.obj (symbol from plugin) (InternalMemZeroMem)
/home/alastair/pftf-rpi4/Build/RPi4/DEBUG_GCC5/AARCH64/MdePkg/Library/BaseMemoryLibOptDxe/BaseMemoryLibOptDxe/OUTPUT/BaseMemoryLibOptDxe.lib(CopyMem.obj)
                              MemLibGuid.obj (symbol from plugin) (InternalMemCopyMem)
/home/alastair/pftf-rpi4/Build/RPi4/DEBUG_GCC5/AARCH64/MdePkg/Library/BaseMemoryLibOptDxe/BaseMemoryLibOptDxe/OUTPUT/BaseMemoryLibOptDxe.lib(CompareMem.obj)
                              CompareMemWrapper.obj (symbol from plugin) (InternalMemCompareMem)
/home/alastair/pftf-rpi4/Build/RPi4/DEBUG_GCC5/AARCH64/MdePkg/Library/BaseMemoryLibOptDxe/BaseMemoryLibOptDxe/OUTPUT/BaseMemoryLibOptDxe.lib(CompareGuid.obj)
                              MemLibGuid.obj (symbol from plugin) (InternalMemCompareGuid)
/home/alastair/pftf-rpi4/Build/RPi4/DEBUG_GCC5/AARCH64/MdePkg/Library/BasePrintLib/BasePrintLib/OUTPUT/BasePrintLib.lib(PrintLib.obj)
                              ProcessOptions.obj (symbol from plugin) (UnicodeSPrint)
/home/alastair/pftf-rpi4/Build/RPi4/DEBUG_GCC5/AARCH64/MdePkg/Library/BasePrintLib/BasePrintLib/OUTPUT/BasePrintLib.lib(PrintLibInternal.obj)
                              PrintLib.obj (symbol from plugin) (BasePrintLibConvertValueToStringS)
/home/alastair/pftf-rpi4/Build/RPi4/DEBUG_GCC5/AARCH64/MdePkg/Library/BaseDebugLibSerialPort/BaseDebugLibSerialPort/OUTPUT/BaseDebugLibSerialPort.lib(DebugLib.obj)
                              AutoGen.obj (symbol from plugin) (BaseDebugLibSerialPortConstructor)
/home/alastair/pftf-rpi4/Build/RPi4/DEBUG_GCC5/AARCH64/MdePkg/Library/UefiBootServicesTableLib/UefiBootServicesTableLib/OUTPUT/UefiBootServicesTableLib.lib(UefiBootServicesTableLib.obj)
                              AutoGen.obj (symbol from plugin) (UefiBootServicesTableLibConstructor)
/home/alastair/pftf-rpi4/Build/RPi4/DEBUG_GCC5/AARCH64/MdePkg/Library/UefiMemoryAllocationLib/UefiMemoryAllocationLib/OUTPUT/UefiMemoryAllocationLib.lib(MemoryAllocationLib.obj)
                              FormDisplay.obj (symbol from plugin) (AllocateZeroPool)
/home/alastair/pftf-rpi4/Build/RPi4/DEBUG_GCC5/AARCH64/MdePkg/Library/UefiRuntimeServicesTableLib/UefiRuntimeServicesTableLib/OUTPUT/UefiRuntimeServicesTableLib.lib(UefiRuntimeServicesTableLib.obj)
                              AutoGen.obj (symbol from plugin) (UefiRuntimeServicesTableLibConstructor)
/home/alastair/pftf-rpi4/Build/RPi4/DEBUG_GCC5/AARCH64/MdeModulePkg/Library/UefiHiiServicesLib/UefiHiiServicesLib/OUTPUT/UefiHiiServicesLib.lib(UefiHiiServicesLib.obj)
                              AutoGen.obj (symbol from plugin) (UefiHiiServicesLibConstructor)
/home/alastair/pftf-rpi4/Build/RPi4/DEBUG_GCC5/AARCH64/MdePkg/Library/UefiLib/UefiLib/OUTPUT/UefiLib.lib(UefiLib.obj)
                              AutoGen.obj (symbol from plugin) (UefiLibConstructor)
/home/alastair/pftf-rpi4/Build/RPi4/DEBUG_GCC5/AARCH64/MdeModulePkg/Library/UefiHiiLib/UefiHiiLib/OUTPUT/UefiHiiLib.lib(HiiLib.obj)
                              FormDisplay.obj (symbol from plugin) (HiiAddPackages)
/home/alastair/pftf-rpi4/Build/RPi4/DEBUG_GCC5/AARCH64/MdeModulePkg/Library/UefiHiiLib/UefiHiiLib/OUTPUT/UefiHiiLib.lib(HiiString.obj)
                              ProcessOptions.obj (symbol from plugin) (HiiSetString)
/home/alastair/pftf-rpi4/Build/RPi4/DEBUG_GCC5/AARCH64/MdeModulePkg/Library/UefiHiiLib/UefiHiiLib/OUTPUT/UefiHiiLib.lib(HiiLanguage.obj)
                              HiiString.obj (symbol from plugin) (HiiGetSupportedLanguages)
/home/alastair/pftf-rpi4/Build/RPi4/DEBUG_GCC5/AARCH64/MdeModulePkg/Library/CustomizedDisplayLib/CustomizedDisplayLib/OUTPUT/CustomizedDisplayLib.lib(CustomizedDisplayLib.obj)
                              FormDisplay.obj (symbol from plugin) (FormExitPolicy)
/home/alastair/pftf-rpi4/Build/RPi4/DEBUG_GCC5/AARCH64/MdeModulePkg/Library/CustomizedDisplayLib/CustomizedDisplayLib/OUTPUT/CustomizedDisplayLib.lib(CustomizedDisplayLibInternal.obj)
                              CustomizedDisplayLib.obj (symbol from plugin) (ProcessExternedOpcode)
/home/alastair/pftf-rpi4/Build/RPi4/DEBUG_GCC5/AARCH64/MdeModulePkg/Library/CustomizedDisplayLib/CustomizedDisplayLib/OUTPUT/CustomizedDisplayLib.lib(AutoGen.obj)
                              CustomizedDisplayLib.obj (symbol from plugin) (CustomizedDisplayLibStrings)
/home/alastair/pftf-rpi4/Build/RPi4/DEBUG_GCC5/AARCH64/MdePkg/Library/BaseLib/BaseLib/OUTPUT/BaseLib.lib(DivU64x32Remainder.obj)
                              PrintLibInternal.obj (symbol from plugin) (DivU64x32Remainder)
/home/alastair/pftf-rpi4/Build/RPi4/DEBUG_GCC5/AARCH64/MdePkg/Library/BaseLib/BaseLib/OUTPUT/BaseLib.lib(BitField.obj)
                              HiiLib.obj (symbol from plugin) (BitFieldRead32)
/home/alastair/pftf-rpi4/Build/RPi4/DEBUG_GCC5/AARCH64/MdePkg/Library/BaseLib/BaseLib/OUTPUT/BaseLib.lib(Unaligned.obj)
                              PrintLibInternal.obj (symbol from plugin) (ReadUnaligned16)
/home/alastair/pftf-rpi4/Build/RPi4/DEBUG_GCC5/AARCH64/MdePkg/Library/BaseMemoryLibOptDxe/BaseMemoryLibOptDxe/OUTPUT/BaseMemoryLibOptDxe.lib(SetMemWrapper.obj)
                              DebugLib.obj (symbol from plugin) (SetMem)
/home/alastair/pftf-rpi4/Build/RPi4/DEBUG_GCC5/AARCH64/MdePkg/Library/BaseMemoryLibOptDxe/BaseMemoryLibOptDxe/OUTPUT/BaseMemoryLibOptDxe.lib(SetMem64Wrapper.obj)
                              SetMemWrapper.obj (symbol from plugin) (SetMem64)
/home/alastair/pftf-rpi4/Build/RPi4/DEBUG_GCC5/AARCH64/MdePkg/Library/BaseDebugPrintErrorLevelLib/BaseDebugPrintErrorLevelLib/OUTPUT/BaseDebugPrintErrorLevelLib.lib(BaseDebugPrintErrorLevelLib.obj)
                              DebugLib.obj (symbol from plugin) (GetDebugPrintErrorLevel)
/home/alastair/pftf-rpi4/Build/RPi4/DEBUG_GCC5/AARCH64/Platform/RaspberryPi/Library/DualSerialPortLib/DebugDualSerialPortLib/OUTPUT/DebugDualSerialPortLib.lib(DebugDualSerialPortLib.obj)
                              DebugLib.obj (symbol from plugin) (SerialPortInitialize)
/home/alastair/pftf-rpi4/Build/RPi4/DEBUG_GCC5/AARCH64/Platform/RaspberryPi/Library/DualSerialPortLib/DebugDualSerialPortLib/OUTPUT/DebugDualSerialPortLib.lib(DualSerialPortLibCommon.obj)
                              DebugLib.obj (symbol from plugin) (SerialPortWrite)
/home/alastair/pftf-rpi4/Build/RPi4/DEBUG_GCC5/AARCH64/MdePkg/Library/UefiDevicePathLib/UefiDevicePathLib/OUTPUT/UefiDevicePathLib.lib(DevicePathUtilities.obj)
                              UefiLib.obj (symbol from plugin) (DevicePathType)
/home/alastair/pftf-rpi4/Build/RPi4/DEBUG_GCC5/AARCH64/MdePkg/Library/UefiDevicePathLib/UefiDevicePathLib/OUTPUT/UefiDevicePathLib.lib(DevicePathUtilitiesDxeSmm.obj)
                              HiiLib.obj (symbol from plugin) (DevicePathFromHandle)
/home/alastair/pftf-rpi4/Build/RPi4/DEBUG_GCC5/AARCH64/MdePkg/Library/UefiDevicePathLib/UefiDevicePathLib/OUTPUT/UefiDevicePathLib.lib(UefiDevicePathLib.obj)
                              HiiLib.obj (symbol from plugin) (GetDevicePathSize)
/home/alastair/pftf-rpi4/Build/RPi4/DEBUG_GCC5/AARCH64/MdePkg/Library/UefiDevicePathLib/UefiDevicePathLib/OUTPUT/UefiDevicePathLib.lib(DevicePathToText.obj)
                              UefiDevicePathLib.obj (symbol from plugin) (UefiDevicePathLibConvertDeviceNodeToText)
/home/alastair/pftf-rpi4/Build/RPi4/DEBUG_GCC5/AARCH64/MdePkg/Library/UefiDevicePathLib/UefiDevicePathLib/OUTPUT/UefiDevicePathLib.lib(DevicePathFromText.obj)
                              UefiDevicePathLib.obj (symbol from plugin) (UefiDevicePathLibConvertTextToDeviceNode)
/home/alastair/pftf-rpi4/Build/RPi4/DEBUG_GCC5/AARCH64/MdePkg/Library/BaseLib/BaseLib/OUTPUT/BaseLib.lib(SwapBytes64.obj)
                              DevicePathFromText.obj (symbol from plugin) (SwapBytes64)
/home/alastair/pftf-rpi4/Build/RPi4/DEBUG_GCC5/AARCH64/MdePkg/Library/BaseIoLibIntrinsic/BaseIoLibIntrinsic/OUTPUT/BaseIoLibIntrinsic.lib(IoLibNoIo.obj)
                              DualSerialPortLibCommon.obj (symbol from plugin) (MmioRead8)
/home/alastair/pftf-rpi4/Build/RPi4/DEBUG_GCC5/AARCH64/ArmPlatformPkg/Library/PL011UartLib/PL011UartLib/OUTPUT/PL011UartLib.lib(PL011UartLib.obj)
                              DualSerialPortLibCommon.obj (symbol from plugin) (PL011UartWrite)

Discarded input sections

 .text          0x0000000000000000       0x10 /home/alastair/pftf-rpi4/edk2/ArmPkg/Library/GccLto/liblto-aarch64.a
 .data          0x0000000000000000        0x0 /home/alastair/pftf-rpi4/edk2/ArmPkg/Library/GccLto/liblto-aarch64.a
 .bss           0x0000000000000000        0x0 /home/alastair/pftf-rpi4/edk2/ArmPkg/Library/GccLto/liblto-aarch64.a
 .text          0x0000000000000000        0x0 /tmp/DisplayEngine.dll.3RKoMz.ltrans0.ltrans.o
 .data          0x0000000000000000        0x0 /tmp/DisplayEngine.dll.3RKoMz.ltrans0.ltrans.o
 .bss           0x0000000000000000        0x0 /tmp/DisplayEngine.dll.3RKoMz.ltrans0.ltrans.o
 .text.IsNodeInList
                0x0000000000000000       0xa0 /tmp/DisplayEngine.dll.3RKoMz.ltrans0.ltrans.o
 .rodata._gPcd_FixedAtBuild_PcdBrowserFieldBackgroundHighlightColor
                0x0000000000000000        0x1 /tmp/DisplayEngine.dll.3RKoMz.ltrans0.ltrans.o
 .rodata._gPcd_FixedAtBuild_PcdBrowserFieldTextHighlightColor
                0x0000000000000000        0x1 /tmp/DisplayEngine.dll.3RKoMz.ltrans0.ltrans.o
 .rodata._gPcd_FixedAtBuild_PcdDebugPropertyMask
                0x0000000000000000        0x1 /tmp/DisplayEngine.dll.3RKoMz.ltrans0.ltrans.o
 .rodata._gPcd_FixedAtBuild_PcdFixedDebugPrintErrorLevel
                0x0000000000000000        0x4 /tmp/DisplayEngine.dll.3RKoMz.ltrans0.ltrans.o
 .comment       0x0000000000000000       0x2b /tmp/DisplayEngine.dll.3RKoMz.ltrans0.ltrans.o
 .note.GNU-stack
                0x0000000000000000        0x0 /tmp/DisplayEngine.dll.3RKoMz.ltrans0.ltrans.o
 .text          0x0000000000000000        0x0 /tmp/DisplayEngine.dll.3RKoMz.ltrans1.ltrans.o
 .data          0x0000000000000000        0x0 /tmp/DisplayEngine.dll.3RKoMz.ltrans1.ltrans.o
 .bss           0x0000000000000000        0x0 /tmp/DisplayEngine.dll.3RKoMz.ltrans1.ltrans.o
 .text.__memset
                0x0000000000000000       0x1c /tmp/DisplayEngine.dll.3RKoMz.ltrans1.ltrans.o
 .comment       0x0000000000000000       0x2b /tmp/DisplayEngine.dll.3RKoMz.ltrans1.ltrans.o
 .note.GNU-stack
                0x0000000000000000        0x0 /tmp/DisplayEngine.dll.3RKoMz.ltrans1.ltrans.o
 .comment       0x0000000000000000       0x2b /tmp/ccHfrJYA.debug.temp.o
 .note.GNU-stack
                0x0000000000000000        0x0 /tmp/ccHfrJYA.debug.temp.o
 .comment       0x0000000000000000       0x2b /tmp/cc7RmhHz.debug.temp.o
 .note.GNU-stack
                0x0000000000000000        0x0 /tmp/cc7RmhHz.debug.temp.o
 .comment       0x0000000000000000       0x2b /tmp/cc4EZ2fz.debug.temp.o
 .note.GNU-stack
                0x0000000000000000        0x0 /tmp/cc4EZ2fz.debug.temp.o
 .comment       0x0000000000000000       0x2b /tmp/cckC4Ppy.debug.temp.o
 .note.GNU-stack
                0x0000000000000000        0x0 /tmp/cckC4Ppy.debug.temp.o
 .comment       0x0000000000000000       0x2b /tmp/cclNR9Iy.debug.temp.o
 .note.GNU-stack
                0x0000000000000000        0x0 /tmp/cclNR9Iy.debug.temp.o
 .comment       0x0000000000000000       0x2b /tmp/ccoYWMAx.debug.temp.o
 .note.GNU-stack
                0x0000000000000000        0x0 /tmp/ccoYWMAx.debug.temp.o
 .comment       0x0000000000000000       0x2b /tmp/ccJv6rOx.debug.temp.o
 .note.GNU-stack
                0x0000000000000000        0x0 /tmp/ccJv6rOx.debug.temp.o
 .comment       0x0000000000000000       0x2b /tmp/cc2V5bCA.debug.temp.o
 .note.GNU-stack
                0x0000000000000000        0x0 /tmp/cc2V5bCA.debug.temp.o
 .comment       0x0000000000000000       0x2b /tmp/cccjwO2w.debug.temp.o
 .note.GNU-stack
                0x0000000000000000        0x0 /tmp/cccjwO2w.debug.temp.o
 .comment       0x0000000000000000       0x2b /tmp/cclGVvTy.debug.temp.o
 .note.GNU-stack
                0x0000000000000000        0x0 /tmp/cclGVvTy.debug.temp.o
 .comment       0x0000000000000000       0x2b /tmp/cciS80py.debug.temp.o
 .note.GNU-stack
                0x0000000000000000        0x0 /tmp/cciS80py.debug.temp.o
 .comment       0x0000000000000000       0x2b /tmp/cc8fobmx.debug.temp.o
 .note.GNU-stack
                0x0000000000000000        0x0 /tmp/cc8fobmx.debug.temp.o
 .comment       0x0000000000000000       0x2b /tmp/ccUh3glA.debug.temp.o
 .note.GNU-stack
                0x0000000000000000        0x0 /tmp/ccUh3glA.debug.temp.o
 .comment       0x0000000000000000       0x2b /tmp/ccfjYShA.debug.temp.o
 .note.GNU-stack
                0x0000000000000000        0x0 /tmp/ccfjYShA.debug.temp.o
 .comment       0x0000000000000000       0x2b /tmp/cctnYN1w.debug.temp.o
 .note.GNU-stack
                0x0000000000000000        0x0 /tmp/cctnYN1w.debug.temp.o
 .comment       0x0000000000000000       0x2b /tmp/ccL4MxPz.debug.temp.o
 .note.GNU-stack
                0x0000000000000000        0x0 /tmp/ccL4MxPz.debug.temp.o
 .debug_info    0x0000000000000000      0x1db /tmp/ccA3E9Lz.debug.temp.o
 .debug_abbrev  0x0000000000000000       0xc0 /tmp/ccA3E9Lz.debug.temp.o
 .debug_line    0x0000000000000000      0x14c /tmp/ccA3E9Lz.debug.temp.o
 .debug_str     0x0000000000000000      0x472 /tmp/ccA3E9Lz.debug.temp.o
 .comment       0x0000000000000000       0x2b /tmp/ccA3E9Lz.debug.temp.o
 .note.GNU-stack
                0x0000000000000000        0x0 /tmp/ccA3E9Lz.debug.temp.o
 .debug_info    0x0000000000000000      0x1c3 /tmp/ccRCba6y.debug.temp.o
 .debug_abbrev  0x0000000000000000       0xb1 /tmp/ccRCba6y.debug.temp.o
 .debug_line    0x0000000000000000      0x14c /tmp/ccRCba6y.debug.temp.o
 .debug_str     0x0000000000000000      0x45b /tmp/ccRCba6y.debug.temp.o
 .comment       0x0000000000000000       0x2b /tmp/ccRCba6y.debug.temp.o
 .note.GNU-stack
                0x0000000000000000        0x0 /tmp/ccRCba6y.debug.temp.o
 .debug_info    0x0000000000000000      0x1db /tmp/cc1IirMx.debug.temp.o
 .debug_abbrev  0x0000000000000000       0xb1 /tmp/cc1IirMx.debug.temp.o
 .debug_line    0x0000000000000000      0x14a /tmp/cc1IirMx.debug.temp.o
 .debug_str     0x0000000000000000      0x465 /tmp/cc1IirMx.debug.temp.o
 .comment       0x0000000000000000       0x2b /tmp/cc1IirMx.debug.temp.o
 .note.GNU-stack
                0x0000000000000000        0x0 /tmp/cc1IirMx.debug.temp.o
 .debug_info    0x0000000000000000      0x1cf /tmp/ccAABRAz.debug.temp.o
 .debug_abbrev  0x0000000000000000       0xb1 /tmp/ccAABRAz.debug.temp.o
 .debug_line    0x0000000000000000      0x14a /tmp/ccAABRAz.debug.temp.o
 .debug_str     0x0000000000000000      0x462 /tmp/ccAABRAz.debug.temp.o
 .comment       0x0000000000000000       0x2b /tmp/ccAABRAz.debug.temp.o
 .note.GNU-stack
                0x0000000000000000        0x0 /tmp/ccAABRAz.debug.temp.o
 .comment       0x0000000000000000       0x2b /tmp/cctk6zhz.debug.temp.o
 .note.GNU-stack
                0x0000000000000000        0x0 /tmp/cctk6zhz.debug.temp.o
 .comment       0x0000000000000000       0x2b /tmp/ccu2NwOz.debug.temp.o
 .note.GNU-stack
                0x0000000000000000        0x0 /tmp/ccu2NwOz.debug.temp.o
 .comment       0x0000000000000000       0x2b /tmp/ccktJqDx.debug.temp.o
 .note.GNU-stack
                0x0000000000000000        0x0 /tmp/ccktJqDx.debug.temp.o
 .comment       0x0000000000000000       0x2b /tmp/ccKHM7eB.debug.temp.o
 .note.GNU-stack
                0x0000000000000000        0x0 /tmp/ccKHM7eB.debug.temp.o
 .comment       0x0000000000000000       0x2b /tmp/ccgHxwgz.debug.temp.o
 .note.GNU-stack
                0x0000000000000000        0x0 /tmp/ccgHxwgz.debug.temp.o
 .comment       0x0000000000000000       0x2b /tmp/cch67d2z.debug.temp.o
 .note.GNU-stack
                0x0000000000000000        0x0 /tmp/cch67d2z.debug.temp.o
 .comment       0x0000000000000000       0x2b /tmp/ccyeSK4x.debug.temp.o
 .note.GNU-stack
                0x0000000000000000        0x0 /tmp/ccyeSK4x.debug.temp.o
 .comment       0x0000000000000000       0x2b /tmp/ccGBkZ4A.debug.temp.o
 .note.GNU-stack
                0x0000000000000000        0x0 /tmp/ccGBkZ4A.debug.temp.o
 .comment       0x0000000000000000       0x2b /tmp/cciwoF3x.debug.temp.o
 .note.GNU-stack
                0x0000000000000000        0x0 /tmp/cciwoF3x.debug.temp.o
 .comment       0x0000000000000000       0x2b /tmp/cck281yx.debug.temp.o
 .note.GNU-stack
                0x0000000000000000        0x0 /tmp/cck281yx.debug.temp.o
 .comment       0x0000000000000000       0x2b /tmp/ccyFOs3z.debug.temp.o
 .note.GNU-stack
                0x0000000000000000        0x0 /tmp/ccyFOs3z.debug.temp.o
 .comment       0x0000000000000000       0x2b /tmp/ccWUPjLz.debug.temp.o
 .note.GNU-stack
                0x0000000000000000        0x0 /tmp/ccWUPjLz.debug.temp.o
 .comment       0x0000000000000000       0x2b /tmp/cc5SjtRA.debug.temp.o
 .note.GNU-stack
                0x0000000000000000        0x0 /tmp/cc5SjtRA.debug.temp.o
 .comment       0x0000000000000000       0x2b /tmp/cc5gRNuA.debug.temp.o
 .note.GNU-stack
                0x0000000000000000        0x0 /tmp/cc5gRNuA.debug.temp.o
 .comment       0x0000000000000000       0x2b /tmp/ccDPSbQx.debug.temp.o
 .note.GNU-stack
                0x0000000000000000        0x0 /tmp/ccDPSbQx.debug.temp.o
 .comment       0x0000000000000000       0x2b /tmp/ccozBVcy.debug.temp.o
 .note.GNU-stack
                0x0000000000000000        0x0 /tmp/ccozBVcy.debug.temp.o
 .comment       0x0000000000000000       0x2b /tmp/ccaAAISA.debug.temp.o
 .note.GNU-stack
                0x0000000000000000        0x0 /tmp/ccaAAISA.debug.temp.o
 .comment       0x0000000000000000       0x2b /tmp/cc9oKAKx.debug.temp.o
 .note.GNU-stack
                0x0000000000000000        0x0 /tmp/cc9oKAKx.debug.temp.o
 .comment       0x0000000000000000       0x2b /tmp/ccT0GmKz.debug.temp.o
 .note.GNU-stack
                0x0000000000000000        0x0 /tmp/ccT0GmKz.debug.temp.o
 .debug_info    0x0000000000000000      0x89f /tmp/cc20yvQA.debug.temp.o
 .debug_abbrev  0x0000000000000000       0xf9 /tmp/cc20yvQA.debug.temp.o
 .debug_line    0x0000000000000000      0x149 /tmp/cc20yvQA.debug.temp.o
 .debug_str     0x0000000000000000      0x64e /tmp/cc20yvQA.debug.temp.o
 .comment       0x0000000000000000       0x2b /tmp/cc20yvQA.debug.temp.o
 .note.GNU-stack
                0x0000000000000000        0x0 /tmp/cc20yvQA.debug.temp.o
 .comment       0x0000000000000000       0x2b /tmp/ccitylrx.debug.temp.o
 .note.GNU-stack
                0x0000000000000000        0x0 /tmp/ccitylrx.debug.temp.o
 .debug_info    0x0000000000000000      0x1bb /tmp/ccWniqKz.debug.temp.o
 .debug_abbrev  0x0000000000000000       0xc6 /tmp/ccWniqKz.debug.temp.o
 .debug_line    0x0000000000000000      0x172 /tmp/ccWniqKz.debug.temp.o
 .debug_str     0x0000000000000000      0x364 /tmp/ccWniqKz.debug.temp.o
 .comment       0x0000000000000000       0x2b /tmp/ccWniqKz.debug.temp.o
 .note.GNU-stack
                0x0000000000000000        0x0 /tmp/ccWniqKz.debug.temp.o
 .debug_info    0x0000000000000000      0x186 /tmp/cccRmrKz.debug.temp.o
 .debug_abbrev  0x0000000000000000       0xb1 /tmp/cccRmrKz.debug.temp.o
 .debug_line    0x0000000000000000      0x174 /tmp/cccRmrKz.debug.temp.o
 .debug_str     0x0000000000000000      0x360 /tmp/cccRmrKz.debug.temp.o
 .comment       0x0000000000000000       0x2b /tmp/cccRmrKz.debug.temp.o
 .note.GNU-stack
                0x0000000000000000        0x0 /tmp/cccRmrKz.debug.temp.o
 .comment       0x0000000000000000       0x2b /tmp/ccJ5EVAy.debug.temp.o
 .note.GNU-stack
                0x0000000000000000        0x0 /tmp/ccJ5EVAy.debug.temp.o
 .comment       0x0000000000000000       0x2b /tmp/ccsPICGy.debug.temp.o
 .note.GNU-stack
                0x0000000000000000        0x0 /tmp/ccsPICGy.debug.temp.o
 .comment       0x0000000000000000       0x2b /tmp/cciTZJKx.debug.temp.o
 .note.GNU-stack
                0x0000000000000000        0x0 /tmp/cciTZJKx.debug.temp.o
 .debug_info    0x0000000000000000     0x1d7d /tmp/ccpgYO3z.debug.temp.o
 .debug_abbrev  0x0000000000000000      0x240 /tmp/ccpgYO3z.debug.temp.o
 .debug_line    0x0000000000000000      0x36c /tmp/ccpgYO3z.debug.temp.o
 .debug_str     0x0000000000000000     0x1974 /tmp/ccpgYO3z.debug.temp.o
 .comment       0x0000000000000000       0x2b /tmp/ccpgYO3z.debug.temp.o
 .note.GNU-stack
                0x0000000000000000        0x0 /tmp/ccpgYO3z.debug.temp.o
 .debug_info    0x0000000000000000     0x1953 /tmp/ccoIHrGA.debug.temp.o
 .debug_abbrev  0x0000000000000000      0x1d4 /tmp/ccoIHrGA.debug.temp.o
 .debug_line    0x0000000000000000      0x372 /tmp/ccoIHrGA.debug.temp.o
 .debug_str     0x0000000000000000     0x1658 /tmp/ccoIHrGA.debug.temp.o
 .comment       0x0000000000000000       0x2b /tmp/ccoIHrGA.debug.temp.o
 .note.GNU-stack
                0x0000000000000000        0x0 /tmp/ccoIHrGA.debug.temp.o
 .debug_info    0x0000000000000000     0x1afe /tmp/cczksJhy.debug.temp.o
 .debug_abbrev  0x0000000000000000      0x1fe /tmp/cczksJhy.debug.temp.o
 .debug_line    0x0000000000000000      0x36a /tmp/cczksJhy.debug.temp.o
 .debug_str     0x0000000000000000     0x17d8 /tmp/cczksJhy.debug.temp.o
 .comment       0x0000000000000000       0x2b /tmp/cczksJhy.debug.temp.o
 .note.GNU-stack
                0x0000000000000000        0x0 /tmp/cczksJhy.debug.temp.o
 .debug_info    0x0000000000000000     0x3d60 /tmp/cc21YFOy.debug.temp.o
 .debug_abbrev  0x0000000000000000      0x2ca /tmp/cc21YFOy.debug.temp.o
 .debug_line    0x0000000000000000      0x3db /tmp/cc21YFOy.debug.temp.o
 .debug_str     0x0000000000000000     0x25ec /tmp/cc21YFOy.debug.temp.o
 .comment       0x0000000000000000       0x2b /tmp/cc21YFOy.debug.temp.o
 .note.GNU-stack
                0x0000000000000000        0x0 /tmp/cc21YFOy.debug.temp.o
 .debug_info    0x0000000000000000     0x45d4 /tmp/ccHbuUiy.debug.temp.o
 .debug_abbrev  0x0000000000000000      0x2b0 /tmp/ccHbuUiy.debug.temp.o
 .debug_line    0x0000000000000000      0x3cf /tmp/ccHbuUiy.debug.temp.o
 .debug_str     0x0000000000000000     0x2f11 /tmp/ccHbuUiy.debug.temp.o
 .comment       0x0000000000000000       0x2b /tmp/ccHbuUiy.debug.temp.o
 .note.GNU-stack
                0x0000000000000000        0x0 /tmp/ccHbuUiy.debug.temp.o
 .debug_info    0x0000000000000000      0x1c3 /tmp/ccZ607vx.debug.temp.o
 .debug_abbrev  0x0000000000000000       0xb1 /tmp/ccZ607vx.debug.temp.o
 .debug_line    0x0000000000000000      0x14c /tmp/ccZ607vx.debug.temp.o
 .debug_str     0x0000000000000000      0x45b /tmp/ccZ607vx.debug.temp.o
 .comment       0x0000000000000000       0x2b /tmp/ccZ607vx.debug.temp.o
 .note.GNU-stack
                0x0000000000000000        0x0 /tmp/ccZ607vx.debug.temp.o
 .comment       0x0000000000000000       0x2b /tmp/ccD1P37y.debug.temp.o
 .note.GNU-stack
                0x0000000000000000        0x0 /tmp/ccD1P37y.debug.temp.o
 .comment       0x0000000000000000       0x2b /tmp/ccHiG91A.debug.temp.o
 .note.GNU-stack
                0x0000000000000000        0x0 /tmp/ccHiG91A.debug.temp.o
 .text          0x0000000000000000        0x8 /home/alastair/pftf-rpi4/Build/RPi4/DEBUG_GCC5/AARCH64/MdePkg/Library/BaseLib/BaseLib/OUTPUT/BaseLib.lib(CpuBreakpoint.obj)
 .data          0x0000000000000000        0x0 /home/alastair/pftf-rpi4/Build/RPi4/DEBUG_GCC5/AARCH64/MdePkg/Library/BaseLib/BaseLib/OUTPUT/BaseLib.lib(CpuBreakpoint.obj)
 .bss           0x0000000000000000        0x0 /home/alastair/pftf-rpi4/Build/RPi4/DEBUG_GCC5/AARCH64/MdePkg/Library/BaseLib/BaseLib/OUTPUT/BaseLib.lib(CpuBreakpoint.obj)
 .data          0x0000000000000000        0x0 /home/alastair/pftf-rpi4/Build/RPi4/DEBUG_GCC5/AARCH64/MdePkg/Library/BaseMemoryLibOptDxe/BaseMemoryLibOptDxe/OUTPUT/BaseMemoryLibOptDxe.lib(SetMem.obj)
 .bss           0x0000000000000000        0x0 /home/alastair/pftf-rpi4/Build/RPi4/DEBUG_GCC5/AARCH64/MdePkg/Library/BaseMemoryLibOptDxe/BaseMemoryLibOptDxe/OUTPUT/BaseMemoryLibOptDxe.lib(SetMem.obj)
 .data          0x0000000000000000        0x0 /home/alastair/pftf-rpi4/Build/RPi4/DEBUG_GCC5/AARCH64/MdePkg/Library/BaseMemoryLibOptDxe/BaseMemoryLibOptDxe/OUTPUT/BaseMemoryLibOptDxe.lib(CopyMem.obj)
 .bss           0x0000000000000000        0x0 /home/alastair/pftf-rpi4/Build/RPi4/DEBUG_GCC5/AARCH64/MdePkg/Library/BaseMemoryLibOptDxe/BaseMemoryLibOptDxe/OUTPUT/BaseMemoryLibOptDxe.lib(CopyMem.obj)
 .data          0x0000000000000000        0x0 /home/alastair/pftf-rpi4/Build/RPi4/DEBUG_GCC5/AARCH64/MdePkg/Library/BaseMemoryLibOptDxe/BaseMemoryLibOptDxe/OUTPUT/BaseMemoryLibOptDxe.lib(CompareMem.obj)
 .bss           0x0000000000000000        0x0 /home/alastair/pftf-rpi4/Build/RPi4/DEBUG_GCC5/AARCH64/MdePkg/Library/BaseMemoryLibOptDxe/BaseMemoryLibOptDxe/OUTPUT/BaseMemoryLibOptDxe.lib(CompareMem.obj)
 .data          0x0000000000000000        0x0 /home/alastair/pftf-rpi4/Build/RPi4/DEBUG_GCC5/AARCH64/MdePkg/Library/BaseMemoryLibOptDxe/BaseMemoryLibOptDxe/OUTPUT/BaseMemoryLibOptDxe.lib(CompareGuid.obj)
 .bss           0x0000000000000000        0x0 /home/alastair/pftf-rpi4/Build/RPi4/DEBUG_GCC5/AARCH64/MdePkg/Library/BaseMemoryLibOptDxe/BaseMemoryLibOptDxe/OUTPUT/BaseMemoryLibOptDxe.lib(CompareGuid.obj)

Memory Configuration

Name             Origin             Length             Attributes
*default*        0x0000000000000000 0xffffffffffffffff

Linker script and memory map

LOAD /home/alastair/pftf-rpi4/edk2/ArmPkg/Library/GccLto/liblto-aarch64.a
START GROUP
LOAD /tmp/DisplayEngine.dll.3RKoMz.ltrans0.ltrans.o
LOAD /tmp/DisplayEngine.dll.3RKoMz.ltrans1.ltrans.o
LOAD /tmp/ccHfrJYA.debug.temp.o
LOAD /tmp/cc7RmhHz.debug.temp.o
LOAD /tmp/cc4EZ2fz.debug.temp.o
LOAD /tmp/cckC4Ppy.debug.temp.o
LOAD /tmp/cclNR9Iy.debug.temp.o
LOAD /tmp/ccoYWMAx.debug.temp.o
LOAD /tmp/ccJv6rOx.debug.temp.o
LOAD /tmp/cc2V5bCA.debug.temp.o
LOAD /tmp/cccjwO2w.debug.temp.o
LOAD /tmp/cclGVvTy.debug.temp.o
LOAD /tmp/cciS80py.debug.temp.o
LOAD /tmp/cc8fobmx.debug.temp.o
LOAD /tmp/ccUh3glA.debug.temp.o
LOAD /tmp/ccfjYShA.debug.temp.o
LOAD /tmp/cctnYN1w.debug.temp.o
LOAD /tmp/ccL4MxPz.debug.temp.o
LOAD /tmp/ccA3E9Lz.debug.temp.o
LOAD /tmp/ccRCba6y.debug.temp.o
LOAD /tmp/cc1IirMx.debug.temp.o
LOAD /tmp/ccAABRAz.debug.temp.o
LOAD /tmp/cctk6zhz.debug.temp.o
LOAD /tmp/ccu2NwOz.debug.temp.o
LOAD /tmp/ccktJqDx.debug.temp.o
LOAD /tmp/ccKHM7eB.debug.temp.o
LOAD /tmp/ccgHxwgz.debug.temp.o
LOAD /tmp/cch67d2z.debug.temp.o
LOAD /tmp/ccyeSK4x.debug.temp.o
LOAD /tmp/ccGBkZ4A.debug.temp.o
LOAD /tmp/cciwoF3x.debug.temp.o
LOAD /tmp/cck281yx.debug.temp.o
LOAD /tmp/ccyFOs3z.debug.temp.o
LOAD /tmp/ccWUPjLz.debug.temp.o
LOAD /tmp/cc5SjtRA.debug.temp.o
LOAD /tmp/cc5gRNuA.debug.temp.o
LOAD /tmp/ccDPSbQx.debug.temp.o
LOAD /tmp/ccozBVcy.debug.temp.o
LOAD /tmp/ccaAAISA.debug.temp.o
LOAD /tmp/cc9oKAKx.debug.temp.o
LOAD /tmp/ccT0GmKz.debug.temp.o
LOAD /tmp/cc20yvQA.debug.temp.o
LOAD /tmp/ccitylrx.debug.temp.o
LOAD /tmp/ccWniqKz.debug.temp.o
LOAD /tmp/cccRmrKz.debug.temp.o
LOAD /tmp/ccJ5EVAy.debug.temp.o
LOAD /tmp/ccsPICGy.debug.temp.o
LOAD /tmp/cciTZJKx.debug.temp.o
LOAD /tmp/ccpgYO3z.debug.temp.o
LOAD /tmp/ccoIHrGA.debug.temp.o
LOAD /tmp/cczksJhy.debug.temp.o
LOAD /tmp/cc21YFOy.debug.temp.o
LOAD /tmp/ccHbuUiy.debug.temp.o
LOAD /tmp/ccZ607vx.debug.temp.o
LOAD /tmp/ccD1P37y.debug.temp.o
LOAD /tmp/ccHiG91A.debug.temp.o
LOAD /home/alastair/pftf-rpi4/Build/RPi4/DEBUG_GCC5/AARCH64/MdeModulePkg/Universal/DisplayEngineDxe/DisplayEngineDxe/OUTPUT/DisplayEngine.lib
LOAD /home/alastair/pftf-rpi4/Build/RPi4/DEBUG_GCC5/AARCH64/MdePkg/Library/DxePcdLib/DxePcdLib/OUTPUT/DxePcdLib.lib
LOAD /home/alastair/pftf-rpi4/Build/RPi4/DEBUG_GCC5/AARCH64/MdePkg/Library/BaseLib/BaseLib/OUTPUT/BaseLib.lib
LOAD /home/alastair/pftf-rpi4/Build/RPi4/DEBUG_GCC5/AARCH64/MdePkg/Library/BaseMemoryLibOptDxe/BaseMemoryLibOptDxe/OUTPUT/BaseMemoryLibOptDxe.lib
LOAD /home/alastair/pftf-rpi4/Build/RPi4/DEBUG_GCC5/AARCH64/MdePkg/Library/BaseIoLibIntrinsic/BaseIoLibIntrinsic/OUTPUT/BaseIoLibIntrinsic.lib
LOAD /home/alastair/pftf-rpi4/Build/RPi4/DEBUG_GCC5/AARCH64/ArmPlatformPkg/Library/PL011UartLib/PL011UartLib/OUTPUT/PL011UartLib.lib
LOAD /home/alastair/pftf-rpi4/Build/RPi4/DEBUG_GCC5/AARCH64/MdePkg/Library/BaseDebugPrintErrorLevelLib/BaseDebugPrintErrorLevelLib/OUTPUT/BaseDebugPrintErrorLevelLib.lib
LOAD /home/alastair/pftf-rpi4/Build/RPi4/DEBUG_GCC5/AARCH64/Platform/RaspberryPi/Library/DualSerialPortLib/DebugDualSerialPortLib/OUTPUT/DebugDualSerialPortLib.lib
LOAD /home/alastair/pftf-rpi4/Build/RPi4/DEBUG_GCC5/AARCH64/MdePkg/Library/BasePrintLib/BasePrintLib/OUTPUT/BasePrintLib.lib
LOAD /home/alastair/pftf-rpi4/Build/RPi4/DEBUG_GCC5/AARCH64/MdePkg/Library/BaseDebugLibSerialPort/BaseDebugLibSerialPort/OUTPUT/BaseDebugLibSerialPort.lib
LOAD /home/alastair/pftf-rpi4/Build/RPi4/DEBUG_GCC5/AARCH64/MdePkg/Library/UefiBootServicesTableLib/UefiBootServicesTableLib/OUTPUT/UefiBootServicesTableLib.lib
LOAD /home/alastair/pftf-rpi4/Build/RPi4/DEBUG_GCC5/AARCH64/MdePkg/Library/UefiMemoryAllocationLib/UefiMemoryAllocationLib/OUTPUT/UefiMemoryAllocationLib.lib
LOAD /home/alastair/pftf-rpi4/Build/RPi4/DEBUG_GCC5/AARCH64/MdePkg/Library/UefiDevicePathLib/UefiDevicePathLib/OUTPUT/UefiDevicePathLib.lib
LOAD /home/alastair/pftf-rpi4/Build/RPi4/DEBUG_GCC5/AARCH64/MdePkg/Library/UefiRuntimeServicesTableLib/UefiRuntimeServicesTableLib/OUTPUT/UefiRuntimeServicesTableLib.lib
LOAD /home/alastair/pftf-rpi4/Build/RPi4/DEBUG_GCC5/AARCH64/MdeModulePkg/Library/UefiHiiServicesLib/UefiHiiServicesLib/OUTPUT/UefiHiiServicesLib.lib
LOAD /home/alastair/pftf-rpi4/Build/RPi4/DEBUG_GCC5/AARCH64/MdePkg/Library/UefiLib/UefiLib/OUTPUT/UefiLib.lib
LOAD /home/alastair/pftf-rpi4/Build/RPi4/DEBUG_GCC5/AARCH64/MdeModulePkg/Library/UefiHiiLib/UefiHiiLib/OUTPUT/UefiHiiLib.lib
LOAD /home/alastair/pftf-rpi4/Build/RPi4/DEBUG_GCC5/AARCH64/MdePkg/Library/UefiDriverEntryPoint/UefiDriverEntryPoint/OUTPUT/UefiDriverEntryPoint.lib
LOAD /home/alastair/pftf-rpi4/Build/RPi4/DEBUG_GCC5/AARCH64/MdeModulePkg/Library/CustomizedDisplayLib/CustomizedDisplayLib/OUTPUT/CustomizedDisplayLib.lib
LOAD /home/alastair/pftf-rpi4/Build/RPi4/DEBUG_GCC5/AARCH64/MdePkg/Library/BaseStackCheckLib/BaseStackCheckLib/OUTPUT/BaseStackCheckLib.lib
LOAD /home/alastair/pftf-rpi4/Build/RPi4/DEBUG_GCC5/AARCH64/ArmPkg/Library/CompilerIntrinsicsLib/CompilerIntrinsicsLib/OUTPUT/CompilerIntrinsicsLib.lib
END GROUP
                0x0000000000000228                . = PECOFF_HEADER_SIZE

.gnu.version_d  0x0000000000000228        0x0
 .gnu.version_d
                0x0000000000000228        0x0 /home/alastair/pftf-rpi4/edk2/ArmPkg/Library/GccLto/liblto-aarch64.a

.gnu.version    0x0000000000000228        0x0
 .gnu.version   0x0000000000000228        0x0 /home/alastair/pftf-rpi4/edk2/ArmPkg/Library/GccLto/liblto-aarch64.a

.gnu.version_r  0x0000000000000228        0x0
 .gnu.version_r
                0x0000000000000228        0x0 /home/alastair/pftf-rpi4/edk2/ArmPkg/Library/GccLto/liblto-aarch64.a

.text           0x0000000000001000    0x120c8
 *(.text .text.* .stub .gnu.linkonce.t.*)
 .text.SerialPortWritable.constprop.0
                0x0000000000001000        0x8 /tmp/DisplayEngine.dll.3RKoMz.ltrans0.ltrans.o
 .text.MultU64x32.constprop.0
                0x0000000000001008        0xc /tmp/DisplayEngine.dll.3RKoMz.ltrans0.ltrans.o
 .text.WaitForKeyStroke
                0x0000000000001014       0xac /tmp/DisplayEngine.dll.3RKoMz.ltrans0.ltrans.o
 .text.GetFieldFromNum
                0x00000000000010c0       0x40 /tmp/DisplayEngine.dll.3RKoMz.ltrans0.ltrans.o
 .text.BasePrintLibFillBuffer
                0x0000000000001100       0x34 /tmp/DisplayEngine.dll.3RKoMz.ltrans0.ltrans.o
 .text.AsciiStrnLenS
                0x0000000000001134       0x3c /tmp/DisplayEngine.dll.3RKoMz.ltrans0.ltrans.o
 .text.InternalSafeStringNoStrOverlap
                0x0000000000001170       0x3c /tmp/DisplayEngine.dll.3RKoMz.ltrans0.ltrans.o
 .text.EmptyEventProcess
                0x00000000000011ac        0x4 /tmp/DisplayEngine.dll.3RKoMz.ltrans0.ltrans.o
                0x00000000000011ac                EmptyEventProcess
 .text.HiiValueToUINT64
                0x00000000000011b0       0x50 /tmp/DisplayEngine.dll.3RKoMz.ltrans0.ltrans.o
 .text.DriverClearDisplayPage
                0x0000000000001200       0x54 /tmp/DisplayEngine.dll.3RKoMz.ltrans0.ltrans.o
                0x0000000000001200                DriverClearDisplayPage
 .text.LShiftU64.constprop.0
                0x0000000000001254        0x8 /tmp/DisplayEngine.dll.3RKoMz.ltrans0.ltrans.o
 .text.DebugAssertEnabled
                0x000000000000125c        0x8 /tmp/DisplayEngine.dll.3RKoMz.ltrans0.ltrans.o
                0x000000000000125c                DebugAssertEnabled
 .text.InternalAllocatePool.constprop.0
                0x0000000000001264       0x6c /tmp/DisplayEngine.dll.3RKoMz.ltrans0.ltrans.o
                0x0000000000001264                InternalAllocatePool.constprop.0
 .text.SetUnicodeMem.constprop.0
                0x00000000000012d0       0x20 /tmp/DisplayEngine.dll.3RKoMz.ltrans0.ltrans.o
                0x00000000000012d0                SetUnicodeMem.constprop.0
 .text.GetStringWidth.part.0
                0x00000000000012f0       0x5c /tmp/DisplayEngine.dll.3RKoMz.ltrans0.ltrans.o
                0x00000000000012f0                GetStringWidth.part.0
 .text.DebugPrintLevelEnabled
                0x000000000000134c        0x8 /tmp/DisplayEngine.dll.3RKoMz.ltrans0.ltrans.o
                0x000000000000134c                DebugPrintLevelEnabled
 .text.DebugPrintEnabled
                0x0000000000001354        0x8 /tmp/DisplayEngine.dll.3RKoMz.ltrans0.ltrans.o
                0x0000000000001354                DebugPrintEnabled
 .text.DebugAssert
                0x000000000000135c       0x8c /tmp/DisplayEngine.dll.3RKoMz.ltrans0.ltrans.o
                0x000000000000135c                DebugAssert
 .text.SerialPortWrite
                0x00000000000013e8      0x120 /tmp/DisplayEngine.dll.3RKoMz.ltrans0.ltrans.o
 .text.ReadUnaligned16
                0x0000000000001508       0x5c /tmp/DisplayEngine.dll.3RKoMz.ltrans0.ltrans.o
 .text.ReadUnaligned32
                0x0000000000001564       0x50 /tmp/DisplayEngine.dll.3RKoMz.ltrans0.ltrans.o
 .text.LibGetStringWidth
                0x00000000000015b4       0x50 /tmp/DisplayEngine.dll.3RKoMz.ltrans0.ltrans.o
 .text.CompareGuid
                0x0000000000001604       0x44 /tmp/DisplayEngine.dll.3RKoMz.ltrans0.ltrans.o
 .text.CopyGuid
                0x0000000000001648       0x48 /tmp/DisplayEngine.dll.3RKoMz.ltrans0.ltrans.o
 .text.AsciiStrLen
                0x0000000000001690       0x90 /tmp/DisplayEngine.dll.3RKoMz.ltrans0.ltrans.o
 .text.AsciiStrnCmp
                0x0000000000001720       0xdc /tmp/DisplayEngine.dll.3RKoMz.ltrans0.ltrans.o
 .text.StrnLenS
                0x00000000000017fc       0x70 /tmp/DisplayEngine.dll.3RKoMz.ltrans0.ltrans.o
 .text.BasePrintLibSPrintMarker.constprop.0
                0x000000000000186c      0xd94 /tmp/DisplayEngine.dll.3RKoMz.ltrans0.ltrans.o
 .text.BasePrintLibSPrint.constprop.0
                0x0000000000002600       0xa0 /tmp/DisplayEngine.dll.3RKoMz.ltrans0.ltrans.o
 .text.AsciiSPrint.constprop.0
                0x00000000000026a0       0xac /tmp/DisplayEngine.dll.3RKoMz.ltrans0.ltrans.o
 .text.UnicodeVSPrint
                0x000000000000274c       0x74 /tmp/DisplayEngine.dll.3RKoMz.ltrans0.ltrans.o
 .text.UnicodeSPrint
                0x00000000000027c0       0xa4 /tmp/DisplayEngine.dll.3RKoMz.ltrans0.ltrans.o
 .text.PrintFormattedNumber.constprop.0
                0x0000000000002864       0xa8 /tmp/DisplayEngine.dll.3RKoMz.ltrans0.ltrans.o
 .text.InitializeListHead
                0x000000000000290c        0x8 /tmp/DisplayEngine.dll.3RKoMz.ltrans0.ltrans.o
 .text.InternalBaseLibIsListValid
                0x0000000000002914       0xac /tmp/DisplayEngine.dll.3RKoMz.ltrans0.ltrans.o
 .text.GetFirstNode
                0x00000000000029c0       0x44 /tmp/DisplayEngine.dll.3RKoMz.ltrans0.ltrans.o
 .text.IsNull   0x0000000000002a04       0x4c /tmp/DisplayEngine.dll.3RKoMz.ltrans0.ltrans.o
 .text.GetNextNode
                0x0000000000002a50       0x44 /tmp/DisplayEngine.dll.3RKoMz.ltrans0.ltrans.o
 .text.InsertHeadList
                0x0000000000002a94       0x58 /tmp/DisplayEngine.dll.3RKoMz.ltrans0.ltrans.o
 .text.SetValuesByType
                0x0000000000002aec       0x8c /tmp/DisplayEngine.dll.3RKoMz.ltrans0.ltrans.o
 .text.SetArrayData
                0x0000000000002b78       0x94 /tmp/DisplayEngine.dll.3RKoMz.ltrans0.ltrans.o
 .text.GetArrayData
                0x0000000000002c0c       0x98 /tmp/DisplayEngine.dll.3RKoMz.ltrans0.ltrans.o
 .text.DebugPrint
                0x0000000000002ca4       0xd0 /tmp/DisplayEngine.dll.3RKoMz.ltrans0.ltrans.o
                0x0000000000002ca4                DebugPrint
 .text.HiiRemovePackages
                0x0000000000002d74       0xb0 /tmp/DisplayEngine.dll.3RKoMz.ltrans0.ltrans.o
                0x0000000000002d74                HiiRemovePackages
 .text.FreePool
                0x0000000000002e24       0x7c /tmp/DisplayEngine.dll.3RKoMz.ltrans0.ltrans.o
                0x0000000000002e24                FreePool
 .text.StrCatS  0x0000000000002ea0      0x29c /tmp/DisplayEngine.dll.3RKoMz.ltrans0.ltrans.o
 .text.StrnCpyS
                0x000000000000313c      0x288 /tmp/DisplayEngine.dll.3RKoMz.ltrans0.ltrans.o
 .text.StrCpyS  0x00000000000033c4      0x22c /tmp/DisplayEngine.dll.3RKoMz.ltrans0.ltrans.o
 .text.NewStrCat
                0x00000000000035f0       0x28 /tmp/DisplayEngine.dll.3RKoMz.ltrans0.ltrans.o
 .text.BaseDebugLibSerialPortConstructor
                0x0000000000003618        0x8 /tmp/DisplayEngine.dll.3RKoMz.ltrans0.ltrans.o
                0x0000000000003618                BaseDebugLibSerialPortConstructor
 .text.CopyMem  0x0000000000003620       0xa4 /tmp/DisplayEngine.dll.3RKoMz.ltrans0.ltrans.o
                0x0000000000003620                CopyMem
 .text.InternalAllocateCopyPool.constprop.0
                0x00000000000036c4       0x8c /tmp/DisplayEngine.dll.3RKoMz.ltrans0.ltrans.o
                0x00000000000036c4                InternalAllocateCopyPool.constprop.0
 .text.CompareMem
                0x0000000000003750       0xd0 /tmp/DisplayEngine.dll.3RKoMz.ltrans0.ltrans.o
                0x0000000000003750                CompareMem
 .text.ZeroMem  0x0000000000003820       0x70 /tmp/DisplayEngine.dll.3RKoMz.ltrans0.ltrans.o
                0x0000000000003820                ZeroMem
 .text.PrintMismatchMenuInfo
                0x0000000000003890      0x700 /tmp/DisplayEngine.dll.3RKoMz.ltrans0.ltrans.o
 .text.AllocateZeroPool
                0x0000000000003f90       0x34 /tmp/DisplayEngine.dll.3RKoMz.ltrans0.ltrans.o
                0x0000000000003f90                AllocateZeroPool
 .text.GetBestLanguage.constprop.0
                0x0000000000003fc4      0x1c0 /tmp/DisplayEngine.dll.3RKoMz.ltrans0.ltrans.o
 .text.ProcessHelpString.constprop.0
                0x0000000000004184      0x164 /tmp/DisplayEngine.dll.3RKoMz.ltrans0.ltrans.o
 .text.ProcessUserOpcode
                0x00000000000042e8      0x15c /tmp/DisplayEngine.dll.3RKoMz.ltrans0.ltrans.o
 .text.HiiGetSupportedLanguages
                0x0000000000004444       0xe8 /tmp/DisplayEngine.dll.3RKoMz.ltrans0.ltrans.o
 .text.HiiGetStringEx.constprop.0
                0x000000000000452c      0x254 /tmp/DisplayEngine.dll.3RKoMz.ltrans0.ltrans.o
                0x000000000000452c                HiiGetStringEx.constprop.0
 .text.HiiSetString.constprop.0
                0x0000000000004780      0x160 /tmp/DisplayEngine.dll.3RKoMz.ltrans0.ltrans.o
 .text.HiiAddPackages
                0x00000000000048e0      0x1c8 /tmp/DisplayEngine.dll.3RKoMz.ltrans0.ltrans.o
                0x00000000000048e0                HiiAddPackages
 .text.ParseMessageString.part.0
                0x0000000000004aa8      0x114 /tmp/DisplayEngine.dll.3RKoMz.ltrans0.ltrans.o
 .text.StrLen   0x0000000000004bbc       0xa4 /tmp/DisplayEngine.dll.3RKoMz.ltrans0.ltrans.o
                0x0000000000004bbc                StrLen
 .text.PrintAt  0x0000000000004c60      0x2f4 /tmp/DisplayEngine.dll.3RKoMz.ltrans0.ltrans.o
 .text.PrintCharAt
                0x0000000000004f54       0x1c /tmp/DisplayEngine.dll.3RKoMz.ltrans0.ltrans.o
                0x0000000000004f54                PrintCharAt
 .text.PrintStringAtWithWidth
                0x0000000000004f70       0x20 /tmp/DisplayEngine.dll.3RKoMz.ltrans0.ltrans.o
                0x0000000000004f70                PrintStringAtWithWidth
 .text.PrintStringAt
                0x0000000000004f90       0x1c /tmp/DisplayEngine.dll.3RKoMz.ltrans0.ltrans.o
                0x0000000000004f90                PrintStringAt
 .text.ClearLines
                0x0000000000004fac       0xdc /tmp/DisplayEngine.dll.3RKoMz.ltrans0.ltrans.o
 .text.CreateMultiStringPopUp.constprop.0
                0x0000000000005088      0x314 /tmp/DisplayEngine.dll.3RKoMz.ltrans0.ltrans.o
 .text.CreateDialog
                0x000000000000539c      0x45c /tmp/DisplayEngine.dll.3RKoMz.ltrans0.ltrans.o
                0x000000000000539c                CreateDialog
 .text.ConfirmDataChange
                0x00000000000057f8       0xec /tmp/DisplayEngine.dll.3RKoMz.ltrans0.ltrans.o
                0x00000000000057f8                ConfirmDataChange
 .text.RefreshTimeOutProcess
                0x00000000000058e4       0xcc /tmp/DisplayEngine.dll.3RKoMz.ltrans0.ltrans.o
                0x00000000000058e4                RefreshTimeOutProcess
 .text.UpdateStatusBar
                0x00000000000059b0      0x164 /tmp/DisplayEngine.dll.3RKoMz.ltrans0.ltrans.o
 .text.GetNumericInput
                0x0000000000005b14      0xe60 /tmp/DisplayEngine.dll.3RKoMz.ltrans0.ltrans.o
 .text.ReadString
                0x0000000000006974      0x824 /tmp/DisplayEngine.dll.3RKoMz.ltrans0.ltrans.o
 .text.PrintHotKeyHelpString
                0x0000000000007198      0x24c /tmp/DisplayEngine.dll.3RKoMz.ltrans0.ltrans.o
 .text.RefreshKeyHelp
                0x00000000000073e4      0x660 /tmp/DisplayEngine.dll.3RKoMz.ltrans0.ltrans.o
 .text.StrSize  0x0000000000007a44       0x1c /tmp/DisplayEngine.dll.3RKoMz.ltrans0.ltrans.o
                0x0000000000007a44                StrSize
 .text.LibGetToken
                0x0000000000007a60       0x74 /tmp/DisplayEngine.dll.3RKoMz.ltrans0.ltrans.o
                0x0000000000007a60                LibGetToken
 .text.StrCmp   0x0000000000007ad4       0x88 /tmp/DisplayEngine.dll.3RKoMz.ltrans0.ltrans.o
 .text.CompareHiiValue.constprop.0
                0x0000000000007b5c      0x244 /tmp/DisplayEngine.dll.3RKoMz.ltrans0.ltrans.o
 .text.ValueToOption
                0x0000000000007da0      0x134 /tmp/DisplayEngine.dll.3RKoMz.ltrans0.ltrans.o
 .text.IsListEmpty
                0x0000000000007ed4       0x4c /tmp/DisplayEngine.dll.3RKoMz.ltrans0.ltrans.o
                0x0000000000007ed4                IsListEmpty
 .text.RemoveEntryList
                0x0000000000007f20       0x50 /tmp/DisplayEngine.dll.3RKoMz.ltrans0.ltrans.o
 .text.InsertTailList
                0x0000000000007f70       0x5c /tmp/DisplayEngine.dll.3RKoMz.ltrans0.ltrans.o
                0x0000000000007f70                InsertTailList
 .text.SwapListEntries
                0x0000000000007fcc       0xb0 /tmp/DisplayEngine.dll.3RKoMz.ltrans0.ltrans.o
 .text.AddOneSelectableOption
                0x000000000000807c       0xf0 /tmp/DisplayEngine.dll.3RKoMz.ltrans0.ltrans.o
 .text.CreatePopup
                0x000000000000816c      0xbfc /tmp/DisplayEngine.dll.3RKoMz.ltrans0.ltrans.o
                0x000000000000816c                CreatePopup
 .text.GetSelectionInputPopUp
                0x0000000000008d68      0xcdc /tmp/DisplayEngine.dll.3RKoMz.ltrans0.ltrans.o
 .text.ProcessOptions
                0x0000000000009a44     0x1170 /tmp/DisplayEngine.dll.3RKoMz.ltrans0.ltrans.o
                0x0000000000009a44                ProcessOptions
 .text.FormDisplay
                0x000000000000abb4     0x2ff0 /tmp/DisplayEngine.dll.3RKoMz.ltrans0.ltrans.o
                0x000000000000abb4                FormDisplay
 .text.SetDisplayAttribute
                0x000000000000dba4       0x5c /tmp/DisplayEngine.dll.3RKoMz.ltrans1.ltrans.o
 .text.DisplayMenuString
                0x000000000000dc00       0x94 /tmp/DisplayEngine.dll.3RKoMz.ltrans1.ltrans.o
 .text.ProcessLibraryDestructorList
                0x000000000000dc94       0xfc /tmp/DisplayEngine.dll.3RKoMz.ltrans1.ltrans.o
 .text._DriverUnloadHandler
                0x000000000000dd90      0x2c0 /tmp/DisplayEngine.dll.3RKoMz.ltrans1.ltrans.o
 .text.GetIndexInfoForOpcode
                0x000000000000e050       0xd4 /tmp/DisplayEngine.dll.3RKoMz.ltrans1.ltrans.o
                0x000000000000e050                GetIndexInfoForOpcode
 .text.UpdateHighlightMenuInfo
                0x000000000000e124      0x21c /tmp/DisplayEngine.dll.3RKoMz.ltrans1.ltrans.o
                0x000000000000e124                UpdateHighlightMenuInfo
 .text.FindHighLightMenuOption
                0x000000000000e340      0x1fc /tmp/DisplayEngine.dll.3RKoMz.ltrans1.ltrans.o
                0x000000000000e340                FindHighLightMenuOption
 .text.AdjustDateAndTimePosition
                0x000000000000e53c      0x130 /tmp/DisplayEngine.dll.3RKoMz.ltrans1.ltrans.o
                0x000000000000e53c                AdjustDateAndTimePosition
 .text.GetStringWidth
                0x000000000000e66c       0x5c /tmp/DisplayEngine.dll.3RKoMz.ltrans1.ltrans.o
                0x000000000000e66c                GetStringWidth
 .text.GetLineByWidth
                0x000000000000e6c8      0x234 /tmp/DisplayEngine.dll.3RKoMz.ltrans1.ltrans.o
                0x000000000000e6c8                GetLineByWidth
 .text.UpdateSkipInfoForMenu
                0x000000000000e8fc       0xe8 /tmp/DisplayEngine.dll.3RKoMz.ltrans1.ltrans.o
 .text.GetToken
                0x000000000000e9e4       0x74 /tmp/DisplayEngine.dll.3RKoMz.ltrans1.ltrans.o
                0x000000000000e9e4                GetToken
 .text.BrowserStatusProcess
                0x000000000000ea58      0x5c8 /tmp/DisplayEngine.dll.3RKoMz.ltrans1.ltrans.o
                0x000000000000ea58                BrowserStatusProcess
 .text.IsSelectable
                0x000000000000f020      0x114 /tmp/DisplayEngine.dll.3RKoMz.ltrans1.ltrans.o
                0x000000000000f020                IsSelectable
 .text.UpdateOptionSkipLines
                0x000000000000f134       0xb8 /tmp/DisplayEngine.dll.3RKoMz.ltrans1.ltrans.o
                0x000000000000f134                UpdateOptionSkipLines
 .text.FindTopOfScreenMenuOption
                0x000000000000f1ec      0x1e8 /tmp/DisplayEngine.dll.3RKoMz.ltrans1.ltrans.o
                0x000000000000f1ec                FindTopOfScreenMenuOption
 .text.FindTopOfScreenMenu
                0x000000000000f3d4       0xf0 /tmp/DisplayEngine.dll.3RKoMz.ltrans1.ltrans.o
                0x000000000000f3d4                FindTopOfScreenMenu
 .text.MoveToNextStatement
                0x000000000000f4c4      0x174 /tmp/DisplayEngine.dll.3RKoMz.ltrans1.ltrans.o
                0x000000000000f4c4                MoveToNextStatement
 .text.GetWidth
                0x000000000000f638      0x13c /tmp/DisplayEngine.dll.3RKoMz.ltrans1.ltrans.o
 .text.DisplayOneMenu
                0x000000000000f774      0x66c /tmp/DisplayEngine.dll.3RKoMz.ltrans1.ltrans.o
                0x000000000000f774                DisplayOneMenu
 .text.UiAddMenuOption
                0x000000000000fde0      0x2d8 /tmp/DisplayEngine.dll.3RKoMz.ltrans1.ltrans.o
                0x000000000000fde0                UiAddMenuOption
 .text.memcpy   0x00000000000100b8       0x20 /tmp/DisplayEngine.dll.3RKoMz.ltrans1.ltrans.o
                0x00000000000100b8                memcpy
 .text.__stack_chk_fail
                0x00000000000100d8       0x50 /tmp/DisplayEngine.dll.3RKoMz.ltrans1.ltrans.o
                0x00000000000100d8                __stack_chk_fail
 .text._ModuleEntryPoint
                0x0000000000010128      0xbac /tmp/DisplayEngine.dll.3RKoMz.ltrans1.ltrans.o
                0x0000000000010128                _ModuleEntryPoint
 *fill*         0x0000000000010cd4        0xc 
 .text          0x0000000000010ce0      0x200 /home/alastair/pftf-rpi4/Build/RPi4/DEBUG_GCC5/AARCH64/MdePkg/Library/BaseMemoryLibOptDxe/BaseMemoryLibOptDxe/OUTPUT/BaseMemoryLibOptDxe.lib(SetMem.obj)
                0x0000000000010ce0                InternalMemSetMem16
                0x0000000000010cec                InternalMemSetMem32
                0x0000000000010cf8                InternalMemSetMem64
                0x0000000000010d04                InternalMemZeroMem
                0x0000000000010d0c                InternalMemSetMem
 .text          0x0000000000010ee0      0x218 /home/alastair/pftf-rpi4/Build/RPi4/DEBUG_GCC5/AARCH64/MdePkg/Library/BaseMemoryLibOptDxe/BaseMemoryLibOptDxe/OUTPUT/BaseMemoryLibOptDxe.lib(CopyMem.obj)
                0x000000000001104c                InternalMemCopyMem
 *fill*         0x00000000000110f8        0x8 
 .text          0x0000000000011100       0xe0 /home/alastair/pftf-rpi4/Build/RPi4/DEBUG_GCC5/AARCH64/MdePkg/Library/BaseMemoryLibOptDxe/BaseMemoryLibOptDxe/OUTPUT/BaseMemoryLibOptDxe.lib(CompareMem.obj)
                0x0000000000011100                InternalMemCompareMem
 .text          0x00000000000111e0       0x20 /home/alastair/pftf-rpi4/Build/RPi4/DEBUG_GCC5/AARCH64/MdePkg/Library/BaseMemoryLibOptDxe/BaseMemoryLibOptDxe/OUTPUT/BaseMemoryLibOptDxe.lib(CompareGuid.obj)
                0x00000000000111e0                InternalMemCompareGuid
 *(.rodata .rodata.* .gnu.linkonce.r.*)
 .rodata.HiiValueToUINT64
                0x0000000000011200        0x7 /tmp/DisplayEngine.dll.3RKoMz.ltrans0.ltrans.o
 .rodata.DebugAssert.str1.1
                0x0000000000011207       0x26 /tmp/DisplayEngine.dll.3RKoMz.ltrans0.ltrans.o
 .rodata.ReadUnaligned16.str1.1
                0x000000000001122d       0x45 /tmp/DisplayEngine.dll.3RKoMz.ltrans0.ltrans.o
                                         0x5c (size before relaxing)
 .rodata.LibGetStringWidth.str1.1
                0x0000000000011272       0x67 /tmp/DisplayEngine.dll.3RKoMz.ltrans0.ltrans.o
                                         0x7e (size before relaxing)
 .rodata.CompareGuid.str1.1
                0x00000000000112d9       0x68 /tmp/DisplayEngine.dll.3RKoMz.ltrans0.ltrans.o
 .rodata.CopyGuid.str1.1
                0x0000000000011341       0x1b /tmp/DisplayEngine.dll.3RKoMz.ltrans0.ltrans.o
 .rodata.AsciiStrLen.str1.1
                0x000000000001135c       0x76 /tmp/DisplayEngine.dll.3RKoMz.ltrans0.ltrans.o
 .rodata.AsciiStrnCmp.str1.1
                0x00000000000113d2       0x70 /tmp/DisplayEngine.dll.3RKoMz.ltrans0.ltrans.o
 .rodata.StrnLenS.str1.1
                0x0000000000011442       0x65 /tmp/DisplayEngine.dll.3RKoMz.ltrans0.ltrans.o
 .rodata.BasePrintLibSPrintMarker.constprop.0.str1.1
                0x00000000000114a7      0x209 /tmp/DisplayEngine.dll.3RKoMz.ltrans0.ltrans.o
 .rodata.BasePrintLibSPrintMarker.constprop.0
                0x00000000000116b0       0x5e /tmp/DisplayEngine.dll.3RKoMz.ltrans0.ltrans.o
 .rodata.UnicodeVSPrint.str1.1
                0x000000000001170e       0x6d /tmp/DisplayEngine.dll.3RKoMz.ltrans0.ltrans.o
 *fill*         0x000000000001177b        0x1 
 .rodata.PrintFormattedNumber.constprop.0.str2.2
                0x000000000001177c       0x12 /tmp/DisplayEngine.dll.3RKoMz.ltrans0.ltrans.o
                                         0x1a (size before relaxing)
 .rodata.InternalBaseLibIsListValid.str1.1
                0x000000000001178e       0x98 /tmp/DisplayEngine.dll.3RKoMz.ltrans0.ltrans.o
 .rodata.GetFirstNode.str1.1
                0x0000000000011826       0x22 /tmp/DisplayEngine.dll.3RKoMz.ltrans0.ltrans.o
 .rodata.IsNodeInList.str1.1
                0x0000000000011848       0x44 /tmp/DisplayEngine.dll.3RKoMz.ltrans0.ltrans.o
 .rodata.InsertHeadList.str1.1
                0x000000000001188c       0x26 /tmp/DisplayEngine.dll.3RKoMz.ltrans0.ltrans.o
 .rodata.SetValuesByType.str1.1
                0x00000000000118b2       0x67 /tmp/DisplayEngine.dll.3RKoMz.ltrans0.ltrans.o
 *fill*         0x0000000000011919        0x3 
 .rodata.SetValuesByType
                0x000000000001191c        0x5 /tmp/DisplayEngine.dll.3RKoMz.ltrans0.ltrans.o
 .rodata.SetArrayData.str1.1
                0x0000000000011921       0x57 /tmp/DisplayEngine.dll.3RKoMz.ltrans0.ltrans.o
                                         0x6d (size before relaxing)
 .rodata.SetArrayData
                0x0000000000011978        0x4 /tmp/DisplayEngine.dll.3RKoMz.ltrans0.ltrans.o
 .rodata.GetArrayData
                0x000000000001197c        0x4 /tmp/DisplayEngine.dll.3RKoMz.ltrans0.ltrans.o
 .rodata.HiiRemovePackages.str1.1
                0x0000000000011980       0x7c /tmp/DisplayEngine.dll.3RKoMz.ltrans0.ltrans.o
                                         0x96 (size before relaxing)
 .rodata.FreePool.str1.1
                0x00000000000119fc       0x5b /tmp/DisplayEngine.dll.3RKoMz.ltrans0.ltrans.o
 .rodata.StrCatS.str1.1
                0x0000000000011a57      0x154 /tmp/DisplayEngine.dll.3RKoMz.ltrans0.ltrans.o
 .rodata.StrnCpyS.str1.1
                0x0000000000011bab       0x2c /tmp/DisplayEngine.dll.3RKoMz.ltrans0.ltrans.o
 .rodata.CopyMem.str1.1
                0x0000000000011bd7       0xd3 /tmp/DisplayEngine.dll.3RKoMz.ltrans0.ltrans.o
 .rodata.InternalAllocateCopyPool.constprop.0.str1.1
                0x0000000000011caa       0x3f /tmp/DisplayEngine.dll.3RKoMz.ltrans0.ltrans.o
 .rodata.CompareMem.str1.1
                0x0000000000011ce9       0x94 /tmp/DisplayEngine.dll.3RKoMz.ltrans0.ltrans.o
 .rodata.ZeroMem.str1.1
                0x0000000000011d7d       0x88 /tmp/DisplayEngine.dll.3RKoMz.ltrans0.ltrans.o
 .rodata.PrintMismatchMenuInfo.str1.1
                0x0000000000011e05      0x2e4 /tmp/DisplayEngine.dll.3RKoMz.ltrans0.ltrans.o
 *fill*         0x00000000000120e9        0x3 
 .rodata.PrintMismatchMenuInfo
                0x00000000000120ec        0x8 /tmp/DisplayEngine.dll.3RKoMz.ltrans0.ltrans.o
 .rodata.GetBestLanguage.constprop.0.str1.1
                0x00000000000120f4       0x62 /tmp/DisplayEngine.dll.3RKoMz.ltrans0.ltrans.o
 .rodata.ProcessHelpString.constprop.0.str1.1
                0x0000000000012156       0x21 /tmp/DisplayEngine.dll.3RKoMz.ltrans0.ltrans.o
 .rodata.ProcessUserOpcode.str1.1
                0x0000000000012177       0x1c /tmp/DisplayEngine.dll.3RKoMz.ltrans0.ltrans.o
 .rodata.HiiGetSupportedLanguages.str1.1
                0x0000000000012193       0x4c /tmp/DisplayEngine.dll.3RKoMz.ltrans0.ltrans.o
 .rodata.HiiGetStringEx.constprop.0.str1.1
                0x00000000000121df       0x6f /tmp/DisplayEngine.dll.3RKoMz.ltrans0.ltrans.o
                                         0x70 (size before relaxing)
 .rodata.HiiGetStringEx.constprop.0.str2.2
                0x000000000001224e       0x1a /tmp/DisplayEngine.dll.3RKoMz.ltrans0.ltrans.o
 .rodata.HiiSetString.constprop.0.str1.1
                0x0000000000012268        0x7 /tmp/DisplayEngine.dll.3RKoMz.ltrans0.ltrans.o
 .rodata.StrLen.str1.1
                0x000000000001226f       0x3a /tmp/DisplayEngine.dll.3RKoMz.ltrans0.ltrans.o
 .rodata.PrintAt.str1.1
                0x00000000000122a9        0xd /tmp/DisplayEngine.dll.3RKoMz.ltrans0.ltrans.o
                                         0x14 (size before relaxing)
 .rodata.PrintCharAt.str2.2
                0x00000000000122b6        0x6 /tmp/DisplayEngine.dll.3RKoMz.ltrans0.ltrans.o
 .rodata.PrintStringAtWithWidth.str2.2
                0x00000000000122bc        0x6 /tmp/DisplayEngine.dll.3RKoMz.ltrans0.ltrans.o
 .rodata.ClearLines.str1.1
                0x00000000000122bc       0x5f /tmp/DisplayEngine.dll.3RKoMz.ltrans0.ltrans.o
 *fill*         0x000000000001231b        0x1 
 .rodata.RefreshTimeOutProcess.str2.2
                0x000000000001231c        0x6 /tmp/DisplayEngine.dll.3RKoMz.ltrans0.ltrans.o
 .rodata.UpdateStatusBar.str2.2
                0x0000000000012322        0x6 /tmp/DisplayEngine.dll.3RKoMz.ltrans0.ltrans.o
 .rodata.GetNumericInput.str1.1
                0x0000000000012328       0xd5 /tmp/DisplayEngine.dll.3RKoMz.ltrans0.ltrans.o
 *fill*         0x00000000000123fd        0x1 
 .rodata.GetNumericInput.str2.2
                0x00000000000123fe       0x14 /tmp/DisplayEngine.dll.3RKoMz.ltrans0.ltrans.o
                                         0x18 (size before relaxing)
 *fill*         0x0000000000012412        0x2 
 .rodata.GetNumericInput
                0x0000000000012414       0x16 /tmp/DisplayEngine.dll.3RKoMz.ltrans0.ltrans.o
 .rodata.ReadString.str1.1
                0x000000000001242a       0x1a /tmp/DisplayEngine.dll.3RKoMz.ltrans0.ltrans.o
 .rodata.RefreshKeyHelp.str1.1
                0x0000000000012444       0x19 /tmp/DisplayEngine.dll.3RKoMz.ltrans0.ltrans.o
 *fill*         0x000000000001245d        0x1 
 .rodata.RefreshKeyHelp.str2.2
                0x000000000001245e       0x16 /tmp/DisplayEngine.dll.3RKoMz.ltrans0.ltrans.o
                                         0x24 (size before relaxing)
 .rodata.RefreshKeyHelp
                0x0000000000012474       0x44 /tmp/DisplayEngine.dll.3RKoMz.ltrans0.ltrans.o
 .rodata.StrCmp.str1.1
                0x00000000000124b8       0x37 /tmp/DisplayEngine.dll.3RKoMz.ltrans0.ltrans.o
 *fill*         0x00000000000124ef        0x1 
 .rodata.CompareHiiValue.constprop.0
                0x00000000000124f0       0x10 /tmp/DisplayEngine.dll.3RKoMz.ltrans0.ltrans.o
 .rodata.RemoveEntryList.str1.1
                0x0000000000012500       0x15 /tmp/DisplayEngine.dll.3RKoMz.ltrans0.ltrans.o
 *fill*         0x0000000000012515        0x3 
 .rodata.AddOneSelectableOption
                0x0000000000012518        0x4 /tmp/DisplayEngine.dll.3RKoMz.ltrans0.ltrans.o
 .rodata.CreatePopup.str2.2
                0x000000000001251c        0xe /tmp/DisplayEngine.dll.3RKoMz.ltrans0.ltrans.o
                                         0x16 (size before relaxing)
 .rodata.CreatePopup.str1.1
                0x000000000001252a       0x4e /tmp/DisplayEngine.dll.3RKoMz.ltrans0.ltrans.o
 .rodata.GetSelectionInputPopUp.str1.1
                0x0000000000012578       0x76 /tmp/DisplayEngine.dll.3RKoMz.ltrans0.ltrans.o
                                         0x90 (size before relaxing)
 *fill*         0x00000000000125ee        0x2 
 .rodata.GetSelectionInputPopUp
                0x00000000000125f0        0x5 /tmp/DisplayEngine.dll.3RKoMz.ltrans0.ltrans.o
 .rodata.ProcessOptions.str1.1
                0x00000000000125f5       0x18 /tmp/DisplayEngine.dll.3RKoMz.ltrans0.ltrans.o
                                         0x33 (size before relaxing)
 *fill*         0x000000000001260d        0x1 
 .rodata.ProcessOptions.str2.2
                0x000000000001260e        0xa /tmp/DisplayEngine.dll.3RKoMz.ltrans0.ltrans.o
                                         0x10 (size before relaxing)
 .rodata.ProcessOptions
                0x0000000000012618       0x24 /tmp/DisplayEngine.dll.3RKoMz.ltrans0.ltrans.o
 .rodata.FormDisplay.str1.1
                0x000000000001263c      0x1f8 /tmp/DisplayEngine.dll.3RKoMz.ltrans0.ltrans.o
 .rodata.FormDisplay.str2.2
                0x0000000000012834        0xa /tmp/DisplayEngine.dll.3RKoMz.ltrans0.ltrans.o
                                          0x2 (size before relaxing)
 .rodata.FormDisplay
                0x0000000000012834       0x26 /tmp/DisplayEngine.dll.3RKoMz.ltrans0.ltrans.o
 .rodata.CSWTCH.185
                0x000000000001285a        0x8 /tmp/DisplayEngine.dll.3RKoMz.ltrans0.ltrans.o
 .rodata.__FUNCTION__.1941
                0x0000000000012862        0x8 /tmp/DisplayEngine.dll.3RKoMz.ltrans0.ltrans.o
 .rodata.__FUNCTION__.1952
                0x000000000001286a        0x9 /tmp/DisplayEngine.dll.3RKoMz.ltrans0.ltrans.o
 .rodata.__FUNCTION__.1964
                0x0000000000012873        0x8 /tmp/DisplayEngine.dll.3RKoMz.ltrans0.ltrans.o
 .rodata._gPcd_FixedAtBuild_PcdFrontPageFormSetGuid
                0x000000000001287b       0x10 /tmp/DisplayEngine.dll.3RKoMz.ltrans0.ltrans.o
 *fill*         0x000000000001288b        0x1 
 .rodata.gScanCodeToOperation
                0x000000000001288c       0x38 /tmp/DisplayEngine.dll.3RKoMz.ltrans0.ltrans.o
 .rodata.gScreenOperationToControlFlag
                0x00000000000128c4       0x50 /tmp/DisplayEngine.dll.3RKoMz.ltrans0.ltrans.o
 .rodata.mEndOfPakageList
                0x0000000000012914        0x4 /tmp/DisplayEngine.dll.3RKoMz.ltrans0.ltrans.o
 .rodata.mErrorString
                0x0000000000012918      0x2b5 /tmp/DisplayEngine.dll.3RKoMz.ltrans0.ltrans.o
 .rodata.mHexStr
                0x0000000000012bcd       0x10 /tmp/DisplayEngine.dll.3RKoMz.ltrans0.ltrans.o
 .rodata.mWarningString
                0x0000000000012bdd       0x96 /tmp/DisplayEngine.dll.3RKoMz.ltrans0.ltrans.o
 .rodata.DisplayMenuString.str2.2
                0x0000000000012c73        0x2 /tmp/DisplayEngine.dll.3RKoMz.ltrans1.ltrans.o
 .rodata.GetIndexInfoForOpcode.str1.1
                0x0000000000012c73       0x69 /tmp/DisplayEngine.dll.3RKoMz.ltrans1.ltrans.o
 .rodata.UpdateHighlightMenuInfo.str1.1
                0x0000000000012c73       0x5a /tmp/DisplayEngine.dll.3RKoMz.ltrans1.ltrans.o
 .rodata.FindHighLightMenuOption.str1.1
                0x0000000000012ccd       0x17 /tmp/DisplayEngine.dll.3RKoMz.ltrans1.ltrans.o
 .rodata.GetStringWidth.str1.1
                0x0000000000012ce4       0x17 /tmp/DisplayEngine.dll.3RKoMz.ltrans1.ltrans.o
 .rodata.BrowserStatusProcess.str1.1
                0x0000000000012ce4       0x52 /tmp/DisplayEngine.dll.3RKoMz.ltrans1.ltrans.o
                                         0x87 (size before relaxing)
 *fill*         0x0000000000012d36        0x2 
 .rodata.BrowserStatusProcess
                0x0000000000012d38        0xb /tmp/DisplayEngine.dll.3RKoMz.ltrans1.ltrans.o
 .rodata.IsSelectable.str1.1
                0x0000000000012d43       0x1d /tmp/DisplayEngine.dll.3RKoMz.ltrans1.ltrans.o
 .rodata.UiAddMenuOption.str1.1
                0x0000000000012d60        0xe /tmp/DisplayEngine.dll.3RKoMz.ltrans1.ltrans.o
                                         0x19 (size before relaxing)
 .rodata.__stack_chk_fail.str1.1
                0x0000000000012d6e       0x2e /tmp/DisplayEngine.dll.3RKoMz.ltrans1.ltrans.o
 .rodata._ModuleEntryPoint.str1.1
                0x0000000000012d9c      0x303 /tmp/DisplayEngine.dll.3RKoMz.ltrans1.ltrans.o
                                        0x3c9 (size before relaxing)
 *fill*         0x000000000001309f        0x1 
 .rodata._ModuleEntryPoint.str2.2
                0x00000000000130a0        0x4 /tmp/DisplayEngine.dll.3RKoMz.ltrans1.ltrans.o
 *(.got .got.*)
 *fill*         0x00000000000130a4        0x4 
 .got           0x00000000000130a8        0x8 /home/alastair/pftf-rpi4/edk2/ArmPkg/Library/GccLto/liblto-aarch64.a
                0x00000000000130a8                _GLOBAL_OFFSET_TABLE_
 .got.plt       0x00000000000130b0       0x18 /home/alastair/pftf-rpi4/edk2/ArmPkg/Library/GccLto/liblto-aarch64.a
 *:AutoGen.obj(.data.g*Guid)

.plt            0x00000000000130c8        0x0
 .plt           0x00000000000130c8        0x0 /home/alastair/pftf-rpi4/edk2/ArmPkg/Library/GccLto/liblto-aarch64.a

.data           0x0000000000014000     0x21c8
 *(.data .data.* .gnu.linkonce.d.*)
 .data.rel.ro   0x0000000000014000        0x0 /home/alastair/pftf-rpi4/edk2/ArmPkg/Library/GccLto/liblto-aarch64.a
 .data.gEfiGlobalVariableGuid
                0x0000000000014000       0x10 /tmp/DisplayEngine.dll.3RKoMz.ltrans0.ltrans.o
 .data.gEfiIfrTianoGuid
                0x0000000000014010       0x10 /tmp/DisplayEngine.dll.3RKoMz.ltrans0.ltrans.o
 .data.gLibIsFirstForm
                0x0000000000014020        0x1 /tmp/DisplayEngine.dll.3RKoMz.ltrans0.ltrans.o
 .data.mIsFirstForm
                0x0000000000014021        0x1 /tmp/DisplayEngine.dll.3RKoMz.ltrans0.ltrans.o
 .data.CustomizedDisplayLibStrings
                0x0000000000014022      0x6ea /tmp/DisplayEngine.dll.3RKoMz.ltrans1.ltrans.o
 .data.DisplayEngineStrings
                0x000000000001470c     0x15c6 /tmp/DisplayEngine.dll.3RKoMz.ltrans1.ltrans.o
 *fill*         0x0000000000015cd2        0x6 
 .data.__stack_chk_guard
                0x0000000000015cd8        0x8 /tmp/DisplayEngine.dll.3RKoMz.ltrans1.ltrans.o
                0x0000000000015cd8                __stack_chk_guard
 .data.gCustomizedDisplayLibGuid
                0x0000000000015ce0       0x10 /tmp/DisplayEngine.dll.3RKoMz.ltrans1.ltrans.o
 .data.gDisplayEngineGuid
                0x0000000000015cf0       0x10 /tmp/DisplayEngine.dll.3RKoMz.ltrans1.ltrans.o
 .data.gEdkiiFormBrowserEx2ProtocolGuid
                0x0000000000015d00       0x10 /tmp/DisplayEngine.dll.3RKoMz.ltrans1.ltrans.o
 .data.gEdkiiFormDisplayEngineProtocolGuid
                0x0000000000015d10       0x10 /tmp/DisplayEngine.dll.3RKoMz.ltrans1.ltrans.o
 .data.gEfiHiiConfigRoutingProtocolGuid
                0x0000000000015d20       0x10 /tmp/DisplayEngine.dll.3RKoMz.ltrans1.ltrans.o
 .data.gEfiHiiDatabaseProtocolGuid
                0x0000000000015d30       0x10 /tmp/DisplayEngine.dll.3RKoMz.ltrans1.ltrans.o
 .data.gEfiHiiFontProtocolGuid
                0x0000000000015d40       0x10 /tmp/DisplayEngine.dll.3RKoMz.ltrans1.ltrans.o
 .data.gEfiHiiImageProtocolGuid
                0x0000000000015d50       0x10 /tmp/DisplayEngine.dll.3RKoMz.ltrans1.ltrans.o
 .data.gEfiHiiPopupProtocolGuid
                0x0000000000015d60       0x10 /tmp/DisplayEngine.dll.3RKoMz.ltrans1.ltrans.o
 .data.gEfiHiiStringProtocolGuid
                0x0000000000015d70       0x10 /tmp/DisplayEngine.dll.3RKoMz.ltrans1.ltrans.o
 .data.gEfiLoadedImageProtocolGuid
                0x0000000000015d80       0x10 /tmp/DisplayEngine.dll.3RKoMz.ltrans1.ltrans.o
 .data.mPrivateData
                0x0000000000015d90       0x38 /tmp/DisplayEngine.dll.3RKoMz.ltrans1.ltrans.o
 *(.bss .bss.*)
 .bss.UsePl011Uart
                0x0000000000015dc8        0x1 /tmp/DisplayEngine.dll.3RKoMz.ltrans0.ltrans.o
 .bss.UsePl011UartSet
                0x0000000000015dc9        0x1 /tmp/DisplayEngine.dll.3RKoMz.ltrans0.ltrans.o
 *fill*         0x0000000000015dca        0x6 
 .bss.gAdjustNumber
                0x0000000000015dd0        0x8 /tmp/DisplayEngine.dll.3RKoMz.ltrans0.ltrans.o
                0x0000000000015dd0                gAdjustNumber
 .bss.gAreYouSure
                0x0000000000015dd8        0x8 /tmp/DisplayEngine.dll.3RKoMz.ltrans0.ltrans.o
                0x0000000000015dd8                gAreYouSure
 .bss.gBS       0x0000000000015de0        0x8 /tmp/DisplayEngine.dll.3RKoMz.ltrans0.ltrans.o
                0x0000000000015de0                gBS
 .bss.gBannerData
                0x0000000000015de8        0x8 /tmp/DisplayEngine.dll.3RKoMz.ltrans0.ltrans.o
 .bss.gCancelOption
                0x0000000000015df0        0x8 /tmp/DisplayEngine.dll.3RKoMz.ltrans0.ltrans.o
                0x0000000000015df0                gCancelOption
 .bss.gClassOfVfr
                0x0000000000015df8        0x2 /tmp/DisplayEngine.dll.3RKoMz.ltrans0.ltrans.o
 *fill*         0x0000000000015dfa        0x6 
 .bss.gConfirmDefaultMsg
                0x0000000000015e00        0x8 /tmp/DisplayEngine.dll.3RKoMz.ltrans0.ltrans.o
                0x0000000000015e00                gConfirmDefaultMsg
 .bss.gConfirmDefaultMsg2nd
                0x0000000000015e08        0x8 /tmp/DisplayEngine.dll.3RKoMz.ltrans0.ltrans.o
                0x0000000000015e08                gConfirmDefaultMsg2nd
 .bss.gConfirmDiscardMsg
                0x0000000000015e10        0x8 /tmp/DisplayEngine.dll.3RKoMz.ltrans0.ltrans.o
                0x0000000000015e10                gConfirmDiscardMsg
 .bss.gConfirmError
                0x0000000000015e18        0x8 /tmp/DisplayEngine.dll.3RKoMz.ltrans0.ltrans.o
                0x0000000000015e18                gConfirmError
 .bss.gConfirmExitMsg
                0x0000000000015e20        0x8 /tmp/DisplayEngine.dll.3RKoMz.ltrans0.ltrans.o
                0x0000000000015e20                gConfirmExitMsg
 .bss.gConfirmExitMsg2nd
                0x0000000000015e28        0x8 /tmp/DisplayEngine.dll.3RKoMz.ltrans0.ltrans.o
                0x0000000000015e28                gConfirmExitMsg2nd
 .bss.gConfirmMsgConnect
                0x0000000000015e30        0x8 /tmp/DisplayEngine.dll.3RKoMz.ltrans0.ltrans.o
                0x0000000000015e30                gConfirmMsgConnect
 .bss.gConfirmMsgEnd
                0x0000000000015e38        0x8 /tmp/DisplayEngine.dll.3RKoMz.ltrans0.ltrans.o
                0x0000000000015e38                gConfirmMsgEnd
 .bss.gConfirmOpt
                0x0000000000015e40        0x8 /tmp/DisplayEngine.dll.3RKoMz.ltrans0.ltrans.o
                0x0000000000015e40                gConfirmOpt
 .bss.gConfirmOptCancel
                0x0000000000015e48        0x8 /tmp/DisplayEngine.dll.3RKoMz.ltrans0.ltrans.o
                0x0000000000015e48                gConfirmOptCancel
 .bss.gConfirmOptNo
                0x0000000000015e50        0x8 /tmp/DisplayEngine.dll.3RKoMz.ltrans0.ltrans.o
                0x0000000000015e50                gConfirmOptNo
 .bss.gConfirmOptOk
                0x0000000000015e58        0x8 /tmp/DisplayEngine.dll.3RKoMz.ltrans0.ltrans.o
                0x0000000000015e58                gConfirmOptOk
 .bss.gConfirmOptYes
                0x0000000000015e60        0x8 /tmp/DisplayEngine.dll.3RKoMz.ltrans0.ltrans.o
                0x0000000000015e60                gConfirmOptYes
 .bss.gConfirmPassword
                0x0000000000015e68        0x8 /tmp/DisplayEngine.dll.3RKoMz.ltrans0.ltrans.o
                0x0000000000015e68                gConfirmPassword
 .bss.gConfirmResetMsg
                0x0000000000015e70        0x8 /tmp/DisplayEngine.dll.3RKoMz.ltrans0.ltrans.o
                0x0000000000015e70                gConfirmResetMsg
 .bss.gConfirmResetMsg2nd
                0x0000000000015e78        0x8 /tmp/DisplayEngine.dll.3RKoMz.ltrans0.ltrans.o
                0x0000000000015e78                gConfirmResetMsg2nd
 .bss.gConfirmSubmitMsg
                0x0000000000015e80        0x8 /tmp/DisplayEngine.dll.3RKoMz.ltrans0.ltrans.o
                0x0000000000015e80                gConfirmSubmitMsg
 .bss.gConfirmSubmitMsg2nd
                0x0000000000015e88        0x8 /tmp/DisplayEngine.dll.3RKoMz.ltrans0.ltrans.o
                0x0000000000015e88                gConfirmSubmitMsg2nd
 .bss.gDecNumericInput
                0x0000000000015e90        0x8 /tmp/DisplayEngine.dll.3RKoMz.ltrans0.ltrans.o
                0x0000000000015e90                gDecNumericInput
 .bss.gDirection
                0x0000000000015e98        0x2 /tmp/DisplayEngine.dll.3RKoMz.ltrans0.ltrans.o
 *fill*         0x0000000000015e9a        0x6 
 .bss.gEmptyString
                0x0000000000015ea0        0x8 /tmp/DisplayEngine.dll.3RKoMz.ltrans0.ltrans.o
                0x0000000000015ea0                gEmptyString
 .bss.gEnterCommitString
                0x0000000000015ea8        0x8 /tmp/DisplayEngine.dll.3RKoMz.ltrans0.ltrans.o
                0x0000000000015ea8                gEnterCommitString
 .bss.gEnterEscapeString
                0x0000000000015eb0        0x8 /tmp/DisplayEngine.dll.3RKoMz.ltrans0.ltrans.o
                0x0000000000015eb0                gEnterEscapeString
 .bss.gEnterString
                0x0000000000015eb8        0x8 /tmp/DisplayEngine.dll.3RKoMz.ltrans0.ltrans.o
                0x0000000000015eb8                gEnterString
 .bss.gErrorPopup
                0x0000000000015ec0        0x8 /tmp/DisplayEngine.dll.3RKoMz.ltrans0.ltrans.o
                0x0000000000015ec0                gErrorPopup
 .bss.gEscapeString
                0x0000000000015ec8        0x8 /tmp/DisplayEngine.dll.3RKoMz.ltrans0.ltrans.o
                0x0000000000015ec8                gEscapeString
 .bss.gFooterHeight
                0x0000000000015ed0        0x8 /tmp/DisplayEngine.dll.3RKoMz.ltrans0.ltrans.o
 .bss.gFormData
                0x0000000000015ed8        0x8 /tmp/DisplayEngine.dll.3RKoMz.ltrans0.ltrans.o
                0x0000000000015ed8                gFormData
 .bss.gHelpBlockWidth
                0x0000000000015ee0        0x2 /tmp/DisplayEngine.dll.3RKoMz.ltrans0.ltrans.o
 *fill*         0x0000000000015ee2        0x6 
 .bss.gHexNumericInput
                0x0000000000015ee8        0x8 /tmp/DisplayEngine.dll.3RKoMz.ltrans0.ltrans.o
                0x0000000000015ee8                gHexNumericInput
 .bss.gHighligthMenuInfo
                0x0000000000015ef0       0x48 /tmp/DisplayEngine.dll.3RKoMz.ltrans0.ltrans.o
                0x0000000000015ef0                gHighligthMenuInfo
 .bss.gHiiDatabase
                0x0000000000015f38        0x8 /tmp/DisplayEngine.dll.3RKoMz.ltrans0.ltrans.o
                0x0000000000015f38                gHiiDatabase
 .bss.gHiiHandle
                0x0000000000015f40        0x8 /tmp/DisplayEngine.dll.3RKoMz.ltrans0.ltrans.o
                0x0000000000015f40                gHiiHandle
 .bss.gHiiString
                0x0000000000015f48        0x8 /tmp/DisplayEngine.dll.3RKoMz.ltrans0.ltrans.o
                0x0000000000015f48                gHiiString
 .bss.gInfoPopup
                0x0000000000015f50        0x8 /tmp/DisplayEngine.dll.3RKoMz.ltrans0.ltrans.o
                0x0000000000015f50                gInfoPopup
 .bss.gInputErrorMessage
                0x0000000000015f58        0x8 /tmp/DisplayEngine.dll.3RKoMz.ltrans0.ltrans.o
                0x0000000000015f58                gInputErrorMessage
 .bss.gLibEmptyString
                0x0000000000015f60        0x8 /tmp/DisplayEngine.dll.3RKoMz.ltrans0.ltrans.o
                0x0000000000015f60                gLibEmptyString
 .bss.gMaxRowWidth
                0x0000000000015f68        0x8 /tmp/DisplayEngine.dll.3RKoMz.ltrans0.ltrans.o
 .bss.gMenuOption
                0x0000000000015f70       0x10 /tmp/DisplayEngine.dll.3RKoMz.ltrans0.ltrans.o
                0x0000000000015f70                gMenuOption
 .bss.gMesStrLineNum
                0x0000000000015f80        0x8 /tmp/DisplayEngine.dll.3RKoMz.ltrans0.ltrans.o
 .bss.gMessageString
                0x0000000000015f88        0x8 /tmp/DisplayEngine.dll.3RKoMz.ltrans0.ltrans.o
 .bss.gMiniString
                0x0000000000015f90        0x8 /tmp/DisplayEngine.dll.3RKoMz.ltrans0.ltrans.o
                0x0000000000015f90                gMiniString
 .bss.gMinusString
                0x0000000000015f98        0x8 /tmp/DisplayEngine.dll.3RKoMz.ltrans0.ltrans.o
                0x0000000000015f98                gMinusString
 .bss.gMisMatch
                0x0000000000015fa0        0x1 /tmp/DisplayEngine.dll.3RKoMz.ltrans0.ltrans.o
 *fill*         0x0000000000015fa1        0x1 
 .bss.gModalSkipColumn
                0x0000000000015fa2        0x2 /tmp/DisplayEngine.dll.3RKoMz.ltrans0.ltrans.o
                0x0000000000015fa2                gModalSkipColumn
 *fill*         0x0000000000015fa4        0x4 
 .bss.gMoveHighlight
                0x0000000000015fa8        0x8 /tmp/DisplayEngine.dll.3RKoMz.ltrans0.ltrans.o
                0x0000000000015fa8                gMoveHighlight
 .bss.gNoOption
                0x0000000000015fb0        0x8 /tmp/DisplayEngine.dll.3RKoMz.ltrans0.ltrans.o
                0x0000000000015fb0                gNoOption
 .bss.gNoResponse
                0x0000000000015fb8        0x8 /tmp/DisplayEngine.dll.3RKoMz.ltrans0.ltrans.o
                0x0000000000015fb8                gNoResponse
 .bss.gNvUpdateMessage
                0x0000000000015fc0        0x8 /tmp/DisplayEngine.dll.3RKoMz.ltrans0.ltrans.o
                0x0000000000015fc0                gNvUpdateMessage
 .bss.gOkOption
                0x0000000000015fc8        0x8 /tmp/DisplayEngine.dll.3RKoMz.ltrans0.ltrans.o
                0x0000000000015fc8                gOkOption
 .bss.gOldFormEntry
                0x0000000000015fd0       0x38 /tmp/DisplayEngine.dll.3RKoMz.ltrans0.ltrans.o
                0x0000000000015fd0                gOldFormEntry
 .bss.gOptionBlockWidth
                0x0000000000016008        0x2 /tmp/DisplayEngine.dll.3RKoMz.ltrans0.ltrans.o
                0x0000000000016008                gOptionBlockWidth
 *fill*         0x000000000001600a        0x6 
 .bss.gOptionMismatch
                0x0000000000016010        0x8 /tmp/DisplayEngine.dll.3RKoMz.ltrans0.ltrans.o
                0x0000000000016010                gOptionMismatch
 .bss.gPassowordInvalid
                0x0000000000016018        0x8 /tmp/DisplayEngine.dll.3RKoMz.ltrans0.ltrans.o
                0x0000000000016018                gPassowordInvalid
 .bss.gPasswordUnsupported
                0x0000000000016020        0x8 /tmp/DisplayEngine.dll.3RKoMz.ltrans0.ltrans.o
                0x0000000000016020                gPasswordUnsupported
 .bss.gPlusString
                0x0000000000016028        0x8 /tmp/DisplayEngine.dll.3RKoMz.ltrans0.ltrans.o
                0x0000000000016028                gPlusString
 .bss.gPopupDimensions
                0x0000000000016030       0x20 /tmp/DisplayEngine.dll.3RKoMz.ltrans0.ltrans.o
 .bss.gPressEnter
                0x0000000000016050        0x8 /tmp/DisplayEngine.dll.3RKoMz.ltrans0.ltrans.o
                0x0000000000016050                gPressEnter
 .bss.gPromptBlockWidth
                0x0000000000016058        0x2 /tmp/DisplayEngine.dll.3RKoMz.ltrans0.ltrans.o
                0x0000000000016058                gPromptBlockWidth
 *fill*         0x000000000001605a        0x6 
 .bss.gPromptForData
                0x0000000000016060        0x8 /tmp/DisplayEngine.dll.3RKoMz.ltrans0.ltrans.o
                0x0000000000016060                gPromptForData
 .bss.gPromptForNewPassword
                0x0000000000016068        0x8 /tmp/DisplayEngine.dll.3RKoMz.ltrans0.ltrans.o
                0x0000000000016068                gPromptForNewPassword
 .bss.gPromptForPassword
                0x0000000000016070        0x8 /tmp/DisplayEngine.dll.3RKoMz.ltrans0.ltrans.o
                0x0000000000016070                gPromptForPassword
 .bss.gRT       0x0000000000016078        0x8 /tmp/DisplayEngine.dll.3RKoMz.ltrans0.ltrans.o
                0x0000000000016078                gRT
 .bss.gST       0x0000000000016080        0x8 /tmp/DisplayEngine.dll.3RKoMz.ltrans0.ltrans.o
                0x0000000000016080                gST
 .bss.gSaveChanges
                0x0000000000016088        0x8 /tmp/DisplayEngine.dll.3RKoMz.ltrans0.ltrans.o
                0x0000000000016088                gSaveChanges
 .bss.gScreenDimensions
                0x0000000000016090       0x20 /tmp/DisplayEngine.dll.3RKoMz.ltrans0.ltrans.o
 .bss.gStatementDimensions
                0x00000000000160b0       0x20 /tmp/DisplayEngine.dll.3RKoMz.ltrans0.ltrans.o
                0x00000000000160b0                gStatementDimensions
 .bss.gToggleCheckBox
                0x00000000000160d0        0x8 /tmp/DisplayEngine.dll.3RKoMz.ltrans0.ltrans.o
                0x00000000000160d0                gToggleCheckBox
 .bss.gUserInput
                0x00000000000160d8        0x8 /tmp/DisplayEngine.dll.3RKoMz.ltrans0.ltrans.o
                0x00000000000160d8                gUserInput
 .bss.gUserSelectableOptions
                0x00000000000160e0       0x10 /tmp/DisplayEngine.dll.3RKoMz.ltrans0.ltrans.o
 .bss.gWarningPopup
                0x00000000000160f0        0x8 /tmp/DisplayEngine.dll.3RKoMz.ltrans0.ltrans.o
                0x00000000000160f0                gWarningPopup
 .bss.gYesOption
                0x00000000000160f8        0x8 /tmp/DisplayEngine.dll.3RKoMz.ltrans0.ltrans.o
                0x00000000000160f8                gYesOption
 .bss.gYesResponse
                0x0000000000016100        0x8 /tmp/DisplayEngine.dll.3RKoMz.ltrans0.ltrans.o
                0x0000000000016100                gYesResponse
 .bss.mLibUnknownString
                0x0000000000016108        0x8 /tmp/DisplayEngine.dll.3RKoMz.ltrans0.ltrans.o
                0x0000000000016108                mLibUnknownString
 .bss.mSpaceBuffer
                0x0000000000016110        0x8 /tmp/DisplayEngine.dll.3RKoMz.ltrans0.ltrans.o
                0x0000000000016110                mSpaceBuffer
 .bss.gBrowserError
                0x0000000000016118        0x8 /tmp/DisplayEngine.dll.3RKoMz.ltrans1.ltrans.o
 .bss.gChangesOpt
                0x0000000000016120        0x8 /tmp/DisplayEngine.dll.3RKoMz.ltrans1.ltrans.o
 .bss.gCheckError
                0x0000000000016128        0x8 /tmp/DisplayEngine.dll.3RKoMz.ltrans1.ltrans.o
 .bss.gDiscardChange
                0x0000000000016130        0x8 /tmp/DisplayEngine.dll.3RKoMz.ltrans1.ltrans.o
 .bss.gFormNotFound
                0x0000000000016138        0x8 /tmp/DisplayEngine.dll.3RKoMz.ltrans1.ltrans.o
 .bss.gFormSuppress
                0x0000000000016140        0x8 /tmp/DisplayEngine.dll.3RKoMz.ltrans1.ltrans.o
 .bss.gHiiConfigRouting
                0x0000000000016148        0x8 /tmp/DisplayEngine.dll.3RKoMz.ltrans1.ltrans.o
 .bss.gHiiFont  0x0000000000016150        0x8 /tmp/DisplayEngine.dll.3RKoMz.ltrans1.ltrans.o
 .bss.gHiiImage
                0x0000000000016158        0x8 /tmp/DisplayEngine.dll.3RKoMz.ltrans1.ltrans.o
 .bss.gImageHandle
                0x0000000000016160        0x8 /tmp/DisplayEngine.dll.3RKoMz.ltrans1.ltrans.o
 .bss.gJumpToFormSet
                0x0000000000016168        0x8 /tmp/DisplayEngine.dll.3RKoMz.ltrans1.ltrans.o
 .bss.gNoSubmitIf
                0x0000000000016170        0x8 /tmp/DisplayEngine.dll.3RKoMz.ltrans1.ltrans.o
 .bss.gNoSubmitIfFailed
                0x0000000000016178        0x8 /tmp/DisplayEngine.dll.3RKoMz.ltrans1.ltrans.o
 .bss.gProtocolNotFound
                0x0000000000016180        0x8 /tmp/DisplayEngine.dll.3RKoMz.ltrans1.ltrans.o
 .bss.gReconnectConfirmChanges
                0x0000000000016188        0x8 /tmp/DisplayEngine.dll.3RKoMz.ltrans1.ltrans.o
 .bss.gReconnectFail
                0x0000000000016190        0x8 /tmp/DisplayEngine.dll.3RKoMz.ltrans1.ltrans.o
 .bss.gReconnectRequired
                0x0000000000016198        0x8 /tmp/DisplayEngine.dll.3RKoMz.ltrans1.ltrans.o
 .bss.gSaveFailed
                0x00000000000161a0        0x8 /tmp/DisplayEngine.dll.3RKoMz.ltrans1.ltrans.o
 .bss.gSaveNoSubmitProcess
                0x00000000000161a8        0x8 /tmp/DisplayEngine.dll.3RKoMz.ltrans1.ltrans.o
 .bss.gSaveProcess
                0x00000000000161b0        0x8 /tmp/DisplayEngine.dll.3RKoMz.ltrans1.ltrans.o
 .bss.mCDLStringPackHandle
                0x00000000000161b8        0x8 /tmp/DisplayEngine.dll.3RKoMz.ltrans1.ltrans.o
 .bss.mUnknownString
                0x00000000000161c0        0x8 /tmp/DisplayEngine.dll.3RKoMz.ltrans1.ltrans.o

.dynbss         0x00000000000161c8        0x0
 .dynbss        0x00000000000161c8        0x0 /home/alastair/pftf-rpi4/edk2/ArmPkg/Library/GccLto/liblto-aarch64.a

.eh_frame
 *(.eh_frame)

.rela           0x00000000000161c8       0x60
 *(.rela .rela.*)
 .rela.got      0x00000000000161c8        0x0 /home/alastair/pftf-rpi4/edk2/ArmPkg/Library/GccLto/liblto-aarch64.a
 .rela.plt      0x00000000000161c8        0x0 /home/alastair/pftf-rpi4/edk2/ArmPkg/Library/GccLto/liblto-aarch64.a
 .rela.bss      0x00000000000161c8        0x0 /home/alastair/pftf-rpi4/edk2/ArmPkg/Library/GccLto/liblto-aarch64.a
 .rela.data.rel.ro
                0x00000000000161c8        0x0 /home/alastair/pftf-rpi4/edk2/ArmPkg/Library/GccLto/liblto-aarch64.a
 .rela.ifunc    0x00000000000161c8        0x0 /home/alastair/pftf-rpi4/edk2/ArmPkg/Library/GccLto/liblto-aarch64.a
 .rela.data.mPrivateData
                0x00000000000161c8       0x60 /home/alastair/pftf-rpi4/edk2/ArmPkg/Library/GccLto/liblto-aarch64.a

.hii
 *(.hii)

.build-id       0x0000000000016228       0x24
 *(.note.gnu.build-id)
 .note.gnu.build-id
                0x0000000000016228       0x24 /home/alastair/pftf-rpi4/edk2/ArmPkg/Library/GccLto/liblto-aarch64.a

/DISCARD/
 *(.note.GNU-stack)
 *(.gnu_debuglink)
 *(.interp)
 *(.dynsym)
 *(.dynstr)
 *(.dynamic)
 *(.hash .gnu.hash)
 *(.comment)
 *(COMMON)
                0x0000000000000228                PECOFF_HEADER_SIZE = 0x228
OUTPUT(/home/alastair/pftf-rpi4/Build/RPi4/DEBUG_GCC5/AARCH64/MdeModulePkg/Universal/DisplayEngineDxe/DisplayEngineDxe/DEBUG/DisplayEngine.dll elf64-littleaarch64)
LOAD linker stubs

.debug_info     0x0000000000000000    0x40bdf
 .debug_info    0x0000000000000000     0xd82f /tmp/DisplayEngine.dll.3RKoMz.ltrans0.ltrans.o
 .debug_info    0x000000000000d82f     0x39f5 /tmp/DisplayEngine.dll.3RKoMz.ltrans1.ltrans.o
 .debug_info    0x0000000000011224     0x1a57 /tmp/ccHfrJYA.debug.temp.o
                0x0000000000011224                DriverEntryPoint.c.9519b125
 .debug_info    0x0000000000012c7b      0x187 /tmp/cc7RmhHz.debug.temp.o
                0x0000000000012c7b                BaseStackCheckGcc.c.9918e4ed
 .debug_info    0x0000000000012e02      0x1d7 /tmp/cc4EZ2fz.debug.temp.o
                0x0000000000012e02                memcpy.c.992e94b8
 .debug_info    0x0000000000012fd9      0x188 /tmp/cckC4Ppy.debug.temp.o
                0x0000000000012fd9                memset.c.d190684e
 .debug_info    0x0000000000013161     0x1f42 /tmp/cclNR9Iy.debug.temp.o
                0x0000000000013161                AutoGen.c.f237c45f
 .debug_info    0x00000000000150a3     0x411c /tmp/ccoYWMAx.debug.temp.o
                0x00000000000150a3                FormDisplay.c.de9d6e63
 .debug_info    0x00000000000191bf     0x3081 /tmp/ccJv6rOx.debug.temp.o
                0x00000000000191bf                ProcessOptions.c.1198e19f
 .debug_info    0x000000000001c240     0x2e34 /tmp/cc2V5bCA.debug.temp.o
                0x000000000001c240                InputHandler.c.56aaccbc
 .debug_info    0x000000000001f074     0x283e /tmp/cccjwO2w.debug.temp.o
                0x000000000001f074                Popup.c.41e40501
 .debug_info    0x00000000000218b2      0x1db /tmp/cclGVvTy.debug.temp.o
                0x00000000000218b2                MultU64x32.c.c8a7ecd3
 .debug_info    0x0000000000021a8d      0x1db /tmp/cciS80py.debug.temp.o
                0x0000000000021a8d                LShiftU64.c.b38ec6e2
 .debug_info    0x0000000000021c68      0x1d0 /tmp/cc8fobmx.debug.temp.o
                0x0000000000021c68                CpuDeadLoop.c.e33e7959
 .debug_info    0x0000000000021e38      0x428 /tmp/ccUh3glA.debug.temp.o
                0x0000000000021e38                LinkedList.c.6e13becc
 .debug_info    0x0000000000022260     0x1004 /tmp/ccfjYShA.debug.temp.o
                0x0000000000022260                SafeString.c.d8550fea
 .debug_info    0x0000000000023264      0x7f3 /tmp/cctnYN1w.debug.temp.o
                0x0000000000023264                String.c.753c3495
 .debug_info    0x0000000000023a57      0x43c /tmp/ccL4MxPz.debug.temp.o
                0x0000000000023a57                Math64.c.5e992ad5
 .debug_info    0x0000000000023e93      0x21d /tmp/cctk6zhz.debug.temp.o
                0x0000000000023e93                MemLibGuid.c.2ca06148
 .debug_info    0x00000000000240b0      0x17a /tmp/ccu2NwOz.debug.temp.o
                0x00000000000240b0                ZeroMemWrapper.c.8dc042f6
 .debug_info    0x000000000002422a      0x1a7 /tmp/ccktJqDx.debug.temp.o
                0x000000000002422a                CompareMemWrapper.c.96cbdc30
 .debug_info    0x00000000000243d1      0x191 /tmp/ccKHM7eB.debug.temp.o
                0x00000000000243d1                CopyMemWrapper.c.8ed793a8
 .debug_info    0x0000000000024562      0x68f /tmp/ccgHxwgz.debug.temp.o
                0x0000000000024562                PrintLib.c.260a037f
 .debug_info    0x0000000000024bf1      0x79a /tmp/cch67d2z.debug.temp.o
                0x0000000000024bf1                PrintLibInternal.c.92769e0a
 .debug_info    0x000000000002538b      0x3f2 /tmp/ccyeSK4x.debug.temp.o
                0x000000000002538b                DebugLib.c.0df38b98
 .debug_info    0x000000000002577d     0x18e1 /tmp/ccGBkZ4A.debug.temp.o
                0x000000000002577d                UefiBootServicesTableLib.c.c00a3dd8
 .debug_info    0x000000000002705e     0x1de0 /tmp/cciwoF3x.debug.temp.o
                0x000000000002705e                MemoryAllocationLib.c.774777c4
 .debug_info    0x0000000000028e3e     0x18b2 /tmp/cck281yx.debug.temp.o
                0x0000000000028e3e                UefiRuntimeServicesTableLib.c.7b9e7237
 .debug_info    0x000000000002a6f0     0x2966 /tmp/ccyFOs3z.debug.temp.o
                0x000000000002a6f0                UefiHiiServicesLib.c.57cd5a7f
 .debug_info    0x000000000002d056     0x27ac /tmp/ccWUPjLz.debug.temp.o
                0x000000000002d056                UefiLib.c.2c69044c
 .debug_info    0x000000000002f802     0x50c1 /tmp/cc5SjtRA.debug.temp.o
                0x000000000002f802                HiiLib.c.b2279ad8
 .debug_info    0x00000000000348c3     0x2b6a /tmp/cc5gRNuA.debug.temp.o
                0x00000000000348c3                HiiString.c.d0f43445
 .debug_info    0x000000000003742d     0x2a1b /tmp/ccDPSbQx.debug.temp.o
                0x000000000003742d                HiiLanguage.c.1635079f
 .debug_info    0x0000000000039e48     0x29cb /tmp/ccozBVcy.debug.temp.o
                0x0000000000039e48                CustomizedDisplayLib.c.f28ecc84
 .debug_info    0x000000000003c813     0x2b5a /tmp/ccaAAISA.debug.temp.o
                0x000000000003c813                CustomizedDisplayLibInternal.c.af522871
 .debug_info    0x000000000003f36d      0x2a3 /tmp/cc9oKAKx.debug.temp.o
                0x000000000003f36d                AutoGen.c.0862e39d
 .debug_info    0x000000000003f610      0x1e5 /tmp/ccT0GmKz.debug.temp.o
                0x000000000003f610                DivU64x32Remainder.c.19070deb
 .debug_info    0x000000000003f7f5      0x33d /tmp/ccitylrx.debug.temp.o
                0x000000000003f7f5                Unaligned.c.4a0798dc
 .debug_info    0x000000000003fb32      0x18d /tmp/ccJ5EVAy.debug.temp.o
                0x000000000003fb32                BaseDebugPrintErrorLevelLib.c.afda57b5
 .debug_info    0x000000000003fcbf      0x201 /tmp/ccsPICGy.debug.temp.o
                0x000000000003fcbf                DebugDualSerialPortLib.c.3fe30e88
 .debug_info    0x000000000003fec0      0x2e6 /tmp/cciTZJKx.debug.temp.o
                0x000000000003fec0                DualSerialPortLibCommon.c.2dc6badf
 .debug_info    0x00000000000401a6      0x503 /tmp/ccD1P37y.debug.temp.o
                0x00000000000401a6                IoLibNoIo.c.335a48c4
 .debug_info    0x00000000000406a9      0x536 /tmp/ccHiG91A.debug.temp.o
                0x00000000000406a9                PL011UartLib.c.f54a0051

.debug_abbrev   0x0000000000000000     0x428f
 .debug_abbrev  0x0000000000000000      0x2bc /tmp/DisplayEngine.dll.3RKoMz.ltrans0.ltrans.o
 .debug_abbrev  0x00000000000002bc      0x1f7 /tmp/DisplayEngine.dll.3RKoMz.ltrans1.ltrans.o
 .debug_abbrev  0x00000000000004b3      0x1e9 /tmp/ccHfrJYA.debug.temp.o
 .debug_abbrev  0x000000000000069c       0xc7 /tmp/cc7RmhHz.debug.temp.o
 .debug_abbrev  0x0000000000000763       0xee /tmp/cc4EZ2fz.debug.temp.o
 .debug_abbrev  0x0000000000000851       0xc0 /tmp/cckC4Ppy.debug.temp.o
 .debug_abbrev  0x0000000000000911      0x236 /tmp/cclNR9Iy.debug.temp.o
 .debug_abbrev  0x0000000000000b47      0x2cc /tmp/ccoYWMAx.debug.temp.o
 .debug_abbrev  0x0000000000000e13      0x2cd /tmp/ccJv6rOx.debug.temp.o
 .debug_abbrev  0x00000000000010e0      0x29e /tmp/cc2V5bCA.debug.temp.o
 .debug_abbrev  0x000000000000137e      0x2a2 /tmp/cccjwO2w.debug.temp.o
 .debug_abbrev  0x0000000000001620       0xc0 /tmp/cclGVvTy.debug.temp.o
 .debug_abbrev  0x00000000000016e0       0xb1 /tmp/cciS80py.debug.temp.o
 .debug_abbrev  0x0000000000001791       0xb6 /tmp/cc8fobmx.debug.temp.o
 .debug_abbrev  0x0000000000001847      0x139 /tmp/ccUh3glA.debug.temp.o
 .debug_abbrev  0x0000000000001980      0x138 /tmp/ccfjYShA.debug.temp.o
 .debug_abbrev  0x0000000000001ab8      0x126 /tmp/cctnYN1w.debug.temp.o
 .debug_abbrev  0x0000000000001bde       0xf9 /tmp/ccL4MxPz.debug.temp.o
 .debug_abbrev  0x0000000000001cd7       0xce /tmp/cctk6zhz.debug.temp.o
 .debug_abbrev  0x0000000000001da5       0xb1 /tmp/ccu2NwOz.debug.temp.o
 .debug_abbrev  0x0000000000001e56       0xb1 /tmp/ccktJqDx.debug.temp.o
 .debug_abbrev  0x0000000000001f07       0xb8 /tmp/ccKHM7eB.debug.temp.o
 .debug_abbrev  0x0000000000001fbf      0x150 /tmp/ccgHxwgz.debug.temp.o
 .debug_abbrev  0x000000000000210f      0x161 /tmp/cch67d2z.debug.temp.o
 .debug_abbrev  0x0000000000002270      0x165 /tmp/ccyeSK4x.debug.temp.o
 .debug_abbrev  0x00000000000023d5      0x1dd /tmp/ccGBkZ4A.debug.temp.o
 .debug_abbrev  0x00000000000025b2      0x242 /tmp/cciwoF3x.debug.temp.o
 .debug_abbrev  0x00000000000027f4      0x1c3 /tmp/cck281yx.debug.temp.o
 .debug_abbrev  0x00000000000029b7      0x216 /tmp/ccyFOs3z.debug.temp.o
 .debug_abbrev  0x0000000000002bcd      0x267 /tmp/ccWUPjLz.debug.temp.o
 .debug_abbrev  0x0000000000002e34      0x315 /tmp/cc5SjtRA.debug.temp.o
 .debug_abbrev  0x0000000000003149      0x249 /tmp/cc5gRNuA.debug.temp.o
 .debug_abbrev  0x0000000000003392      0x209 /tmp/ccDPSbQx.debug.temp.o
 .debug_abbrev  0x000000000000359b      0x2ed /tmp/ccozBVcy.debug.temp.o
 .debug_abbrev  0x0000000000003888      0x2e7 /tmp/ccaAAISA.debug.temp.o
 .debug_abbrev  0x0000000000003b6f       0xaf /tmp/cc9oKAKx.debug.temp.o
 .debug_abbrev  0x0000000000003c1e       0xb3 /tmp/ccT0GmKz.debug.temp.o
 .debug_abbrev  0x0000000000003cd1       0xc9 /tmp/ccitylrx.debug.temp.o
 .debug_abbrev  0x0000000000003d9a       0xc6 /tmp/ccJ5EVAy.debug.temp.o
 .debug_abbrev  0x0000000000003e60       0xc4 /tmp/ccsPICGy.debug.temp.o
 .debug_abbrev  0x0000000000003f24      0x108 /tmp/cciTZJKx.debug.temp.o
 .debug_abbrev  0x000000000000402c      0x11f /tmp/ccD1P37y.debug.temp.o
 .debug_abbrev  0x000000000000414b      0x144 /tmp/ccHiG91A.debug.temp.o

.debug_loc      0x0000000000000000    0x1bbd9
 .debug_loc     0x0000000000000000    0x17403 /tmp/DisplayEngine.dll.3RKoMz.ltrans0.ltrans.o
 .debug_loc     0x0000000000017403     0x47d6 /tmp/DisplayEngine.dll.3RKoMz.ltrans1.ltrans.o

.debug_aranges  0x0000000000000000      0x7b0
 .debug_aranges
                0x0000000000000000      0x600 /tmp/DisplayEngine.dll.3RKoMz.ltrans0.ltrans.o
 .debug_aranges
                0x0000000000000600      0x1b0 /tmp/DisplayEngine.dll.3RKoMz.ltrans1.ltrans.o

.debug_ranges   0x0000000000000000     0x2ae0
 .debug_ranges  0x0000000000000000     0x2230 /tmp/DisplayEngine.dll.3RKoMz.ltrans0.ltrans.o
 .debug_ranges  0x0000000000002230      0x8b0 /tmp/DisplayEngine.dll.3RKoMz.ltrans1.ltrans.o

.debug_line     0x0000000000000000    0x12986
 .debug_line    0x0000000000000000     0x968a /tmp/DisplayEngine.dll.3RKoMz.ltrans0.ltrans.o
 .debug_line    0x000000000000968a     0x28ab /tmp/DisplayEngine.dll.3RKoMz.ltrans1.ltrans.o
 .debug_line    0x000000000000bf35      0x347 /tmp/ccHfrJYA.debug.temp.o
 .debug_line    0x000000000000c27c      0x170 /tmp/cc7RmhHz.debug.temp.o
 .debug_line    0x000000000000c3ec      0x171 /tmp/cc4EZ2fz.debug.temp.o
 .debug_line    0x000000000000c55d      0x171 /tmp/cckC4Ppy.debug.temp.o
 .debug_line    0x000000000000c6ce      0x317 /tmp/cclNR9Iy.debug.temp.o
 .debug_line    0x000000000000c9e5      0x47b /tmp/ccoYWMAx.debug.temp.o
 .debug_line    0x000000000000ce60      0x46a /tmp/ccJv6rOx.debug.temp.o
 .debug_line    0x000000000000d2ca      0x45a /tmp/cc2V5bCA.debug.temp.o
 .debug_line    0x000000000000d724      0x461 /tmp/cccjwO2w.debug.temp.o
 .debug_line    0x000000000000db85      0x14b /tmp/cclGVvTy.debug.temp.o
 .debug_line    0x000000000000dcd0      0x14a /tmp/cciS80py.debug.temp.o
 .debug_line    0x000000000000de1a      0x14c /tmp/cc8fobmx.debug.temp.o
 .debug_line    0x000000000000df66      0x14b /tmp/ccUh3glA.debug.temp.o
 .debug_line    0x000000000000e0b1      0x14b /tmp/ccfjYShA.debug.temp.o
 .debug_line    0x000000000000e1fc      0x147 /tmp/cctnYN1w.debug.temp.o
 .debug_line    0x000000000000e343      0x147 /tmp/ccL4MxPz.debug.temp.o
 .debug_line    0x000000000000e48a      0x173 /tmp/cctk6zhz.debug.temp.o
 .debug_line    0x000000000000e5fd      0x173 /tmp/ccu2NwOz.debug.temp.o
 .debug_line    0x000000000000e770      0x176 /tmp/ccktJqDx.debug.temp.o
 .debug_line    0x000000000000e8e6      0x173 /tmp/ccKHM7eB.debug.temp.o
 .debug_line    0x000000000000ea59      0x166 /tmp/ccgHxwgz.debug.temp.o
 .debug_line    0x000000000000ebbf      0x184 /tmp/cch67d2z.debug.temp.o
 .debug_line    0x000000000000ed43      0x20c /tmp/ccyeSK4x.debug.temp.o
 .debug_line    0x000000000000ef4f      0x330 /tmp/ccGBkZ4A.debug.temp.o
 .debug_line    0x000000000000f27f      0x328 /tmp/cciwoF3x.debug.temp.o
 .debug_line    0x000000000000f5a7      0x2e9 /tmp/cck281yx.debug.temp.o
 .debug_line    0x000000000000f890      0x400 /tmp/ccyFOs3z.debug.temp.o
 .debug_line    0x000000000000fc90      0x36d /tmp/ccWUPjLz.debug.temp.o
 .debug_line    0x000000000000fffd      0x515 /tmp/cc5SjtRA.debug.temp.o
 .debug_line    0x0000000000010512      0x4f8 /tmp/cc5gRNuA.debug.temp.o
 .debug_line    0x0000000000010a0a      0x4fa /tmp/ccDPSbQx.debug.temp.o
 .debug_line    0x0000000000010f04      0x598 /tmp/ccozBVcy.debug.temp.o
 .debug_line    0x000000000001149c      0x5a0 /tmp/ccaAAISA.debug.temp.o
 .debug_line    0x0000000000011a3c      0x295 /tmp/cc9oKAKx.debug.temp.o
 .debug_line    0x0000000000011cd1      0x153 /tmp/ccT0GmKz.debug.temp.o
 .debug_line    0x0000000000011e24      0x14e /tmp/ccitylrx.debug.temp.o
 .debug_line    0x0000000000011f72      0x198 /tmp/ccJ5EVAy.debug.temp.o
 .debug_line    0x000000000001210a      0x228 /tmp/ccsPICGy.debug.temp.o
 .debug_line    0x0000000000012332      0x240 /tmp/cciTZJKx.debug.temp.o
 .debug_line    0x0000000000012572      0x16b /tmp/ccD1P37y.debug.temp.o
 .debug_line    0x00000000000126dd      0x2a9 /tmp/ccHiG91A.debug.temp.o

.debug_str      0x0000000000000000     0x926b
 .debug_str     0x0000000000000000      0x305 /tmp/DisplayEngine.dll.3RKoMz.ltrans0.ltrans.o
                                        0x31e (size before relaxing)
 .debug_str     0x0000000000000305       0x73 /tmp/DisplayEngine.dll.3RKoMz.ltrans1.ltrans.o
                                        0x314 (size before relaxing)
 .debug_str     0x0000000000000378     0x1539 /tmp/ccHfrJYA.debug.temp.o
                                       0x1690 (size before relaxing)
 .debug_str     0x00000000000018b1      0x27a /tmp/cc7RmhHz.debug.temp.o
                                        0x3af (size before relaxing)
 .debug_str     0x0000000000001b2b       0xd3 /tmp/cc4EZ2fz.debug.temp.o
                                        0x34e (size before relaxing)
 .debug_str     0x0000000000001bfe       0x55 /tmp/cckC4Ppy.debug.temp.o
                                        0x342 (size before relaxing)
 .debug_str     0x0000000000001c53      0xb10 /tmp/cclNR9Iy.debug.temp.o
                                       0x209b (size before relaxing)
 .debug_str     0x0000000000002763     0x173e /tmp/ccoYWMAx.debug.temp.o
                                       0x343a (size before relaxing)
 .debug_str     0x0000000000003ea1      0x42c /tmp/ccJv6rOx.debug.temp.o
                                       0x2726 (size before relaxing)
 .debug_str     0x00000000000042cd      0x2ca /tmp/cc2V5bCA.debug.temp.o
                                       0x25cb (size before relaxing)
 .debug_str     0x0000000000004597      0x2ab /tmp/cccjwO2w.debug.temp.o
                                       0x2480 (size before relaxing)
 .debug_str     0x0000000000004842       0xb0 /tmp/cclGVvTy.debug.temp.o
                                        0x472 (size before relaxing)
 .debug_str     0x00000000000048f2       0x49 /tmp/cciS80py.debug.temp.o
                                        0x465 (size before relaxing)
 .debug_str     0x000000000000493b       0x4f /tmp/cc8fobmx.debug.temp.o
                                        0x461 (size before relaxing)
 .debug_str     0x000000000000498a      0x11a /tmp/ccUh3glA.debug.temp.o
                                        0x571 (size before relaxing)
 .debug_str     0x0000000000004aa4      0x2ca /tmp/ccfjYShA.debug.temp.o
                                        0x82d (size before relaxing)
 .debug_str     0x0000000000004d6e      0x2d5 /tmp/cctnYN1w.debug.temp.o
                                        0x7e2 (size before relaxing)
 .debug_str     0x0000000000005043      0x198 /tmp/ccL4MxPz.debug.temp.o
                                        0x5df (size before relaxing)
 .debug_str     0x00000000000051db      0x10c /tmp/cctk6zhz.debug.temp.o
                                        0x3ad (size before relaxing)
 .debug_str     0x00000000000052e7       0x52 /tmp/ccu2NwOz.debug.temp.o
                                        0x358 (size before relaxing)
 .debug_str     0x0000000000005339       0x74 /tmp/ccktJqDx.debug.temp.o
                                        0x381 (size before relaxing)
 .debug_str     0x00000000000053ad       0x52 /tmp/ccKHM7eB.debug.temp.o
                                        0x370 (size before relaxing)
 .debug_str     0x00000000000053ff      0x221 /tmp/ccgHxwgz.debug.temp.o
                                        0x5a2 (size before relaxing)
 .debug_str     0x0000000000005620      0x23e /tmp/cch67d2z.debug.temp.o
                                        0x70c (size before relaxing)
 .debug_str     0x000000000000585e      0x1ea /tmp/ccyeSK4x.debug.temp.o
                                        0x5c4 (size before relaxing)
 .debug_str     0x0000000000005a48       0xfd /tmp/ccGBkZ4A.debug.temp.o
                                       0x156d (size before relaxing)
 .debug_str     0x0000000000005b45      0x30a /tmp/cciwoF3x.debug.temp.o
                                       0x17d9 (size before relaxing)
 .debug_str     0x0000000000005e4f      0x10c /tmp/cck281yx.debug.temp.o
                                       0x156f (size before relaxing)
 .debug_str     0x0000000000005f5b      0xb20 /tmp/ccyFOs3z.debug.temp.o
                                       0x21db (size before relaxing)
 .debug_str     0x0000000000006a7b      0x74c /tmp/ccWUPjLz.debug.temp.o
                                       0x20b1 (size before relaxing)
 .debug_str     0x00000000000071c7      0xc8e /tmp/cc5SjtRA.debug.temp.o
                                       0x35e9 (size before relaxing)
 .debug_str     0x0000000000007e55       0xc6 /tmp/cc5gRNuA.debug.temp.o
                                       0x2450 (size before relaxing)
 .debug_str     0x0000000000007f1b       0x89 /tmp/ccDPSbQx.debug.temp.o
                                       0x23c2 (size before relaxing)
 .debug_str     0x0000000000007fa4      0x71f /tmp/ccozBVcy.debug.temp.o
                                       0x24b9 (size before relaxing)
 .debug_str     0x00000000000086c3      0x2e7 /tmp/ccaAAISA.debug.temp.o
                                       0x24d4 (size before relaxing)
 .debug_str     0x00000000000089aa       0x86 /tmp/cc9oKAKx.debug.temp.o
                                        0x62e (size before relaxing)
 .debug_str     0x0000000000008a30       0x5d /tmp/ccT0GmKz.debug.temp.o
                                        0x47e (size before relaxing)
 .debug_str     0x0000000000008a8d       0xde /tmp/ccitylrx.debug.temp.o
                                        0x508 (size before relaxing)
 .debug_str     0x0000000000008b6b      0x115 /tmp/ccJ5EVAy.debug.temp.o
                                        0x3e0 (size before relaxing)
 .debug_str     0x0000000000008c80      0x102 /tmp/ccsPICGy.debug.temp.o
                                        0x516 (size before relaxing)
 .debug_str     0x0000000000008d82      0x101 /tmp/cciTZJKx.debug.temp.o
                                        0x5b3 (size before relaxing)
 .debug_str     0x0000000000008e83      0x1ab /tmp/ccD1P37y.debug.temp.o
                                        0x44d (size before relaxing)
 .debug_str     0x000000000000902e      0x23d /tmp/ccHiG91A.debug.temp.o
                                        0x818 (size before relaxing)

.debug_frame    0x0000000000000000     0x17f0
 .debug_frame   0x0000000000000000     0x1258 /tmp/DisplayEngine.dll.3RKoMz.ltrans0.ltrans.o
 .debug_frame   0x0000000000001258      0x598 /tmp/DisplayEngine.dll.3RKoMz.ltrans1.ltrans.o
