Archive member included to satisfy reference by file (symbol)

/home/alastair/pftf-rpi4/Build/RPi4/RELEASE_GCC5/AARCH64/MdePkg/Library/UefiApplicationEntryPoint/UefiApplicationEntryPoint/OUTPUT/UefiApplicationEntryPoint.lib(ApplicationEntryPoint.obj)
                              (_ModuleEntryPoint)
/home/alastair/pftf-rpi4/Build/RPi4/RELEASE_GCC5/AARCH64/MdePkg/Library/BaseStackCheckLib/BaseStackCheckLib/OUTPUT/BaseStackCheckLib.lib(BaseStackCheckGcc.obj)
                              /home/alastair/pftf-rpi4/edk2/ArmPkg/Library/GccLto/liblto-aarch64.a (__stack_chk_fail)
/home/alastair/pftf-rpi4/Build/RPi4/RELEASE_GCC5/AARCH64/ArmPkg/Library/CompilerIntrinsicsLib/CompilerIntrinsicsLib/OUTPUT/CompilerIntrinsicsLib.lib(memcpy.obj)
                              /home/alastair/pftf-rpi4/edk2/ArmPkg/Library/GccLto/liblto-aarch64.a (memcpy)
/home/alastair/pftf-rpi4/Build/RPi4/RELEASE_GCC5/AARCH64/ArmPkg/Library/CompilerIntrinsicsLib/CompilerIntrinsicsLib/OUTPUT/CompilerIntrinsicsLib.lib(memset.obj)
                              /home/alastair/pftf-rpi4/edk2/ArmPkg/Library/GccLto/liblto-aarch64.a (memset)
/home/alastair/pftf-rpi4/Build/RPi4/RELEASE_GCC5/AARCH64/ShellPkg/Application/Shell/Shell/OUTPUT/Shell.lib(AutoGen.obj)
                              ApplicationEntryPoint.obj (symbol from plugin) (ProcessLibraryConstructorList)
/home/alastair/pftf-rpi4/Build/RPi4/RELEASE_GCC5/AARCH64/ShellPkg/Application/Shell/Shell/OUTPUT/Shell.lib(Shell.obj)
                              AutoGen.obj (symbol from plugin) (UefiMain)
/home/alastair/pftf-rpi4/Build/RPi4/RELEASE_GCC5/AARCH64/ShellPkg/Application/Shell/Shell/OUTPUT/Shell.lib(ShellParametersProtocol.obj)
                              Shell.obj (symbol from plugin) (GetNextParameter)
/home/alastair/pftf-rpi4/Build/RPi4/RELEASE_GCC5/AARCH64/ShellPkg/Application/Shell/Shell/OUTPUT/Shell.lib(ShellProtocol.obj)
                              Shell.obj (symbol from plugin) (EfiShellGetEnv)
/home/alastair/pftf-rpi4/Build/RPi4/RELEASE_GCC5/AARCH64/ShellPkg/Application/Shell/Shell/OUTPUT/Shell.lib(FileHandleWrappers.obj)
                              ShellParametersProtocol.obj (symbol from plugin) (CreateFileInterfaceEnv)
/home/alastair/pftf-rpi4/Build/RPi4/RELEASE_GCC5/AARCH64/ShellPkg/Application/Shell/Shell/OUTPUT/Shell.lib(ShellEnvVar.obj)
                              ShellProtocol.obj (symbol from plugin) (gShellEnvVarList)
/home/alastair/pftf-rpi4/Build/RPi4/RELEASE_GCC5/AARCH64/ShellPkg/Application/Shell/Shell/OUTPUT/Shell.lib(ShellManParser.obj)
                              ShellProtocol.obj (symbol from plugin) (ProcessManFile)
/home/alastair/pftf-rpi4/Build/RPi4/RELEASE_GCC5/AARCH64/ShellPkg/Application/Shell/Shell/OUTPUT/Shell.lib(ConsoleLogger.obj)
                              Shell.obj (symbol from plugin) (ConsoleLoggerUninstall)
/home/alastair/pftf-rpi4/Build/RPi4/RELEASE_GCC5/AARCH64/ShellPkg/Application/Shell/Shell/OUTPUT/Shell.lib(ConsoleWrappers.obj)
                              Shell.obj (symbol from plugin) (CreateSimpleTextInOnFile)
/home/alastair/pftf-rpi4/Build/RPi4/RELEASE_GCC5/AARCH64/MdePkg/Library/BaseMemoryLibOptDxe/BaseMemoryLibOptDxe/OUTPUT/BaseMemoryLibOptDxe.lib(MemLibGuid.obj)
                              ShellProtocol.obj (symbol from plugin) (CopyGuid)
/home/alastair/pftf-rpi4/Build/RPi4/RELEASE_GCC5/AARCH64/MdePkg/Library/BaseMemoryLibOptDxe/BaseMemoryLibOptDxe/OUTPUT/BaseMemoryLibOptDxe.lib(ZeroMemWrapper.obj)
                              ShellProtocol.obj (symbol from plugin) (ZeroMem)
/home/alastair/pftf-rpi4/Build/RPi4/RELEASE_GCC5/AARCH64/MdePkg/Library/BaseMemoryLibOptDxe/BaseMemoryLibOptDxe/OUTPUT/BaseMemoryLibOptDxe.lib(SetMem16Wrapper.obj)
                              ShellParametersProtocol.obj (symbol from plugin) (SetMem16)
/home/alastair/pftf-rpi4/Build/RPi4/RELEASE_GCC5/AARCH64/MdePkg/Library/BaseMemoryLibOptDxe/BaseMemoryLibOptDxe/OUTPUT/BaseMemoryLibOptDxe.lib(SetMemWrapper.obj)
                              FileHandleWrappers.obj (symbol from plugin) (SetMem)
/home/alastair/pftf-rpi4/Build/RPi4/RELEASE_GCC5/AARCH64/MdePkg/Library/BaseMemoryLibOptDxe/BaseMemoryLibOptDxe/OUTPUT/BaseMemoryLibOptDxe.lib(CopyMemWrapper.obj)
                              Shell.obj (symbol from plugin) (CopyMem)
/home/alastair/pftf-rpi4/Build/RPi4/RELEASE_GCC5/AARCH64/MdePkg/Library/BaseMemoryLibOptDxe/BaseMemoryLibOptDxe/OUTPUT/BaseMemoryLibOptDxe.lib(SetMem.obj)
                              SetMem16Wrapper.obj (symbol from plugin) (InternalMemSetMem16)
/home/alastair/pftf-rpi4/Build/RPi4/RELEASE_GCC5/AARCH64/MdePkg/Library/BaseMemoryLibOptDxe/BaseMemoryLibOptDxe/OUTPUT/BaseMemoryLibOptDxe.lib(CopyMem.obj)
                              MemLibGuid.obj (symbol from plugin) (InternalMemCopyMem)
/home/alastair/pftf-rpi4/Build/RPi4/RELEASE_GCC5/AARCH64/MdePkg/Library/BaseMemoryLibOptDxe/BaseMemoryLibOptDxe/OUTPUT/BaseMemoryLibOptDxe.lib(CompareGuid.obj)
                              MemLibGuid.obj (symbol from plugin) (InternalMemCompareGuid)
/home/alastair/pftf-rpi4/Build/RPi4/RELEASE_GCC5/AARCH64/MdePkg/Library/BaseMemoryLibOptDxe/BaseMemoryLibOptDxe/OUTPUT/BaseMemoryLibOptDxe.lib(SetMem64Wrapper.obj)
                              SetMemWrapper.obj (symbol from plugin) (SetMem64)
/home/alastair/pftf-rpi4/Build/RPi4/RELEASE_GCC5/AARCH64/MdePkg/Library/BaseDebugLibNull/BaseDebugLibNull/OUTPUT/BaseDebugLibNull.lib(DebugLib.obj)
                              Shell.obj (symbol from plugin) (DebugCodeEnabled)
/home/alastair/pftf-rpi4/Build/RPi4/RELEASE_GCC5/AARCH64/MdePkg/Library/BaseLib/BaseLib/OUTPUT/BaseLib.lib(CpuDeadLoop.obj)
                              BaseStackCheckGcc.obj (symbol from plugin) (CpuDeadLoop)
/home/alastair/pftf-rpi4/Build/RPi4/RELEASE_GCC5/AARCH64/MdePkg/Library/BaseLib/BaseLib/OUTPUT/BaseLib.lib(LinkedList.obj)
                              Shell.obj (symbol from plugin) (InitializeListHead)
/home/alastair/pftf-rpi4/Build/RPi4/RELEASE_GCC5/AARCH64/MdePkg/Library/BaseLib/BaseLib/OUTPUT/BaseLib.lib(SafeString.obj)
                              Shell.obj (symbol from plugin) (StrCpyS)
/home/alastair/pftf-rpi4/Build/RPi4/RELEASE_GCC5/AARCH64/MdePkg/Library/BaseLib/BaseLib/OUTPUT/BaseLib.lib(String.obj)
                              Shell.obj (symbol from plugin) (StrLen)
/home/alastair/pftf-rpi4/Build/RPi4/RELEASE_GCC5/AARCH64/MdePkg/Library/BaseLib/BaseLib/OUTPUT/BaseLib.lib(FilePaths.obj)
                              Shell.obj (symbol from plugin) (PathRemoveLastItem)
/home/alastair/pftf-rpi4/Build/RPi4/RELEASE_GCC5/AARCH64/MdePkg/Library/BaseLib/BaseLib/OUTPUT/BaseLib.lib(CpuBreakpoint.obj)
                              BaseStackCheckGcc.obj (symbol from plugin) (CpuBreakpoint)
/home/alastair/pftf-rpi4/Build/RPi4/RELEASE_GCC5/AARCH64/MdePkg/Library/BaseLib/BaseLib/OUTPUT/BaseLib.lib(SwapBytes32.obj)
                              SafeString.obj (symbol from plugin) (SwapBytes32)
/home/alastair/pftf-rpi4/Build/RPi4/RELEASE_GCC5/AARCH64/MdePkg/Library/BaseLib/BaseLib/OUTPUT/BaseLib.lib(SwapBytes16.obj)
                              SafeString.obj (symbol from plugin) (SwapBytes16)
/home/alastair/pftf-rpi4/Build/RPi4/RELEASE_GCC5/AARCH64/MdePkg/Library/BaseLib/BaseLib/OUTPUT/BaseLib.lib(RShiftU64.obj)
                              SafeString.obj (symbol from plugin) (RShiftU64)
/home/alastair/pftf-rpi4/Build/RPi4/RELEASE_GCC5/AARCH64/MdePkg/Library/BaseLib/BaseLib/OUTPUT/BaseLib.lib(MultU64x32.obj)
                              SafeString.obj (symbol from plugin) (MultU64x32)
/home/alastair/pftf-rpi4/Build/RPi4/RELEASE_GCC5/AARCH64/MdePkg/Library/BaseLib/BaseLib/OUTPUT/BaseLib.lib(LShiftU64.obj)
                              SafeString.obj (symbol from plugin) (LShiftU64)
/home/alastair/pftf-rpi4/Build/RPi4/RELEASE_GCC5/AARCH64/MdePkg/Library/BaseLib/BaseLib/OUTPUT/BaseLib.lib(DivU64x32.obj)
                              SafeString.obj (symbol from plugin) (DivU64x32)
/home/alastair/pftf-rpi4/Build/RPi4/RELEASE_GCC5/AARCH64/MdePkg/Library/BaseLib/BaseLib/OUTPUT/BaseLib.lib(Math64.obj)
                              LShiftU64.obj (symbol from plugin) (InternalMathLShiftU64)
/home/alastair/pftf-rpi4/Build/RPi4/RELEASE_GCC5/AARCH64/MdePkg/Library/UefiBootServicesTableLib/UefiBootServicesTableLib/OUTPUT/UefiBootServicesTableLib.lib(UefiBootServicesTableLib.obj)
                              AutoGen.obj (symbol from plugin) (UefiBootServicesTableLibConstructor)
/home/alastair/pftf-rpi4/Build/RPi4/RELEASE_GCC5/AARCH64/MdePkg/Library/BasePrintLib/BasePrintLib/OUTPUT/BasePrintLib.lib(PrintLib.obj)
                              Shell.obj (symbol from plugin) (UnicodeSPrint)
/home/alastair/pftf-rpi4/Build/RPi4/RELEASE_GCC5/AARCH64/MdePkg/Library/BasePrintLib/BasePrintLib/OUTPUT/BasePrintLib.lib(PrintLibInternal.obj)
                              PrintLib.obj (symbol from plugin) (BasePrintLibConvertValueToStringS)
/home/alastair/pftf-rpi4/Build/RPi4/RELEASE_GCC5/AARCH64/MdePkg/Library/UefiMemoryAllocationLib/UefiMemoryAllocationLib/OUTPUT/UefiMemoryAllocationLib.lib(MemoryAllocationLib.obj)
                              ShellProtocol.obj (symbol from plugin) (AllocatePool)
/home/alastair/pftf-rpi4/Build/RPi4/RELEASE_GCC5/AARCH64/MdePkg/Library/UefiDevicePathLib/UefiDevicePathLib/OUTPUT/UefiDevicePathLib.lib(DevicePathUtilities.obj)
                              ShellProtocol.obj (symbol from plugin) (DevicePathType)
/home/alastair/pftf-rpi4/Build/RPi4/RELEASE_GCC5/AARCH64/MdePkg/Library/UefiDevicePathLib/UefiDevicePathLib/OUTPUT/UefiDevicePathLib.lib(DevicePathUtilitiesDxeSmm.obj)
                              DevicePathUtilities.obj (symbol from plugin) (DevicePathFromHandle)
/home/alastair/pftf-rpi4/Build/RPi4/RELEASE_GCC5/AARCH64/MdePkg/Library/UefiDevicePathLib/UefiDevicePathLib/OUTPUT/UefiDevicePathLib.lib(UefiDevicePathLib.obj)
                              DevicePathUtilities.obj (symbol from plugin) (GetDevicePathSize)
/home/alastair/pftf-rpi4/Build/RPi4/RELEASE_GCC5/AARCH64/MdePkg/Library/UefiDevicePathLib/UefiDevicePathLib/OUTPUT/UefiDevicePathLib.lib(DevicePathToText.obj)
                              UefiDevicePathLib.obj (symbol from plugin) (UefiDevicePathLibConvertDeviceNodeToText)
/home/alastair/pftf-rpi4/Build/RPi4/RELEASE_GCC5/AARCH64/MdePkg/Library/UefiDevicePathLib/UefiDevicePathLib/OUTPUT/UefiDevicePathLib.lib(DevicePathFromText.obj)
                              UefiDevicePathLib.obj (symbol from plugin) (UefiDevicePathLibConvertTextToDeviceNode)
/home/alastair/pftf-rpi4/Build/RPi4/RELEASE_GCC5/AARCH64/MdePkg/Library/UefiRuntimeServicesTableLib/UefiRuntimeServicesTableLib/OUTPUT/UefiRuntimeServicesTableLib.lib(UefiRuntimeServicesTableLib.obj)
                              AutoGen.obj (symbol from plugin) (UefiRuntimeServicesTableLibConstructor)
/home/alastair/pftf-rpi4/Build/RPi4/RELEASE_GCC5/AARCH64/MdeModulePkg/Library/UefiHiiServicesLib/UefiHiiServicesLib/OUTPUT/UefiHiiServicesLib.lib(UefiHiiServicesLib.obj)
                              AutoGen.obj (symbol from plugin) (UefiHiiServicesLibConstructor)
/home/alastair/pftf-rpi4/Build/RPi4/RELEASE_GCC5/AARCH64/MdePkg/Library/UefiLib/UefiLib/OUTPUT/UefiLib.lib(UefiLib.obj)
                              AutoGen.obj (symbol from plugin) (UefiLibConstructor)
/home/alastair/pftf-rpi4/Build/RPi4/RELEASE_GCC5/AARCH64/MdeModulePkg/Library/UefiSortLib/UefiSortLib/OUTPUT/UefiSortLib.lib(UefiSortLib.obj)
                              ShellProtocol.obj (symbol from plugin) (DevicePathCompare)
/home/alastair/pftf-rpi4/Build/RPi4/RELEASE_GCC5/AARCH64/MdeModulePkg/Library/UefiHiiLib/UefiHiiLib/OUTPUT/UefiHiiLib.lib(HiiLib.obj)
                              Shell.obj (symbol from plugin) (HiiAddPackages)
/home/alastair/pftf-rpi4/Build/RPi4/RELEASE_GCC5/AARCH64/MdeModulePkg/Library/UefiHiiLib/UefiHiiLib/OUTPUT/UefiHiiLib.lib(HiiString.obj)
                              ShellManParser.obj (symbol from plugin) (HiiGetString)
/home/alastair/pftf-rpi4/Build/RPi4/RELEASE_GCC5/AARCH64/MdeModulePkg/Library/UefiHiiLib/UefiHiiLib/OUTPUT/UefiHiiLib.lib(HiiLanguage.obj)
                              HiiString.obj (symbol from plugin) (HiiGetSupportedLanguages)
/home/alastair/pftf-rpi4/Build/RPi4/RELEASE_GCC5/AARCH64/MdePkg/Library/UefiFileHandleLib/UefiFileHandleLib/OUTPUT/UefiFileHandleLib.lib(UefiFileHandleLib.obj)
                              ShellProtocol.obj (symbol from plugin) (FileHandleGetInfo)
/home/alastair/pftf-rpi4/Build/RPi4/RELEASE_GCC5/AARCH64/MdePkg/Library/DxeServicesTableLib/DxeServicesTableLib/OUTPUT/DxeServicesTableLib.lib(DxeServicesTableLib.obj)
                              AutoGen.obj (symbol from plugin) (DxeServicesTableLibConstructor)
/home/alastair/pftf-rpi4/Build/RPi4/RELEASE_GCC5/AARCH64/MdePkg/Library/DxeHobLib/DxeHobLib/OUTPUT/DxeHobLib.lib(HobLib.obj)
                              AutoGen.obj (symbol from plugin) (HobLibConstructor)
/home/alastair/pftf-rpi4/Build/RPi4/RELEASE_GCC5/AARCH64/ShellPkg/Library/UefiShellLib/UefiShellLib/OUTPUT/UefiShellLib.lib(UefiShellLib.obj)
                              Shell.obj (symbol from plugin) (gEfiShellProtocol)
/home/alastair/pftf-rpi4/Build/RPi4/RELEASE_GCC5/AARCH64/ShellPkg/Library/UefiHandleParsingLib/UefiHandleParsingLib/OUTPUT/UefiHandleParsingLib.lib(UefiHandleParsingLib.obj)
                              AutoGen.obj (symbol from plugin) (HandleParsingLibConstructor)
/home/alastair/pftf-rpi4/Build/RPi4/RELEASE_GCC5/AARCH64/ShellPkg/Library/UefiHandleParsingLib/UefiHandleParsingLib/OUTPUT/UefiHandleParsingLib.lib(AutoGen.obj)
                              UefiHandleParsingLib.obj (symbol from plugin) (UefiHandleParsingLibStrings)
/home/alastair/pftf-rpi4/Build/RPi4/RELEASE_GCC5/AARCH64/ShellPkg/Library/UefiShellCommandLib/UefiShellCommandLib/OUTPUT/UefiShellCommandLib.lib(UefiShellCommandLib.obj)
                              ShellParametersProtocol.obj (symbol from plugin) (gUnicodeCollation)
/home/alastair/pftf-rpi4/Build/RPi4/RELEASE_GCC5/AARCH64/ShellPkg/Library/UefiShellCommandLib/UefiShellCommandLib/OUTPUT/UefiShellCommandLib.lib(ConsistMapping.obj)
                              UefiShellCommandLib.obj (symbol from plugin) (ShellCommandConsistMappingInitialize)
/home/alastair/pftf-rpi4/Build/RPi4/RELEASE_GCC5/AARCH64/ShellPkg/Library/UefiShellLevel2CommandsLib/UefiShellLevel2CommandsLib/OUTPUT/UefiShellLevel2CommandsLib.lib(UefiShellLevel2CommandsLib.obj)
                              AutoGen.obj (symbol from plugin) (ShellLevel2CommandsLibConstructor)
/home/alastair/pftf-rpi4/Build/RPi4/RELEASE_GCC5/AARCH64/ShellPkg/Library/UefiShellLevel2CommandsLib/UefiShellLevel2CommandsLib/OUTPUT/UefiShellLevel2CommandsLib.lib(TimeDate.obj)
                              UefiShellLevel2CommandsLib.obj (symbol from plugin) (ShellCommandRunDate)
/home/alastair/pftf-rpi4/Build/RPi4/RELEASE_GCC5/AARCH64/ShellPkg/Library/UefiShellLevel2CommandsLib/UefiShellLevel2CommandsLib/OUTPUT/UefiShellLevel2CommandsLib.lib(Load.obj)
                              UefiShellLevel2CommandsLib.obj (symbol from plugin) (ShellCommandRunLoad)
/home/alastair/pftf-rpi4/Build/RPi4/RELEASE_GCC5/AARCH64/ShellPkg/Library/UefiShellLevel2CommandsLib/UefiShellLevel2CommandsLib/OUTPUT/UefiShellLevel2CommandsLib.lib(Ls.obj)
                              UefiShellLevel2CommandsLib.obj (symbol from plugin) (ShellCommandRunLs)
/home/alastair/pftf-rpi4/Build/RPi4/RELEASE_GCC5/AARCH64/ShellPkg/Library/UefiShellLevel2CommandsLib/UefiShellLevel2CommandsLib/OUTPUT/UefiShellLevel2CommandsLib.lib(Map.obj)
                              UefiShellLevel2CommandsLib.obj (symbol from plugin) (ShellCommandRunMap)
/home/alastair/pftf-rpi4/Build/RPi4/RELEASE_GCC5/AARCH64/ShellPkg/Library/UefiShellLevel2CommandsLib/UefiShellLevel2CommandsLib/OUTPUT/UefiShellLevel2CommandsLib.lib(Reset.obj)
                              UefiShellLevel2CommandsLib.obj (symbol from plugin) (ShellCommandRunReset)
/home/alastair/pftf-rpi4/Build/RPi4/RELEASE_GCC5/AARCH64/ShellPkg/Library/UefiShellLevel2CommandsLib/UefiShellLevel2CommandsLib/OUTPUT/UefiShellLevel2CommandsLib.lib(Set.obj)
                              UefiShellLevel2CommandsLib.obj (symbol from plugin) (ShellCommandRunSet)
/home/alastair/pftf-rpi4/Build/RPi4/RELEASE_GCC5/AARCH64/ShellPkg/Library/UefiShellLevel2CommandsLib/UefiShellLevel2CommandsLib/OUTPUT/UefiShellLevel2CommandsLib.lib(MkDir.obj)
                              UefiShellLevel2CommandsLib.obj (symbol from plugin) (ShellCommandRunMkDir)
/home/alastair/pftf-rpi4/Build/RPi4/RELEASE_GCC5/AARCH64/ShellPkg/Library/UefiShellLevel2CommandsLib/UefiShellLevel2CommandsLib/OUTPUT/UefiShellLevel2CommandsLib.lib(Cd.obj)
                              UefiShellLevel2CommandsLib.obj (symbol from plugin) (ShellCommandRunCd)
/home/alastair/pftf-rpi4/Build/RPi4/RELEASE_GCC5/AARCH64/ShellPkg/Library/UefiShellLevel2CommandsLib/UefiShellLevel2CommandsLib/OUTPUT/UefiShellLevel2CommandsLib.lib(Cp.obj)
                              UefiShellLevel2CommandsLib.obj (symbol from plugin) (ShellCommandRunCp)
/home/alastair/pftf-rpi4/Build/RPi4/RELEASE_GCC5/AARCH64/ShellPkg/Library/UefiShellLevel2CommandsLib/UefiShellLevel2CommandsLib/OUTPUT/UefiShellLevel2CommandsLib.lib(Parse.obj)
                              UefiShellLevel2CommandsLib.obj (symbol from plugin) (ShellCommandRunParse)
/home/alastair/pftf-rpi4/Build/RPi4/RELEASE_GCC5/AARCH64/ShellPkg/Library/UefiShellLevel2CommandsLib/UefiShellLevel2CommandsLib/OUTPUT/UefiShellLevel2CommandsLib.lib(Rm.obj)
                              UefiShellLevel2CommandsLib.obj (symbol from plugin) (ShellCommandRunRm)
/home/alastair/pftf-rpi4/Build/RPi4/RELEASE_GCC5/AARCH64/ShellPkg/Library/UefiShellLevel2CommandsLib/UefiShellLevel2CommandsLib/OUTPUT/UefiShellLevel2CommandsLib.lib(Mv.obj)
                              UefiShellLevel2CommandsLib.obj (symbol from plugin) (ShellCommandRunMv)
/home/alastair/pftf-rpi4/Build/RPi4/RELEASE_GCC5/AARCH64/ShellPkg/Library/UefiShellLevel2CommandsLib/UefiShellLevel2CommandsLib/OUTPUT/UefiShellLevel2CommandsLib.lib(Attrib.obj)
                              UefiShellLevel2CommandsLib.obj (symbol from plugin) (ShellCommandRunAttrib)
/home/alastair/pftf-rpi4/Build/RPi4/RELEASE_GCC5/AARCH64/ShellPkg/Library/UefiShellLevel2CommandsLib/UefiShellLevel2CommandsLib/OUTPUT/UefiShellLevel2CommandsLib.lib(Vol.obj)
                              UefiShellLevel2CommandsLib.obj (symbol from plugin) (ShellCommandRunVol)
/home/alastair/pftf-rpi4/Build/RPi4/RELEASE_GCC5/AARCH64/ShellPkg/Library/UefiShellLevel2CommandsLib/UefiShellLevel2CommandsLib/OUTPUT/UefiShellLevel2CommandsLib.lib(AutoGen.obj)
                              UefiShellLevel2CommandsLib.obj (symbol from plugin) (UefiShellLevel2CommandsLibStrings)
/home/alastair/pftf-rpi4/Build/RPi4/RELEASE_GCC5/AARCH64/ShellPkg/Library/UefiShellLevel1CommandsLib/UefiShellLevel1CommandsLib/OUTPUT/UefiShellLevel1CommandsLib.lib(UefiShellLevel1CommandsLib.obj)
                              AutoGen.obj (symbol from plugin) (ShellLevel1CommandsLibConstructor)
/home/alastair/pftf-rpi4/Build/RPi4/RELEASE_GCC5/AARCH64/ShellPkg/Library/UefiShellLevel1CommandsLib/UefiShellLevel1CommandsLib/OUTPUT/UefiShellLevel1CommandsLib.lib(Exit.obj)
                              UefiShellLevel1CommandsLib.obj (symbol from plugin) (ShellCommandRunExit)
/home/alastair/pftf-rpi4/Build/RPi4/RELEASE_GCC5/AARCH64/ShellPkg/Library/UefiShellLevel1CommandsLib/UefiShellLevel1CommandsLib/OUTPUT/UefiShellLevel1CommandsLib.lib(Goto.obj)
                              UefiShellLevel1CommandsLib.obj (symbol from plugin) (ShellCommandRunGoto)
/home/alastair/pftf-rpi4/Build/RPi4/RELEASE_GCC5/AARCH64/ShellPkg/Library/UefiShellLevel1CommandsLib/UefiShellLevel1CommandsLib/OUTPUT/UefiShellLevel1CommandsLib.lib(If.obj)
                              UefiShellLevel1CommandsLib.obj (symbol from plugin) (ShellCommandRunIf)
/home/alastair/pftf-rpi4/Build/RPi4/RELEASE_GCC5/AARCH64/ShellPkg/Library/UefiShellLevel1CommandsLib/UefiShellLevel1CommandsLib/OUTPUT/UefiShellLevel1CommandsLib.lib(For.obj)
                              UefiShellLevel1CommandsLib.obj (symbol from plugin) (ShellCommandRunEndFor)
/home/alastair/pftf-rpi4/Build/RPi4/RELEASE_GCC5/AARCH64/ShellPkg/Library/UefiShellLevel1CommandsLib/UefiShellLevel1CommandsLib/OUTPUT/UefiShellLevel1CommandsLib.lib(Shift.obj)
                              UefiShellLevel1CommandsLib.obj (symbol from plugin) (ShellCommandRunShift)
/home/alastair/pftf-rpi4/Build/RPi4/RELEASE_GCC5/AARCH64/ShellPkg/Library/UefiShellLevel1CommandsLib/UefiShellLevel1CommandsLib/OUTPUT/UefiShellLevel1CommandsLib.lib(Stall.obj)
                              UefiShellLevel1CommandsLib.obj (symbol from plugin) (ShellCommandRunStall)
/home/alastair/pftf-rpi4/Build/RPi4/RELEASE_GCC5/AARCH64/ShellPkg/Library/UefiShellLevel1CommandsLib/UefiShellLevel1CommandsLib/OUTPUT/UefiShellLevel1CommandsLib.lib(AutoGen.obj)
                              UefiShellLevel1CommandsLib.obj (symbol from plugin) (UefiShellLevel1CommandsLibStrings)
/home/alastair/pftf-rpi4/Build/RPi4/RELEASE_GCC5/AARCH64/ShellPkg/Library/UefiShellLevel3CommandsLib/UefiShellLevel3CommandsLib/OUTPUT/UefiShellLevel3CommandsLib.lib(UefiShellLevel3CommandsLib.obj)
                              AutoGen.obj (symbol from plugin) (ShellLevel3CommandsLibConstructor)
/home/alastair/pftf-rpi4/Build/RPi4/RELEASE_GCC5/AARCH64/ShellPkg/Library/UefiShellLevel3CommandsLib/UefiShellLevel3CommandsLib/OUTPUT/UefiShellLevel3CommandsLib.lib(Cls.obj)
                              UefiShellLevel3CommandsLib.obj (symbol from plugin) (ShellCommandRunCls)
/home/alastair/pftf-rpi4/Build/RPi4/RELEASE_GCC5/AARCH64/ShellPkg/Library/UefiShellLevel3CommandsLib/UefiShellLevel3CommandsLib/OUTPUT/UefiShellLevel3CommandsLib.lib(Alias.obj)
                              UefiShellLevel3CommandsLib.obj (symbol from plugin) (ShellCommandRunAlias)
/home/alastair/pftf-rpi4/Build/RPi4/RELEASE_GCC5/AARCH64/ShellPkg/Library/UefiShellLevel3CommandsLib/UefiShellLevel3CommandsLib/OUTPUT/UefiShellLevel3CommandsLib.lib(Echo.obj)
                              UefiShellLevel3CommandsLib.obj (symbol from plugin) (ShellCommandRunEcho)
/home/alastair/pftf-rpi4/Build/RPi4/RELEASE_GCC5/AARCH64/ShellPkg/Library/UefiShellLevel3CommandsLib/UefiShellLevel3CommandsLib/OUTPUT/UefiShellLevel3CommandsLib.lib(Pause.obj)
                              UefiShellLevel3CommandsLib.obj (symbol from plugin) (ShellCommandRunPause)
/home/alastair/pftf-rpi4/Build/RPi4/RELEASE_GCC5/AARCH64/ShellPkg/Library/UefiShellLevel3CommandsLib/UefiShellLevel3CommandsLib/OUTPUT/UefiShellLevel3CommandsLib.lib(GetMtc.obj)
                              UefiShellLevel3CommandsLib.obj (symbol from plugin) (ShellCommandRunGetMtc)
/home/alastair/pftf-rpi4/Build/RPi4/RELEASE_GCC5/AARCH64/ShellPkg/Library/UefiShellLevel3CommandsLib/UefiShellLevel3CommandsLib/OUTPUT/UefiShellLevel3CommandsLib.lib(Help.obj)
                              UefiShellLevel3CommandsLib.obj (symbol from plugin) (ShellCommandRunHelp)
/home/alastair/pftf-rpi4/Build/RPi4/RELEASE_GCC5/AARCH64/ShellPkg/Library/UefiShellLevel3CommandsLib/UefiShellLevel3CommandsLib/OUTPUT/UefiShellLevel3CommandsLib.lib(AutoGen.obj)
                              UefiShellLevel3CommandsLib.obj (symbol from plugin) (UefiShellLevel3CommandsLibStrings)
/home/alastair/pftf-rpi4/Build/RPi4/RELEASE_GCC5/AARCH64/ShellPkg/Library/UefiShellLevel3CommandsLib/UefiShellLevel3CommandsLib/OUTPUT/UefiShellLevel3CommandsLib.lib(Type.obj)
                              UefiShellLevel3CommandsLib.obj (symbol from plugin) (ShellCommandRunType)
/home/alastair/pftf-rpi4/Build/RPi4/RELEASE_GCC5/AARCH64/ShellPkg/Library/UefiShellLevel3CommandsLib/UefiShellLevel3CommandsLib/OUTPUT/UefiShellLevel3CommandsLib.lib(Touch.obj)
                              UefiShellLevel3CommandsLib.obj (symbol from plugin) (ShellCommandRunTouch)
/home/alastair/pftf-rpi4/Build/RPi4/RELEASE_GCC5/AARCH64/ShellPkg/Library/UefiShellLevel3CommandsLib/UefiShellLevel3CommandsLib/OUTPUT/UefiShellLevel3CommandsLib.lib(Ver.obj)
                              UefiShellLevel3CommandsLib.obj (symbol from plugin) (ShellCommandRunVer)
/home/alastair/pftf-rpi4/Build/RPi4/RELEASE_GCC5/AARCH64/ShellPkg/Library/UefiShellDriver1CommandsLib/UefiShellDriver1CommandsLib/OUTPUT/UefiShellDriver1CommandsLib.lib(UefiShellDriver1CommandsLib.obj)
                              AutoGen.obj (symbol from plugin) (UefiShellDriver1CommandsLibConstructor)
/home/alastair/pftf-rpi4/Build/RPi4/RELEASE_GCC5/AARCH64/ShellPkg/Library/UefiShellDriver1CommandsLib/UefiShellDriver1CommandsLib/OUTPUT/UefiShellDriver1CommandsLib.lib(AutoGen.obj)
                              UefiShellDriver1CommandsLib.obj (symbol from plugin) (UefiShellDriver1CommandsLibStrings)
/home/alastair/pftf-rpi4/Build/RPi4/RELEASE_GCC5/AARCH64/ShellPkg/Library/UefiShellDriver1CommandsLib/UefiShellDriver1CommandsLib/OUTPUT/UefiShellDriver1CommandsLib.lib(Connect.obj)
                              UefiShellDriver1CommandsLib.obj (symbol from plugin) (ShellCommandRunConnect)
/home/alastair/pftf-rpi4/Build/RPi4/RELEASE_GCC5/AARCH64/ShellPkg/Library/UefiShellDriver1CommandsLib/UefiShellDriver1CommandsLib/OUTPUT/UefiShellDriver1CommandsLib.lib(Devices.obj)
                              UefiShellDriver1CommandsLib.obj (symbol from plugin) (ShellCommandRunDevices)
/home/alastair/pftf-rpi4/Build/RPi4/RELEASE_GCC5/AARCH64/ShellPkg/Library/UefiShellDriver1CommandsLib/UefiShellDriver1CommandsLib/OUTPUT/UefiShellDriver1CommandsLib.lib(OpenInfo.obj)
                              UefiShellDriver1CommandsLib.obj (symbol from plugin) (ShellCommandRunOpenInfo)
/home/alastair/pftf-rpi4/Build/RPi4/RELEASE_GCC5/AARCH64/ShellPkg/Library/UefiShellDriver1CommandsLib/UefiShellDriver1CommandsLib/OUTPUT/UefiShellDriver1CommandsLib.lib(Disconnect.obj)
                              UefiShellDriver1CommandsLib.obj (symbol from plugin) (ShellCommandRunDisconnect)
/home/alastair/pftf-rpi4/Build/RPi4/RELEASE_GCC5/AARCH64/ShellPkg/Library/UefiShellDriver1CommandsLib/UefiShellDriver1CommandsLib/OUTPUT/UefiShellDriver1CommandsLib.lib(Reconnect.obj)
                              UefiShellDriver1CommandsLib.obj (symbol from plugin) (ShellCommandRunReconnect)
/home/alastair/pftf-rpi4/Build/RPi4/RELEASE_GCC5/AARCH64/ShellPkg/Library/UefiShellDriver1CommandsLib/UefiShellDriver1CommandsLib/OUTPUT/UefiShellDriver1CommandsLib.lib(Unload.obj)
                              UefiShellDriver1CommandsLib.obj (symbol from plugin) (ShellCommandRunUnload)
/home/alastair/pftf-rpi4/Build/RPi4/RELEASE_GCC5/AARCH64/ShellPkg/Library/UefiShellDriver1CommandsLib/UefiShellDriver1CommandsLib/OUTPUT/UefiShellDriver1CommandsLib.lib(DrvDiag.obj)
                              UefiShellDriver1CommandsLib.obj (symbol from plugin) (ShellCommandRunDrvDiag)
/home/alastair/pftf-rpi4/Build/RPi4/RELEASE_GCC5/AARCH64/ShellPkg/Library/UefiShellDriver1CommandsLib/UefiShellDriver1CommandsLib/OUTPUT/UefiShellDriver1CommandsLib.lib(Dh.obj)
                              UefiShellDriver1CommandsLib.obj (symbol from plugin) (ShellCommandRunDh)
/home/alastair/pftf-rpi4/Build/RPi4/RELEASE_GCC5/AARCH64/ShellPkg/Library/UefiShellDriver1CommandsLib/UefiShellDriver1CommandsLib/OUTPUT/UefiShellDriver1CommandsLib.lib(Drivers.obj)
                              UefiShellDriver1CommandsLib.obj (symbol from plugin) (ShellCommandRunDrivers)
/home/alastair/pftf-rpi4/Build/RPi4/RELEASE_GCC5/AARCH64/ShellPkg/Library/UefiShellDriver1CommandsLib/UefiShellDriver1CommandsLib/OUTPUT/UefiShellDriver1CommandsLib.lib(DevTree.obj)
                              UefiShellDriver1CommandsLib.obj (symbol from plugin) (ShellCommandRunDevTree)
/home/alastair/pftf-rpi4/Build/RPi4/RELEASE_GCC5/AARCH64/ShellPkg/Library/UefiShellDriver1CommandsLib/UefiShellDriver1CommandsLib/OUTPUT/UefiShellDriver1CommandsLib.lib(DrvCfg.obj)
                              UefiShellDriver1CommandsLib.obj (symbol from plugin) (ShellCommandRunDrvCfg)
/home/alastair/pftf-rpi4/Build/RPi4/RELEASE_GCC5/AARCH64/ShellPkg/Library/UefiShellDebug1CommandsLib/UefiShellDebug1CommandsLib/OUTPUT/UefiShellDebug1CommandsLib.lib(UefiShellDebug1CommandsLib.obj)
                              AutoGen.obj (symbol from plugin) (UefiShellDebug1CommandsLibConstructor)
/home/alastair/pftf-rpi4/Build/RPi4/RELEASE_GCC5/AARCH64/ShellPkg/Library/UefiShellDebug1CommandsLib/UefiShellDebug1CommandsLib/OUTPUT/UefiShellDebug1CommandsLib.lib(Edit.obj)
                              UefiShellDebug1CommandsLib.obj (symbol from plugin) (ShellCommandRunEdit)
/home/alastair/pftf-rpi4/Build/RPi4/RELEASE_GCC5/AARCH64/ShellPkg/Library/UefiShellDebug1CommandsLib/UefiShellDebug1CommandsLib/OUTPUT/UefiShellDebug1CommandsLib.lib(FileBuffer.obj)
                              Edit.obj (symbol from plugin) (FileBufferSetFileName)
/home/alastair/pftf-rpi4/Build/RPi4/RELEASE_GCC5/AARCH64/ShellPkg/Library/UefiShellDebug1CommandsLib/UefiShellDebug1CommandsLib/OUTPUT/UefiShellDebug1CommandsLib.lib(MainTextEditor.obj)
                              Edit.obj (symbol from plugin) (MainEditor)
/home/alastair/pftf-rpi4/Build/RPi4/RELEASE_GCC5/AARCH64/ShellPkg/Library/UefiShellDebug1CommandsLib/UefiShellDebug1CommandsLib/OUTPUT/UefiShellDebug1CommandsLib.lib(Misc.obj)
                              FileBuffer.obj (symbol from plugin) (LineDup)
/home/alastair/pftf-rpi4/Build/RPi4/RELEASE_GCC5/AARCH64/ShellPkg/Library/UefiShellDebug1CommandsLib/UefiShellDebug1CommandsLib/OUTPUT/UefiShellDebug1CommandsLib.lib(HexEdit.obj)
                              UefiShellDebug1CommandsLib.obj (symbol from plugin) (ShellCommandRunHexEdit)
/home/alastair/pftf-rpi4/Build/RPi4/RELEASE_GCC5/AARCH64/ShellPkg/Library/UefiShellDebug1CommandsLib/UefiShellDebug1CommandsLib/OUTPUT/UefiShellDebug1CommandsLib.lib(MainHexEditor.obj)
                              HexEdit.obj (symbol from plugin) (HMainEditorInit)
/home/alastair/pftf-rpi4/Build/RPi4/RELEASE_GCC5/AARCH64/ShellPkg/Library/UefiShellDebug1CommandsLib/UefiShellDebug1CommandsLib/OUTPUT/UefiShellDebug1CommandsLib.lib(Misc.obj)
                              MainHexEditor.obj (symbol from plugin) (HGetTextX)
/home/alastair/pftf-rpi4/Build/RPi4/RELEASE_GCC5/AARCH64/ShellPkg/Library/UefiShellDebug1CommandsLib/UefiShellDebug1CommandsLib/OUTPUT/UefiShellDebug1CommandsLib.lib(AutoGen.obj)
                              UefiShellDebug1CommandsLib.obj (symbol from plugin) (UefiShellDebug1CommandsLibStrings)
/home/alastair/pftf-rpi4/Build/RPi4/RELEASE_GCC5/AARCH64/ShellPkg/Library/UefiShellDebug1CommandsLib/UefiShellDebug1CommandsLib/OUTPUT/UefiShellDebug1CommandsLib.lib(SetSize.obj)
                              UefiShellDebug1CommandsLib.obj (symbol from plugin) (ShellCommandRunSetSize)
/home/alastair/pftf-rpi4/Build/RPi4/RELEASE_GCC5/AARCH64/ShellPkg/Library/UefiShellDebug1CommandsLib/UefiShellDebug1CommandsLib/OUTPUT/UefiShellDebug1CommandsLib.lib(Comp.obj)
                              UefiShellDebug1CommandsLib.obj (symbol from plugin) (ShellCommandRunComp)
/home/alastair/pftf-rpi4/Build/RPi4/RELEASE_GCC5/AARCH64/ShellPkg/Library/UefiShellDebug1CommandsLib/UefiShellDebug1CommandsLib/OUTPUT/UefiShellDebug1CommandsLib.lib(Mode.obj)
                              UefiShellDebug1CommandsLib.obj (symbol from plugin) (ShellCommandRunMode)
/home/alastair/pftf-rpi4/Build/RPi4/RELEASE_GCC5/AARCH64/ShellPkg/Library/UefiShellDebug1CommandsLib/UefiShellDebug1CommandsLib/OUTPUT/UefiShellDebug1CommandsLib.lib(MemMap.obj)
                              UefiShellDebug1CommandsLib.obj (symbol from plugin) (ShellCommandRunMemMap)
/home/alastair/pftf-rpi4/Build/RPi4/RELEASE_GCC5/AARCH64/ShellPkg/Library/UefiShellDebug1CommandsLib/UefiShellDebug1CommandsLib/OUTPUT/UefiShellDebug1CommandsLib.lib(EfiCompress.obj)
                              UefiShellDebug1CommandsLib.obj (symbol from plugin) (ShellCommandRunEfiCompress)
/home/alastair/pftf-rpi4/Build/RPi4/RELEASE_GCC5/AARCH64/ShellPkg/Library/UefiShellDebug1CommandsLib/UefiShellDebug1CommandsLib/OUTPUT/UefiShellDebug1CommandsLib.lib(EfiDecompress.obj)
                              UefiShellDebug1CommandsLib.obj (symbol from plugin) (ShellCommandRunEfiDecompress)
/home/alastair/pftf-rpi4/Build/RPi4/RELEASE_GCC5/AARCH64/ShellPkg/Library/UefiShellDebug1CommandsLib/UefiShellDebug1CommandsLib/OUTPUT/UefiShellDebug1CommandsLib.lib(Dmem.obj)
                              UefiShellDebug1CommandsLib.obj (symbol from plugin) (ShellCommandRunDmem)
/home/alastair/pftf-rpi4/Build/RPi4/RELEASE_GCC5/AARCH64/ShellPkg/Library/UefiShellDebug1CommandsLib/UefiShellDebug1CommandsLib/OUTPUT/UefiShellDebug1CommandsLib.lib(LoadPciRom.obj)
                              UefiShellDebug1CommandsLib.obj (symbol from plugin) (ShellCommandRunLoadPciRom)
/home/alastair/pftf-rpi4/Build/RPi4/RELEASE_GCC5/AARCH64/ShellPkg/Library/UefiShellDebug1CommandsLib/UefiShellDebug1CommandsLib/OUTPUT/UefiShellDebug1CommandsLib.lib(Mm.obj)
                              UefiShellDebug1CommandsLib.obj (symbol from plugin) (ShellCommandRunMm)
/home/alastair/pftf-rpi4/Build/RPi4/RELEASE_GCC5/AARCH64/ShellPkg/Library/UefiShellDebug1CommandsLib/UefiShellDebug1CommandsLib/OUTPUT/UefiShellDebug1CommandsLib.lib(SetVar.obj)
                              UefiShellDebug1CommandsLib.obj (symbol from plugin) (ShellCommandRunSetVar)
/home/alastair/pftf-rpi4/Build/RPi4/RELEASE_GCC5/AARCH64/ShellPkg/Library/UefiShellDebug1CommandsLib/UefiShellDebug1CommandsLib/OUTPUT/UefiShellDebug1CommandsLib.lib(SerMode.obj)
                              UefiShellDebug1CommandsLib.obj (symbol from plugin) (ShellCommandRunSerMode)
/home/alastair/pftf-rpi4/Build/RPi4/RELEASE_GCC5/AARCH64/ShellPkg/Library/UefiShellDebug1CommandsLib/UefiShellDebug1CommandsLib/OUTPUT/UefiShellDebug1CommandsLib.lib(Pci.obj)
                              UefiShellDebug1CommandsLib.obj (symbol from plugin) (ShellCommandRunPci)
/home/alastair/pftf-rpi4/Build/RPi4/RELEASE_GCC5/AARCH64/ShellPkg/Library/UefiShellDebug1CommandsLib/UefiShellDebug1CommandsLib/OUTPUT/UefiShellDebug1CommandsLib.lib(DmpStore.obj)
                              UefiShellDebug1CommandsLib.obj (symbol from plugin) (ShellCommandRunDmpStore)
/home/alastair/pftf-rpi4/Build/RPi4/RELEASE_GCC5/AARCH64/ShellPkg/Library/UefiShellDebug1CommandsLib/UefiShellDebug1CommandsLib/OUTPUT/UefiShellDebug1CommandsLib.lib(Dblk.obj)
                              UefiShellDebug1CommandsLib.obj (symbol from plugin) (ShellCommandRunDblk)
/home/alastair/pftf-rpi4/Build/RPi4/RELEASE_GCC5/AARCH64/ShellPkg/Library/UefiShellDebug1CommandsLib/UefiShellDebug1CommandsLib/OUTPUT/UefiShellDebug1CommandsLib.lib(SmbiosView.obj)
                              UefiShellDebug1CommandsLib.obj (symbol from plugin) (ShellCommandRunSmbiosView)
/home/alastair/pftf-rpi4/Build/RPi4/RELEASE_GCC5/AARCH64/ShellPkg/Library/UefiShellDebug1CommandsLib/UefiShellDebug1CommandsLib/OUTPUT/UefiShellDebug1CommandsLib.lib(LibSmbiosView.obj)
                              SmbiosView.obj (symbol from plugin) (LibSmbiosInit)
/home/alastair/pftf-rpi4/Build/RPi4/RELEASE_GCC5/AARCH64/ShellPkg/Library/UefiShellDebug1CommandsLib/UefiShellDebug1CommandsLib/OUTPUT/UefiShellDebug1CommandsLib.lib(EditTitleBar.obj)
                              MainTextEditor.obj (symbol from plugin) (MainTitleBarInit)
/home/alastair/pftf-rpi4/Build/RPi4/RELEASE_GCC5/AARCH64/ShellPkg/Library/UefiShellDebug1CommandsLib/UefiShellDebug1CommandsLib/OUTPUT/UefiShellDebug1CommandsLib.lib(EditInputBar.obj)
                              MainTextEditor.obj (symbol from plugin) (InputBarInit)
/home/alastair/pftf-rpi4/Build/RPi4/RELEASE_GCC5/AARCH64/ShellPkg/Library/UefiShellDebug1CommandsLib/UefiShellDebug1CommandsLib/OUTPUT/UefiShellDebug1CommandsLib.lib(EditStatusBar.obj)
                              MainTextEditor.obj (symbol from plugin) (StatusBarCleanup)
/home/alastair/pftf-rpi4/Build/RPi4/RELEASE_GCC5/AARCH64/ShellPkg/Library/UefiShellDebug1CommandsLib/UefiShellDebug1CommandsLib/OUTPUT/UefiShellDebug1CommandsLib.lib(EditMenuBar.obj)
                              MainTextEditor.obj (symbol from plugin) (MenuBarCleanup)
/home/alastair/pftf-rpi4/Build/RPi4/RELEASE_GCC5/AARCH64/ShellPkg/Library/UefiShellDebug1CommandsLib/UefiShellDebug1CommandsLib/OUTPUT/UefiShellDebug1CommandsLib.lib(BufferImage.obj)
                              MainHexEditor.obj (symbol from plugin) (HBufferImage)
/home/alastair/pftf-rpi4/Build/RPi4/RELEASE_GCC5/AARCH64/ShellPkg/Library/UefiShellDebug1CommandsLib/UefiShellDebug1CommandsLib/OUTPUT/UefiShellDebug1CommandsLib.lib(Clipboard.obj)
                              MainHexEditor.obj (symbol from plugin) (HClipBoardInit)
/home/alastair/pftf-rpi4/Build/RPi4/RELEASE_GCC5/AARCH64/ShellPkg/Library/UefiShellDebug1CommandsLib/UefiShellDebug1CommandsLib/OUTPUT/UefiShellDebug1CommandsLib.lib(DiskImage.obj)
                              BufferImage.obj (symbol from plugin) (HDiskImageInit)
/home/alastair/pftf-rpi4/Build/RPi4/RELEASE_GCC5/AARCH64/ShellPkg/Library/UefiShellDebug1CommandsLib/UefiShellDebug1CommandsLib/OUTPUT/UefiShellDebug1CommandsLib.lib(FileImage.obj)
                              BufferImage.obj (symbol from plugin) (HFileImageInit)
/home/alastair/pftf-rpi4/Build/RPi4/RELEASE_GCC5/AARCH64/ShellPkg/Library/UefiShellDebug1CommandsLib/UefiShellDebug1CommandsLib/OUTPUT/UefiShellDebug1CommandsLib.lib(MemImage.obj)
                              BufferImage.obj (symbol from plugin) (HMemImage)
/home/alastair/pftf-rpi4/Build/RPi4/RELEASE_GCC5/AARCH64/ShellPkg/Library/UefiShellDebug1CommandsLib/UefiShellDebug1CommandsLib/OUTPUT/UefiShellDebug1CommandsLib.lib(Compress.obj)
                              EfiCompress.obj (symbol from plugin) (Compress)
/home/alastair/pftf-rpi4/Build/RPi4/RELEASE_GCC5/AARCH64/ShellPkg/Library/UefiShellDebug1CommandsLib/UefiShellDebug1CommandsLib/OUTPUT/UefiShellDebug1CommandsLib.lib(PrintInfo.obj)
                              SmbiosView.obj (symbol from plugin) (SmbiosPrintEPSInfo)
/home/alastair/pftf-rpi4/Build/RPi4/RELEASE_GCC5/AARCH64/ShellPkg/Library/UefiShellDebug1CommandsLib/UefiShellDebug1CommandsLib/OUTPUT/UefiShellDebug1CommandsLib.lib(QueryTable.obj)
                              PrintInfo.obj (symbol from plugin) (DisplaySystemWakeupType)
/home/alastair/pftf-rpi4/Build/RPi4/RELEASE_GCC5/AARCH64/ShellPkg/Library/UefiShellDebug1CommandsLib/UefiShellDebug1CommandsLib/OUTPUT/UefiShellDebug1CommandsLib.lib(EventLogInfo.obj)
                              PrintInfo.obj (symbol from plugin) (DisplaySELAccessMethod)
/home/alastair/pftf-rpi4/Build/RPi4/RELEASE_GCC5/AARCH64/ShellPkg/Library/UefiShellInstall1CommandsLib/UefiShellInstall1CommandsLib/OUTPUT/UefiShellInstall1CommandsLib.lib(UefiShellInstall1CommandsLib.obj)
                              AutoGen.obj (symbol from plugin) (ShellInstall1CommandsLibConstructor)
/home/alastair/pftf-rpi4/Build/RPi4/RELEASE_GCC5/AARCH64/ShellPkg/Library/UefiShellNetwork1CommandsLib/UefiShellNetwork1CommandsLib/OUTPUT/UefiShellNetwork1CommandsLib.lib(UefiShellNetwork1CommandsLib.obj)
                              AutoGen.obj (symbol from plugin) (ShellNetwork1CommandsLibConstructor)
/home/alastair/pftf-rpi4/Build/RPi4/RELEASE_GCC5/AARCH64/ShellPkg/Library/UefiShellNetwork1CommandsLib/UefiShellNetwork1CommandsLib/OUTPUT/UefiShellNetwork1CommandsLib.lib(Ping.obj)
                              UefiShellNetwork1CommandsLib.obj (symbol from plugin) (ShellCommandRunPing)
/home/alastair/pftf-rpi4/Build/RPi4/RELEASE_GCC5/AARCH64/ShellPkg/Library/UefiShellNetwork1CommandsLib/UefiShellNetwork1CommandsLib/OUTPUT/UefiShellNetwork1CommandsLib.lib(Ifconfig.obj)
                              UefiShellNetwork1CommandsLib.obj (symbol from plugin) (ShellCommandRunIfconfig)
/home/alastair/pftf-rpi4/Build/RPi4/RELEASE_GCC5/AARCH64/ShellPkg/Library/UefiShellNetwork1CommandsLib/UefiShellNetwork1CommandsLib/OUTPUT/UefiShellNetwork1CommandsLib.lib(AutoGen.obj)
                              UefiShellNetwork1CommandsLib.obj (symbol from plugin) (UefiShellNetwork1CommandsLibStrings)
/home/alastair/pftf-rpi4/Build/RPi4/RELEASE_GCC5/AARCH64/ShellPkg/Library/UefiShellAcpiViewCommandLib/UefiShellAcpiViewCommandLib/OUTPUT/UefiShellAcpiViewCommandLib.lib(UefiShellAcpiViewCommandLib.obj)
                              AutoGen.obj (symbol from plugin) (UefiShellAcpiViewCommandLibConstructor)
/home/alastair/pftf-rpi4/Build/RPi4/RELEASE_GCC5/AARCH64/ShellPkg/Library/UefiShellAcpiViewCommandLib/UefiShellAcpiViewCommandLib/OUTPUT/UefiShellAcpiViewCommandLib.lib(AutoGen.obj)
                              UefiShellAcpiViewCommandLib.obj (symbol from plugin) (UefiShellAcpiViewCommandLibStrings)
/home/alastair/pftf-rpi4/Build/RPi4/RELEASE_GCC5/AARCH64/ShellPkg/Library/UefiShellAcpiViewCommandLib/UefiShellAcpiViewCommandLib/OUTPUT/UefiShellAcpiViewCommandLib.lib(AcpiTableParser.obj)
                              UefiShellAcpiViewCommandLib.obj (symbol from plugin) (RegisterParser)
/home/alastair/pftf-rpi4/Build/RPi4/RELEASE_GCC5/AARCH64/ShellPkg/Library/UefiShellAcpiViewCommandLib/UefiShellAcpiViewCommandLib/OUTPUT/UefiShellAcpiViewCommandLib.lib(AcpiView.obj)
                              AcpiTableParser.obj (symbol from plugin) (ProcessTableReportOptions)
/home/alastair/pftf-rpi4/Build/RPi4/RELEASE_GCC5/AARCH64/ShellPkg/Library/UefiShellAcpiViewCommandLib/UefiShellAcpiViewCommandLib/OUTPUT/UefiShellAcpiViewCommandLib.lib(AcpiViewConfig.obj)
                              UefiShellAcpiViewCommandLib.obj (symbol from plugin) (AcpiConfigSetDefaults)
/home/alastair/pftf-rpi4/Build/RPi4/RELEASE_GCC5/AARCH64/ShellPkg/Library/UefiShellAcpiViewCommandLib/UefiShellAcpiViewCommandLib/OUTPUT/UefiShellAcpiViewCommandLib.lib(AestParser.obj)
                              UefiShellAcpiViewCommandLib.obj (symbol from plugin) (ParseAcpiAest)
/home/alastair/pftf-rpi4/Build/RPi4/RELEASE_GCC5/AARCH64/ShellPkg/Library/UefiShellAcpiViewCommandLib/UefiShellAcpiViewCommandLib/OUTPUT/UefiShellAcpiViewCommandLib.lib(BgrtParser.obj)
                              UefiShellAcpiViewCommandLib.obj (symbol from plugin) (ParseAcpiBgrt)
/home/alastair/pftf-rpi4/Build/RPi4/RELEASE_GCC5/AARCH64/ShellPkg/Library/UefiShellAcpiViewCommandLib/UefiShellAcpiViewCommandLib/OUTPUT/UefiShellAcpiViewCommandLib.lib(Dbg2Parser.obj)
                              UefiShellAcpiViewCommandLib.obj (symbol from plugin) (ParseAcpiDbg2)
/home/alastair/pftf-rpi4/Build/RPi4/RELEASE_GCC5/AARCH64/ShellPkg/Library/UefiShellAcpiViewCommandLib/UefiShellAcpiViewCommandLib/OUTPUT/UefiShellAcpiViewCommandLib.lib(DsdtParser.obj)
                              UefiShellAcpiViewCommandLib.obj (symbol from plugin) (ParseAcpiDsdt)
/home/alastair/pftf-rpi4/Build/RPi4/RELEASE_GCC5/AARCH64/ShellPkg/Library/UefiShellAcpiViewCommandLib/UefiShellAcpiViewCommandLib/OUTPUT/UefiShellAcpiViewCommandLib.lib(FacsParser.obj)
                              UefiShellAcpiViewCommandLib.obj (symbol from plugin) (ParseAcpiFacs)
/home/alastair/pftf-rpi4/Build/RPi4/RELEASE_GCC5/AARCH64/ShellPkg/Library/UefiShellAcpiViewCommandLib/UefiShellAcpiViewCommandLib/OUTPUT/UefiShellAcpiViewCommandLib.lib(FadtParser.obj)
                              UefiShellAcpiViewCommandLib.obj (symbol from plugin) (ParseAcpiFadt)
/home/alastair/pftf-rpi4/Build/RPi4/RELEASE_GCC5/AARCH64/ShellPkg/Library/UefiShellAcpiViewCommandLib/UefiShellAcpiViewCommandLib/OUTPUT/UefiShellAcpiViewCommandLib.lib(GtdtParser.obj)
                              UefiShellAcpiViewCommandLib.obj (symbol from plugin) (ParseAcpiGtdt)
/home/alastair/pftf-rpi4/Build/RPi4/RELEASE_GCC5/AARCH64/ShellPkg/Library/UefiShellAcpiViewCommandLib/UefiShellAcpiViewCommandLib/OUTPUT/UefiShellAcpiViewCommandLib.lib(HmatParser.obj)
                              UefiShellAcpiViewCommandLib.obj (symbol from plugin) (ParseAcpiHmat)
/home/alastair/pftf-rpi4/Build/RPi4/RELEASE_GCC5/AARCH64/ShellPkg/Library/UefiShellAcpiViewCommandLib/UefiShellAcpiViewCommandLib/OUTPUT/UefiShellAcpiViewCommandLib.lib(IortParser.obj)
                              UefiShellAcpiViewCommandLib.obj (symbol from plugin) (ParseAcpiIort)
/home/alastair/pftf-rpi4/Build/RPi4/RELEASE_GCC5/AARCH64/ShellPkg/Library/UefiShellAcpiViewCommandLib/UefiShellAcpiViewCommandLib/OUTPUT/UefiShellAcpiViewCommandLib.lib(MadtParser.obj)
                              UefiShellAcpiViewCommandLib.obj (symbol from plugin) (ParseAcpiMadt)
/home/alastair/pftf-rpi4/Build/RPi4/RELEASE_GCC5/AARCH64/ShellPkg/Library/UefiShellAcpiViewCommandLib/UefiShellAcpiViewCommandLib/OUTPUT/UefiShellAcpiViewCommandLib.lib(McfgParser.obj)
                              UefiShellAcpiViewCommandLib.obj (symbol from plugin) (ParseAcpiMcfg)
/home/alastair/pftf-rpi4/Build/RPi4/RELEASE_GCC5/AARCH64/ShellPkg/Library/UefiShellAcpiViewCommandLib/UefiShellAcpiViewCommandLib/OUTPUT/UefiShellAcpiViewCommandLib.lib(PcctParser.obj)
                              UefiShellAcpiViewCommandLib.obj (symbol from plugin) (ParseAcpiPcct)
/home/alastair/pftf-rpi4/Build/RPi4/RELEASE_GCC5/AARCH64/ShellPkg/Library/UefiShellAcpiViewCommandLib/UefiShellAcpiViewCommandLib/OUTPUT/UefiShellAcpiViewCommandLib.lib(PpttParser.obj)
                              UefiShellAcpiViewCommandLib.obj (symbol from plugin) (ParseAcpiPptt)
/home/alastair/pftf-rpi4/Build/RPi4/RELEASE_GCC5/AARCH64/ShellPkg/Library/UefiShellAcpiViewCommandLib/UefiShellAcpiViewCommandLib/OUTPUT/UefiShellAcpiViewCommandLib.lib(RsdpParser.obj)
                              UefiShellAcpiViewCommandLib.obj (symbol from plugin) (ParseAcpiRsdp)
/home/alastair/pftf-rpi4/Build/RPi4/RELEASE_GCC5/AARCH64/ShellPkg/Library/UefiShellAcpiViewCommandLib/UefiShellAcpiViewCommandLib/OUTPUT/UefiShellAcpiViewCommandLib.lib(SlitParser.obj)
                              UefiShellAcpiViewCommandLib.obj (symbol from plugin) (ParseAcpiSlit)
/home/alastair/pftf-rpi4/Build/RPi4/RELEASE_GCC5/AARCH64/ShellPkg/Library/UefiShellAcpiViewCommandLib/UefiShellAcpiViewCommandLib/OUTPUT/UefiShellAcpiViewCommandLib.lib(SpcrParser.obj)
                              UefiShellAcpiViewCommandLib.obj (symbol from plugin) (ParseAcpiSpcr)
/home/alastair/pftf-rpi4/Build/RPi4/RELEASE_GCC5/AARCH64/ShellPkg/Library/UefiShellAcpiViewCommandLib/UefiShellAcpiViewCommandLib/OUTPUT/UefiShellAcpiViewCommandLib.lib(SratParser.obj)
                              UefiShellAcpiViewCommandLib.obj (symbol from plugin) (ParseAcpiSrat)
/home/alastair/pftf-rpi4/Build/RPi4/RELEASE_GCC5/AARCH64/ShellPkg/Library/UefiShellAcpiViewCommandLib/UefiShellAcpiViewCommandLib/OUTPUT/UefiShellAcpiViewCommandLib.lib(SsdtParser.obj)
                              UefiShellAcpiViewCommandLib.obj (symbol from plugin) (ParseAcpiSsdt)
/home/alastair/pftf-rpi4/Build/RPi4/RELEASE_GCC5/AARCH64/ShellPkg/Library/UefiShellAcpiViewCommandLib/UefiShellAcpiViewCommandLib/OUTPUT/UefiShellAcpiViewCommandLib.lib(XsdtParser.obj)
                              FadtParser.obj (symbol from plugin) (GetAcpiXsdtHeaderInfo)
/home/alastair/pftf-rpi4/Build/RPi4/RELEASE_GCC5/AARCH64/ShellPkg/Library/UefiShellAcpiViewCommandLib/UefiShellAcpiViewCommandLib/OUTPUT/UefiShellAcpiViewCommandLib.lib(SbbrValidator.obj)
                              AcpiView.obj (symbol from plugin) (ArmSbbrResetTableCounts)
/home/alastair/pftf-rpi4/Build/RPi4/RELEASE_GCC5/AARCH64/ShellPkg/Library/UefiShellAcpiViewCommandLib/UefiShellAcpiViewCommandLib/OUTPUT/UefiShellAcpiViewCommandLib.lib(AcpiParser.obj)
                              AestParser.obj (symbol from plugin) (Dump4Chars)
/home/alastair/pftf-rpi4/Build/RPi4/RELEASE_GCC5/AARCH64/MdePkg/Library/BaseMemoryLibOptDxe/BaseMemoryLibOptDxe/OUTPUT/BaseMemoryLibOptDxe.lib(CompareMemWrapper.obj)
                              HiiLib.obj (symbol from plugin) (CompareMem)
/home/alastair/pftf-rpi4/Build/RPi4/RELEASE_GCC5/AARCH64/MdePkg/Library/BaseMemoryLibOptDxe/BaseMemoryLibOptDxe/OUTPUT/BaseMemoryLibOptDxe.lib(IsZeroBufferWrapper.obj)
                              PcctParser.obj (symbol from plugin) (IsZeroBuffer)
/home/alastair/pftf-rpi4/Build/RPi4/RELEASE_GCC5/AARCH64/MdePkg/Library/BaseMemoryLibOptDxe/BaseMemoryLibOptDxe/OUTPUT/BaseMemoryLibOptDxe.lib(CompareMem.obj)
                              CompareMemWrapper.obj (symbol from plugin) (InternalMemCompareMem)
/home/alastair/pftf-rpi4/Build/RPi4/RELEASE_GCC5/AARCH64/MdePkg/Library/BaseMemoryLibOptDxe/BaseMemoryLibOptDxe/OUTPUT/BaseMemoryLibOptDxe.lib(ScanMemGeneric.obj)
                              IsZeroBufferWrapper.obj (symbol from plugin) (InternalMemIsZeroBuffer)
/home/alastair/pftf-rpi4/Build/RPi4/RELEASE_GCC5/AARCH64/MdePkg/Library/BaseLib/BaseLib/OUTPUT/BaseLib.lib(SwapBytes64.obj)
                              DevicePathFromText.obj (symbol from plugin) (SwapBytes64)
/home/alastair/pftf-rpi4/Build/RPi4/RELEASE_GCC5/AARCH64/MdePkg/Library/BaseLib/BaseLib/OUTPUT/BaseLib.lib(MultU64x64.obj)
                              MemMap.obj (symbol from plugin) (MultU64x64)
/home/alastair/pftf-rpi4/Build/RPi4/RELEASE_GCC5/AARCH64/MdePkg/Library/BaseLib/BaseLib/OUTPUT/BaseLib.lib(ModU64x32.obj)
                              MainHexEditor.obj (symbol from plugin) (ModU64x32)
/home/alastair/pftf-rpi4/Build/RPi4/RELEASE_GCC5/AARCH64/MdePkg/Library/BaseLib/BaseLib/OUTPUT/BaseLib.lib(DivU64x64Remainder.obj)
                              Ping.obj (symbol from plugin) (DivU64x64Remainder)
/home/alastair/pftf-rpi4/Build/RPi4/RELEASE_GCC5/AARCH64/MdePkg/Library/BaseLib/BaseLib/OUTPUT/BaseLib.lib(DivU64x32Remainder.obj)
                              PrintLibInternal.obj (symbol from plugin) (DivU64x32Remainder)
/home/alastair/pftf-rpi4/Build/RPi4/RELEASE_GCC5/AARCH64/MdePkg/Library/BaseLib/BaseLib/OUTPUT/BaseLib.lib(BitField.obj)
                              HiiLib.obj (symbol from plugin) (BitFieldRead32)
/home/alastair/pftf-rpi4/Build/RPi4/RELEASE_GCC5/AARCH64/MdePkg/Library/BaseLib/BaseLib/OUTPUT/BaseLib.lib(Unaligned.obj)
                              PrintLibInternal.obj (symbol from plugin) (ReadUnaligned16)
/home/alastair/pftf-rpi4/Build/RPi4/RELEASE_GCC5/AARCH64/MdePkg/Library/UefiLib/UefiLib/OUTPUT/UefiLib.lib(UefiLibPrint.obj)
                              DrvCfg.obj (symbol from plugin) (Print)
/home/alastair/pftf-rpi4/Build/RPi4/RELEASE_GCC5/AARCH64/MdePkg/Library/UefiLib/UefiLib/OUTPUT/UefiLib.lib(UefiNotTiano.obj)
                              UefiHandleParsingLib.obj (symbol from plugin) (EfiGetNameGuidFromFwVolDevicePathNode)
/home/alastair/pftf-rpi4/Build/RPi4/RELEASE_GCC5/AARCH64/MdePkg/Library/BasePeCoffGetEntryPointLib/BasePeCoffGetEntryPointLib/OUTPUT/BasePeCoffGetEntryPointLib.lib(PeCoffGetEntryPoint.obj)
                              UefiHandleParsingLib.obj (symbol from plugin) (PeCoffLoaderGetPdbPointer)
/home/alastair/pftf-rpi4/Build/RPi4/RELEASE_GCC5/AARCH64/MdePkg/Library/BaseOrderedCollectionRedBlackTreeLib/BaseOrderedCollectionRedBlackTreeLib/OUTPUT/BaseOrderedCollectionRedBlackTreeLib.lib(BaseOrderedCollectionRedBlackTreeLib.obj)
                              UefiShellCommandLib.obj (symbol from plugin) (OrderedCollectionUserStruct)
/home/alastair/pftf-rpi4/Build/RPi4/RELEASE_GCC5/AARCH64/MdePkg/Library/BaseIoLibIntrinsic/BaseIoLibIntrinsic/OUTPUT/BaseIoLibIntrinsic.lib(IoLibNoIo.obj)
                              Mm.obj (symbol from plugin) (IoRead8)
/home/alastair/pftf-rpi4/Build/RPi4/RELEASE_GCC5/AARCH64/ShellPkg/Library/UefiShellBcfgCommandLib/UefiShellBcfgCommandLib/OUTPUT/UefiShellBcfgCommandLib.lib(UefiShellBcfgCommandLib.obj)
                              UefiShellDebug1CommandsLib.obj (symbol from plugin) (BcfgLibraryRegisterBcfgCommand)
/home/alastair/pftf-rpi4/Build/RPi4/RELEASE_GCC5/AARCH64/ShellPkg/Library/UefiShellBcfgCommandLib/UefiShellBcfgCommandLib/OUTPUT/UefiShellBcfgCommandLib.lib(AutoGen.obj)
                              UefiShellBcfgCommandLib.obj (symbol from plugin) (UefiShellBcfgCommandLibStrings)
/home/alastair/pftf-rpi4/Build/RPi4/RELEASE_GCC5/AARCH64/NetworkPkg/Library/DxeNetLib/DxeNetLib/OUTPUT/DxeNetLib.lib(DxeNetLib.obj)
                              Ifconfig.obj (symbol from plugin) (NetIp4IsUnicast)
/home/alastair/pftf-rpi4/Build/RPi4/RELEASE_GCC5/AARCH64/NetworkPkg/Library/DxeNetLib/DxeNetLib/OUTPUT/DxeNetLib.lib(NetBuffer.obj)
                              DxeNetLib.obj (symbol from plugin) (NetblockChecksum)
/home/alastair/pftf-rpi4/Build/RPi4/RELEASE_GCC5/AARCH64/MdeModulePkg/Library/UefiBootManagerLib/UefiBootManagerLib/OUTPUT/UefiBootManagerLib.lib(BmLoadOption.obj)
                              UefiShellBcfgCommandLib.obj (symbol from plugin) (EfiBootManagerLoadOptionToVariable)
/home/alastair/pftf-rpi4/Build/RPi4/RELEASE_GCC5/AARCH64/MdeModulePkg/Library/UefiBootManagerLib/UefiBootManagerLib/OUTPUT/UefiBootManagerLib.lib(BmConnect.obj)
                              BmLoadOption.obj (symbol from plugin) (EfiBootManagerConnectDevicePath)
/home/alastair/pftf-rpi4/Build/RPi4/RELEASE_GCC5/AARCH64/MdeModulePkg/Library/UefiBootManagerLib/UefiBootManagerLib/OUTPUT/UefiBootManagerLib.lib(BmMisc.obj)
                              BmLoadOption.obj (symbol from plugin) (BmPrintDp)
/home/alastair/pftf-rpi4/Build/RPi4/RELEASE_GCC5/AARCH64/MdeModulePkg/Library/UefiBootManagerLib/UefiBootManagerLib/OUTPUT/UefiBootManagerLib.lib(BmConsole.obj)
                              BmConnect.obj (symbol from plugin) (EfiBootManagerConnectAllDefaultConsoles)
/home/alastair/pftf-rpi4/Build/RPi4/RELEASE_GCC5/AARCH64/MdeModulePkg/Library/UefiBootManagerLib/UefiBootManagerLib/OUTPUT/UefiBootManagerLib.lib(BmBoot.obj)
                              BmLoadOption.obj (symbol from plugin) (BmGetRamDiskDevicePath)
/home/alastair/pftf-rpi4/Build/RPi4/RELEASE_GCC5/AARCH64/MdeModulePkg/Library/UefiBootManagerLib/UefiBootManagerLib/OUTPUT/UefiBootManagerLib.lib(BmBootDescription.obj)
                              BmBoot.obj (symbol from plugin) (BmGetBootDescription)
/home/alastair/pftf-rpi4/Build/RPi4/RELEASE_GCC5/AARCH64/MdeModulePkg/Library/UefiBootManagerLib/UefiBootManagerLib/OUTPUT/UefiBootManagerLib.lib(BmHotkey.obj)
                              BmBoot.obj (symbol from plugin) (BmStopHotkeyService)
/home/alastair/pftf-rpi4/Build/RPi4/RELEASE_GCC5/AARCH64/MdeModulePkg/Library/UefiBootManagerLib/UefiBootManagerLib/OUTPUT/UefiBootManagerLib.lib(BmDriverHealth.obj)
                              BmBoot.obj (symbol from plugin) (BmRepairAllControllers)
/home/alastair/pftf-rpi4/Build/RPi4/RELEASE_GCC5/AARCH64/MdePkg/Library/BaseLib/BaseLib/OUTPUT/BaseLib.lib(LowBitSet32.obj)
                              BmHotkey.obj (symbol from plugin) (LowBitSet32)
/home/alastair/pftf-rpi4/Build/RPi4/RELEASE_GCC5/AARCH64/MdePkg/Library/BaseReportStatusCodeLibNull/BaseReportStatusCodeLibNull/OUTPUT/BaseReportStatusCodeLibNull.lib(BaseReportStatusCodeLib.obj)
                              BmLoadOption.obj (symbol from plugin) (ReportStatusCode)
/home/alastair/pftf-rpi4/Build/RPi4/RELEASE_GCC5/AARCH64/MdePkg/Library/DxeServicesLib/DxeServicesLib/OUTPUT/DxeServicesLib.lib(DxeServicesLib.obj)
                              BmBoot.obj (symbol from plugin) (GetSectionFromFv)
/home/alastair/pftf-rpi4/Build/RPi4/RELEASE_GCC5/AARCH64/MdeModulePkg/Library/DxePerformanceLib/DxePerformanceLib/OUTPUT/DxePerformanceLib.lib(DxePerformanceLib.obj)
                              BmBoot.obj (symbol from plugin) (StartPerformanceMeasurementEx)

Discarded input sections

 .text          0x0000000000000000       0x10 /home/alastair/pftf-rpi4/edk2/ArmPkg/Library/GccLto/liblto-aarch64.a
 .data          0x0000000000000000        0x0 /home/alastair/pftf-rpi4/edk2/ArmPkg/Library/GccLto/liblto-aarch64.a
 .bss           0x0000000000000000        0x0 /home/alastair/pftf-rpi4/edk2/ArmPkg/Library/GccLto/liblto-aarch64.a
 .text          0x0000000000000000        0x0 /tmp/Shell.dll.q6gkOU.ltrans0.ltrans.o
 .data          0x0000000000000000        0x0 /tmp/Shell.dll.q6gkOU.ltrans0.ltrans.o
 .bss           0x0000000000000000        0x0 /tmp/Shell.dll.q6gkOU.ltrans0.ltrans.o
 .text.RedBlackTreeRecursiveCheck.part.0
                0x0000000000000000       0x4c /tmp/Shell.dll.q6gkOU.ltrans0.ltrans.o
 .text.OrderedCollectionPrev
                0x0000000000000000       0x38 /tmp/Shell.dll.q6gkOU.ltrans0.ltrans.o
 .text.IoWrite64.constprop.0
                0x0000000000000000        0x8 /tmp/Shell.dll.q6gkOU.ltrans0.ltrans.o
 .text.IoWrite32.constprop.0
                0x0000000000000000        0x4 /tmp/Shell.dll.q6gkOU.ltrans0.ltrans.o
 .text.IoWrite16.constprop.0
                0x0000000000000000        0x4 /tmp/Shell.dll.q6gkOU.ltrans0.ltrans.o
 .text.IoWrite8.constprop.0
                0x0000000000000000        0x4 /tmp/Shell.dll.q6gkOU.ltrans0.ltrans.o
 .text.RedBlackTreeValidate
                0x0000000000000000       0x54 /tmp/Shell.dll.q6gkOU.ltrans0.ltrans.o
 .rodata._gPcd_FixedAtBuild_PcdMaximumUnicodeStringLength
                0x0000000000000000        0x4 /tmp/Shell.dll.q6gkOU.ltrans0.ltrans.o
 .rodata._gPcd_FixedAtBuild_PcdShellDecodeIScsiMapNames
                0x0000000000000000        0x1 /tmp/Shell.dll.q6gkOU.ltrans0.ltrans.o
 .rodata._gPcd_FixedAtBuild_PcdShellPrintBufferSize
                0x0000000000000000        0x2 /tmp/Shell.dll.q6gkOU.ltrans0.ltrans.o
 .rodata._gUefiDriverRevision
                0x0000000000000000        0x4 /tmp/Shell.dll.q6gkOU.ltrans0.ltrans.o
 .comment       0x0000000000000000       0x2b /tmp/Shell.dll.q6gkOU.ltrans0.ltrans.o
 .note.GNU-stack
                0x0000000000000000        0x0 /tmp/Shell.dll.q6gkOU.ltrans0.ltrans.o
 .text          0x0000000000000000        0x0 /tmp/Shell.dll.q6gkOU.ltrans1.ltrans.o
 .data          0x0000000000000000        0x0 /tmp/Shell.dll.q6gkOU.ltrans1.ltrans.o
 .bss           0x0000000000000000        0x0 /tmp/Shell.dll.q6gkOU.ltrans1.ltrans.o
 .comment       0x0000000000000000       0x2b /tmp/Shell.dll.q6gkOU.ltrans1.ltrans.o
 .note.GNU-stack
                0x0000000000000000        0x0 /tmp/Shell.dll.q6gkOU.ltrans1.ltrans.o
 .text          0x0000000000000000        0x0 /tmp/Shell.dll.q6gkOU.ltrans2.ltrans.o
 .data          0x0000000000000000        0x0 /tmp/Shell.dll.q6gkOU.ltrans2.ltrans.o
 .bss           0x0000000000000000        0x0 /tmp/Shell.dll.q6gkOU.ltrans2.ltrans.o
 .comment       0x0000000000000000       0x2b /tmp/Shell.dll.q6gkOU.ltrans2.ltrans.o
 .note.GNU-stack
                0x0000000000000000        0x0 /tmp/Shell.dll.q6gkOU.ltrans2.ltrans.o
 .text          0x0000000000000000        0x0 /tmp/Shell.dll.q6gkOU.ltrans3.ltrans.o
 .data          0x0000000000000000        0x0 /tmp/Shell.dll.q6gkOU.ltrans3.ltrans.o
 .bss           0x0000000000000000        0x0 /tmp/Shell.dll.q6gkOU.ltrans3.ltrans.o
 .comment       0x0000000000000000       0x2b /tmp/Shell.dll.q6gkOU.ltrans3.ltrans.o
 .note.GNU-stack
                0x0000000000000000        0x0 /tmp/Shell.dll.q6gkOU.ltrans3.ltrans.o
 .text          0x0000000000000000        0x0 /tmp/Shell.dll.q6gkOU.ltrans4.ltrans.o
 .data          0x0000000000000000        0x0 /tmp/Shell.dll.q6gkOU.ltrans4.ltrans.o
 .bss           0x0000000000000000        0x0 /tmp/Shell.dll.q6gkOU.ltrans4.ltrans.o
 .rodata._gPcd_FixedAtBuild_PcdShellFileOperationSize
                0x0000000000000000        0x4 /tmp/Shell.dll.q6gkOU.ltrans4.ltrans.o
 .comment       0x0000000000000000       0x2b /tmp/Shell.dll.q6gkOU.ltrans4.ltrans.o
 .note.GNU-stack
                0x0000000000000000        0x0 /tmp/Shell.dll.q6gkOU.ltrans4.ltrans.o
 .text          0x0000000000000000        0x0 /tmp/Shell.dll.q6gkOU.ltrans5.ltrans.o
 .data          0x0000000000000000        0x0 /tmp/Shell.dll.q6gkOU.ltrans5.ltrans.o
 .bss           0x0000000000000000        0x0 /tmp/Shell.dll.q6gkOU.ltrans5.ltrans.o
 .comment       0x0000000000000000       0x2b /tmp/Shell.dll.q6gkOU.ltrans5.ltrans.o
 .note.GNU-stack
                0x0000000000000000        0x0 /tmp/Shell.dll.q6gkOU.ltrans5.ltrans.o
 .text          0x0000000000000000        0x0 /tmp/Shell.dll.q6gkOU.ltrans6.ltrans.o
 .data          0x0000000000000000        0x0 /tmp/Shell.dll.q6gkOU.ltrans6.ltrans.o
 .bss           0x0000000000000000        0x0 /tmp/Shell.dll.q6gkOU.ltrans6.ltrans.o
 .rodata.str2.2
                0x0000000000000000       0x30 /tmp/Shell.dll.q6gkOU.ltrans6.ltrans.o
 .rodata.SupportLevel
                0x0000000000000000       0x20 /tmp/Shell.dll.q6gkOU.ltrans6.ltrans.o
 .rodata._gPcd_FixedAtBuild_PcdShellScreenLogCount
                0x0000000000000000        0x1 /tmp/Shell.dll.q6gkOU.ltrans6.ltrans.o
 .comment       0x0000000000000000       0x2b /tmp/Shell.dll.q6gkOU.ltrans6.ltrans.o
 .note.GNU-stack
                0x0000000000000000        0x0 /tmp/Shell.dll.q6gkOU.ltrans6.ltrans.o
 .text          0x0000000000000000        0x0 /tmp/Shell.dll.q6gkOU.ltrans7.ltrans.o
 .data          0x0000000000000000        0x0 /tmp/Shell.dll.q6gkOU.ltrans7.ltrans.o
 .bss           0x0000000000000000        0x0 /tmp/Shell.dll.q6gkOU.ltrans7.ltrans.o
 .comment       0x0000000000000000       0x2b /tmp/Shell.dll.q6gkOU.ltrans7.ltrans.o
 .note.GNU-stack
                0x0000000000000000        0x0 /tmp/Shell.dll.q6gkOU.ltrans7.ltrans.o
 .text          0x0000000000000000        0x0 /tmp/Shell.dll.q6gkOU.ltrans8.ltrans.o
 .data          0x0000000000000000        0x0 /tmp/Shell.dll.q6gkOU.ltrans8.ltrans.o
 .bss           0x0000000000000000        0x0 /tmp/Shell.dll.q6gkOU.ltrans8.ltrans.o
 .rodata._gPcd_FixedAtBuild_PcdUsbExtendedDecode
                0x0000000000000000        0x1 /tmp/Shell.dll.q6gkOU.ltrans8.ltrans.o
 .comment       0x0000000000000000       0x2b /tmp/Shell.dll.q6gkOU.ltrans8.ltrans.o
 .note.GNU-stack
                0x0000000000000000        0x0 /tmp/Shell.dll.q6gkOU.ltrans8.ltrans.o
 .text          0x0000000000000000        0x0 /tmp/Shell.dll.q6gkOU.ltrans9.ltrans.o
 .data          0x0000000000000000        0x0 /tmp/Shell.dll.q6gkOU.ltrans9.ltrans.o
 .bss           0x0000000000000000        0x0 /tmp/Shell.dll.q6gkOU.ltrans9.ltrans.o
 .comment       0x0000000000000000       0x2b /tmp/Shell.dll.q6gkOU.ltrans9.ltrans.o
 .note.GNU-stack
                0x0000000000000000        0x0 /tmp/Shell.dll.q6gkOU.ltrans9.ltrans.o
 .text          0x0000000000000000        0x0 /tmp/Shell.dll.q6gkOU.ltrans10.ltrans.o
 .data          0x0000000000000000        0x0 /tmp/Shell.dll.q6gkOU.ltrans10.ltrans.o
 .bss           0x0000000000000000        0x0 /tmp/Shell.dll.q6gkOU.ltrans10.ltrans.o
 .comment       0x0000000000000000       0x2b /tmp/Shell.dll.q6gkOU.ltrans10.ltrans.o
 .note.GNU-stack
                0x0000000000000000        0x0 /tmp/Shell.dll.q6gkOU.ltrans10.ltrans.o
 .text          0x0000000000000000        0x0 /tmp/Shell.dll.q6gkOU.ltrans11.ltrans.o
 .data          0x0000000000000000        0x0 /tmp/Shell.dll.q6gkOU.ltrans11.ltrans.o
 .bss           0x0000000000000000        0x0 /tmp/Shell.dll.q6gkOU.ltrans11.ltrans.o
 .text.__memset
                0x0000000000000000       0x1c /tmp/Shell.dll.q6gkOU.ltrans11.ltrans.o
 .comment       0x0000000000000000       0x2b /tmp/Shell.dll.q6gkOU.ltrans11.ltrans.o
 .note.GNU-stack
                0x0000000000000000        0x0 /tmp/Shell.dll.q6gkOU.ltrans11.ltrans.o
 .comment       0x0000000000000000       0x2b /tmp/ccTejSGS.debug.temp.o
 .note.GNU-stack
                0x0000000000000000        0x0 /tmp/ccTejSGS.debug.temp.o
 .comment       0x0000000000000000       0x2b /tmp/ccAbj5PS.debug.temp.o
 .note.GNU-stack
                0x0000000000000000        0x0 /tmp/ccAbj5PS.debug.temp.o
 .comment       0x0000000000000000       0x2b /tmp/ccHzUtuU.debug.temp.o
 .note.GNU-stack
                0x0000000000000000        0x0 /tmp/ccHzUtuU.debug.temp.o
 .comment       0x0000000000000000       0x2b /tmp/cc3O2vWT.debug.temp.o
 .note.GNU-stack
                0x0000000000000000        0x0 /tmp/cc3O2vWT.debug.temp.o
 .comment       0x0000000000000000       0x2b /tmp/ccYK7LpW.debug.temp.o
 .note.GNU-stack
                0x0000000000000000        0x0 /tmp/ccYK7LpW.debug.temp.o
 .comment       0x0000000000000000       0x2b /tmp/cclXgfzU.debug.temp.o
 .note.GNU-stack
                0x0000000000000000        0x0 /tmp/cclXgfzU.debug.temp.o
 .comment       0x0000000000000000       0x2b /tmp/ccpPQYMU.debug.temp.o
 .note.GNU-stack
                0x0000000000000000        0x0 /tmp/ccpPQYMU.debug.temp.o
 .comment       0x0000000000000000       0x2b /tmp/ccR3uDOS.debug.temp.o
 .note.GNU-stack
                0x0000000000000000        0x0 /tmp/ccR3uDOS.debug.temp.o
 .comment       0x0000000000000000       0x2b /tmp/ccq0XrES.debug.temp.o
 .note.GNU-stack
                0x0000000000000000        0x0 /tmp/ccq0XrES.debug.temp.o
 .comment       0x0000000000000000       0x2b /tmp/ccG60d4T.debug.temp.o
 .note.GNU-stack
                0x0000000000000000        0x0 /tmp/ccG60d4T.debug.temp.o
 .comment       0x0000000000000000       0x2b /tmp/ccick9kU.debug.temp.o
 .note.GNU-stack
                0x0000000000000000        0x0 /tmp/ccick9kU.debug.temp.o
 .comment       0x0000000000000000       0x2b /tmp/ccjtIUJW.debug.temp.o
 .note.GNU-stack
                0x0000000000000000        0x0 /tmp/ccjtIUJW.debug.temp.o
 .comment       0x0000000000000000       0x2b /tmp/cc7sXw0S.debug.temp.o
 .note.GNU-stack
                0x0000000000000000        0x0 /tmp/cc7sXw0S.debug.temp.o
 .comment       0x0000000000000000       0x2b /tmp/ccj8VxpT.debug.temp.o
 .note.GNU-stack
                0x0000000000000000        0x0 /tmp/ccj8VxpT.debug.temp.o
 .comment       0x0000000000000000       0x2b /tmp/ccUYHy7V.debug.temp.o
 .note.GNU-stack
                0x0000000000000000        0x0 /tmp/ccUYHy7V.debug.temp.o
 .comment       0x0000000000000000       0x2b /tmp/ccYCe7BV.debug.temp.o
 .note.GNU-stack
                0x0000000000000000        0x0 /tmp/ccYCe7BV.debug.temp.o
 .comment       0x0000000000000000       0x2b /tmp/ccRjqpLT.debug.temp.o
 .note.GNU-stack
                0x0000000000000000        0x0 /tmp/ccRjqpLT.debug.temp.o
 .comment       0x0000000000000000       0x2b /tmp/ccZmdiaW.debug.temp.o
 .note.GNU-stack
                0x0000000000000000        0x0 /tmp/ccZmdiaW.debug.temp.o
 .debug_info    0x0000000000000000      0x17a /tmp/ccOyS1dW.debug.temp.o
 .debug_abbrev  0x0000000000000000       0xb1 /tmp/ccOyS1dW.debug.temp.o
 .debug_line    0x0000000000000000      0x176 /tmp/ccOyS1dW.debug.temp.o
 .debug_str     0x0000000000000000      0x35a /tmp/ccOyS1dW.debug.temp.o
 .comment       0x0000000000000000       0x2b /tmp/ccOyS1dW.debug.temp.o
 .note.GNU-stack
                0x0000000000000000        0x0 /tmp/ccOyS1dW.debug.temp.o
 .comment       0x0000000000000000       0x2b /tmp/ccOX0oGW.debug.temp.o
 .note.GNU-stack
                0x0000000000000000        0x0 /tmp/ccOX0oGW.debug.temp.o
 .comment       0x0000000000000000       0x2b /tmp/ccFmniiV.debug.temp.o
 .note.GNU-stack
                0x0000000000000000        0x0 /tmp/ccFmniiV.debug.temp.o
 .comment       0x0000000000000000       0x2b /tmp/cc0KvZ5S.debug.temp.o
 .note.GNU-stack
                0x0000000000000000        0x0 /tmp/cc0KvZ5S.debug.temp.o
 .comment       0x0000000000000000       0x2b /tmp/ccnTZERT.debug.temp.o
 .note.GNU-stack
                0x0000000000000000        0x0 /tmp/ccnTZERT.debug.temp.o
 .comment       0x0000000000000000       0x2b /tmp/ccZTiSsT.debug.temp.o
 .note.GNU-stack
                0x0000000000000000        0x0 /tmp/ccZTiSsT.debug.temp.o
 .comment       0x0000000000000000       0x2b /tmp/ccCpShDW.debug.temp.o
 .note.GNU-stack
                0x0000000000000000        0x0 /tmp/ccCpShDW.debug.temp.o
 .comment       0x0000000000000000       0x2b /tmp/cc0CezIV.debug.temp.o
 .note.GNU-stack
                0x0000000000000000        0x0 /tmp/cc0CezIV.debug.temp.o
 .comment       0x0000000000000000       0x2b /tmp/ccGFjNtV.debug.temp.o
 .note.GNU-stack
                0x0000000000000000        0x0 /tmp/ccGFjNtV.debug.temp.o
 .comment       0x0000000000000000       0x2b /tmp/cc5eNepV.debug.temp.o
 .note.GNU-stack
                0x0000000000000000        0x0 /tmp/cc5eNepV.debug.temp.o
 .comment       0x0000000000000000       0x2b /tmp/cc2D4ZMV.debug.temp.o
 .note.GNU-stack
                0x0000000000000000        0x0 /tmp/cc2D4ZMV.debug.temp.o
 .comment       0x0000000000000000       0x2b /tmp/ccUFMH4U.debug.temp.o
 .note.GNU-stack
                0x0000000000000000        0x0 /tmp/ccUFMH4U.debug.temp.o
 .comment       0x0000000000000000       0x2b /tmp/ccsch6zU.debug.temp.o
 .note.GNU-stack
                0x0000000000000000        0x0 /tmp/ccsch6zU.debug.temp.o
 .comment       0x0000000000000000       0x2b /tmp/ccJ2G06U.debug.temp.o
 .note.GNU-stack
                0x0000000000000000        0x0 /tmp/ccJ2G06U.debug.temp.o
 .comment       0x0000000000000000       0x2b /tmp/ccamYGSS.debug.temp.o
 .note.GNU-stack
                0x0000000000000000        0x0 /tmp/ccamYGSS.debug.temp.o
 .comment       0x0000000000000000       0x2b /tmp/ccGhc5ZS.debug.temp.o
 .note.GNU-stack
                0x0000000000000000        0x0 /tmp/ccGhc5ZS.debug.temp.o
 .comment       0x0000000000000000       0x2b /tmp/ccvhrsmV.debug.temp.o
 .note.GNU-stack
                0x0000000000000000        0x0 /tmp/ccvhrsmV.debug.temp.o
 .comment       0x0000000000000000       0x2b /tmp/ccgSgrmV.debug.temp.o
 .note.GNU-stack
                0x0000000000000000        0x0 /tmp/ccgSgrmV.debug.temp.o
 .comment       0x0000000000000000       0x2b /tmp/ccKB3XSU.debug.temp.o
 .note.GNU-stack
                0x0000000000000000        0x0 /tmp/ccKB3XSU.debug.temp.o
 .comment       0x0000000000000000       0x2b /tmp/ccnd7M1T.debug.temp.o
 .note.GNU-stack
                0x0000000000000000        0x0 /tmp/ccnd7M1T.debug.temp.o
 .comment       0x0000000000000000       0x2b /tmp/ccrYO7XV.debug.temp.o
 .note.GNU-stack
                0x0000000000000000        0x0 /tmp/ccrYO7XV.debug.temp.o
 .comment       0x0000000000000000       0x2b /tmp/ccmMT7zS.debug.temp.o
 .note.GNU-stack
                0x0000000000000000        0x0 /tmp/ccmMT7zS.debug.temp.o
 .comment       0x0000000000000000       0x2b /tmp/ccORAesS.debug.temp.o
 .note.GNU-stack
                0x0000000000000000        0x0 /tmp/ccORAesS.debug.temp.o
 .comment       0x0000000000000000       0x2b /tmp/cceduEMU.debug.temp.o
 .note.GNU-stack
                0x0000000000000000        0x0 /tmp/cceduEMU.debug.temp.o
 .comment       0x0000000000000000       0x2b /tmp/ccL90OWU.debug.temp.o
 .note.GNU-stack
                0x0000000000000000        0x0 /tmp/ccL90OWU.debug.temp.o
 .comment       0x0000000000000000       0x2b /tmp/ccg9r7YU.debug.temp.o
 .note.GNU-stack
                0x0000000000000000        0x0 /tmp/ccg9r7YU.debug.temp.o
 .comment       0x0000000000000000       0x2b /tmp/ccmGmvSS.debug.temp.o
 .note.GNU-stack
                0x0000000000000000        0x0 /tmp/ccmGmvSS.debug.temp.o
 .comment       0x0000000000000000       0x2b /tmp/ccbc2KbT.debug.temp.o
 .note.GNU-stack
                0x0000000000000000        0x0 /tmp/ccbc2KbT.debug.temp.o
 .comment       0x0000000000000000       0x2b /tmp/ccKqkveW.debug.temp.o
 .note.GNU-stack
                0x0000000000000000        0x0 /tmp/ccKqkveW.debug.temp.o
 .comment       0x0000000000000000       0x2b /tmp/ccjE6BkS.debug.temp.o
 .note.GNU-stack
                0x0000000000000000        0x0 /tmp/ccjE6BkS.debug.temp.o
 .comment       0x0000000000000000       0x2b /tmp/cc9LuEeU.debug.temp.o
 .note.GNU-stack
                0x0000000000000000        0x0 /tmp/cc9LuEeU.debug.temp.o
 .comment       0x0000000000000000       0x2b /tmp/cc6Zw3rW.debug.temp.o
 .note.GNU-stack
                0x0000000000000000        0x0 /tmp/cc6Zw3rW.debug.temp.o
 .comment       0x0000000000000000       0x2b /tmp/ccndybFV.debug.temp.o
 .note.GNU-stack
                0x0000000000000000        0x0 /tmp/ccndybFV.debug.temp.o
 .comment       0x0000000000000000       0x2b /tmp/cczPQ4oU.debug.temp.o
 .note.GNU-stack
                0x0000000000000000        0x0 /tmp/cczPQ4oU.debug.temp.o
 .comment       0x0000000000000000       0x2b /tmp/ccSvEj8R.debug.temp.o
 .note.GNU-stack
                0x0000000000000000        0x0 /tmp/ccSvEj8R.debug.temp.o
 .comment       0x0000000000000000       0x2b /tmp/ccrFSWQT.debug.temp.o
 .note.GNU-stack
                0x0000000000000000        0x0 /tmp/ccrFSWQT.debug.temp.o
 .comment       0x0000000000000000       0x2b /tmp/cc5aledT.debug.temp.o
 .note.GNU-stack
                0x0000000000000000        0x0 /tmp/cc5aledT.debug.temp.o
 .comment       0x0000000000000000       0x2b /tmp/ccx6pmgV.debug.temp.o
 .note.GNU-stack
                0x0000000000000000        0x0 /tmp/ccx6pmgV.debug.temp.o
 .comment       0x0000000000000000       0x2b /tmp/ccrEKq3V.debug.temp.o
 .note.GNU-stack
                0x0000000000000000        0x0 /tmp/ccrEKq3V.debug.temp.o
 .comment       0x0000000000000000       0x2b /tmp/cc6zBmsW.debug.temp.o
 .note.GNU-stack
                0x0000000000000000        0x0 /tmp/cc6zBmsW.debug.temp.o
 .comment       0x0000000000000000       0x2b /tmp/ccqyL4GW.debug.temp.o
 .note.GNU-stack
                0x0000000000000000        0x0 /tmp/ccqyL4GW.debug.temp.o
 .comment       0x0000000000000000       0x2b /tmp/ccUXW0xW.debug.temp.o
 .note.GNU-stack
                0x0000000000000000        0x0 /tmp/ccUXW0xW.debug.temp.o
 .comment       0x0000000000000000       0x2b /tmp/ccVY0SSS.debug.temp.o
 .note.GNU-stack
                0x0000000000000000        0x0 /tmp/ccVY0SSS.debug.temp.o
 .comment       0x0000000000000000       0x2b /tmp/cck0f0YV.debug.temp.o
 .note.GNU-stack
                0x0000000000000000        0x0 /tmp/cck0f0YV.debug.temp.o
 .comment       0x0000000000000000       0x2b /tmp/cc59tWPV.debug.temp.o
 .note.GNU-stack
                0x0000000000000000        0x0 /tmp/cc59tWPV.debug.temp.o
 .comment       0x0000000000000000       0x2b /tmp/ccGzJgCV.debug.temp.o
 .note.GNU-stack
                0x0000000000000000        0x0 /tmp/ccGzJgCV.debug.temp.o
 .comment       0x0000000000000000       0x2b /tmp/ccq9pbFU.debug.temp.o
 .note.GNU-stack
                0x0000000000000000        0x0 /tmp/ccq9pbFU.debug.temp.o
 .comment       0x0000000000000000       0x2b /tmp/cc9ZXgdV.debug.temp.o
 .note.GNU-stack
                0x0000000000000000        0x0 /tmp/cc9ZXgdV.debug.temp.o
 .comment       0x0000000000000000       0x2b /tmp/cceOSdsT.debug.temp.o
 .note.GNU-stack
                0x0000000000000000        0x0 /tmp/cceOSdsT.debug.temp.o
 .comment       0x0000000000000000       0x2b /tmp/ccOnX61U.debug.temp.o
 .note.GNU-stack
                0x0000000000000000        0x0 /tmp/ccOnX61U.debug.temp.o
 .comment       0x0000000000000000       0x2b /tmp/ccLQLpeS.debug.temp.o
 .note.GNU-stack
                0x0000000000000000        0x0 /tmp/ccLQLpeS.debug.temp.o
 .comment       0x0000000000000000       0x2b /tmp/ccza3XQS.debug.temp.o
 .note.GNU-stack
                0x0000000000000000        0x0 /tmp/ccza3XQS.debug.temp.o
 .comment       0x0000000000000000       0x2b /tmp/ccbrAOqS.debug.temp.o
 .note.GNU-stack
                0x0000000000000000        0x0 /tmp/ccbrAOqS.debug.temp.o
 .comment       0x0000000000000000       0x2b /tmp/ccSwGxlT.debug.temp.o
 .note.GNU-stack
                0x0000000000000000        0x0 /tmp/ccSwGxlT.debug.temp.o
 .comment       0x0000000000000000       0x2b /tmp/ccv2B5uU.debug.temp.o
 .note.GNU-stack
                0x0000000000000000        0x0 /tmp/ccv2B5uU.debug.temp.o
 .comment       0x0000000000000000       0x2b /tmp/cc2jfg2U.debug.temp.o
 .note.GNU-stack
                0x0000000000000000        0x0 /tmp/cc2jfg2U.debug.temp.o
 .comment       0x0000000000000000       0x2b /tmp/ccP5UdXT.debug.temp.o
 .note.GNU-stack
                0x0000000000000000        0x0 /tmp/ccP5UdXT.debug.temp.o
 .comment       0x0000000000000000       0x2b /tmp/ccG06kxW.debug.temp.o
 .note.GNU-stack
                0x0000000000000000        0x0 /tmp/ccG06kxW.debug.temp.o
 .comment       0x0000000000000000       0x2b /tmp/cc4UZfgW.debug.temp.o
 .note.GNU-stack
                0x0000000000000000        0x0 /tmp/cc4UZfgW.debug.temp.o
 .comment       0x0000000000000000       0x2b /tmp/ccFxFe6T.debug.temp.o
 .note.GNU-stack
                0x0000000000000000        0x0 /tmp/ccFxFe6T.debug.temp.o
 .comment       0x0000000000000000       0x2b /tmp/ccexHeKS.debug.temp.o
 .note.GNU-stack
                0x0000000000000000        0x0 /tmp/ccexHeKS.debug.temp.o
 .comment       0x0000000000000000       0x2b /tmp/ccTWQY3V.debug.temp.o
 .note.GNU-stack
                0x0000000000000000        0x0 /tmp/ccTWQY3V.debug.temp.o
 .comment       0x0000000000000000       0x2b /tmp/ccuuf6mT.debug.temp.o
 .note.GNU-stack
                0x0000000000000000        0x0 /tmp/ccuuf6mT.debug.temp.o
 .comment       0x0000000000000000       0x2b /tmp/ccehXTqU.debug.temp.o
 .note.GNU-stack
                0x0000000000000000        0x0 /tmp/ccehXTqU.debug.temp.o
 .comment       0x0000000000000000       0x2b /tmp/ccbcAovU.debug.temp.o
 .note.GNU-stack
                0x0000000000000000        0x0 /tmp/ccbcAovU.debug.temp.o
 .comment       0x0000000000000000       0x2b /tmp/ccSHyr6T.debug.temp.o
 .note.GNU-stack
                0x0000000000000000        0x0 /tmp/ccSHyr6T.debug.temp.o
 .comment       0x0000000000000000       0x2b /tmp/ccpcdleU.debug.temp.o
 .note.GNU-stack
                0x0000000000000000        0x0 /tmp/ccpcdleU.debug.temp.o
 .comment       0x0000000000000000       0x2b /tmp/cchlwOeS.debug.temp.o
 .note.GNU-stack
                0x0000000000000000        0x0 /tmp/cchlwOeS.debug.temp.o
 .comment       0x0000000000000000       0x2b /tmp/ccgEF1ST.debug.temp.o
 .note.GNU-stack
                0x0000000000000000        0x0 /tmp/ccgEF1ST.debug.temp.o
 .comment       0x0000000000000000       0x2b /tmp/ccygxt5T.debug.temp.o
 .note.GNU-stack
                0x0000000000000000        0x0 /tmp/ccygxt5T.debug.temp.o
 .comment       0x0000000000000000       0x2b /tmp/ccGy6mdU.debug.temp.o
 .note.GNU-stack
                0x0000000000000000        0x0 /tmp/ccGy6mdU.debug.temp.o
 .comment       0x0000000000000000       0x2b /tmp/ccNzzZoS.debug.temp.o
 .note.GNU-stack
                0x0000000000000000        0x0 /tmp/ccNzzZoS.debug.temp.o
 .comment       0x0000000000000000       0x2b /tmp/cc593jWT.debug.temp.o
 .note.GNU-stack
                0x0000000000000000        0x0 /tmp/cc593jWT.debug.temp.o
 .comment       0x0000000000000000       0x2b /tmp/ccHIOBOT.debug.temp.o
 .note.GNU-stack
                0x0000000000000000        0x0 /tmp/ccHIOBOT.debug.temp.o
 .comment       0x0000000000000000       0x2b /tmp/ccLOU67R.debug.temp.o
 .note.GNU-stack
                0x0000000000000000        0x0 /tmp/ccLOU67R.debug.temp.o
 .comment       0x0000000000000000       0x2b /tmp/cc4lJsIS.debug.temp.o
 .note.GNU-stack
                0x0000000000000000        0x0 /tmp/cc4lJsIS.debug.temp.o
 .comment       0x0000000000000000       0x2b /tmp/ccgLMoNT.debug.temp.o
 .note.GNU-stack
                0x0000000000000000        0x0 /tmp/ccgLMoNT.debug.temp.o
 .comment       0x0000000000000000       0x2b /tmp/cceBWVvS.debug.temp.o
 .note.GNU-stack
                0x0000000000000000        0x0 /tmp/cceBWVvS.debug.temp.o
 .comment       0x0000000000000000       0x2b /tmp/cckWitxT.debug.temp.o
 .note.GNU-stack
                0x0000000000000000        0x0 /tmp/cckWitxT.debug.temp.o
 .comment       0x0000000000000000       0x2b /tmp/ccfwDiEV.debug.temp.o
 .note.GNU-stack
                0x0000000000000000        0x0 /tmp/ccfwDiEV.debug.temp.o
 .comment       0x0000000000000000       0x2b /tmp/ccyYCCKU.debug.temp.o
 .note.GNU-stack
                0x0000000000000000        0x0 /tmp/ccyYCCKU.debug.temp.o
 .comment       0x0000000000000000       0x2b /tmp/cc1Y0vhV.debug.temp.o
 .note.GNU-stack
                0x0000000000000000        0x0 /tmp/cc1Y0vhV.debug.temp.o
 .comment       0x0000000000000000       0x2b /tmp/ccZaEOqT.debug.temp.o
 .note.GNU-stack
                0x0000000000000000        0x0 /tmp/ccZaEOqT.debug.temp.o
 .comment       0x0000000000000000       0x2b /tmp/ccFRe90V.debug.temp.o
 .note.GNU-stack
                0x0000000000000000        0x0 /tmp/ccFRe90V.debug.temp.o
 .comment       0x0000000000000000       0x2b /tmp/cc2LD5pW.debug.temp.o
 .note.GNU-stack
                0x0000000000000000        0x0 /tmp/cc2LD5pW.debug.temp.o
 .comment       0x0000000000000000       0x2b /tmp/ccZV4SfW.debug.temp.o
 .note.GNU-stack
                0x0000000000000000        0x0 /tmp/ccZV4SfW.debug.temp.o
 .comment       0x0000000000000000       0x2b /tmp/ccGachAW.debug.temp.o
 .note.GNU-stack
                0x0000000000000000        0x0 /tmp/ccGachAW.debug.temp.o
 .comment       0x0000000000000000       0x2b /tmp/ccQ4wFIS.debug.temp.o
 .note.GNU-stack
                0x0000000000000000        0x0 /tmp/ccQ4wFIS.debug.temp.o
 .comment       0x0000000000000000       0x2b /tmp/ccZfSe4U.debug.temp.o
 .note.GNU-stack
                0x0000000000000000        0x0 /tmp/ccZfSe4U.debug.temp.o
 .comment       0x0000000000000000       0x2b /tmp/ccN0KhqW.debug.temp.o
 .note.GNU-stack
                0x0000000000000000        0x0 /tmp/ccN0KhqW.debug.temp.o
 .comment       0x0000000000000000       0x2b /tmp/ccJkBFyS.debug.temp.o
 .note.GNU-stack
                0x0000000000000000        0x0 /tmp/ccJkBFyS.debug.temp.o
 .comment       0x0000000000000000       0x2b /tmp/ccKwI5AV.debug.temp.o
 .note.GNU-stack
                0x0000000000000000        0x0 /tmp/ccKwI5AV.debug.temp.o
 .comment       0x0000000000000000       0x2b /tmp/cceQSqPU.debug.temp.o
 .note.GNU-stack
                0x0000000000000000        0x0 /tmp/cceQSqPU.debug.temp.o
 .comment       0x0000000000000000       0x2b /tmp/cceLk0mU.debug.temp.o
 .note.GNU-stack
                0x0000000000000000        0x0 /tmp/cceLk0mU.debug.temp.o
 .comment       0x0000000000000000       0x2b /tmp/ccqf3D6U.debug.temp.o
 .note.GNU-stack
                0x0000000000000000        0x0 /tmp/ccqf3D6U.debug.temp.o
 .comment       0x0000000000000000       0x2b /tmp/ccjqwkhW.debug.temp.o
 .note.GNU-stack
                0x0000000000000000        0x0 /tmp/ccjqwkhW.debug.temp.o
 .comment       0x0000000000000000       0x2b /tmp/ccyZJ9JS.debug.temp.o
 .note.GNU-stack
                0x0000000000000000        0x0 /tmp/ccyZJ9JS.debug.temp.o
 .comment       0x0000000000000000       0x2b /tmp/cc4jUYQS.debug.temp.o
 .note.GNU-stack
                0x0000000000000000        0x0 /tmp/cc4jUYQS.debug.temp.o
 .comment       0x0000000000000000       0x2b /tmp/ccO9LfBV.debug.temp.o
 .note.GNU-stack
                0x0000000000000000        0x0 /tmp/ccO9LfBV.debug.temp.o
 .comment       0x0000000000000000       0x2b /tmp/ccWHDk6R.debug.temp.o
 .note.GNU-stack
                0x0000000000000000        0x0 /tmp/ccWHDk6R.debug.temp.o
 .comment       0x0000000000000000       0x2b /tmp/ccG7D0FT.debug.temp.o
 .note.GNU-stack
                0x0000000000000000        0x0 /tmp/ccG7D0FT.debug.temp.o
 .comment       0x0000000000000000       0x2b /tmp/ccjGV8BU.debug.temp.o
 .note.GNU-stack
                0x0000000000000000        0x0 /tmp/ccjGV8BU.debug.temp.o
 .comment       0x0000000000000000       0x2b /tmp/cck4ryKV.debug.temp.o
 .note.GNU-stack
                0x0000000000000000        0x0 /tmp/cck4ryKV.debug.temp.o
 .comment       0x0000000000000000       0x2b /tmp/cc5f006S.debug.temp.o
 .note.GNU-stack
                0x0000000000000000        0x0 /tmp/cc5f006S.debug.temp.o
 .comment       0x0000000000000000       0x2b /tmp/ccuWDdDU.debug.temp.o
 .note.GNU-stack
                0x0000000000000000        0x0 /tmp/ccuWDdDU.debug.temp.o
 .comment       0x0000000000000000       0x2b /tmp/ccBVW9bS.debug.temp.o
 .note.GNU-stack
                0x0000000000000000        0x0 /tmp/ccBVW9bS.debug.temp.o
 .comment       0x0000000000000000       0x2b /tmp/ccLvQ4jU.debug.temp.o
 .note.GNU-stack
                0x0000000000000000        0x0 /tmp/ccLvQ4jU.debug.temp.o
 .comment       0x0000000000000000       0x2b /tmp/cc4j6r8V.debug.temp.o
 .note.GNU-stack
                0x0000000000000000        0x0 /tmp/cc4j6r8V.debug.temp.o
 .comment       0x0000000000000000       0x2b /tmp/ccUHx8zS.debug.temp.o
 .note.GNU-stack
                0x0000000000000000        0x0 /tmp/ccUHx8zS.debug.temp.o
 .comment       0x0000000000000000       0x2b /tmp/ccihIkSS.debug.temp.o
 .note.GNU-stack
                0x0000000000000000        0x0 /tmp/ccihIkSS.debug.temp.o
 .comment       0x0000000000000000       0x2b /tmp/cc1IxZGU.debug.temp.o
 .note.GNU-stack
                0x0000000000000000        0x0 /tmp/cc1IxZGU.debug.temp.o
 .comment       0x0000000000000000       0x2b /tmp/ccNosJwU.debug.temp.o
 .note.GNU-stack
                0x0000000000000000        0x0 /tmp/ccNosJwU.debug.temp.o
 .comment       0x0000000000000000       0x2b /tmp/ccwu5PpV.debug.temp.o
 .note.GNU-stack
                0x0000000000000000        0x0 /tmp/ccwu5PpV.debug.temp.o
 .comment       0x0000000000000000       0x2b /tmp/ccJ1O7nU.debug.temp.o
 .note.GNU-stack
                0x0000000000000000        0x0 /tmp/ccJ1O7nU.debug.temp.o
 .comment       0x0000000000000000       0x2b /tmp/cc2RbltU.debug.temp.o
 .note.GNU-stack
                0x0000000000000000        0x0 /tmp/cc2RbltU.debug.temp.o
 .comment       0x0000000000000000       0x2b /tmp/ccKkVH5R.debug.temp.o
 .note.GNU-stack
                0x0000000000000000        0x0 /tmp/ccKkVH5R.debug.temp.o
 .comment       0x0000000000000000       0x2b /tmp/ccC7WILS.debug.temp.o
 .note.GNU-stack
                0x0000000000000000        0x0 /tmp/ccC7WILS.debug.temp.o
 .comment       0x0000000000000000       0x2b /tmp/cc2N0zRV.debug.temp.o
 .note.GNU-stack
                0x0000000000000000        0x0 /tmp/cc2N0zRV.debug.temp.o
 .comment       0x0000000000000000       0x2b /tmp/ccJqMPkT.debug.temp.o
 .note.GNU-stack
                0x0000000000000000        0x0 /tmp/ccJqMPkT.debug.temp.o
 .comment       0x0000000000000000       0x2b /tmp/ccuYT6cW.debug.temp.o
 .note.GNU-stack
                0x0000000000000000        0x0 /tmp/ccuYT6cW.debug.temp.o
 .comment       0x0000000000000000       0x2b /tmp/ccUgEfNV.debug.temp.o
 .note.GNU-stack
                0x0000000000000000        0x0 /tmp/ccUgEfNV.debug.temp.o
 .comment       0x0000000000000000       0x2b /tmp/cce7NVUS.debug.temp.o
 .note.GNU-stack
                0x0000000000000000        0x0 /tmp/cce7NVUS.debug.temp.o
 .comment       0x0000000000000000       0x2b /tmp/cc3vUqeW.debug.temp.o
 .note.GNU-stack
                0x0000000000000000        0x0 /tmp/cc3vUqeW.debug.temp.o
 .comment       0x0000000000000000       0x2b /tmp/ccc3WViW.debug.temp.o
 .note.GNU-stack
                0x0000000000000000        0x0 /tmp/ccc3WViW.debug.temp.o
 .comment       0x0000000000000000       0x2b /tmp/ccJSNvtT.debug.temp.o
 .note.GNU-stack
                0x0000000000000000        0x0 /tmp/ccJSNvtT.debug.temp.o
 .comment       0x0000000000000000       0x2b /tmp/ccpinTBW.debug.temp.o
 .note.GNU-stack
                0x0000000000000000        0x0 /tmp/ccpinTBW.debug.temp.o
 .comment       0x0000000000000000       0x2b /tmp/cc6gqZbU.debug.temp.o
 .note.GNU-stack
                0x0000000000000000        0x0 /tmp/cc6gqZbU.debug.temp.o
 .comment       0x0000000000000000       0x2b /tmp/ccVxYtqW.debug.temp.o
 .note.GNU-stack
                0x0000000000000000        0x0 /tmp/ccVxYtqW.debug.temp.o
 .comment       0x0000000000000000       0x2b /tmp/ccOf6hlS.debug.temp.o
 .note.GNU-stack
                0x0000000000000000        0x0 /tmp/ccOf6hlS.debug.temp.o
 .comment       0x0000000000000000       0x2b /tmp/ccl4OfHT.debug.temp.o
 .note.GNU-stack
                0x0000000000000000        0x0 /tmp/ccl4OfHT.debug.temp.o
 .comment       0x0000000000000000       0x2b /tmp/cceMWzuS.debug.temp.o
 .note.GNU-stack
                0x0000000000000000        0x0 /tmp/cceMWzuS.debug.temp.o
 .comment       0x0000000000000000       0x2b /tmp/ccKCHhgT.debug.temp.o
 .note.GNU-stack
                0x0000000000000000        0x0 /tmp/ccKCHhgT.debug.temp.o
 .comment       0x0000000000000000       0x2b /tmp/cc6cOpUU.debug.temp.o
 .note.GNU-stack
                0x0000000000000000        0x0 /tmp/cc6cOpUU.debug.temp.o
 .comment       0x0000000000000000       0x2b /tmp/cc0a232T.debug.temp.o
 .note.GNU-stack
                0x0000000000000000        0x0 /tmp/cc0a232T.debug.temp.o
 .comment       0x0000000000000000       0x2b /tmp/ccusTJfS.debug.temp.o
 .note.GNU-stack
                0x0000000000000000        0x0 /tmp/ccusTJfS.debug.temp.o
 .comment       0x0000000000000000       0x2b /tmp/cctc7w5R.debug.temp.o
 .note.GNU-stack
                0x0000000000000000        0x0 /tmp/cctc7w5R.debug.temp.o
 .comment       0x0000000000000000       0x2b /tmp/ccCfu85V.debug.temp.o
 .note.GNU-stack
                0x0000000000000000        0x0 /tmp/ccCfu85V.debug.temp.o
 .comment       0x0000000000000000       0x2b /tmp/cc9vReiS.debug.temp.o
 .note.GNU-stack
                0x0000000000000000        0x0 /tmp/cc9vReiS.debug.temp.o
 .comment       0x0000000000000000       0x2b /tmp/cc0vkHkV.debug.temp.o
 .note.GNU-stack
                0x0000000000000000        0x0 /tmp/cc0vkHkV.debug.temp.o
 .comment       0x0000000000000000       0x2b /tmp/ccy6tbsU.debug.temp.o
 .note.GNU-stack
                0x0000000000000000        0x0 /tmp/ccy6tbsU.debug.temp.o
 .comment       0x0000000000000000       0x2b /tmp/ccZNqVIV.debug.temp.o
 .note.GNU-stack
                0x0000000000000000        0x0 /tmp/ccZNqVIV.debug.temp.o
 .comment       0x0000000000000000       0x2b /tmp/cct51r4V.debug.temp.o
 .note.GNU-stack
                0x0000000000000000        0x0 /tmp/cct51r4V.debug.temp.o
 .comment       0x0000000000000000       0x2b /tmp/ccTY4DyV.debug.temp.o
 .note.GNU-stack
                0x0000000000000000        0x0 /tmp/ccTY4DyV.debug.temp.o
 .comment       0x0000000000000000       0x2b /tmp/ccQ9esST.debug.temp.o
 .note.GNU-stack
                0x0000000000000000        0x0 /tmp/ccQ9esST.debug.temp.o
 .comment       0x0000000000000000       0x2b /tmp/cckAfQaS.debug.temp.o
 .note.GNU-stack
                0x0000000000000000        0x0 /tmp/cckAfQaS.debug.temp.o
 .comment       0x0000000000000000       0x2b /tmp/ccamRyTT.debug.temp.o
 .note.GNU-stack
                0x0000000000000000        0x0 /tmp/ccamRyTT.debug.temp.o
 .comment       0x0000000000000000       0x2b /tmp/ccxjpVlU.debug.temp.o
 .note.GNU-stack
                0x0000000000000000        0x0 /tmp/ccxjpVlU.debug.temp.o
 .comment       0x0000000000000000       0x2b /tmp/cc6ztGOV.debug.temp.o
 .note.GNU-stack
                0x0000000000000000        0x0 /tmp/cc6ztGOV.debug.temp.o
 .comment       0x0000000000000000       0x2b /tmp/ccsgbSUT.debug.temp.o
 .note.GNU-stack
                0x0000000000000000        0x0 /tmp/ccsgbSUT.debug.temp.o
 .comment       0x0000000000000000       0x2b /tmp/ccurI9YV.debug.temp.o
 .note.GNU-stack
                0x0000000000000000        0x0 /tmp/ccurI9YV.debug.temp.o
 .comment       0x0000000000000000       0x2b /tmp/ccMiMJVV.debug.temp.o
 .note.GNU-stack
                0x0000000000000000        0x0 /tmp/ccMiMJVV.debug.temp.o
 .comment       0x0000000000000000       0x2b /tmp/ccHlb5gT.debug.temp.o
 .note.GNU-stack
                0x0000000000000000        0x0 /tmp/ccHlb5gT.debug.temp.o
 .comment       0x0000000000000000       0x2b /tmp/cc5bPMAU.debug.temp.o
 .note.GNU-stack
                0x0000000000000000        0x0 /tmp/cc5bPMAU.debug.temp.o
 .comment       0x0000000000000000       0x2b /tmp/ccw4q06V.debug.temp.o
 .note.GNU-stack
                0x0000000000000000        0x0 /tmp/ccw4q06V.debug.temp.o
 .comment       0x0000000000000000       0x2b /tmp/ccJeZkHV.debug.temp.o
 .note.GNU-stack
                0x0000000000000000        0x0 /tmp/ccJeZkHV.debug.temp.o
 .comment       0x0000000000000000       0x2b /tmp/ccMuYDVU.debug.temp.o
 .note.GNU-stack
                0x0000000000000000        0x0 /tmp/ccMuYDVU.debug.temp.o
 .comment       0x0000000000000000       0x2b /tmp/cc9x6YgS.debug.temp.o
 .note.GNU-stack
                0x0000000000000000        0x0 /tmp/cc9x6YgS.debug.temp.o
 .comment       0x0000000000000000       0x2b /tmp/ccekHVSV.debug.temp.o
 .note.GNU-stack
                0x0000000000000000        0x0 /tmp/ccekHVSV.debug.temp.o
 .comment       0x0000000000000000       0x2b /tmp/ccWdGw1U.debug.temp.o
 .note.GNU-stack
                0x0000000000000000        0x0 /tmp/ccWdGw1U.debug.temp.o
 .comment       0x0000000000000000       0x2b /tmp/ccWuIJRV.debug.temp.o
 .note.GNU-stack
                0x0000000000000000        0x0 /tmp/ccWuIJRV.debug.temp.o
 .comment       0x0000000000000000       0x2b /tmp/ccJRHRyW.debug.temp.o
 .note.GNU-stack
                0x0000000000000000        0x0 /tmp/ccJRHRyW.debug.temp.o
 .comment       0x0000000000000000       0x2b /tmp/ccTC1cFV.debug.temp.o
 .note.GNU-stack
                0x0000000000000000        0x0 /tmp/ccTC1cFV.debug.temp.o
 .comment       0x0000000000000000       0x2b /tmp/ccenqtnW.debug.temp.o
 .note.GNU-stack
                0x0000000000000000        0x0 /tmp/ccenqtnW.debug.temp.o
 .debug_info    0x0000000000000000      0x89f /tmp/cc0GUSqW.debug.temp.o
 .debug_abbrev  0x0000000000000000       0xf9 /tmp/cc0GUSqW.debug.temp.o
 .debug_line    0x0000000000000000      0x14b /tmp/cc0GUSqW.debug.temp.o
 .debug_str     0x0000000000000000      0x650 /tmp/cc0GUSqW.debug.temp.o
 .comment       0x0000000000000000       0x2b /tmp/cc0GUSqW.debug.temp.o
 .note.GNU-stack
                0x0000000000000000        0x0 /tmp/cc0GUSqW.debug.temp.o
 .comment       0x0000000000000000       0x2b /tmp/ccLVqUvU.debug.temp.o
 .note.GNU-stack
                0x0000000000000000        0x0 /tmp/ccLVqUvU.debug.temp.o
 .comment       0x0000000000000000       0x2b /tmp/ccMZTzhV.debug.temp.o
 .note.GNU-stack
                0x0000000000000000        0x0 /tmp/ccMZTzhV.debug.temp.o
 .comment       0x0000000000000000       0x2b /tmp/cciYOBoT.debug.temp.o
 .note.GNU-stack
                0x0000000000000000        0x0 /tmp/cciYOBoT.debug.temp.o
 .comment       0x0000000000000000       0x2b /tmp/ccyYEadT.debug.temp.o
 .note.GNU-stack
                0x0000000000000000        0x0 /tmp/ccyYEadT.debug.temp.o
 .comment       0x0000000000000000       0x2b /tmp/ccTJdHpV.debug.temp.o
 .note.GNU-stack
                0x0000000000000000        0x0 /tmp/ccTJdHpV.debug.temp.o
 .comment       0x0000000000000000       0x2b /tmp/ccU00YcS.debug.temp.o
 .note.GNU-stack
                0x0000000000000000        0x0 /tmp/ccU00YcS.debug.temp.o
 .comment       0x0000000000000000       0x2b /tmp/ccWvX2uU.debug.temp.o
 .note.GNU-stack
                0x0000000000000000        0x0 /tmp/ccWvX2uU.debug.temp.o
 .comment       0x0000000000000000       0x2b /tmp/cczlbICW.debug.temp.o
 .note.GNU-stack
                0x0000000000000000        0x0 /tmp/cczlbICW.debug.temp.o
 .comment       0x0000000000000000       0x2b /tmp/ccN6o9dU.debug.temp.o
 .note.GNU-stack
                0x0000000000000000        0x0 /tmp/ccN6o9dU.debug.temp.o
 .comment       0x0000000000000000       0x2b /tmp/ccPdnS8R.debug.temp.o
 .note.GNU-stack
                0x0000000000000000        0x0 /tmp/ccPdnS8R.debug.temp.o
 .comment       0x0000000000000000       0x2b /tmp/ccDN8t7T.debug.temp.o
 .note.GNU-stack
                0x0000000000000000        0x0 /tmp/ccDN8t7T.debug.temp.o
 .debug_info    0x0000000000000000     0x272c /tmp/ccI6uhAV.debug.temp.o
 .debug_abbrev  0x0000000000000000      0x214 /tmp/ccI6uhAV.debug.temp.o
 .debug_line    0x0000000000000000      0x4d9 /tmp/ccI6uhAV.debug.temp.o
 .debug_str     0x0000000000000000     0x2814 /tmp/ccI6uhAV.debug.temp.o
 .comment       0x0000000000000000       0x2b /tmp/ccI6uhAV.debug.temp.o
 .note.GNU-stack
                0x0000000000000000        0x0 /tmp/ccI6uhAV.debug.temp.o
 .comment       0x0000000000000000       0x2b /tmp/ccDHaE7R.debug.temp.o
 .note.GNU-stack
                0x0000000000000000        0x0 /tmp/ccDHaE7R.debug.temp.o
 .debug_info    0x0000000000000000     0x2b62 /tmp/ccRX1HWS.debug.temp.o
 .debug_abbrev  0x0000000000000000      0x258 /tmp/ccRX1HWS.debug.temp.o
 .debug_line    0x0000000000000000      0x575 /tmp/ccRX1HWS.debug.temp.o
 .debug_str     0x0000000000000000     0x2b97 /tmp/ccRX1HWS.debug.temp.o
 .comment       0x0000000000000000       0x2b /tmp/ccRX1HWS.debug.temp.o
 .note.GNU-stack
                0x0000000000000000        0x0 /tmp/ccRX1HWS.debug.temp.o
 .debug_info    0x0000000000000000     0x3e1e /tmp/cciPyBVU.debug.temp.o
 .debug_abbrev  0x0000000000000000      0x276 /tmp/cciPyBVU.debug.temp.o
 .debug_line    0x0000000000000000      0x621 /tmp/cciPyBVU.debug.temp.o
 .debug_str     0x0000000000000000     0x364b /tmp/cciPyBVU.debug.temp.o
 .comment       0x0000000000000000       0x2b /tmp/cciPyBVU.debug.temp.o
 .note.GNU-stack
                0x0000000000000000        0x0 /tmp/cciPyBVU.debug.temp.o
 .debug_info    0x0000000000000000     0x5375 /tmp/ccJqnC9V.debug.temp.o
 .debug_abbrev  0x0000000000000000      0x382 /tmp/ccJqnC9V.debug.temp.o
 .debug_line    0x0000000000000000      0x5f2 /tmp/ccJqnC9V.debug.temp.o
 .debug_str     0x0000000000000000     0x42ed /tmp/ccJqnC9V.debug.temp.o
 .comment       0x0000000000000000       0x2b /tmp/ccJqnC9V.debug.temp.o
 .note.GNU-stack
                0x0000000000000000        0x0 /tmp/ccJqnC9V.debug.temp.o
 .debug_info    0x0000000000000000     0x2e99 /tmp/ccuTj0NV.debug.temp.o
 .debug_abbrev  0x0000000000000000      0x2e5 /tmp/ccuTj0NV.debug.temp.o
 .debug_line    0x0000000000000000      0x53b /tmp/ccuTj0NV.debug.temp.o
 .debug_str     0x0000000000000000     0x2a4d /tmp/ccuTj0NV.debug.temp.o
 .comment       0x0000000000000000       0x2b /tmp/ccuTj0NV.debug.temp.o
 .note.GNU-stack
                0x0000000000000000        0x0 /tmp/ccuTj0NV.debug.temp.o
 .debug_info    0x0000000000000000     0x27fb /tmp/ccIvHLXU.debug.temp.o
 .debug_abbrev  0x0000000000000000      0x261 /tmp/ccIvHLXU.debug.temp.o
 .debug_line    0x0000000000000000      0x56e /tmp/ccIvHLXU.debug.temp.o
 .debug_str     0x0000000000000000     0x27dd /tmp/ccIvHLXU.debug.temp.o
 .comment       0x0000000000000000       0x2b /tmp/ccIvHLXU.debug.temp.o
 .note.GNU-stack
                0x0000000000000000        0x0 /tmp/ccIvHLXU.debug.temp.o
 .debug_info    0x0000000000000000      0x1e7 /tmp/ccXnUltU.debug.temp.o
 .debug_abbrev  0x0000000000000000       0xc0 /tmp/ccXnUltU.debug.temp.o
 .debug_line    0x0000000000000000      0x14e /tmp/ccXnUltU.debug.temp.o
 .debug_str     0x0000000000000000      0x473 /tmp/ccXnUltU.debug.temp.o
 .comment       0x0000000000000000       0x2b /tmp/ccXnUltU.debug.temp.o
 .note.GNU-stack
                0x0000000000000000        0x0 /tmp/ccXnUltU.debug.temp.o
 .debug_info    0x0000000000000000      0x502 /tmp/ccOwX46U.debug.temp.o
 .debug_abbrev  0x0000000000000000      0x124 /tmp/ccOwX46U.debug.temp.o
 .debug_line    0x0000000000000000      0x2b2 /tmp/ccOwX46U.debug.temp.o
 .debug_str     0x0000000000000000      0x6b5 /tmp/ccOwX46U.debug.temp.o
 .comment       0x0000000000000000       0x2b /tmp/ccOwX46U.debug.temp.o
 .note.GNU-stack
                0x0000000000000000        0x0 /tmp/ccOwX46U.debug.temp.o
 .debug_info    0x0000000000000000     0x2756 /tmp/ccwG8TJT.debug.temp.o
 .debug_abbrev  0x0000000000000000      0x225 /tmp/ccwG8TJT.debug.temp.o
 .debug_line    0x0000000000000000      0x48d /tmp/ccwG8TJT.debug.temp.o
 .debug_str     0x0000000000000000     0x1f15 /tmp/ccwG8TJT.debug.temp.o
 .comment       0x0000000000000000       0x2b /tmp/ccwG8TJT.debug.temp.o
 .note.GNU-stack
                0x0000000000000000        0x0 /tmp/ccwG8TJT.debug.temp.o
 .debug_info    0x0000000000000000     0x1c8c /tmp/ccorDBHT.debug.temp.o
 .debug_abbrev  0x0000000000000000      0x240 /tmp/ccorDBHT.debug.temp.o
 .debug_line    0x0000000000000000      0x388 /tmp/ccorDBHT.debug.temp.o
 .debug_str     0x0000000000000000     0x1887 /tmp/ccorDBHT.debug.temp.o
 .comment       0x0000000000000000       0x2b /tmp/ccorDBHT.debug.temp.o
 .note.GNU-stack
                0x0000000000000000        0x0 /tmp/ccorDBHT.debug.temp.o
 .data          0x0000000000000000        0x0 /home/alastair/pftf-rpi4/Build/RPi4/RELEASE_GCC5/AARCH64/MdePkg/Library/BaseMemoryLibOptDxe/BaseMemoryLibOptDxe/OUTPUT/BaseMemoryLibOptDxe.lib(SetMem.obj)
 .bss           0x0000000000000000        0x0 /home/alastair/pftf-rpi4/Build/RPi4/RELEASE_GCC5/AARCH64/MdePkg/Library/BaseMemoryLibOptDxe/BaseMemoryLibOptDxe/OUTPUT/BaseMemoryLibOptDxe.lib(SetMem.obj)
 .data          0x0000000000000000        0x0 /home/alastair/pftf-rpi4/Build/RPi4/RELEASE_GCC5/AARCH64/MdePkg/Library/BaseMemoryLibOptDxe/BaseMemoryLibOptDxe/OUTPUT/BaseMemoryLibOptDxe.lib(CopyMem.obj)
 .bss           0x0000000000000000        0x0 /home/alastair/pftf-rpi4/Build/RPi4/RELEASE_GCC5/AARCH64/MdePkg/Library/BaseMemoryLibOptDxe/BaseMemoryLibOptDxe/OUTPUT/BaseMemoryLibOptDxe.lib(CopyMem.obj)
 .data          0x0000000000000000        0x0 /home/alastair/pftf-rpi4/Build/RPi4/RELEASE_GCC5/AARCH64/MdePkg/Library/BaseMemoryLibOptDxe/BaseMemoryLibOptDxe/OUTPUT/BaseMemoryLibOptDxe.lib(CompareGuid.obj)
 .bss           0x0000000000000000        0x0 /home/alastair/pftf-rpi4/Build/RPi4/RELEASE_GCC5/AARCH64/MdePkg/Library/BaseMemoryLibOptDxe/BaseMemoryLibOptDxe/OUTPUT/BaseMemoryLibOptDxe.lib(CompareGuid.obj)
 .data          0x0000000000000000        0x0 /home/alastair/pftf-rpi4/Build/RPi4/RELEASE_GCC5/AARCH64/MdePkg/Library/BaseLib/BaseLib/OUTPUT/BaseLib.lib(CpuBreakpoint.obj)
 .bss           0x0000000000000000        0x0 /home/alastair/pftf-rpi4/Build/RPi4/RELEASE_GCC5/AARCH64/MdePkg/Library/BaseLib/BaseLib/OUTPUT/BaseLib.lib(CpuBreakpoint.obj)
 .data          0x0000000000000000        0x0 /home/alastair/pftf-rpi4/Build/RPi4/RELEASE_GCC5/AARCH64/MdePkg/Library/BaseMemoryLibOptDxe/BaseMemoryLibOptDxe/OUTPUT/BaseMemoryLibOptDxe.lib(CompareMem.obj)
 .bss           0x0000000000000000        0x0 /home/alastair/pftf-rpi4/Build/RPi4/RELEASE_GCC5/AARCH64/MdePkg/Library/BaseMemoryLibOptDxe/BaseMemoryLibOptDxe/OUTPUT/BaseMemoryLibOptDxe.lib(CompareMem.obj)

Memory Configuration

Name             Origin             Length             Attributes
*default*        0x0000000000000000 0xffffffffffffffff

Linker script and memory map

LOAD /home/alastair/pftf-rpi4/edk2/ArmPkg/Library/GccLto/liblto-aarch64.a
START GROUP
LOAD /tmp/Shell.dll.q6gkOU.ltrans0.ltrans.o
LOAD /tmp/Shell.dll.q6gkOU.ltrans1.ltrans.o
LOAD /tmp/Shell.dll.q6gkOU.ltrans2.ltrans.o
LOAD /tmp/Shell.dll.q6gkOU.ltrans3.ltrans.o
LOAD /tmp/Shell.dll.q6gkOU.ltrans4.ltrans.o
LOAD /tmp/Shell.dll.q6gkOU.ltrans5.ltrans.o
LOAD /tmp/Shell.dll.q6gkOU.ltrans6.ltrans.o
LOAD /tmp/Shell.dll.q6gkOU.ltrans7.ltrans.o
LOAD /tmp/Shell.dll.q6gkOU.ltrans8.ltrans.o
LOAD /tmp/Shell.dll.q6gkOU.ltrans9.ltrans.o
LOAD /tmp/Shell.dll.q6gkOU.ltrans10.ltrans.o
LOAD /tmp/Shell.dll.q6gkOU.ltrans11.ltrans.o
LOAD /tmp/ccTejSGS.debug.temp.o
LOAD /tmp/ccAbj5PS.debug.temp.o
LOAD /tmp/ccHzUtuU.debug.temp.o
LOAD /tmp/cc3O2vWT.debug.temp.o
LOAD /tmp/ccYK7LpW.debug.temp.o
LOAD /tmp/cclXgfzU.debug.temp.o
LOAD /tmp/ccpPQYMU.debug.temp.o
LOAD /tmp/ccR3uDOS.debug.temp.o
LOAD /tmp/ccq0XrES.debug.temp.o
LOAD /tmp/ccG60d4T.debug.temp.o
LOAD /tmp/ccick9kU.debug.temp.o
LOAD /tmp/ccjtIUJW.debug.temp.o
LOAD /tmp/cc7sXw0S.debug.temp.o
LOAD /tmp/ccj8VxpT.debug.temp.o
LOAD /tmp/ccUYHy7V.debug.temp.o
LOAD /tmp/ccYCe7BV.debug.temp.o
LOAD /tmp/ccRjqpLT.debug.temp.o
LOAD /tmp/ccZmdiaW.debug.temp.o
LOAD /tmp/ccOyS1dW.debug.temp.o
LOAD /tmp/ccOX0oGW.debug.temp.o
LOAD /tmp/ccFmniiV.debug.temp.o
LOAD /tmp/cc0KvZ5S.debug.temp.o
LOAD /tmp/ccnTZERT.debug.temp.o
LOAD /tmp/ccZTiSsT.debug.temp.o
LOAD /tmp/ccCpShDW.debug.temp.o
LOAD /tmp/cc0CezIV.debug.temp.o
LOAD /tmp/ccGFjNtV.debug.temp.o
LOAD /tmp/cc5eNepV.debug.temp.o
LOAD /tmp/cc2D4ZMV.debug.temp.o
LOAD /tmp/ccUFMH4U.debug.temp.o
LOAD /tmp/ccsch6zU.debug.temp.o
LOAD /tmp/ccJ2G06U.debug.temp.o
LOAD /tmp/ccamYGSS.debug.temp.o
LOAD /tmp/ccGhc5ZS.debug.temp.o
LOAD /tmp/ccvhrsmV.debug.temp.o
LOAD /tmp/ccgSgrmV.debug.temp.o
LOAD /tmp/ccKB3XSU.debug.temp.o
LOAD /tmp/ccnd7M1T.debug.temp.o
LOAD /tmp/ccrYO7XV.debug.temp.o
LOAD /tmp/ccmMT7zS.debug.temp.o
LOAD /tmp/ccORAesS.debug.temp.o
LOAD /tmp/cceduEMU.debug.temp.o
LOAD /tmp/ccL90OWU.debug.temp.o
LOAD /tmp/ccg9r7YU.debug.temp.o
LOAD /tmp/ccmGmvSS.debug.temp.o
LOAD /tmp/ccbc2KbT.debug.temp.o
LOAD /tmp/ccKqkveW.debug.temp.o
LOAD /tmp/ccjE6BkS.debug.temp.o
LOAD /tmp/cc9LuEeU.debug.temp.o
LOAD /tmp/cc6Zw3rW.debug.temp.o
LOAD /tmp/ccndybFV.debug.temp.o
LOAD /tmp/cczPQ4oU.debug.temp.o
LOAD /tmp/ccSvEj8R.debug.temp.o
LOAD /tmp/ccrFSWQT.debug.temp.o
LOAD /tmp/cc5aledT.debug.temp.o
LOAD /tmp/ccx6pmgV.debug.temp.o
LOAD /tmp/ccrEKq3V.debug.temp.o
LOAD /tmp/cc6zBmsW.debug.temp.o
LOAD /tmp/ccqyL4GW.debug.temp.o
LOAD /tmp/ccUXW0xW.debug.temp.o
LOAD /tmp/ccVY0SSS.debug.temp.o
LOAD /tmp/cck0f0YV.debug.temp.o
LOAD /tmp/cc59tWPV.debug.temp.o
LOAD /tmp/ccGzJgCV.debug.temp.o
LOAD /tmp/ccq9pbFU.debug.temp.o
LOAD /tmp/cc9ZXgdV.debug.temp.o
LOAD /tmp/cceOSdsT.debug.temp.o
LOAD /tmp/ccOnX61U.debug.temp.o
LOAD /tmp/ccLQLpeS.debug.temp.o
LOAD /tmp/ccza3XQS.debug.temp.o
LOAD /tmp/ccbrAOqS.debug.temp.o
LOAD /tmp/ccSwGxlT.debug.temp.o
LOAD /tmp/ccv2B5uU.debug.temp.o
LOAD /tmp/cc2jfg2U.debug.temp.o
LOAD /tmp/ccP5UdXT.debug.temp.o
LOAD /tmp/ccG06kxW.debug.temp.o
LOAD /tmp/cc4UZfgW.debug.temp.o
LOAD /tmp/ccFxFe6T.debug.temp.o
LOAD /tmp/ccexHeKS.debug.temp.o
LOAD /tmp/ccTWQY3V.debug.temp.o
LOAD /tmp/ccuuf6mT.debug.temp.o
LOAD /tmp/ccehXTqU.debug.temp.o
LOAD /tmp/ccbcAovU.debug.temp.o
LOAD /tmp/ccSHyr6T.debug.temp.o
LOAD /tmp/ccpcdleU.debug.temp.o
LOAD /tmp/cchlwOeS.debug.temp.o
LOAD /tmp/ccgEF1ST.debug.temp.o
LOAD /tmp/ccygxt5T.debug.temp.o
LOAD /tmp/ccGy6mdU.debug.temp.o
LOAD /tmp/ccNzzZoS.debug.temp.o
LOAD /tmp/cc593jWT.debug.temp.o
LOAD /tmp/ccHIOBOT.debug.temp.o
LOAD /tmp/ccLOU67R.debug.temp.o
LOAD /tmp/cc4lJsIS.debug.temp.o
LOAD /tmp/ccgLMoNT.debug.temp.o
LOAD /tmp/cceBWVvS.debug.temp.o
LOAD /tmp/cckWitxT.debug.temp.o
LOAD /tmp/ccfwDiEV.debug.temp.o
LOAD /tmp/ccyYCCKU.debug.temp.o
LOAD /tmp/cc1Y0vhV.debug.temp.o
LOAD /tmp/ccZaEOqT.debug.temp.o
LOAD /tmp/ccFRe90V.debug.temp.o
LOAD /tmp/cc2LD5pW.debug.temp.o
LOAD /tmp/ccZV4SfW.debug.temp.o
LOAD /tmp/ccGachAW.debug.temp.o
LOAD /tmp/ccQ4wFIS.debug.temp.o
LOAD /tmp/ccZfSe4U.debug.temp.o
LOAD /tmp/ccN0KhqW.debug.temp.o
LOAD /tmp/ccJkBFyS.debug.temp.o
LOAD /tmp/ccKwI5AV.debug.temp.o
LOAD /tmp/cceQSqPU.debug.temp.o
LOAD /tmp/cceLk0mU.debug.temp.o
LOAD /tmp/ccqf3D6U.debug.temp.o
LOAD /tmp/ccjqwkhW.debug.temp.o
LOAD /tmp/ccyZJ9JS.debug.temp.o
LOAD /tmp/cc4jUYQS.debug.temp.o
LOAD /tmp/ccO9LfBV.debug.temp.o
LOAD /tmp/ccWHDk6R.debug.temp.o
LOAD /tmp/ccG7D0FT.debug.temp.o
LOAD /tmp/ccjGV8BU.debug.temp.o
LOAD /tmp/cck4ryKV.debug.temp.o
LOAD /tmp/cc5f006S.debug.temp.o
LOAD /tmp/ccuWDdDU.debug.temp.o
LOAD /tmp/ccBVW9bS.debug.temp.o
LOAD /tmp/ccLvQ4jU.debug.temp.o
LOAD /tmp/cc4j6r8V.debug.temp.o
LOAD /tmp/ccUHx8zS.debug.temp.o
LOAD /tmp/ccihIkSS.debug.temp.o
LOAD /tmp/cc1IxZGU.debug.temp.o
LOAD /tmp/ccNosJwU.debug.temp.o
LOAD /tmp/ccwu5PpV.debug.temp.o
LOAD /tmp/ccJ1O7nU.debug.temp.o
LOAD /tmp/cc2RbltU.debug.temp.o
LOAD /tmp/ccKkVH5R.debug.temp.o
LOAD /tmp/ccC7WILS.debug.temp.o
LOAD /tmp/cc2N0zRV.debug.temp.o
LOAD /tmp/ccJqMPkT.debug.temp.o
LOAD /tmp/ccuYT6cW.debug.temp.o
LOAD /tmp/ccUgEfNV.debug.temp.o
LOAD /tmp/cce7NVUS.debug.temp.o
LOAD /tmp/cc3vUqeW.debug.temp.o
LOAD /tmp/ccc3WViW.debug.temp.o
LOAD /tmp/ccJSNvtT.debug.temp.o
LOAD /tmp/ccpinTBW.debug.temp.o
LOAD /tmp/cc6gqZbU.debug.temp.o
LOAD /tmp/ccVxYtqW.debug.temp.o
LOAD /tmp/ccOf6hlS.debug.temp.o
LOAD /tmp/ccl4OfHT.debug.temp.o
LOAD /tmp/cceMWzuS.debug.temp.o
LOAD /tmp/ccKCHhgT.debug.temp.o
LOAD /tmp/cc6cOpUU.debug.temp.o
LOAD /tmp/cc0a232T.debug.temp.o
LOAD /tmp/ccusTJfS.debug.temp.o
LOAD /tmp/cctc7w5R.debug.temp.o
LOAD /tmp/ccCfu85V.debug.temp.o
LOAD /tmp/cc9vReiS.debug.temp.o
LOAD /tmp/cc0vkHkV.debug.temp.o
LOAD /tmp/ccy6tbsU.debug.temp.o
LOAD /tmp/ccZNqVIV.debug.temp.o
LOAD /tmp/cct51r4V.debug.temp.o
LOAD /tmp/ccTY4DyV.debug.temp.o
LOAD /tmp/ccQ9esST.debug.temp.o
LOAD /tmp/cckAfQaS.debug.temp.o
LOAD /tmp/ccamRyTT.debug.temp.o
LOAD /tmp/ccxjpVlU.debug.temp.o
LOAD /tmp/cc6ztGOV.debug.temp.o
LOAD /tmp/ccsgbSUT.debug.temp.o
LOAD /tmp/ccurI9YV.debug.temp.o
LOAD /tmp/ccMiMJVV.debug.temp.o
LOAD /tmp/ccHlb5gT.debug.temp.o
LOAD /tmp/cc5bPMAU.debug.temp.o
LOAD /tmp/ccw4q06V.debug.temp.o
LOAD /tmp/ccJeZkHV.debug.temp.o
LOAD /tmp/ccMuYDVU.debug.temp.o
LOAD /tmp/cc9x6YgS.debug.temp.o
LOAD /tmp/ccekHVSV.debug.temp.o
LOAD /tmp/ccWdGw1U.debug.temp.o
LOAD /tmp/ccWuIJRV.debug.temp.o
LOAD /tmp/ccJRHRyW.debug.temp.o
LOAD /tmp/ccTC1cFV.debug.temp.o
LOAD /tmp/ccenqtnW.debug.temp.o
LOAD /tmp/cc0GUSqW.debug.temp.o
LOAD /tmp/ccLVqUvU.debug.temp.o
LOAD /tmp/ccMZTzhV.debug.temp.o
LOAD /tmp/cciYOBoT.debug.temp.o
LOAD /tmp/ccyYEadT.debug.temp.o
LOAD /tmp/ccTJdHpV.debug.temp.o
LOAD /tmp/ccU00YcS.debug.temp.o
LOAD /tmp/ccWvX2uU.debug.temp.o
LOAD /tmp/cczlbICW.debug.temp.o
LOAD /tmp/ccN6o9dU.debug.temp.o
LOAD /tmp/ccPdnS8R.debug.temp.o
LOAD /tmp/ccDN8t7T.debug.temp.o
LOAD /tmp/ccI6uhAV.debug.temp.o
LOAD /tmp/ccDHaE7R.debug.temp.o
LOAD /tmp/ccRX1HWS.debug.temp.o
LOAD /tmp/cciPyBVU.debug.temp.o
LOAD /tmp/ccJqnC9V.debug.temp.o
LOAD /tmp/ccuTj0NV.debug.temp.o
LOAD /tmp/ccIvHLXU.debug.temp.o
LOAD /tmp/ccXnUltU.debug.temp.o
LOAD /tmp/ccOwX46U.debug.temp.o
LOAD /tmp/ccwG8TJT.debug.temp.o
LOAD /tmp/ccorDBHT.debug.temp.o
LOAD /home/alastair/pftf-rpi4/Build/RPi4/RELEASE_GCC5/AARCH64/ShellPkg/Application/Shell/Shell/OUTPUT/Shell.lib
LOAD /home/alastair/pftf-rpi4/Build/RPi4/RELEASE_GCC5/AARCH64/MdePkg/Library/DxePcdLib/DxePcdLib/OUTPUT/DxePcdLib.lib
LOAD /home/alastair/pftf-rpi4/Build/RPi4/RELEASE_GCC5/AARCH64/MdePkg/Library/BaseMemoryLibOptDxe/BaseMemoryLibOptDxe/OUTPUT/BaseMemoryLibOptDxe.lib
LOAD /home/alastair/pftf-rpi4/Build/RPi4/RELEASE_GCC5/AARCH64/MdePkg/Library/BaseDebugLibNull/BaseDebugLibNull/OUTPUT/BaseDebugLibNull.lib
LOAD /home/alastair/pftf-rpi4/Build/RPi4/RELEASE_GCC5/AARCH64/MdePkg/Library/BaseLib/BaseLib/OUTPUT/BaseLib.lib
LOAD /home/alastair/pftf-rpi4/Build/RPi4/RELEASE_GCC5/AARCH64/MdePkg/Library/UefiBootServicesTableLib/UefiBootServicesTableLib/OUTPUT/UefiBootServicesTableLib.lib
LOAD /home/alastair/pftf-rpi4/Build/RPi4/RELEASE_GCC5/AARCH64/MdePkg/Library/BasePrintLib/BasePrintLib/OUTPUT/BasePrintLib.lib
LOAD /home/alastair/pftf-rpi4/Build/RPi4/RELEASE_GCC5/AARCH64/MdePkg/Library/UefiMemoryAllocationLib/UefiMemoryAllocationLib/OUTPUT/UefiMemoryAllocationLib.lib
LOAD /home/alastair/pftf-rpi4/Build/RPi4/RELEASE_GCC5/AARCH64/MdePkg/Library/UefiDevicePathLib/UefiDevicePathLib/OUTPUT/UefiDevicePathLib.lib
LOAD /home/alastair/pftf-rpi4/Build/RPi4/RELEASE_GCC5/AARCH64/MdePkg/Library/UefiRuntimeServicesTableLib/UefiRuntimeServicesTableLib/OUTPUT/UefiRuntimeServicesTableLib.lib
LOAD /home/alastair/pftf-rpi4/Build/RPi4/RELEASE_GCC5/AARCH64/MdeModulePkg/Library/UefiHiiServicesLib/UefiHiiServicesLib/OUTPUT/UefiHiiServicesLib.lib
LOAD /home/alastair/pftf-rpi4/Build/RPi4/RELEASE_GCC5/AARCH64/MdePkg/Library/UefiLib/UefiLib/OUTPUT/UefiLib.lib
LOAD /home/alastair/pftf-rpi4/Build/RPi4/RELEASE_GCC5/AARCH64/MdeModulePkg/Library/UefiSortLib/UefiSortLib/OUTPUT/UefiSortLib.lib
LOAD /home/alastair/pftf-rpi4/Build/RPi4/RELEASE_GCC5/AARCH64/MdeModulePkg/Library/UefiHiiLib/UefiHiiLib/OUTPUT/UefiHiiLib.lib
LOAD /home/alastair/pftf-rpi4/Build/RPi4/RELEASE_GCC5/AARCH64/MdePkg/Library/UefiFileHandleLib/UefiFileHandleLib/OUTPUT/UefiFileHandleLib.lib
LOAD /home/alastair/pftf-rpi4/Build/RPi4/RELEASE_GCC5/AARCH64/MdePkg/Library/BasePeCoffGetEntryPointLib/BasePeCoffGetEntryPointLib/OUTPUT/BasePeCoffGetEntryPointLib.lib
LOAD /home/alastair/pftf-rpi4/Build/RPi4/RELEASE_GCC5/AARCH64/MdePkg/Library/BaseReportStatusCodeLibNull/BaseReportStatusCodeLibNull/OUTPUT/BaseReportStatusCodeLibNull.lib
LOAD /home/alastair/pftf-rpi4/Build/RPi4/RELEASE_GCC5/AARCH64/MdePkg/Library/DxeServicesLib/DxeServicesLib/OUTPUT/DxeServicesLib.lib
LOAD /home/alastair/pftf-rpi4/Build/RPi4/RELEASE_GCC5/AARCH64/MdePkg/Library/DxeServicesTableLib/DxeServicesTableLib/OUTPUT/DxeServicesTableLib.lib
LOAD /home/alastair/pftf-rpi4/Build/RPi4/RELEASE_GCC5/AARCH64/MdeModulePkg/Library/DxePerformanceLib/DxePerformanceLib/OUTPUT/DxePerformanceLib.lib
LOAD /home/alastair/pftf-rpi4/Build/RPi4/RELEASE_GCC5/AARCH64/MdePkg/Library/DxeHobLib/DxeHobLib/OUTPUT/DxeHobLib.lib
LOAD /home/alastair/pftf-rpi4/Build/RPi4/RELEASE_GCC5/AARCH64/MdePkg/Library/BaseOrderedCollectionRedBlackTreeLib/BaseOrderedCollectionRedBlackTreeLib/OUTPUT/BaseOrderedCollectionRedBlackTreeLib.lib
LOAD /home/alastair/pftf-rpi4/Build/RPi4/RELEASE_GCC5/AARCH64/ShellPkg/Library/UefiShellLib/UefiShellLib/OUTPUT/UefiShellLib.lib
LOAD /home/alastair/pftf-rpi4/Build/RPi4/RELEASE_GCC5/AARCH64/ShellPkg/Library/UefiHandleParsingLib/UefiHandleParsingLib/OUTPUT/UefiHandleParsingLib.lib
LOAD /home/alastair/pftf-rpi4/Build/RPi4/RELEASE_GCC5/AARCH64/MdeModulePkg/Library/UefiBootManagerLib/UefiBootManagerLib/OUTPUT/UefiBootManagerLib.lib
LOAD /home/alastair/pftf-rpi4/Build/RPi4/RELEASE_GCC5/AARCH64/ShellPkg/Library/UefiShellCommandLib/UefiShellCommandLib/OUTPUT/UefiShellCommandLib.lib
LOAD /home/alastair/pftf-rpi4/Build/RPi4/RELEASE_GCC5/AARCH64/MdePkg/Library/BaseIoLibIntrinsic/BaseIoLibIntrinsic/OUTPUT/BaseIoLibIntrinsic.lib
LOAD /home/alastair/pftf-rpi4/Build/RPi4/RELEASE_GCC5/AARCH64/ShellPkg/Library/UefiShellBcfgCommandLib/UefiShellBcfgCommandLib/OUTPUT/UefiShellBcfgCommandLib.lib
LOAD /home/alastair/pftf-rpi4/Build/RPi4/RELEASE_GCC5/AARCH64/NetworkPkg/Library/DxeNetLib/DxeNetLib/OUTPUT/DxeNetLib.lib
LOAD /home/alastair/pftf-rpi4/Build/RPi4/RELEASE_GCC5/AARCH64/MdePkg/Library/UefiApplicationEntryPoint/UefiApplicationEntryPoint/OUTPUT/UefiApplicationEntryPoint.lib
LOAD /home/alastair/pftf-rpi4/Build/RPi4/RELEASE_GCC5/AARCH64/MdePkg/Library/BaseStackCheckLib/BaseStackCheckLib/OUTPUT/BaseStackCheckLib.lib
LOAD /home/alastair/pftf-rpi4/Build/RPi4/RELEASE_GCC5/AARCH64/ArmPkg/Library/CompilerIntrinsicsLib/CompilerIntrinsicsLib/OUTPUT/CompilerIntrinsicsLib.lib
LOAD /home/alastair/pftf-rpi4/Build/RPi4/RELEASE_GCC5/AARCH64/ShellPkg/Library/UefiShellLevel2CommandsLib/UefiShellLevel2CommandsLib/OUTPUT/UefiShellLevel2CommandsLib.lib
LOAD /home/alastair/pftf-rpi4/Build/RPi4/RELEASE_GCC5/AARCH64/ShellPkg/Library/UefiShellLevel1CommandsLib/UefiShellLevel1CommandsLib/OUTPUT/UefiShellLevel1CommandsLib.lib
LOAD /home/alastair/pftf-rpi4/Build/RPi4/RELEASE_GCC5/AARCH64/ShellPkg/Library/UefiShellLevel3CommandsLib/UefiShellLevel3CommandsLib/OUTPUT/UefiShellLevel3CommandsLib.lib
LOAD /home/alastair/pftf-rpi4/Build/RPi4/RELEASE_GCC5/AARCH64/ShellPkg/Library/UefiShellDriver1CommandsLib/UefiShellDriver1CommandsLib/OUTPUT/UefiShellDriver1CommandsLib.lib
LOAD /home/alastair/pftf-rpi4/Build/RPi4/RELEASE_GCC5/AARCH64/ShellPkg/Library/UefiShellDebug1CommandsLib/UefiShellDebug1CommandsLib/OUTPUT/UefiShellDebug1CommandsLib.lib
LOAD /home/alastair/pftf-rpi4/Build/RPi4/RELEASE_GCC5/AARCH64/ShellPkg/Library/UefiShellInstall1CommandsLib/UefiShellInstall1CommandsLib/OUTPUT/UefiShellInstall1CommandsLib.lib
LOAD /home/alastair/pftf-rpi4/Build/RPi4/RELEASE_GCC5/AARCH64/ShellPkg/Library/UefiShellNetwork1CommandsLib/UefiShellNetwork1CommandsLib/OUTPUT/UefiShellNetwork1CommandsLib.lib
LOAD /home/alastair/pftf-rpi4/Build/RPi4/RELEASE_GCC5/AARCH64/ShellPkg/Library/UefiShellAcpiViewCommandLib/UefiShellAcpiViewCommandLib/OUTPUT/UefiShellAcpiViewCommandLib.lib
END GROUP
                0x0000000000000228                . = PECOFF_HEADER_SIZE

.gnu.version_d  0x0000000000000228        0x0
 .gnu.version_d
                0x0000000000000228        0x0 /home/alastair/pftf-rpi4/edk2/ArmPkg/Library/GccLto/liblto-aarch64.a

.gnu.version    0x0000000000000228        0x0
 .gnu.version   0x0000000000000228        0x0 /home/alastair/pftf-rpi4/edk2/ArmPkg/Library/GccLto/liblto-aarch64.a

.gnu.version_r  0x0000000000000228        0x0
 .gnu.version_r
                0x0000000000000228        0x0 /home/alastair/pftf-rpi4/edk2/ArmPkg/Library/GccLto/liblto-aarch64.a

.text           0x0000000000001000    0x84140
 *(.text .text.* .stub .gnu.linkonce.t.*)
 .text.IsZeroBuffer.constprop.0
                0x0000000000001000       0x28 /tmp/Shell.dll.q6gkOU.ltrans0.ltrans.o
 .text.ShellCommandGetManFileNameBcfg
                0x0000000000001028        0xc /tmp/Shell.dll.q6gkOU.ltrans0.ltrans.o
 .text.NodeIsNullOrBlack
                0x0000000000001034       0x1c /tmp/Shell.dll.q6gkOU.ltrans0.ltrans.o
 .text.RedBlackTreeRotateLeft
                0x0000000000001050       0x4c /tmp/Shell.dll.q6gkOU.ltrans0.ltrans.o
 .text.RedBlackTreeRotateRight
                0x000000000000109c       0x48 /tmp/Shell.dll.q6gkOU.ltrans0.ltrans.o
 .text.WriteUnaligned32
                0x00000000000010e4       0x2c /tmp/Shell.dll.q6gkOU.ltrans0.ltrans.o
 .text.ManFileFindTitleSection.part.0.constprop.0
                0x0000000000001110      0x29c /tmp/Shell.dll.q6gkOU.ltrans0.ltrans.o
 .text.GetDevicePathForDriverHandle
                0x00000000000013ac      0x12c /tmp/Shell.dll.q6gkOU.ltrans0.ltrans.o
 .text.InternalCommandLineParse.part.0.constprop.0
                0x00000000000014d8      0x438 /tmp/Shell.dll.q6gkOU.ltrans0.ltrans.o
 .text.NetLibGetSnpHandle.constprop.0
                0x0000000000001910       0xf4 /tmp/Shell.dll.q6gkOU.ltrans0.ltrans.o
 .text.NetLibDetectMedia.constprop.0
                0x0000000000001a04      0x214 /tmp/Shell.dll.q6gkOU.ltrans0.ltrans.o
 .text.CatVSPrint
                0x0000000000001c18      0x104 /tmp/Shell.dll.q6gkOU.ltrans0.ltrans.o
 .text.ShellLibDestructor.constprop.0
                0x0000000000001d1c      0x118 /tmp/Shell.dll.q6gkOU.ltrans0.ltrans.o
                0x0000000000001d1c                ShellLibDestructor.constprop.0
 .text.GetNextNode.constprop.0
                0x0000000000001e34        0x8 /tmp/Shell.dll.q6gkOU.ltrans0.ltrans.o
                0x0000000000001e34                GetNextNode.constprop.0
 .text.InternalAllocatePool.constprop.0
                0x0000000000001e3c       0x6c /tmp/Shell.dll.q6gkOU.ltrans0.ltrans.o
                0x0000000000001e3c                InternalAllocatePool.constprop.0
 .text.ShellCopySearchAndReplace.constprop.0
                0x0000000000001ea8      0x1cc /tmp/Shell.dll.q6gkOU.ltrans0.ltrans.o
                0x0000000000001ea8                ShellCopySearchAndReplace.constprop.0
 .text.FindNextInstance.constprop.0
                0x0000000000002074       0x54 /tmp/Shell.dll.q6gkOU.ltrans0.ltrans.o
                0x0000000000002074                FindNextInstance.constprop.0
 .text.ShellFindFilePathEx.part.0.constprop.0
                0x00000000000020c8       0xd0 /tmp/Shell.dll.q6gkOU.ltrans0.ltrans.o
                0x00000000000020c8                ShellFindFilePathEx.part.0.constprop.0
 .text.CreateFileInterfaceFile.constprop.0
                0x0000000000002198       0xbc /tmp/Shell.dll.q6gkOU.ltrans0.ltrans.o
                0x0000000000002198                CreateFileInterfaceFile.constprop.0
 .text.RunScriptFile.constprop.0
                0x0000000000002254      0x8ac /tmp/Shell.dll.q6gkOU.ltrans0.ltrans.o
                0x0000000000002254                RunScriptFile.constprop.0
 .text.RunSplitCommand.constprop.0
                0x0000000000002b00      0x250 /tmp/Shell.dll.q6gkOU.ltrans0.ltrans.o
                0x0000000000002b00                RunSplitCommand.constprop.0
 .text.ShellCommandAddMapItemAndUpdatePath.constprop.0
                0x0000000000002d50      0x1e4 /tmp/Shell.dll.q6gkOU.ltrans0.ltrans.o
                0x0000000000002d50                ShellCommandAddMapItemAndUpdatePath.constprop.0
 .text.PerformQuickSort.constprop.0
                0x0000000000002f34       0x54 /tmp/Shell.dll.q6gkOU.ltrans0.ltrans.o
                0x0000000000002f34                PerformQuickSort.constprop.0
 .text.ShellLibConstructorWorker.constprop.0
                0x0000000000002f88      0x3b0 /tmp/Shell.dll.q6gkOU.ltrans0.ltrans.o
                0x0000000000002f88                ShellLibConstructorWorker.constprop.0
 .text.GetBestLanguageForDriver.constprop.0
                0x0000000000003338       0xb8 /tmp/Shell.dll.q6gkOU.ltrans0.ltrans.o
                0x0000000000003338                GetBestLanguageForDriver.constprop.0
 .text.ShellSetFilePosition.constprop.0
                0x00000000000033f0       0x14 /tmp/Shell.dll.q6gkOU.ltrans0.ltrans.o
                0x00000000000033f0                ShellSetFilePosition.constprop.0
 .text.ProcessManFile.constprop.0
                0x0000000000003404      0x738 /tmp/Shell.dll.q6gkOU.ltrans0.ltrans.o
                0x0000000000003404                ProcessManFile.constprop.0
 .text.CreateAndPopulateShellFileInfo.constprop.0
                0x0000000000003b3c      0x158 /tmp/Shell.dll.q6gkOU.ltrans0.ltrans.o
                0x0000000000003b3c                CreateAndPopulateShellFileInfo.constprop.0
 .text.FileHandleFindFirstFile.constprop.0
                0x0000000000003c94       0xfc /tmp/Shell.dll.q6gkOU.ltrans0.ltrans.o
                0x0000000000003c94                FileHandleFindFirstFile.constprop.0
 .text.StrnCatGrowLeft.constprop.0
                0x0000000000003d90       0xd8 /tmp/Shell.dll.q6gkOU.ltrans0.ltrans.o
                0x0000000000003d90                StrnCatGrowLeft.constprop.0
 .text.StrHexToUint64S.constprop.0
                0x0000000000003e68      0x100 /tmp/Shell.dll.q6gkOU.ltrans0.ltrans.o
                0x0000000000003e68                StrHexToUint64S.constprop.0
 .text.StrToIpv6Address.constprop.0
                0x0000000000003f68      0x220 /tmp/Shell.dll.q6gkOU.ltrans0.ltrans.o
                0x0000000000003f68                StrToIpv6Address.constprop.0
 .text.StrToIpv4Address.constprop.0
                0x0000000000004188      0x140 /tmp/Shell.dll.q6gkOU.ltrans0.ltrans.o
                0x0000000000004188                StrToIpv4Address.constprop.0
 .text.UnicodeStrToAsciiStrS.constprop.0
                0x00000000000042c8       0xa8 /tmp/Shell.dll.q6gkOU.ltrans0.ltrans.o
                0x00000000000042c8                UnicodeStrToAsciiStrS.constprop.0
 .text.UnicodeValueToStringS.constprop.0
                0x0000000000004370      0x148 /tmp/Shell.dll.q6gkOU.ltrans0.ltrans.o
                0x0000000000004370                UnicodeValueToStringS.constprop.0
 .text.ShellCommandLineParseEx.constprop.0
                0x00000000000044b8       0xbc /tmp/Shell.dll.q6gkOU.ltrans0.ltrans.o
                0x00000000000044b8                ShellCommandLineParseEx.constprop.0
 .text.ShellIsHexOrDecimalNumber.constprop.0
                0x0000000000004574       0x30 /tmp/Shell.dll.q6gkOU.ltrans0.ltrans.o
                0x0000000000004574                ShellIsHexOrDecimalNumber.constprop.0
 .text.SearchList.constprop.0
                0x00000000000045a4      0x17c /tmp/Shell.dll.q6gkOU.ltrans0.ltrans.o
                0x00000000000045a4                SearchList.constprop.0
 .text.ConvertHandleToHiiHandle.constprop.0
                0x0000000000004720       0xc4 /tmp/Shell.dll.q6gkOU.ltrans0.ltrans.o
                0x0000000000004720                ConvertHandleToHiiHandle.constprop.0
 .text.StatusBarRefresh.constprop.0
                0x00000000000047e4      0x18c /tmp/Shell.dll.q6gkOU.ltrans0.ltrans.o
                0x00000000000047e4                StatusBarRefresh.constprop.0
 .text.ModU64x32.constprop.0
                0x0000000000004970        0x8 /tmp/Shell.dll.q6gkOU.ltrans0.ltrans.o
                0x0000000000004970                ModU64x32.constprop.0
 .text.MultU64x64.constprop.0
                0x0000000000004978        0x8 /tmp/Shell.dll.q6gkOU.ltrans0.ltrans.o
                0x0000000000004978                MultU64x64.constprop.0
 .text.IoRead64.constprop.0
                0x0000000000004980        0x8 /tmp/Shell.dll.q6gkOU.ltrans0.ltrans.o
                0x0000000000004980                IoRead64.constprop.0
 .text.IoRead32.constprop.0
                0x0000000000004988        0x8 /tmp/Shell.dll.q6gkOU.ltrans0.ltrans.o
                0x0000000000004988                IoRead32.constprop.0
 .text.IoRead16.constprop.0
                0x0000000000004990        0x8 /tmp/Shell.dll.q6gkOU.ltrans0.ltrans.o
                0x0000000000004990                IoRead16.constprop.0
 .text.IoRead8.constprop.0
                0x0000000000004998        0x8 /tmp/Shell.dll.q6gkOU.ltrans0.ltrans.o
                0x0000000000004998                IoRead8.constprop.0
 .text.QueryTable.constprop.0
                0x00000000000049a0       0xb4 /tmp/Shell.dll.q6gkOU.ltrans0.ltrans.o
                0x00000000000049a0                QueryTable.constprop.0
 .text.NetLibDetectMediaWaitTimeout.constprop.0
                0x0000000000004a54      0x124 /tmp/Shell.dll.q6gkOU.ltrans0.ltrans.o
                0x0000000000004a54                NetLibDetectMediaWaitTimeout.constprop.0
 .text.DivU64x64Remainder.constprop.0
                0x0000000000004b78        0x8 /tmp/Shell.dll.q6gkOU.ltrans0.ltrans.o
                0x0000000000004b78                DivU64x64Remainder.constprop.0
 .text.NetLibStrToIp6
                0x0000000000004b80       0x78 /tmp/Shell.dll.q6gkOU.ltrans0.ltrans.o
                0x0000000000004b80                NetLibStrToIp6
 .text.NetLibStrToIp4
                0x0000000000004bf8       0x78 /tmp/Shell.dll.q6gkOU.ltrans0.ltrans.o
                0x0000000000004bf8                NetLibStrToIp4
 .text.NetIp6IsLinkLocalAddr
                0x0000000000004c70       0x40 /tmp/Shell.dll.q6gkOU.ltrans0.ltrans.o
                0x0000000000004c70                NetIp6IsLinkLocalAddr
 .text.BcfgLibraryRegisterBcfgCommand.part.0
                0x0000000000004cb0       0x84 /tmp/Shell.dll.q6gkOU.ltrans0.ltrans.o
                0x0000000000004cb0                BcfgLibraryRegisterBcfgCommand.part.0
 .text.MmioWrite64
                0x0000000000004d34       0x10 /tmp/Shell.dll.q6gkOU.ltrans0.ltrans.o
                0x0000000000004d34                MmioWrite64
 .text.MmioRead64
                0x0000000000004d44        0x8 /tmp/Shell.dll.q6gkOU.ltrans0.ltrans.o
                0x0000000000004d44                MmioRead64
 .text.MmioWrite32
                0x0000000000004d4c       0x10 /tmp/Shell.dll.q6gkOU.ltrans0.ltrans.o
                0x0000000000004d4c                MmioWrite32
 .text.MmioRead32
                0x0000000000004d5c        0x8 /tmp/Shell.dll.q6gkOU.ltrans0.ltrans.o
                0x0000000000004d5c                MmioRead32
 .text.MmioWrite16
                0x0000000000004d64       0x10 /tmp/Shell.dll.q6gkOU.ltrans0.ltrans.o
                0x0000000000004d64                MmioWrite16
 .text.MmioRead16
                0x0000000000004d74        0x8 /tmp/Shell.dll.q6gkOU.ltrans0.ltrans.o
                0x0000000000004d74                MmioRead16
 .text.MmioWrite8
                0x0000000000004d7c       0x10 /tmp/Shell.dll.q6gkOU.ltrans0.ltrans.o
                0x0000000000004d7c                MmioWrite8
 .text.MmioRead8
                0x0000000000004d8c        0x8 /tmp/Shell.dll.q6gkOU.ltrans0.ltrans.o
                0x0000000000004d8c                MmioRead8
 .text.OrderedCollectionNext
                0x0000000000004d94       0x38 /tmp/Shell.dll.q6gkOU.ltrans0.ltrans.o
                0x0000000000004d94                OrderedCollectionNext
 .text.OrderedCollectionMin
                0x0000000000004dcc       0x1c /tmp/Shell.dll.q6gkOU.ltrans0.ltrans.o
                0x0000000000004dcc                OrderedCollectionMin
 .text.OrderedCollectionInsert.constprop.0
                0x0000000000004de8      0x1e8 /tmp/Shell.dll.q6gkOU.ltrans0.ltrans.o
                0x0000000000004de8                OrderedCollectionInsert.constprop.0
 .text.OrderedCollectionInit.constprop.0
                0x0000000000004fd0       0x34 /tmp/Shell.dll.q6gkOU.ltrans0.ltrans.o
                0x0000000000004fd0                OrderedCollectionInit.constprop.0
 .text.OrderedCollectionDelete
                0x0000000000005004      0x2b8 /tmp/Shell.dll.q6gkOU.ltrans0.ltrans.o
                0x0000000000005004                OrderedCollectionDelete
 .text.OrderedCollectionFind
                0x00000000000052bc       0x58 /tmp/Shell.dll.q6gkOU.ltrans0.ltrans.o
                0x00000000000052bc                OrderedCollectionFind
 .text.OrderedCollectionUninit
                0x0000000000005314        0x4 /tmp/Shell.dll.q6gkOU.ltrans0.ltrans.o
                0x0000000000005314                OrderedCollectionUninit
 .text.OrderedCollectionUserStruct
                0x0000000000005318        0x8 /tmp/Shell.dll.q6gkOU.ltrans0.ltrans.o
                0x0000000000005318                OrderedCollectionUserStruct
 .text.PeCoffLoaderGetPdbPointer
                0x0000000000005320      0x178 /tmp/Shell.dll.q6gkOU.ltrans0.ltrans.o
                0x0000000000005320                PeCoffLoaderGetPdbPointer
 .text.CatSPrint
                0x0000000000005498       0xa8 /tmp/Shell.dll.q6gkOU.ltrans0.ltrans.o
                0x0000000000005498                CatSPrint
 .text.CatSDumpHex.constprop.0
                0x0000000000005540      0x150 /tmp/Shell.dll.q6gkOU.ltrans0.ltrans.o
                0x0000000000005540                CatSDumpHex.constprop.0
 .text.HBufferImageSave.constprop.0
                0x0000000000005690      0x3f8 /tmp/Shell.dll.q6gkOU.ltrans0.ltrans.o
                0x0000000000005690                HBufferImageSave.constprop.0
 .text.Print    0x0000000000005a88      0x11c /tmp/Shell.dll.q6gkOU.ltrans0.ltrans.o
                0x0000000000005a88                Print
 .text.DisplaySELSysManagementTypes.constprop.0
                0x0000000000005ba4       0xf4 /tmp/Shell.dll.q6gkOU.ltrans0.ltrans.o
                0x0000000000005ba4                DisplaySELSysManagementTypes.constprop.0
 .text.Dump12Chars
                0x0000000000005c98       0x6c /tmp/Shell.dll.q6gkOU.ltrans0.ltrans.o
 .text.Dump8Chars
                0x0000000000005d04       0x4c /tmp/Shell.dll.q6gkOU.ltrans0.ltrans.o
                0x0000000000005d04                Dump8Chars
 .text.Dump6Chars
                0x0000000000005d50       0x28 /tmp/Shell.dll.q6gkOU.ltrans0.ltrans.o
                0x0000000000005d50                Dump6Chars
 .text.Dump4Chars
                0x0000000000005d78       0x20 /tmp/Shell.dll.q6gkOU.ltrans0.ltrans.o
                0x0000000000005d78                Dump4Chars
 .text.Dump3Chars
                0x0000000000005d98       0x1c /tmp/Shell.dll.q6gkOU.ltrans0.ltrans.o
                0x0000000000005d98                Dump3Chars
 .text.DumpSratApicProximity
                0x0000000000005db4       0x1c /tmp/Shell.dll.q6gkOU.ltrans0.ltrans.o
 .text.WriteUnaligned64
                0x0000000000005dd0       0x2c /tmp/Shell.dll.q6gkOU.ltrans0.ltrans.o
                0x0000000000005dd0                WriteUnaligned64
 .text.WriteUnaligned16
                0x0000000000005dfc       0x18 /tmp/Shell.dll.q6gkOU.ltrans0.ltrans.o
                0x0000000000005dfc                WriteUnaligned16
 .text.ReadUnaligned16
                0x0000000000005e14       0x30 /tmp/Shell.dll.q6gkOU.ltrans0.ltrans.o
                0x0000000000005e14                ReadUnaligned16
 .text.IsDevicePathValid.part.0.constprop.0
                0x0000000000005e44       0xa8 /tmp/Shell.dll.q6gkOU.ltrans0.ltrans.o
                0x0000000000005e44                IsDevicePathValid.part.0.constprop.0
 .text.ReadUnaligned32
                0x0000000000005eec       0x28 /tmp/Shell.dll.q6gkOU.ltrans0.ltrans.o
                0x0000000000005eec                ReadUnaligned32
 .text.BasePrintLibSPrintMarker.constprop.0
                0x0000000000005f14      0xeec /tmp/Shell.dll.q6gkOU.ltrans0.ltrans.o
                0x0000000000005f14                BasePrintLibSPrintMarker.constprop.0
 .text.BasePrintLibSPrint.constprop.0
                0x0000000000006e00       0xa0 /tmp/Shell.dll.q6gkOU.ltrans0.ltrans.o
 .text.BcfgMod  0x0000000000006ea0      0x8a0 /tmp/Shell.dll.q6gkOU.ltrans0.ltrans.o
 .text.ShellCommandRunBcfg
                0x0000000000007740     0x1f14 /tmp/Shell.dll.q6gkOU.ltrans0.ltrans.o
 .text.ReadUnaligned64
                0x0000000000009654       0x28 /tmp/Shell.dll.q6gkOU.ltrans0.ltrans.o
                0x0000000000009654                ReadUnaligned64
 .text.DivU64x32Remainder
                0x000000000000967c       0x18 /tmp/Shell.dll.q6gkOU.ltrans0.ltrans.o
                0x000000000000967c                DivU64x32Remainder
 .text.SwapBytes64
                0x0000000000009694       0x34 /tmp/Shell.dll.q6gkOU.ltrans0.ltrans.o
                0x0000000000009694                SwapBytes64
 .text.CompareMem
                0x00000000000096c8       0x18 /tmp/Shell.dll.q6gkOU.ltrans0.ltrans.o
                0x00000000000096c8                CompareMem
 .text.PrintFieldName
                0x00000000000096e0       0x2c /tmp/Shell.dll.q6gkOU.ltrans0.ltrans.o
                0x00000000000096e0                PrintFieldName
 .text.DumpSratPciBdfNumber
                0x000000000000970c       0xf0 /tmp/Shell.dll.q6gkOU.ltrans0.ltrans.o
 .text.DumpCacheAttributes
                0x00000000000097fc       0xc8 /tmp/Shell.dll.q6gkOU.ltrans0.ltrans.o
 .text.DumpRaw  0x00000000000098c4      0x174 /tmp/Shell.dll.q6gkOU.ltrans0.ltrans.o
                0x00000000000098c4                DumpRaw
 .text.IncrementErrorCount
                0x0000000000009a38       0x14 /tmp/Shell.dll.q6gkOU.ltrans0.ltrans.o
                0x0000000000009a38                IncrementErrorCount
 .text.VerifyChecksum.constprop.0
                0x0000000000009a4c       0xdc /tmp/Shell.dll.q6gkOU.ltrans0.ltrans.o
                0x0000000000009a4c                VerifyChecksum.constprop.0
 .text.ParseAcpi
                0x0000000000009b28      0x264 /tmp/Shell.dll.q6gkOU.ltrans0.ltrans.o
                0x0000000000009b28                ParseAcpi
 .text.DumpAcpiHeader
                0x0000000000009d8c       0x28 /tmp/Shell.dll.q6gkOU.ltrans0.ltrans.o
                0x0000000000009d8c                DumpAcpiHeader
 .text.ParseAcpiSsdt
                0x0000000000009db4       0x14 /tmp/Shell.dll.q6gkOU.ltrans0.ltrans.o
                0x0000000000009db4                ParseAcpiSsdt
 .text.DumpGas  0x0000000000009dc8       0x48 /tmp/Shell.dll.q6gkOU.ltrans0.ltrans.o
 .text.ParseAcpiSpcr
                0x0000000000009e10       0x34 /tmp/Shell.dll.q6gkOU.ltrans0.ltrans.o
                0x0000000000009e10                ParseAcpiSpcr
 .text.ParseAcpiMcfg
                0x0000000000009e44       0xb0 /tmp/Shell.dll.q6gkOU.ltrans0.ltrans.o
                0x0000000000009e44                ParseAcpiMcfg
 .text.DumpIortNodeIdMappings
                0x0000000000009ef4       0xcc /tmp/Shell.dll.q6gkOU.ltrans0.ltrans.o
 .text.ParseAcpiXsdt
                0x0000000000009fc0      0x1b8 /tmp/Shell.dll.q6gkOU.ltrans0.ltrans.o
                0x0000000000009fc0                ParseAcpiXsdt
 .text.ParseAcpiSrat
                0x000000000000a178      0x3c0 /tmp/Shell.dll.q6gkOU.ltrans0.ltrans.o
                0x000000000000a178                ParseAcpiSrat
 .text.DumpSratDeviceHandle
                0x000000000000a538       0xac /tmp/Shell.dll.q6gkOU.ltrans0.ltrans.o
 .text.ValidateSratDeviceHandleType
                0x000000000000a5e4       0x34 /tmp/Shell.dll.q6gkOU.ltrans0.ltrans.o
 .text.ValidateSratReserved
                0x000000000000a618       0x2c /tmp/Shell.dll.q6gkOU.ltrans0.ltrans.o
 .text.ValidateIrq
                0x000000000000a644       0x2c /tmp/Shell.dll.q6gkOU.ltrans0.ltrans.o
 .text.ValidateInterruptType
                0x000000000000a670       0x30 /tmp/Shell.dll.q6gkOU.ltrans0.ltrans.o
 .text.ParseAcpiSlit
                0x000000000000a6a0      0x2b4 /tmp/Shell.dll.q6gkOU.ltrans0.ltrans.o
                0x000000000000a6a0                ParseAcpiSlit
 .text.ParseAcpiRsdp
                0x000000000000a954       0xc0 /tmp/Shell.dll.q6gkOU.ltrans0.ltrans.o
                0x000000000000a954                ParseAcpiRsdp
 .text.ValidateXsdtAddress
                0x000000000000aa14       0x2c /tmp/Shell.dll.q6gkOU.ltrans0.ltrans.o
 .text.ValidateRsdtAddress
                0x000000000000aa40       0x2c /tmp/Shell.dll.q6gkOU.ltrans0.ltrans.o
 .text.ParseAcpiPptt
                0x000000000000aa6c      0x2f4 /tmp/Shell.dll.q6gkOU.ltrans0.ltrans.o
                0x000000000000aa6c                ParseAcpiPptt
 .text.ValidateCacheAttributes.lto_priv.1
                0x000000000000ad60       0x30 /tmp/Shell.dll.q6gkOU.ltrans0.ltrans.o
 .text.ValidateCacheLineSize
                0x000000000000ad90       0x60 /tmp/Shell.dll.q6gkOU.ltrans0.ltrans.o
 .text.ValidateCacheAssociativity
                0x000000000000adf0       0x28 /tmp/Shell.dll.q6gkOU.ltrans0.ltrans.o
 .text.ValidateCacheNumberOfSets
                0x000000000000ae18       0x78 /tmp/Shell.dll.q6gkOU.ltrans0.ltrans.o
 .text.ParseAcpiPcct
                0x000000000000ae90      0x258 /tmp/Shell.dll.q6gkOU.ltrans0.ltrans.o
                0x000000000000ae90                ParseAcpiPcct
 .text.ValidatePlatInterrupt
                0x000000000000b0e8       0x44 /tmp/Shell.dll.q6gkOU.ltrans0.ltrans.o
 .text.ValidatePccGas
                0x000000000000b12c       0x30 /tmp/Shell.dll.q6gkOU.ltrans0.ltrans.o
 .text.ValidatePccErrStatusGas
                0x000000000000b15c       0x1c /tmp/Shell.dll.q6gkOU.ltrans0.ltrans.o
 .text.ValidatePccIntAckGas
                0x000000000000b178       0x60 /tmp/Shell.dll.q6gkOU.ltrans0.ltrans.o
 .text.ValidatePccDoorbellGas
                0x000000000000b1d8       0x50 /tmp/Shell.dll.q6gkOU.ltrans0.ltrans.o
 .text.ValidatePccType0Gas
                0x000000000000b228       0x28 /tmp/Shell.dll.q6gkOU.ltrans0.ltrans.o
 .text.ValidateRangeLength8
                0x000000000000b250       0x38 /tmp/Shell.dll.q6gkOU.ltrans0.ltrans.o
 .text.ValidateRangeLength4
                0x000000000000b288       0x38 /tmp/Shell.dll.q6gkOU.ltrans0.ltrans.o
 .text.ParseAcpiMadt
                0x000000000000b2c0      0x258 /tmp/Shell.dll.q6gkOU.ltrans0.ltrans.o
                0x000000000000b2c0                ParseAcpiMadt
 .text.ValidateSpeOverflowInterrupt
                0x000000000000b518       0x84 /tmp/Shell.dll.q6gkOU.ltrans0.ltrans.o
 .text.ValidateGICDSystemVectorBase
                0x000000000000b59c       0x28 /tmp/Shell.dll.q6gkOU.ltrans0.ltrans.o
 .text.ParseAcpiIort
                0x000000000000b5c4      0x620 /tmp/Shell.dll.q6gkOU.ltrans0.ltrans.o
                0x000000000000b5c4                ParseAcpiIort
 .text.ValidateItsIdArrayReference
                0x000000000000bbe4       0x28 /tmp/Shell.dll.q6gkOU.ltrans0.ltrans.o
 .text.ValidatePmcgIdMappingCount
                0x000000000000bc0c       0x2c /tmp/Shell.dll.q6gkOU.ltrans0.ltrans.o
 .text.ValidateItsIdMappingCount
                0x000000000000bc38       0x28 /tmp/Shell.dll.q6gkOU.ltrans0.ltrans.o
 .text.ParseAcpiHmat
                0x000000000000bc60      0x6ec /tmp/Shell.dll.q6gkOU.ltrans0.ltrans.o
                0x000000000000bc60                ParseAcpiHmat
 .text.ValidateCacheAttributes.lto_priv.0
                0x000000000000c34c       0xc4 /tmp/Shell.dll.q6gkOU.ltrans0.ltrans.o
 .text.ParseAcpiGtdt
                0x000000000000c410      0x2bc /tmp/Shell.dll.q6gkOU.ltrans0.ltrans.o
                0x000000000000c410                ParseAcpiGtdt
 .text.ValidateGtFrameNumber
                0x000000000000c6cc       0x34 /tmp/Shell.dll.q6gkOU.ltrans0.ltrans.o
 .text.ValidateGtBlockTimerCount
                0x000000000000c700       0x34 /tmp/Shell.dll.q6gkOU.ltrans0.ltrans.o
 .text.ParseAcpiFadt
                0x000000000000c734      0x200 /tmp/Shell.dll.q6gkOU.ltrans0.ltrans.o
                0x000000000000c734                ParseAcpiFadt
 .text.ShellCommandGetManFileNameAcpiView
                0x000000000000c934        0xc /tmp/Shell.dll.q6gkOU.ltrans1.ltrans.o
                0x000000000000c934                ShellCommandGetManFileNameAcpiView
 .text.IfConfigManualAddressNotify
                0x000000000000c940        0xc /tmp/Shell.dll.q6gkOU.ltrans1.ltrans.o
 .text.RttTimerTickRoutine
                0x000000000000c94c       0x10 /tmp/Shell.dll.q6gkOU.ltrans1.ltrans.o
 .text.Ping6OnEchoRequestSent
                0x000000000000c95c        0x4 /tmp/Shell.dll.q6gkOU.ltrans1.ltrans.o
 .text.NetChecksum
                0x000000000000c960       0x48 /tmp/Shell.dll.q6gkOU.ltrans1.ltrans.o
 .text.ShellCommandGetManFileNameNetwork1
                0x000000000000c9a8        0xc /tmp/Shell.dll.q6gkOU.ltrans1.ltrans.o
                0x000000000000c9a8                ShellCommandGetManFileNameNetwork1
 .text.ValidateFlags.lto_priv.0
                0x000000000000c9b4       0x28 /tmp/Shell.dll.q6gkOU.ltrans1.ltrans.o
                0x000000000000c9b4                ValidateFlags.lto_priv.0
 .text.ValidateXFirmwareCtrl.lto_priv.0
                0x000000000000c9dc       0x28 /tmp/Shell.dll.q6gkOU.ltrans1.ltrans.o
                0x000000000000c9dc                ValidateXFirmwareCtrl.lto_priv.0
 .text.ValidateFirmwareCtrl.lto_priv.0
                0x000000000000ca04       0x28 /tmp/Shell.dll.q6gkOU.ltrans1.ltrans.o
                0x000000000000ca04                ValidateFirmwareCtrl.lto_priv.0
 .text.ValidateNameSpaceStrLen
                0x000000000000ca2c       0x40 /tmp/Shell.dll.q6gkOU.ltrans1.ltrans.o
 .text.DumpVendorSpecificData
                0x000000000000ca6c       0x98 /tmp/Shell.dll.q6gkOU.ltrans1.ltrans.o
 .text.ValidateInterruptFlags
                0x000000000000cb04       0x2c /tmp/Shell.dll.q6gkOU.ltrans1.ltrans.o
 .text.ValidateInterruptType
                0x000000000000cb30       0x2c /tmp/Shell.dll.q6gkOU.ltrans1.ltrans.o
 .text.ValidateInterfaceType
                0x000000000000cb5c       0x2c /tmp/Shell.dll.q6gkOU.ltrans1.ltrans.o
 .text.ValidateGicInterfaceType
                0x000000000000cb88       0x40 /tmp/Shell.dll.q6gkOU.ltrans1.ltrans.o
 .text.ValidateProcessorFlags
                0x000000000000cbc8       0x3c /tmp/Shell.dll.q6gkOU.ltrans1.ltrans.o
 .text.ParseAcpiFacs
                0x000000000000cc04       0x30 /tmp/Shell.dll.q6gkOU.ltrans1.ltrans.o
                0x000000000000cc04                ParseAcpiFacs
 .text.ParseAcpiBgrt
                0x000000000000cc34       0x30 /tmp/Shell.dll.q6gkOU.ltrans1.ltrans.o
                0x000000000000cc34                ParseAcpiBgrt
 .text.ParseAcpiDsdt
                0x000000000000cc64       0x14 /tmp/Shell.dll.q6gkOU.ltrans1.ltrans.o
                0x000000000000cc64                ParseAcpiDsdt
 .text.ParseAcpiDbg2
                0x000000000000cc78      0x49c /tmp/Shell.dll.q6gkOU.ltrans1.ltrans.o
                0x000000000000cc78                ParseAcpiDbg2
 .text.ParseAcpiAest
                0x000000000000d114      0x4cc /tmp/Shell.dll.q6gkOU.ltrans1.ltrans.o
                0x000000000000d114                ParseAcpiAest
 .text.DumpAcpiTableToFile
                0x000000000000d5e0      0x120 /tmp/Shell.dll.q6gkOU.ltrans1.ltrans.o
 .text.PingDestroyTxInfo
                0x000000000000d700       0xec /tmp/Shell.dll.q6gkOU.ltrans1.ltrans.o
 .text.Ping6OnEchoReplyReceived
                0x000000000000d7ec      0x288 /tmp/Shell.dll.q6gkOU.ltrans1.ltrans.o
 .text.ShellCommandRunIfconfig
                0x000000000000da74     0x1160 /tmp/Shell.dll.q6gkOU.ltrans1.ltrans.o
                0x000000000000da74                ShellCommandRunIfconfig
 .text.PingSendEchoRequest
                0x000000000000ebd4      0x25c /tmp/Shell.dll.q6gkOU.ltrans1.ltrans.o
 .text.Ping6OnTimerRoutine
                0x000000000000ee30      0x170 /tmp/Shell.dll.q6gkOU.ltrans1.ltrans.o
 .text.ShellCommandRunPing
                0x000000000000efa0      0xd78 /tmp/Shell.dll.q6gkOU.ltrans1.ltrans.o
                0x000000000000efa0                ShellCommandRunPing
 .text.ProcessTableReportOptions
                0x000000000000fd18      0x1ac /tmp/Shell.dll.q6gkOU.ltrans1.ltrans.o
                0x000000000000fd18                ProcessTableReportOptions
 .text.ShellCommandRunAcpiView
                0x000000000000fec4      0x7c8 /tmp/Shell.dll.q6gkOU.ltrans1.ltrans.o
                0x000000000000fec4                ShellCommandRunAcpiView
 .text.ProcessAcpiTable
                0x000000000001068c      0x1b0 /tmp/Shell.dll.q6gkOU.ltrans1.ltrans.o
                0x000000000001068c                ProcessAcpiTable
 .text.DisplaySELTypes.part.0
                0x000000000001083c       0x74 /tmp/Shell.dll.q6gkOU.ltrans1.ltrans.o
                0x000000000001083c                DisplaySELTypes.part.0
 .text.DisplayMemoryErrorOperation
                0x00000000000108b0       0xbc /tmp/Shell.dll.q6gkOU.ltrans1.ltrans.o
                0x00000000000108b0                DisplayMemoryErrorOperation
 .text.DisplayMemoryErrorGranularity
                0x000000000001096c       0xbc /tmp/Shell.dll.q6gkOU.ltrans1.ltrans.o
                0x000000000001096c                DisplayMemoryErrorGranularity
 .text.DisplayMemoryErrorType
                0x0000000000010a28       0xbc /tmp/Shell.dll.q6gkOU.ltrans1.ltrans.o
                0x0000000000010a28                DisplayMemoryErrorType
 .text.DisplaySELVarDataFormatType
                0x0000000000010ae4       0xbc /tmp/Shell.dll.q6gkOU.ltrans1.ltrans.o
                0x0000000000010ae4                DisplaySELVarDataFormatType
 .text.DisplayOnboardDeviceTypes
                0x0000000000010ba0       0xbc /tmp/Shell.dll.q6gkOU.ltrans1.ltrans.o
                0x0000000000010ba0                DisplayOnboardDeviceTypes
 .text.DisplaySystemSlotType
                0x0000000000010c5c       0xbc /tmp/Shell.dll.q6gkOU.ltrans1.ltrans.o
                0x0000000000010c5c                DisplaySystemSlotType
 .text.DisplayPortConnectorType
                0x0000000000010d18       0xbc /tmp/Shell.dll.q6gkOU.ltrans1.ltrans.o
                0x0000000000010d18                DisplayPortConnectorType
 .text.DisplayMcInterleaveSupport
                0x0000000000010dd4       0xbc /tmp/Shell.dll.q6gkOU.ltrans1.ltrans.o
                0x0000000000010dd4                DisplayMcInterleaveSupport
 .text.DisplaySystemEnclosureStatus
                0x0000000000010e90       0xbc /tmp/Shell.dll.q6gkOU.ltrans1.ltrans.o
                0x0000000000010e90                DisplaySystemEnclosureStatus
 .text.DisplaySystemEnclosureType
                0x0000000000010f4c       0xd8 /tmp/Shell.dll.q6gkOU.ltrans1.ltrans.o
                0x0000000000010f4c                DisplaySystemEnclosureType
 .text.PrintBitsInfo
                0x0000000000011024       0xd0 /tmp/Shell.dll.q6gkOU.ltrans1.ltrans.o
                0x0000000000011024                PrintBitsInfo
 .text.DisplayMmMemoryType
                0x00000000000110f4       0x7c /tmp/Shell.dll.q6gkOU.ltrans1.ltrans.o
                0x00000000000110f4                DisplayMmMemoryType
 .text.DisplayMcErrorCorrectCapability
                0x0000000000011170       0x7c /tmp/Shell.dll.q6gkOU.ltrans1.ltrans.o
                0x0000000000011170                DisplayMcErrorCorrectCapability
 .text.SmbiosPrintStructure.part.0
                0x00000000000111ec     0x8338 /tmp/Shell.dll.q6gkOU.ltrans2.ltrans.o
                0x00000000000111ec                SmbiosPrintStructure.part.0
 .text.MemToString
                0x0000000000019524       0x20 /tmp/Shell.dll.q6gkOU.ltrans3.ltrans.o
 .text.PutBits  0x0000000000019544       0xc8 /tmp/Shell.dll.q6gkOU.ltrans3.ltrans.o
 .text.WritePTLen
                0x000000000001960c       0xd8 /tmp/Shell.dll.q6gkOU.ltrans3.ltrans.o
 .text.CountLen
                0x00000000000196e4       0x90 /tmp/Shell.dll.q6gkOU.ltrans3.ltrans.o
 .text.DownHeap
                0x0000000000019774       0x84 /tmp/Shell.dll.q6gkOU.ltrans3.ltrans.o
 .text.MakeTree
                0x00000000000197f8      0x304 /tmp/Shell.dll.q6gkOU.ltrans3.ltrans.o
 .text.FreadCrc
                0x0000000000019afc       0xbc /tmp/Shell.dll.q6gkOU.ltrans3.ltrans.o
 .text.MakeChild
                0x0000000000019bb8       0x68 /tmp/Shell.dll.q6gkOU.ltrans3.ltrans.o
 .text.Child    0x0000000000019c20       0x44 /tmp/Shell.dll.q6gkOU.ltrans3.ltrans.o
 .text.InsertNode
                0x0000000000019c64      0x31c /tmp/Shell.dll.q6gkOU.ltrans3.ltrans.o
 .text.PutDword
                0x0000000000019f80       0x7c /tmp/Shell.dll.q6gkOU.ltrans3.ltrans.o
 .text.HBufferImageRestorePosition
                0x0000000000019ffc       0x3c /tmp/Shell.dll.q6gkOU.ltrans3.ltrans.o
 .text.HBufferImageIsInSelectedArea
                0x000000000001a038       0xac /tmp/Shell.dll.q6gkOU.ltrans3.ltrans.o
 .text.Smbios64BitPrintEPSInfo
                0x000000000001a0e4      0x1ac /tmp/Shell.dll.q6gkOU.ltrans3.ltrans.o
 .text.SmbiosPrintEPSInfo
                0x000000000001a290      0x258 /tmp/Shell.dll.q6gkOU.ltrans3.ltrans.o
 .text.SendBlock
                0x000000000001a4e8      0x484 /tmp/Shell.dll.q6gkOU.ltrans3.ltrans.o
 .text.CompressOutput
                0x000000000001a96c      0x120 /tmp/Shell.dll.q6gkOU.ltrans3.ltrans.o
 .text.FreeMemory
                0x000000000001aa8c       0xb8 /tmp/Shell.dll.q6gkOU.ltrans3.ltrans.o
 .text.GetNextMatch
                0x000000000001ab44      0x254 /tmp/Shell.dll.q6gkOU.ltrans3.ltrans.o
 .text.HBufferImageCreateLine
                0x000000000001ad98       0x7c /tmp/Shell.dll.q6gkOU.ltrans3.ltrans.o
 .text.HBufferImagePrintLine
                0x000000000001ae14      0x404 /tmp/Shell.dll.q6gkOU.ltrans3.ltrans.o
 .text.ExplainPcieRootStatus
                0x000000000001b218       0x70 /tmp/Shell.dll.q6gkOU.ltrans3.ltrans.o
                0x000000000001b218                ExplainPcieRootStatus
 .text.ExplainPcieRootCap
                0x000000000001b288       0x30 /tmp/Shell.dll.q6gkOU.ltrans3.ltrans.o
                0x000000000001b288                ExplainPcieRootCap
 .text.ExplainPcieRootControl
                0x000000000001b2b8       0xac /tmp/Shell.dll.q6gkOU.ltrans3.ltrans.o
                0x000000000001b2b8                ExplainPcieRootControl
 .text.ExplainPcieSlotStatus
                0x000000000001b364      0x17c /tmp/Shell.dll.q6gkOU.ltrans3.ltrans.o
                0x000000000001b364                ExplainPcieSlotStatus
 .text.ExplainPcieSlotControl
                0x000000000001b4e0      0x184 /tmp/Shell.dll.q6gkOU.ltrans3.ltrans.o
                0x000000000001b4e0                ExplainPcieSlotControl
 .text.ExplainPcieSlotCap
                0x000000000001b664      0x184 /tmp/Shell.dll.q6gkOU.ltrans3.ltrans.o
                0x000000000001b664                ExplainPcieSlotCap
 .text.ExplainPcieLinkStatus
                0x000000000001b7e8      0x110 /tmp/Shell.dll.q6gkOU.ltrans3.ltrans.o
                0x000000000001b7e8                ExplainPcieLinkStatus
 .text.ExplainPcieLinkControl
                0x000000000001b8f8      0x168 /tmp/Shell.dll.q6gkOU.ltrans3.ltrans.o
                0x000000000001b8f8                ExplainPcieLinkControl
 .text.ExplainPcieLinkCap
                0x000000000001ba60      0x18c /tmp/Shell.dll.q6gkOU.ltrans3.ltrans.o
                0x000000000001ba60                ExplainPcieLinkCap
 .text.ExplainPcieDeviceStatus
                0x000000000001bbec       0xc8 /tmp/Shell.dll.q6gkOU.ltrans3.ltrans.o
                0x000000000001bbec                ExplainPcieDeviceStatus
 .text.ExplainPcieDeviceControl
                0x000000000001bcb4      0x200 /tmp/Shell.dll.q6gkOU.ltrans3.ltrans.o
                0x000000000001bcb4                ExplainPcieDeviceControl
 .text.ExplainPcieDeviceCap
                0x000000000001beb4      0x250 /tmp/Shell.dll.q6gkOU.ltrans3.ltrans.o
                0x000000000001beb4                ExplainPcieDeviceCap
 .text.ExplainPcieCapReg
                0x000000000001c104       0xc4 /tmp/Shell.dll.q6gkOU.ltrans3.ltrans.o
                0x000000000001c104                ExplainPcieCapReg
 .text.InputBarPrintInput
                0x000000000001c1c8      0x118 /tmp/Shell.dll.q6gkOU.ltrans3.ltrans.o
 .text.ShellCommandRunDblk
                0x000000000001c2e0      0x4d0 /tmp/Shell.dll.q6gkOU.ltrans3.ltrans.o
                0x000000000001c2e0                ShellCommandRunDblk
 .text.GetAttrType
                0x000000000001c7b0      0x14c /tmp/Shell.dll.q6gkOU.ltrans3.ltrans.o
 .text.CascadeProcessVariables
                0x000000000001c8fc      0x61c /tmp/Shell.dll.q6gkOU.ltrans3.ltrans.o
 .text.ShellCommandRunDmpStore
                0x000000000001cf18      0xb84 /tmp/Shell.dll.q6gkOU.ltrans3.ltrans.o
                0x000000000001cf18                ShellCommandRunDmpStore
 .text.DisplayBiosCharacteristics.part.0
                0x000000000001da9c      0x3d0 /tmp/Shell.dll.q6gkOU.ltrans3.ltrans.o
                0x000000000001da9c                DisplayBiosCharacteristics.part.0
 .text.DisplayMmMemorySize
                0x000000000001de6c      0x100 /tmp/Shell.dll.q6gkOU.ltrans3.ltrans.o
                0x000000000001de6c                DisplayMmMemorySize
 .text.Compress
                0x000000000001df6c      0x450 /tmp/Shell.dll.q6gkOU.ltrans3.ltrans.o
                0x000000000001df6c                Compress
 .text.HFileImageSetFileName
                0x000000000001e3bc       0x60 /tmp/Shell.dll.q6gkOU.ltrans3.ltrans.o
                0x000000000001e3bc                HFileImageSetFileName
 .text.HBufferImageListToBuffer
                0x000000000001e41c       0x74 /tmp/Shell.dll.q6gkOU.ltrans3.ltrans.o
                0x000000000001e41c                HBufferImageListToBuffer
 .text.HBufferImageBufferToList
                0x000000000001e490       0xa8 /tmp/Shell.dll.q6gkOU.ltrans3.ltrans.o
                0x000000000001e490                HBufferImageBufferToList
 .text.HBufferImageGetTotalSize
                0x000000000001e538       0x34 /tmp/Shell.dll.q6gkOU.ltrans3.ltrans.o
                0x000000000001e538                HBufferImageGetTotalSize
 .text.HBufferImageMovePosition
                0x000000000001e56c       0xe4 /tmp/Shell.dll.q6gkOU.ltrans3.ltrans.o
                0x000000000001e56c                HBufferImageMovePosition
 .text.HBufferImageIsAtHighBits
                0x000000000001e650       0x50 /tmp/Shell.dll.q6gkOU.ltrans3.ltrans.o
                0x000000000001e650                HBufferImageIsAtHighBits
 .text.HBufferImageRestoreMousePosition
                0x000000000001e6a0      0x2b8 /tmp/Shell.dll.q6gkOU.ltrans3.ltrans.o
 .text.HBufferImageRefresh
                0x000000000001e958      0x290 /tmp/Shell.dll.q6gkOU.ltrans3.ltrans.o
                0x000000000001e958                HBufferImageRefresh
 .text.HBufferImageFreeLines
                0x000000000001ebe8       0x5c /tmp/Shell.dll.q6gkOU.ltrans3.ltrans.o
                0x000000000001ebe8                HBufferImageFreeLines
 .text.HBufferImageDeleteCharacterFromBuffer
                0x000000000001ec44      0x190 /tmp/Shell.dll.q6gkOU.ltrans3.ltrans.o
                0x000000000001ec44                HBufferImageDeleteCharacterFromBuffer
 .text.HBufferImageBackup
                0x000000000001edd4      0x10c /tmp/Shell.dll.q6gkOU.ltrans3.ltrans.o
                0x000000000001edd4                HBufferImageBackup
 .text.MenuBarDispatchControlHotKey
                0x000000000001eee0       0x9c /tmp/Shell.dll.q6gkOU.ltrans3.ltrans.o
                0x000000000001eee0                MenuBarDispatchControlHotKey
 .text.MenuBarInit
                0x000000000001ef7c       0x94 /tmp/Shell.dll.q6gkOU.ltrans3.ltrans.o
                0x000000000001ef7c                MenuBarInit
 .text.MenuBarCleanup
                0x000000000001f010       0x2c /tmp/Shell.dll.q6gkOU.ltrans3.ltrans.o
                0x000000000001f010                MenuBarCleanup
 .text.StatusBarSetStatusString
                0x000000000001f03c       0x64 /tmp/Shell.dll.q6gkOU.ltrans3.ltrans.o
                0x000000000001f03c                StatusBarSetStatusString
 .text.HMemImageRead
                0x000000000001f0a0      0x190 /tmp/Shell.dll.q6gkOU.ltrans3.ltrans.o
                0x000000000001f0a0                HMemImageRead
 .text.HFileImageRead
                0x000000000001f230      0x2ac /tmp/Shell.dll.q6gkOU.ltrans3.ltrans.o
                0x000000000001f230                HFileImageRead
 .text.HDiskImageRead
                0x000000000001f4dc      0x2e4 /tmp/Shell.dll.q6gkOU.ltrans3.ltrans.o
                0x000000000001f4dc                HDiskImageRead
 .text.HBufferImageRead
                0x000000000001f7c0       0x8c /tmp/Shell.dll.q6gkOU.ltrans3.ltrans.o
                0x000000000001f7c0                HBufferImageRead
 .text.HBufferImageHandleInput
                0x000000000001f84c      0x490 /tmp/Shell.dll.q6gkOU.ltrans3.ltrans.o
                0x000000000001f84c                HBufferImageHandleInput
 .text.MenuBarDispatchFunctionKey
                0x000000000001fcdc       0x58 /tmp/Shell.dll.q6gkOU.ltrans3.ltrans.o
                0x000000000001fcdc                MenuBarDispatchFunctionKey
 .text.StatusBarCleanup
                0x000000000001fd34       0x2c /tmp/Shell.dll.q6gkOU.ltrans3.ltrans.o
                0x000000000001fd34                StatusBarCleanup
 .text.InputBarSetStringSize
                0x000000000001fd60       0x58 /tmp/Shell.dll.q6gkOU.ltrans3.ltrans.o
                0x000000000001fd60                InputBarSetStringSize
 .text.InputBarSetPrompt
                0x000000000001fdb8       0x58 /tmp/Shell.dll.q6gkOU.ltrans3.ltrans.o
                0x000000000001fdb8                InputBarSetPrompt
 .text.InputBarRefresh
                0x000000000001fe10      0x288 /tmp/Shell.dll.q6gkOU.ltrans3.ltrans.o
                0x000000000001fe10                InputBarRefresh
 .text.InputBarCleanup
                0x0000000000020098       0x48 /tmp/Shell.dll.q6gkOU.ltrans3.ltrans.o
                0x0000000000020098                InputBarCleanup
 .text.MainTitleBarRefresh
                0x00000000000200e0      0x240 /tmp/Shell.dll.q6gkOU.ltrans3.ltrans.o
                0x00000000000200e0                MainTitleBarRefresh
 .text.MainTitleBarCleanup
                0x0000000000020320       0x30 /tmp/Shell.dll.q6gkOU.ltrans3.ltrans.o
                0x0000000000020320                MainTitleBarCleanup
 .text.LibGetSmbiosString
                0x0000000000020350       0x58 /tmp/Shell.dll.q6gkOU.ltrans3.ltrans.o
                0x0000000000020350                LibGetSmbiosString
 .text.LibGetSmbios64BitStructure
                0x00000000000203a8      0x12c /tmp/Shell.dll.q6gkOU.ltrans3.ltrans.o
 .text.LibGetSmbiosStructure
                0x00000000000204d4      0x130 /tmp/Shell.dll.q6gkOU.ltrans3.ltrans.o
 .text.ShellCommandRunSmbiosView
                0x0000000000020604      0xfbc /tmp/Shell.dll.q6gkOU.ltrans3.ltrans.o
                0x0000000000020604                ShellCommandRunSmbiosView
 .text.PciGetProtocolAndResource
                0x00000000000215c0       0x64 /tmp/Shell.dll.q6gkOU.ltrans3.ltrans.o
                0x00000000000215c0                PciGetProtocolAndResource
 .text.FileBufferReadByte
                0x0000000000021624       0xc8 /tmp/Shell.dll.q6gkOU.ltrans4.ltrans.o
 .text.FileBufferUninit.isra.0
                0x00000000000216ec       0x2c /tmp/Shell.dll.q6gkOU.ltrans4.ltrans.o
 .text.PciPrintClassCode
                0x0000000000021718       0xe4 /tmp/Shell.dll.q6gkOU.ltrans4.ltrans.o
 .text.PrintDifferentPoint
                0x00000000000217fc      0x124 /tmp/Shell.dll.q6gkOU.ltrans4.ltrans.o
 .text.ShellCommandRunPci
                0x0000000000021920     0x15f8 /tmp/Shell.dll.q6gkOU.ltrans4.ltrans.o
                0x0000000000021920                ShellCommandRunPci
 .text.DisplaySettings
                0x0000000000022f18      0x240 /tmp/Shell.dll.q6gkOU.ltrans4.ltrans.o
 .text.ShellCommandRunSerMode
                0x0000000000023158      0x4d8 /tmp/Shell.dll.q6gkOU.ltrans4.ltrans.o
                0x0000000000023158                ShellCommandRunSerMode
 .text.IsStringOfHexNibbles
                0x0000000000023630       0x3c /tmp/Shell.dll.q6gkOU.ltrans4.ltrans.o
 .text.ParseParameterData
                0x000000000002366c      0x5b8 /tmp/Shell.dll.q6gkOU.ltrans4.ltrans.o
 .text.ShellCommandRunSetVar
                0x0000000000023c24      0x660 /tmp/Shell.dll.q6gkOU.ltrans4.ltrans.o
                0x0000000000023c24                ShellCommandRunSetVar
 .text.ShellMmAccess
                0x0000000000024284      0x36c /tmp/Shell.dll.q6gkOU.ltrans4.ltrans.o
 .text.ShellCommandRunMm
                0x00000000000245f0      0x914 /tmp/Shell.dll.q6gkOU.ltrans4.ltrans.o
                0x00000000000245f0                ShellCommandRunMm
 .text.LoadEfiDriversFromRomImage
                0x0000000000024f04      0x36c /tmp/Shell.dll.q6gkOU.ltrans4.ltrans.o
 .text.ShellCommandRunLoadPciRom
                0x0000000000025270      0x3b8 /tmp/Shell.dll.q6gkOU.ltrans4.ltrans.o
                0x0000000000025270                ShellCommandRunLoadPciRom
 .text.ShellCommandRunDmem
                0x0000000000025628      0x500 /tmp/Shell.dll.q6gkOU.ltrans4.ltrans.o
                0x0000000000025628                ShellCommandRunDmem
 .text.ShellCommandRunMode
                0x0000000000025b28      0x370 /tmp/Shell.dll.q6gkOU.ltrans4.ltrans.o
                0x0000000000025b28                ShellCommandRunMode
 .text.ShellCommandRunEfiDecompress
                0x0000000000025e98      0x52c /tmp/Shell.dll.q6gkOU.ltrans4.ltrans.o
                0x0000000000025e98                ShellCommandRunEfiDecompress
 .text.ShellCommandRunEfiCompress
                0x00000000000263c4      0x494 /tmp/Shell.dll.q6gkOU.ltrans4.ltrans.o
                0x00000000000263c4                ShellCommandRunEfiCompress
 .text.ShellCommandRunMemMap
                0x0000000000026858      0xbb8 /tmp/Shell.dll.q6gkOU.ltrans4.ltrans.o
                0x0000000000026858                ShellCommandRunMemMap
 .text.ShellCommandRunComp
                0x0000000000027410      0x810 /tmp/Shell.dll.q6gkOU.ltrans4.ltrans.o
                0x0000000000027410                ShellCommandRunComp
 .text.ShellCommandRunSetSize
                0x0000000000027c20      0x328 /tmp/Shell.dll.q6gkOU.ltrans4.ltrans.o
                0x0000000000027c20                ShellCommandRunSetSize
 .text.HMainCommandSelectEnd
                0x0000000000027f48       0x90 /tmp/Shell.dll.q6gkOU.ltrans4.ltrans.o
                0x0000000000027f48                HMainCommandSelectEnd
 .text.HMainCommandSelectStart
                0x0000000000027fd8       0x80 /tmp/Shell.dll.q6gkOU.ltrans4.ltrans.o
                0x0000000000027fd8                HMainCommandSelectStart
 .text.HMainCommandExit
                0x0000000000028058       0xe8 /tmp/Shell.dll.q6gkOU.ltrans4.ltrans.o
                0x0000000000028058                HMainCommandExit
 .text.HMainCommandOpenMemory
                0x0000000000028140      0x2e8 /tmp/Shell.dll.q6gkOU.ltrans4.ltrans.o
                0x0000000000028140                HMainCommandOpenMemory
 .text.HMainCommandOpenDisk
                0x0000000000028428      0x320 /tmp/Shell.dll.q6gkOU.ltrans4.ltrans.o
                0x0000000000028428                HMainCommandOpenDisk
 .text.HMainCommandOpenFile
                0x0000000000028748      0x2d8 /tmp/Shell.dll.q6gkOU.ltrans4.ltrans.o
                0x0000000000028748                HMainCommandOpenFile
 .text.HMainCommandPaste
                0x0000000000028a20      0x1f4 /tmp/Shell.dll.q6gkOU.ltrans4.ltrans.o
                0x0000000000028a20                HMainCommandPaste
 .text.HMainCommandCut
                0x0000000000028c14       0xd0 /tmp/Shell.dll.q6gkOU.ltrans4.ltrans.o
                0x0000000000028c14                HMainCommandCut
 .text.HMainCommandSaveBuffer
                0x0000000000028ce4      0x36c /tmp/Shell.dll.q6gkOU.ltrans4.ltrans.o
                0x0000000000028ce4                HMainCommandSaveBuffer
 .text.HLineRetreat
                0x0000000000029050       0x48 /tmp/Shell.dll.q6gkOU.ltrans4.ltrans.o
                0x0000000000029050                HLineRetreat
 .text.HLineAdvance
                0x0000000000029098       0x44 /tmp/Shell.dll.q6gkOU.ltrans4.ltrans.o
                0x0000000000029098                HLineAdvance
 .text.HMoveLine
                0x00000000000290dc       0x14 /tmp/Shell.dll.q6gkOU.ltrans4.ltrans.o
                0x00000000000290dc                HMoveLine
 .text.HMainEditorRefresh
                0x00000000000290f0      0x27c /tmp/Shell.dll.q6gkOU.ltrans4.ltrans.o
                0x00000000000290f0                HMainEditorRefresh
 .text.FileBufferMovePosition
                0x000000000002936c      0x17c /tmp/Shell.dll.q6gkOU.ltrans5.ltrans.o
 .text.FileBufferScrollRight
                0x00000000000294e8       0x64 /tmp/Shell.dll.q6gkOU.ltrans5.ltrans.o
 .text.LineDeleteAt
                0x000000000002954c       0x34 /tmp/Shell.dll.q6gkOU.ltrans5.ltrans.o
 .text.FileBufferScrollLeft
                0x0000000000029580       0x5c /tmp/Shell.dll.q6gkOU.ltrans5.ltrans.o
 .text.FileBufferRestorePosition
                0x00000000000295dc       0x2c /tmp/Shell.dll.q6gkOU.ltrans5.ltrans.o
 .text.MoveLine
                0x0000000000029608       0x8c /tmp/Shell.dll.q6gkOU.ltrans5.ltrans.o
 .text.ShellCommandGetManFileNameDebug1
                0x0000000000029694        0xc /tmp/Shell.dll.q6gkOU.ltrans5.ltrans.o
                0x0000000000029694                ShellCommandGetManFileNameDebug1
 .text.MainCommandSwitchFileType
                0x00000000000296a0       0x54 /tmp/Shell.dll.q6gkOU.ltrans5.ltrans.o
 .text.HMainCommandGoToOffset
                0x00000000000296f4      0x12c /tmp/Shell.dll.q6gkOU.ltrans5.ltrans.o
 .text.FileBufferRestoreMousePosition
                0x0000000000029820      0x1ec /tmp/Shell.dll.q6gkOU.ltrans5.ltrans.o
 .text.HMainCommandDisplayHelp
                0x0000000000029a0c      0x14c /tmp/Shell.dll.q6gkOU.ltrans5.ltrans.o
 .text.FileBufferFreeLines
                0x0000000000029b58       0x80 /tmp/Shell.dll.q6gkOU.ltrans5.ltrans.o
 .text.LineCat  0x0000000000029bd8       0x7c /tmp/Shell.dll.q6gkOU.ltrans5.ltrans.o
 .text.MainCommandGotoLine
                0x0000000000029c54       0xb0 /tmp/Shell.dll.q6gkOU.ltrans5.ltrans.o
 .text.MainCommandPasteLine
                0x0000000000029d04      0x128 /tmp/Shell.dll.q6gkOU.ltrans5.ltrans.o
 .text.EditGetDefaultFileName
                0x0000000000029e2c       0x8c /tmp/Shell.dll.q6gkOU.ltrans5.ltrans.o
 .text.FileBufferCreateLine
                0x0000000000029eb8       0x98 /tmp/Shell.dll.q6gkOU.ltrans5.ltrans.o
 .text.MainCommandCutLine
                0x0000000000029f50       0xfc /tmp/Shell.dll.q6gkOU.ltrans5.ltrans.o
 .text.FileBufferPrintLine
                0x000000000002a04c      0x118 /tmp/Shell.dll.q6gkOU.ltrans5.ltrans.o
 .text.FileBufferBackup
                0x000000000002a164       0x94 /tmp/Shell.dll.q6gkOU.ltrans5.ltrans.o
 .text.ShellCmdDriverConfigurationProcessActionRequired
                0x000000000002a1f8      0x240 /tmp/Shell.dll.q6gkOU.ltrans5.ltrans.o
 .text.PreHiiDrvCfg
                0x000000000002a438      0x8a8 /tmp/Shell.dll.q6gkOU.ltrans5.ltrans.o
 .text.DoDevTreeForHandle
                0x000000000002ace0      0x20c /tmp/Shell.dll.q6gkOU.ltrans5.ltrans.o
 .text.ShellCommandRunDevTree
                0x000000000002aeec      0x314 /tmp/Shell.dll.q6gkOU.ltrans5.ltrans.o
                0x000000000002aeec                ShellCommandRunDevTree
 .text.ShellCommandRunDrivers
                0x000000000002b200      0x828 /tmp/Shell.dll.q6gkOU.ltrans5.ltrans.o
                0x000000000002b200                ShellCommandRunDrivers
 .text.DoDhByProtocolGuid
                0x000000000002ba28      0x100 /tmp/Shell.dll.q6gkOU.ltrans5.ltrans.o
 .text.ShellCommandRunDh
                0x000000000002bb28      0x5a0 /tmp/Shell.dll.q6gkOU.ltrans5.ltrans.o
                0x000000000002bb28                ShellCommandRunDh
 .text.IsValidFileName
                0x000000000002c0c8       0xb8 /tmp/Shell.dll.q6gkOU.ltrans5.ltrans.o
                0x000000000002c0c8                IsValidFileName
 .text.ShellCommandRunHexEdit
                0x000000000002c180     0x11d0 /tmp/Shell.dll.q6gkOU.ltrans5.ltrans.o
                0x000000000002c180                ShellCommandRunHexEdit
 .text.FileBufferSetFileName
                0x000000000002d350       0x70 /tmp/Shell.dll.q6gkOU.ltrans5.ltrans.o
 .text.FileBufferSave
                0x000000000002d3c0      0x494 /tmp/Shell.dll.q6gkOU.ltrans5.ltrans.o
 .text.MainCommandSaveFile
                0x000000000002d854      0x2d0 /tmp/Shell.dll.q6gkOU.ltrans5.ltrans.o
 .text.MainCommandExit
                0x000000000002db24       0xe8 /tmp/Shell.dll.q6gkOU.ltrans5.ltrans.o
 .text.FileBufferRead
                0x000000000002dc0c      0x550 /tmp/Shell.dll.q6gkOU.ltrans5.ltrans.o
 .text.MainCommandOpenFile
                0x000000000002e15c      0x1d8 /tmp/Shell.dll.q6gkOU.ltrans5.ltrans.o
 .text.EditorClearLine
                0x000000000002e334       0xf8 /tmp/Shell.dll.q6gkOU.ltrans5.ltrans.o
                0x000000000002e334                EditorClearLine
 .text.FileBufferRefresh
                0x000000000002e42c      0x1cc /tmp/Shell.dll.q6gkOU.ltrans5.ltrans.o
 .text.MainEditorRefresh
                0x000000000002e5f8      0x144 /tmp/Shell.dll.q6gkOU.ltrans5.ltrans.o
 .text.ShellCommandRunEdit
                0x000000000002e73c      0xeb0 /tmp/Shell.dll.q6gkOU.ltrans5.ltrans.o
                0x000000000002e73c                ShellCommandRunEdit
 .text.MainCommandDisplayHelp
                0x000000000002f5ec      0x150 /tmp/Shell.dll.q6gkOU.ltrans5.ltrans.o
 .text.FileBufferSearch
                0x000000000002f73c       0xf0 /tmp/Shell.dll.q6gkOU.ltrans5.ltrans.o
 .text.MainCommandSearchReplace
                0x000000000002f82c      0x6b4 /tmp/Shell.dll.q6gkOU.ltrans5.ltrans.o
 .text.MainCommandSearch
                0x000000000002fee0      0x1a0 /tmp/Shell.dll.q6gkOU.ltrans5.ltrans.o
 .text.GetSystemConfigurationTable
                0x0000000000030080       0xa0 /tmp/Shell.dll.q6gkOU.ltrans5.ltrans.o
                0x0000000000030080                GetSystemConfigurationTable
 .text.FindHiiHandleViaDevPath
                0x0000000000030120      0x23c /tmp/Shell.dll.q6gkOU.ltrans5.ltrans.o
                0x0000000000030120                FindHiiHandleViaDevPath
 .text.ShellCommandRunDrvCfg
                0x000000000003035c      0xcd8 /tmp/Shell.dll.q6gkOU.ltrans5.ltrans.o
                0x000000000003035c                ShellCommandRunDrvCfg
 .text.ShellCommandGetManFileNameDriver1
                0x0000000000031034        0xc /tmp/Shell.dll.q6gkOU.ltrans6.ltrans.o
                0x0000000000031034                ShellCommandGetManFileNameDriver1
 .text.ShellCommandGetManFileNameLevel3
                0x0000000000031040        0xc /tmp/Shell.dll.q6gkOU.ltrans6.ltrans.o
                0x0000000000031040                ShellCommandGetManFileNameLevel3
 .text.ShellLevel3CommandsLibSetAlias
                0x000000000003104c       0xbc /tmp/Shell.dll.q6gkOU.ltrans6.ltrans.o
 .text.GetDriverImageName
                0x0000000000031108       0xa4 /tmp/Shell.dll.q6gkOU.ltrans6.ltrans.o
 .text.GetProtocolInfoString
                0x00000000000311ac      0x2b8 /tmp/Shell.dll.q6gkOU.ltrans6.ltrans.o
 .text.GetDriverName
                0x0000000000031464      0x124 /tmp/Shell.dll.q6gkOU.ltrans6.ltrans.o
 .text.ReturnUintn
                0x0000000000031588       0x60 /tmp/Shell.dll.q6gkOU.ltrans6.ltrans.o
 .text.ShellCommandRunGetMtc
                0x00000000000315e8      0x180 /tmp/Shell.dll.q6gkOU.ltrans6.ltrans.o
                0x00000000000315e8                ShellCommandRunGetMtc
 .text.ShellCommandRunStall
                0x0000000000031768      0x1c8 /tmp/Shell.dll.q6gkOU.ltrans6.ltrans.o
                0x0000000000031768                ShellCommandRunStall
 .text.ShellCommandRunDrvDiag
                0x0000000000031930      0x958 /tmp/Shell.dll.q6gkOU.ltrans6.ltrans.o
                0x0000000000031930                ShellCommandRunDrvDiag
 .text.ShellCommandRunVer
                0x0000000000032288      0x2e0 /tmp/Shell.dll.q6gkOU.ltrans6.ltrans.o
                0x0000000000032288                ShellCommandRunVer
 .text.ShellCommandRunEcho
                0x0000000000032568      0x1f0 /tmp/Shell.dll.q6gkOU.ltrans6.ltrans.o
                0x0000000000032568                ShellCommandRunEcho
 .text.ShellCommandRunUnload
                0x0000000000032758      0x304 /tmp/Shell.dll.q6gkOU.ltrans6.ltrans.o
                0x0000000000032758                ShellCommandRunUnload
 .text.ShellCommandRunOpenInfo
                0x0000000000032a5c      0x398 /tmp/Shell.dll.q6gkOU.ltrans6.ltrans.o
                0x0000000000032a5c                ShellCommandRunOpenInfo
 .text.ShellCommandRunDevices
                0x0000000000032df4      0x4e4 /tmp/Shell.dll.q6gkOU.ltrans6.ltrans.o
                0x0000000000032df4                ShellCommandRunDevices
 .text.ShellConnectFromDevPaths
                0x00000000000332d8      0x3b8 /tmp/Shell.dll.q6gkOU.ltrans6.ltrans.o
 .text.ShellCommandRunDisconnect
                0x0000000000033690      0x468 /tmp/Shell.dll.q6gkOU.ltrans6.ltrans.o
                0x0000000000033690                ShellCommandRunDisconnect
 .text.ShellCommandRunConnect
                0x0000000000033af8      0x5ec /tmp/Shell.dll.q6gkOU.ltrans6.ltrans.o
                0x0000000000033af8                ShellCommandRunConnect
 .text.ShellCommandRunReconnect
                0x00000000000340e4      0x158 /tmp/Shell.dll.q6gkOU.ltrans6.ltrans.o
                0x00000000000340e4                ShellCommandRunReconnect
 .text.InternalIsAliasOnList
                0x000000000003423c       0x70 /tmp/Shell.dll.q6gkOU.ltrans6.ltrans.o
 .text.DoTouchByHandle
                0x00000000000342ac      0x2b0 /tmp/Shell.dll.q6gkOU.ltrans6.ltrans.o
 .text.ShellCommandRunTouch
                0x000000000003455c      0x2d0 /tmp/Shell.dll.q6gkOU.ltrans6.ltrans.o
                0x000000000003455c                ShellCommandRunTouch
 .text.ShellCommandRunType
                0x000000000003482c      0x5b4 /tmp/Shell.dll.q6gkOU.ltrans6.ltrans.o
                0x000000000003482c                ShellCommandRunType
 .text.ShellCommandRunCls
                0x0000000000034de0      0x308 /tmp/Shell.dll.q6gkOU.ltrans6.ltrans.o
                0x0000000000034de0                ShellCommandRunCls
 .text.ShellIsValidForNumber
                0x00000000000350e8       0x8c /tmp/Shell.dll.q6gkOU.ltrans6.ltrans.o
 .text.LexicalInsertIntoList
                0x0000000000035174      0x120 /tmp/Shell.dll.q6gkOU.ltrans6.ltrans.o
 .text.ShellCommandRunHelp
                0x0000000000035294      0x784 /tmp/Shell.dll.q6gkOU.ltrans6.ltrans.o
                0x0000000000035294                ShellCommandRunHelp
 .text.ShellCommandRunPause
                0x0000000000035a18      0x1f0 /tmp/Shell.dll.q6gkOU.ltrans6.ltrans.o
                0x0000000000035a18                ShellCommandRunPause
 .text.PrintSingleShellAlias
                0x0000000000035c08       0xe8 /tmp/Shell.dll.q6gkOU.ltrans6.ltrans.o
 .text.ShellCommandRunAlias
                0x0000000000035cf0      0x338 /tmp/Shell.dll.q6gkOU.ltrans6.ltrans.o
                0x0000000000035cf0                ShellCommandRunAlias
 .text.ShellCommandRunShift
                0x0000000000036028       0xf0 /tmp/Shell.dll.q6gkOU.ltrans6.ltrans.o
                0x0000000000036028                ShellCommandRunShift
 .text.ShellCommandRunEndFor
                0x0000000000036118      0x12c /tmp/Shell.dll.q6gkOU.ltrans6.ltrans.o
                0x0000000000036118                ShellCommandRunEndFor
 .text.ShellCommandRunEndIf
                0x0000000000036244      0x130 /tmp/Shell.dll.q6gkOU.ltrans6.ltrans.o
                0x0000000000036244                ShellCommandRunEndIf
 .text.ShellCommandRunElse
                0x0000000000036374      0x1d8 /tmp/Shell.dll.q6gkOU.ltrans6.ltrans.o
                0x0000000000036374                ShellCommandRunElse
 .text.InternalRemoveAliasFromList
                0x000000000003654c       0x90 /tmp/Shell.dll.q6gkOU.ltrans6.ltrans.o
 .text.InternalUpdateAliasOnList
                0x00000000000365dc       0xec /tmp/Shell.dll.q6gkOU.ltrans6.ltrans.o
 .text.ShellCommandRunFor
                0x00000000000366c8      0xb50 /tmp/Shell.dll.q6gkOU.ltrans6.ltrans.o
                0x00000000000366c8                ShellCommandRunFor
 .text.DoDhByHandle
                0x0000000000037218      0xac8 /tmp/Shell.dll.q6gkOU.ltrans6.ltrans.o
                0x0000000000037218                DoDhByHandle
 .text.ConvertStrToGuid
                0x0000000000037ce0      0x1a4 /tmp/Shell.dll.q6gkOU.ltrans6.ltrans.o
                0x0000000000037ce0                ConvertStrToGuid
 .text.ShellCommandGetManFileNameLevel1
                0x0000000000037e84        0xc /tmp/Shell.dll.q6gkOU.ltrans7.ltrans.o
                0x0000000000037e84                ShellCommandGetManFileNameLevel1
 .text.IsNextFragment
                0x0000000000037e90      0x108 /tmp/Shell.dll.q6gkOU.ltrans7.ltrans.o
 .text.TestNodeForMove
                0x0000000000037f98      0x19c /tmp/Shell.dll.q6gkOU.ltrans7.ltrans.o
 .text.PerformResultOperation
                0x0000000000038134      0x1c0 /tmp/Shell.dll.q6gkOU.ltrans7.ltrans.o
 .text.ShellCommandRunExit
                0x00000000000382f4      0x1a4 /tmp/Shell.dll.q6gkOU.ltrans7.ltrans.o
                0x00000000000382f4                ShellCommandRunExit
 .text.ShellCommandRunSet
                0x0000000000038498      0x368 /tmp/Shell.dll.q6gkOU.ltrans7.ltrans.o
                0x0000000000038498                ShellCommandRunSet
 .text.ShellCommandRunVol
                0x0000000000038800      0x708 /tmp/Shell.dll.q6gkOU.ltrans7.ltrans.o
                0x0000000000038800                ShellCommandRunVol
 .text.ShellCommandRunAttrib
                0x0000000000038f08      0x5b0 /tmp/Shell.dll.q6gkOU.ltrans7.ltrans.o
                0x0000000000038f08                ShellCommandRunAttrib
 .text.CascadeDelete
                0x00000000000394b8      0x444 /tmp/Shell.dll.q6gkOU.ltrans7.ltrans.o
 .text.ShellCommandRunRm
                0x00000000000398fc      0x3a8 /tmp/Shell.dll.q6gkOU.ltrans7.ltrans.o
                0x00000000000398fc                ShellCommandRunRm
 .text.ShellCommandRunParse
                0x0000000000039ca4      0x568 /tmp/Shell.dll.q6gkOU.ltrans7.ltrans.o
                0x0000000000039ca4                ShellCommandRunParse
 .text.CopySingleFile
                0x000000000003a20c      0x444 /tmp/Shell.dll.q6gkOU.ltrans7.ltrans.o
 .text.ValidateAndMoveFiles
                0x000000000003a650      0xccc /tmp/Shell.dll.q6gkOU.ltrans7.ltrans.o
 .text.ShellCommandRunMv
                0x000000000003b31c      0x3f0 /tmp/Shell.dll.q6gkOU.ltrans7.ltrans.o
                0x000000000003b31c                ShellCommandRunMv
 .text.ValidateAndCopyFiles
                0x000000000003b70c      0x794 /tmp/Shell.dll.q6gkOU.ltrans7.ltrans.o
 .text.ProcessValidateAndCopyFiles
                0x000000000003bea0      0x190 /tmp/Shell.dll.q6gkOU.ltrans7.ltrans.o
 .text.ShellCommandRunCp
                0x000000000003c030      0x41c /tmp/Shell.dll.q6gkOU.ltrans7.ltrans.o
                0x000000000003c030                ShellCommandRunCp
 .text.ShellCommandRunMkDir
                0x000000000003c44c      0x26c /tmp/Shell.dll.q6gkOU.ltrans7.ltrans.o
                0x000000000003c44c                ShellCommandRunMkDir
 .text.ShellCommandRunCd
                0x000000000003c6b8      0x538 /tmp/Shell.dll.q6gkOU.ltrans7.ltrans.o
                0x000000000003c6b8                ShellCommandRunCd
 .text.ShellCommandRunReset
                0x000000000003cbf0      0x390 /tmp/Shell.dll.q6gkOU.ltrans7.ltrans.o
                0x000000000003cbf0                ShellCommandRunReset
 .text.ShellCommandRunMap
                0x000000000003cf80      0xbe4 /tmp/Shell.dll.q6gkOU.ltrans7.ltrans.o
                0x000000000003cf80                ShellCommandRunMap
 .text.MoveToTag
                0x000000000003db64      0x198 /tmp/Shell.dll.q6gkOU.ltrans7.ltrans.o
                0x000000000003db64                MoveToTag
 .text.ShellCommandRunIf
                0x000000000003dcfc     0x1428 /tmp/Shell.dll.q6gkOU.ltrans7.ltrans.o
                0x000000000003dcfc                ShellCommandRunIf
 .text.ShellCommandRunGoto
                0x000000000003f124      0x254 /tmp/Shell.dll.q6gkOU.ltrans7.ltrans.o
                0x000000000003f124                ShellCommandRunGoto
 .text.FileTimeToLocalTime
                0x000000000003f378      0x104 /tmp/Shell.dll.q6gkOU.ltrans8.ltrans.o
 .text.InternalIsTimeLikeString
                0x000000000003f47c       0x7c /tmp/Shell.dll.q6gkOU.ltrans8.ltrans.o
 .text.ShellCommandGetManFileNameLevel2
                0x000000000003f4f8        0xc /tmp/Shell.dll.q6gkOU.ltrans8.ltrans.o
                0x000000000003f4f8                ShellCommandGetManFileNameLevel2
 .text.DevPathSerialDefault
                0x000000000003f504        0x8 /tmp/Shell.dll.q6gkOU.ltrans8.ltrans.o
 .text.DevPathComparePci
                0x000000000003f50c       0x3c /tmp/Shell.dll.q6gkOU.ltrans8.ltrans.o
 .text.DevPathCompareAcpi
                0x000000000003f548       0x50 /tmp/Shell.dll.q6gkOU.ltrans8.ltrans.o
 .text.UniqueNameCompare.lto_priv.0
                0x000000000003f598       0x20 /tmp/Shell.dll.q6gkOU.ltrans8.ltrans.o
                0x000000000003f598                UniqueNameCompare.lto_priv.0
 .text.UniqueNameAliasCompare.lto_priv.0
                0x000000000003f5b8       0x20 /tmp/Shell.dll.q6gkOU.ltrans8.ltrans.o
                0x000000000003f5b8                UniqueNameAliasCompare.lto_priv.0
 .text.DevicePathProtocolDumpInformationEx
                0x000000000003f5d8      0x198 /tmp/Shell.dll.q6gkOU.ltrans8.ltrans.o
 .text.LoadedImageDevicePathProtocolDumpInformation
                0x000000000003f770        0xc /tmp/Shell.dll.q6gkOU.ltrans8.ltrans.o
 .text.DevicePathProtocolDumpInformation
                0x000000000003f77c        0xc /tmp/Shell.dll.q6gkOU.ltrans8.ltrans.o
 .text.GetFullyQualifiedPath
                0x000000000003f788       0xf8 /tmp/Shell.dll.q6gkOU.ltrans8.ltrans.o
 .text.PrintNonSfoHeader
                0x000000000003f880       0x64 /tmp/Shell.dll.q6gkOU.ltrans8.ltrans.o
 .text.ShellCommandRunTimeZone
                0x000000000003f8e4      0x658 /tmp/Shell.dll.q6gkOU.ltrans8.ltrans.o
                0x000000000003f8e4                ShellCommandRunTimeZone
 .text.ShellCommandRunTime
                0x000000000003ff3c      0x6ec /tmp/Shell.dll.q6gkOU.ltrans8.ltrans.o
                0x000000000003ff3c                ShellCommandRunTime
 .text.ShellCommandRunDate
                0x0000000000040628      0x3b0 /tmp/Shell.dll.q6gkOU.ltrans8.ltrans.o
                0x0000000000040628                ShellCommandRunDate
 .text.GetHIDevicePath
                0x00000000000409d8      0x128 /tmp/Shell.dll.q6gkOU.ltrans8.ltrans.o
 .text.DriverEfiVersionProtocolDumpInformation
                0x0000000000040b00       0x8c /tmp/Shell.dll.q6gkOU.ltrans8.ltrans.o
 .text.FirmwareManagementDumpInformation
                0x0000000000040b8c      0x7c0 /tmp/Shell.dll.q6gkOU.ltrans8.ltrans.o
 .text.DevPathCompareDefault
                0x000000000004134c       0x74 /tmp/Shell.dll.q6gkOU.ltrans8.ltrans.o
 .text.CatPrint
                0x00000000000413c0      0x150 /tmp/Shell.dll.q6gkOU.ltrans8.ltrans.o
 .text.AppendCSDStr
                0x0000000000041510      0x168 /tmp/Shell.dll.q6gkOU.ltrans8.ltrans.o
 .text.DevPathSerial1394
                0x0000000000041678       0x68 /tmp/Shell.dll.q6gkOU.ltrans8.ltrans.o
 .text.DevPathSerialMacAddr
                0x00000000000416e0       0xbc /tmp/Shell.dll.q6gkOU.ltrans8.ltrans.o
 .text.AppendCSDNum2
                0x000000000004179c       0x88 /tmp/Shell.dll.q6gkOU.ltrans8.ltrans.o
 .text.AppendCSDNum
                0x0000000000041824       0x54 /tmp/Shell.dll.q6gkOU.ltrans8.ltrans.o
 .text.DevPathSerialAcpi
                0x0000000000041878       0x3c /tmp/Shell.dll.q6gkOU.ltrans8.ltrans.o
 .text.DevPathSerialScsi
                0x00000000000418b4       0x44 /tmp/Shell.dll.q6gkOU.ltrans8.ltrans.o
 .text.DevPathSerialIPv6
                0x00000000000418f8      0x10c /tmp/Shell.dll.q6gkOU.ltrans8.ltrans.o
 .text.DevPathSerialIPv4
                0x0000000000041a04       0xd8 /tmp/Shell.dll.q6gkOU.ltrans8.ltrans.o
 .text.DevPathSerialInfiniBand
                0x0000000000041adc       0xdc /tmp/Shell.dll.q6gkOU.ltrans8.ltrans.o
 .text.DevPathSerialI2O
                0x0000000000041bb8       0x10 /tmp/Shell.dll.q6gkOU.ltrans8.ltrans.o
 .text.DevPathSerialIScsi
                0x0000000000041bc8        0x8 /tmp/Shell.dll.q6gkOU.ltrans8.ltrans.o
 .text.DevPathSerialSata
                0x0000000000041bd0       0x54 /tmp/Shell.dll.q6gkOU.ltrans8.ltrans.o
 .text.DevPathSerialLun
                0x0000000000041c24       0x10 /tmp/Shell.dll.q6gkOU.ltrans8.ltrans.o
 .text.DevPathSerialVendor
                0x0000000000041c34      0x100 /tmp/Shell.dll.q6gkOU.ltrans8.ltrans.o
 .text.DevPathSerialUsb
                0x0000000000041d34      0x138 /tmp/Shell.dll.q6gkOU.ltrans8.ltrans.o
 .text.DevPathSerialUart
                0x0000000000041e6c       0x64 /tmp/Shell.dll.q6gkOU.ltrans8.ltrans.o
 .text.DevPathSerialFibre
                0x0000000000041ed0       0x44 /tmp/Shell.dll.q6gkOU.ltrans8.ltrans.o
 .text.DevPathSerialCdRom
                0x0000000000041f14       0x18 /tmp/Shell.dll.q6gkOU.ltrans8.ltrans.o
 .text.DevPathSerialAtapi
                0x0000000000041f2c       0x1c /tmp/Shell.dll.q6gkOU.ltrans8.ltrans.o
 .text.DevPathSerialHardDrive
                0x0000000000041f48       0x20 /tmp/Shell.dll.q6gkOU.ltrans8.ltrans.o
 .text.InternalShellInitHandleList.part.0
                0x0000000000041f68       0xf0 /tmp/Shell.dll.q6gkOU.ltrans8.ltrans.o
 .text.PartitionInfoProtocolDumpInformation
                0x0000000000042058      0x154 /tmp/Shell.dll.q6gkOU.ltrans8.ltrans.o
 .text.UsbIoProtocolDumpInformation
                0x00000000000421ac       0xe8 /tmp/Shell.dll.q6gkOU.ltrans8.ltrans.o
 .text.PciIoProtocolDumpInformation
                0x0000000000042294      0x1a8 /tmp/Shell.dll.q6gkOU.ltrans8.ltrans.o
 .text.DebugSupportProtocolDumpInformation
                0x000000000004243c      0x13c /tmp/Shell.dll.q6gkOU.ltrans8.ltrans.o
 .text.TxtOutProtocolDumpInformation
                0x0000000000042578      0x1c0 /tmp/Shell.dll.q6gkOU.ltrans8.ltrans.o
 .text.BlockIoProtocolDumpInformation
                0x0000000000042738      0x1c4 /tmp/Shell.dll.q6gkOU.ltrans8.ltrans.o
 .text.PerformSingleMappingDelete
                0x00000000000428fc       0xb4 /tmp/Shell.dll.q6gkOU.ltrans8.ltrans.o
                0x00000000000428fc                PerformSingleMappingDelete
 .text.IsNumberLetterOnly
                0x00000000000429b0       0x54 /tmp/Shell.dll.q6gkOU.ltrans8.ltrans.o
                0x00000000000429b0                IsNumberLetterOnly
 .text.StrniCmp.part.0
                0x0000000000042a04       0xdc /tmp/Shell.dll.q6gkOU.ltrans8.ltrans.o
                0x0000000000042a04                StrniCmp.part.0
 .text.VerifyIntermediateDirectories
                0x0000000000042ae0      0x128 /tmp/Shell.dll.q6gkOU.ltrans8.ltrans.o
                0x0000000000042ae0                VerifyIntermediateDirectories
 .text.ShellCommandFindMapItem
                0x0000000000042c08       0x80 /tmp/Shell.dll.q6gkOU.ltrans8.ltrans.o
                0x0000000000042c08                ShellCommandFindMapItem
 .text.ShellCommandConsistMappingGenMappingName
                0x0000000000042c88      0x21c /tmp/Shell.dll.q6gkOU.ltrans8.ltrans.o
                0x0000000000042c88                ShellCommandConsistMappingGenMappingName
 .text.ShellCommandConsistMappingUnInitialize
                0x0000000000042ea4       0x3c /tmp/Shell.dll.q6gkOU.ltrans8.ltrans.o
                0x0000000000042ea4                ShellCommandConsistMappingUnInitialize
 .text.ShellCommandConsistMappingInitialize
                0x0000000000042ee0      0x1ac /tmp/Shell.dll.q6gkOU.ltrans8.ltrans.o
                0x0000000000042ee0                ShellCommandConsistMappingInitialize
 .text.FreeBufferList.part.0
                0x000000000004308c       0x58 /tmp/Shell.dll.q6gkOU.ltrans8.ltrans.o
                0x000000000004308c                FreeBufferList.part.0
 .text.ConvertEfiFileProtocolToShellHandle.part.0
                0x00000000000430e4       0xa0 /tmp/Shell.dll.q6gkOU.ltrans8.ltrans.o
                0x00000000000430e4                ConvertEfiFileProtocolToShellHandle.part.0
 .text.ShellSortFileList
                0x0000000000043184      0x25c /tmp/Shell.dll.q6gkOU.ltrans8.ltrans.o
                0x0000000000043184                ShellSortFileList
 .text.PrintLsOutput
                0x00000000000433e0      0x998 /tmp/Shell.dll.q6gkOU.ltrans8.ltrans.o
 .text.DumpHex  0x0000000000043d78      0x13c /tmp/Shell.dll.q6gkOU.ltrans8.ltrans.o
                0x0000000000043d78                DumpHex
 .text.ShellFileHandleEof
                0x0000000000043eb4       0xb4 /tmp/Shell.dll.q6gkOU.ltrans8.ltrans.o
                0x0000000000043eb4                ShellFileHandleEof
 .text.ShellFileHandleRemove
                0x0000000000043f68       0xb0 /tmp/Shell.dll.q6gkOU.ltrans8.ltrans.o
                0x0000000000043f68                ShellFileHandleRemove
 .text.ShellFileHandleGetPath
                0x0000000000044018       0x78 /tmp/Shell.dll.q6gkOU.ltrans8.ltrans.o
                0x0000000000044018                ShellFileHandleGetPath
 .text.ShellCommandCreateNewMappingName
                0x0000000000044090       0x70 /tmp/Shell.dll.q6gkOU.ltrans8.ltrans.o
                0x0000000000044090                ShellCommandCreateNewMappingName
 .text.ShellCommandGetCurrentScriptFile
                0x0000000000044100       0x44 /tmp/Shell.dll.q6gkOU.ltrans8.ltrans.o
                0x0000000000044100                ShellCommandGetCurrentScriptFile
 .text.DeleteScriptFileStruct
                0x0000000000044144       0xf0 /tmp/Shell.dll.q6gkOU.ltrans8.ltrans.o
                0x0000000000044144                DeleteScriptFileStruct
 .text.ShellCommandSetNewScript
                0x0000000000044234       0x8c /tmp/Shell.dll.q6gkOU.ltrans8.ltrans.o
                0x0000000000044234                ShellCommandSetNewScript
 .text.ShellCommandRegisterExit
                0x00000000000442c0       0x30 /tmp/Shell.dll.q6gkOU.ltrans8.ltrans.o
                0x00000000000442c0                ShellCommandRegisterExit
 .text.ShellCommandIsOnAliasList
                0x00000000000442f0       0x9c /tmp/Shell.dll.q6gkOU.ltrans8.ltrans.o
                0x00000000000442f0                ShellCommandIsOnAliasList
 .text.ShellCommandRegisterAlias
                0x000000000004438c      0x108 /tmp/Shell.dll.q6gkOU.ltrans8.ltrans.o
                0x000000000004438c                ShellCommandRegisterAlias
 .text.CommandInit
                0x0000000000044494      0x160 /tmp/Shell.dll.q6gkOU.ltrans8.ltrans.o
                0x0000000000044494                CommandInit
 .text.ShellCommandRunLs
                0x00000000000445f4      0x5c4 /tmp/Shell.dll.q6gkOU.ltrans8.ltrans.o
                0x00000000000445f4                ShellCommandRunLs
 .text.LoadDriver
                0x0000000000044bb8      0x280 /tmp/Shell.dll.q6gkOU.ltrans8.ltrans.o
 .text.ShellCommandRunLoad
                0x0000000000044e38      0x250 /tmp/Shell.dll.q6gkOU.ltrans8.ltrans.o
                0x0000000000044e38                ShellCommandRunLoad
 .text.GetAllMappingGuids
                0x0000000000045088       0xec /tmp/Shell.dll.q6gkOU.ltrans8.ltrans.o
                0x0000000000045088                GetAllMappingGuids
 .text.GetHandleListByProtocolList
                0x0000000000045174      0x16c /tmp/Shell.dll.q6gkOU.ltrans8.ltrans.o
                0x0000000000045174                GetHandleListByProtocolList
 .text.GetHandleListByProtocol
                0x00000000000452e0      0x154 /tmp/Shell.dll.q6gkOU.ltrans8.ltrans.o
                0x00000000000452e0                GetHandleListByProtocol
 .text.ShellCommandCreateInitialMappingsAndPaths
                0x0000000000045434      0x338 /tmp/Shell.dll.q6gkOU.ltrans8.ltrans.o
                0x0000000000045434                ShellCommandCreateInitialMappingsAndPaths
 .text.ShellCommandFindDynamicCommand
                0x000000000004576c       0xe8 /tmp/Shell.dll.q6gkOU.ltrans8.ltrans.o
                0x000000000004576c                ShellCommandFindDynamicCommand
 .text.ShellCommandIsCommandOnList
                0x0000000000045854       0x90 /tmp/Shell.dll.q6gkOU.ltrans8.ltrans.o
                0x0000000000045854                ShellCommandIsCommandOnList
 .text.ShellCommandRegisterCommandName
                0x00000000000458e4      0x1a8 /tmp/Shell.dll.q6gkOU.ltrans8.ltrans.o
                0x00000000000458e4                ShellCommandRegisterCommandName
 .text.ParseHandleDatabaseByRelationshipWithType
                0x0000000000045a8c      0x718 /tmp/Shell.dll.q6gkOU.ltrans8.ltrans.o
                0x0000000000045a8c                ParseHandleDatabaseByRelationshipWithType
 .text.ParseHandleDatabaseByRelationship
                0x00000000000461a4      0x178 /tmp/Shell.dll.q6gkOU.ltrans8.ltrans.o
                0x00000000000461a4                ParseHandleDatabaseByRelationship
 .text.ParseHandleDatabaseForChildControllers
                0x000000000004631c      0x154 /tmp/Shell.dll.q6gkOU.ltrans8.ltrans.o
                0x000000000004631c                ParseHandleDatabaseForChildControllers
 .text.ConvertHandleIndexToHandle
                0x0000000000046470       0xe8 /tmp/Shell.dll.q6gkOU.ltrans8.ltrans.o
                0x0000000000046470                ConvertHandleIndexToHandle
 .text.ConvertHandleToHandleIndex
                0x0000000000046558      0x138 /tmp/Shell.dll.q6gkOU.ltrans8.ltrans.o
                0x0000000000046558                ConvertHandleToHandleIndex
 .text.PerformSingleMappingDisplay
                0x0000000000046690      0x694 /tmp/Shell.dll.q6gkOU.ltrans8.ltrans.o
 .text.PerformMappingDisplay
                0x0000000000046d24      0x3c4 /tmp/Shell.dll.q6gkOU.ltrans8.ltrans.o
                0x0000000000046d24                PerformMappingDisplay
 .text.BusSpecificDriverOverrideProtocolDumpInformation
                0x00000000000470e8      0x15c /tmp/Shell.dll.q6gkOU.ltrans8.ltrans.o
 .text.GetStringNameFromHandle
                0x0000000000047244      0x148 /tmp/Shell.dll.q6gkOU.ltrans8.ltrans.o
                0x0000000000047244                GetStringNameFromHandle
 .text.GetGuidFromStringName
                0x000000000004738c      0x1e0 /tmp/Shell.dll.q6gkOU.ltrans8.ltrans.o
                0x000000000004738c                GetGuidFromStringName
 .text.InternalShellGetNodeFromGuid
                0x000000000004756c       0xcc /tmp/Shell.dll.q6gkOU.ltrans8.ltrans.o
                0x000000000004756c                InternalShellGetNodeFromGuid
 .text.GetProtocolInformationDump
                0x0000000000047638       0x5c /tmp/Shell.dll.q6gkOU.ltrans8.ltrans.o
                0x0000000000047638                GetProtocolInformationDump
 .text.GetStringNameFromGuid
                0x0000000000047694       0x4c /tmp/Shell.dll.q6gkOU.ltrans8.ltrans.o
                0x0000000000047694                GetStringNameFromGuid
 .text.AdapterInformationDumpInformation
                0x00000000000476e0      0x538 /tmp/Shell.dll.q6gkOU.ltrans8.ltrans.o
 .text.FileHandleFlush
                0x0000000000047c18       0x1c /tmp/Shell.dll.q6gkOU.ltrans9.ltrans.o
                0x0000000000047c18                FileHandleFlush
 .text.FileHandleGetPosition
                0x0000000000047c34       0x24 /tmp/Shell.dll.q6gkOU.ltrans9.ltrans.o
                0x0000000000047c34                FileHandleGetPosition
 .text.FileHandleSetPosition
                0x0000000000047c58       0x1c /tmp/Shell.dll.q6gkOU.ltrans9.ltrans.o
                0x0000000000047c58                FileHandleSetPosition
 .text.FileHandleDelete
                0x0000000000047c74       0x1c /tmp/Shell.dll.q6gkOU.ltrans9.ltrans.o
                0x0000000000047c74                FileHandleDelete
 .text.FileHandleClose
                0x0000000000047c90       0x1c /tmp/Shell.dll.q6gkOU.ltrans9.ltrans.o
                0x0000000000047c90                FileHandleClose
 .text.FileHandleWrite
                0x0000000000047cac       0x1c /tmp/Shell.dll.q6gkOU.ltrans9.ltrans.o
                0x0000000000047cac                FileHandleWrite
 .text.FileHandleRead
                0x0000000000047cc8       0x1c /tmp/Shell.dll.q6gkOU.ltrans9.ltrans.o
                0x0000000000047cc8                FileHandleRead
 .text.FileHandleSetInfo
                0x0000000000047ce4       0x34 /tmp/Shell.dll.q6gkOU.ltrans9.ltrans.o
                0x0000000000047ce4                FileHandleSetInfo
 .text.StrToAscii
                0x0000000000047d18       0x2c /tmp/Shell.dll.q6gkOU.ltrans9.ltrans.o
 .text.IsHexStr
                0x0000000000047d44       0x38 /tmp/Shell.dll.q6gkOU.ltrans9.ltrans.o
 .text.SplitStr
                0x0000000000047d7c       0x48 /tmp/Shell.dll.q6gkOU.ltrans9.ltrans.o
 .text.GetNextParamStr
                0x0000000000047dc4        0x8 /tmp/Shell.dll.q6gkOU.ltrans9.ltrans.o
 .text.InternalPrintTo
                0x0000000000047dcc       0xbc /tmp/Shell.dll.q6gkOU.ltrans9.ltrans.o
 .text.EisaIdFromText
                0x0000000000047e88       0x44 /tmp/Shell.dll.q6gkOU.ltrans9.ltrans.o
 .text.Strtoi64
                0x0000000000047ecc       0x40 /tmp/Shell.dll.q6gkOU.ltrans9.ltrans.o
 .text.Strtoi   0x0000000000047f0c       0x2c /tmp/Shell.dll.q6gkOU.ltrans9.ltrans.o
 .text.NetworkProtocolFromText
                0x0000000000047f38       0x5c /tmp/Shell.dll.q6gkOU.ltrans9.ltrans.o
 .text.ShellFileHandleReadLine
                0x0000000000047f94      0x1dc /tmp/Shell.dll.q6gkOU.ltrans9.ltrans.o
                0x0000000000047f94                ShellFileHandleReadLine
 .text.ShellCommandLineGetCount
                0x0000000000048170       0x70 /tmp/Shell.dll.q6gkOU.ltrans9.ltrans.o
                0x0000000000048170                ShellCommandLineGetCount
 .text.ShellCommandLineGetRawValue
                0x00000000000481e0       0x70 /tmp/Shell.dll.q6gkOU.ltrans9.ltrans.o
                0x00000000000481e0                ShellCommandLineGetRawValue
 .text.ShellGetCurrentDir
                0x0000000000048250       0x34 /tmp/Shell.dll.q6gkOU.ltrans9.ltrans.o
                0x0000000000048250                ShellGetCurrentDir
 .text.ShellGetEnvironmentVariable
                0x0000000000048284       0x2c /tmp/Shell.dll.q6gkOU.ltrans9.ltrans.o
                0x0000000000048284                ShellGetEnvironmentVariable
 .text.ShellGetExecutionBreakFlag
                0x00000000000482b0       0x58 /tmp/Shell.dll.q6gkOU.ltrans9.ltrans.o
                0x00000000000482b0                ShellGetExecutionBreakFlag
 .text.ShellGetFileSize
                0x0000000000048308       0x10 /tmp/Shell.dll.q6gkOU.ltrans9.ltrans.o
                0x0000000000048308                ShellGetFileSize
 .text.ShellDeleteFile
                0x0000000000048318       0x14 /tmp/Shell.dll.q6gkOU.ltrans9.ltrans.o
                0x0000000000048318                ShellDeleteFile
 .text.ShellCloseFile
                0x000000000004832c       0x14 /tmp/Shell.dll.q6gkOU.ltrans9.ltrans.o
                0x000000000004832c                ShellCloseFile
 .text.ShellWriteFile
                0x0000000000048340       0x10 /tmp/Shell.dll.q6gkOU.ltrans9.ltrans.o
                0x0000000000048340                ShellWriteFile
 .text.ShellReadFile
                0x0000000000048350       0x10 /tmp/Shell.dll.q6gkOU.ltrans9.ltrans.o
                0x0000000000048350                ShellReadFile
 .text.ShellGetFileInfo
                0x0000000000048360       0x10 /tmp/Shell.dll.q6gkOU.ltrans9.ltrans.o
                0x0000000000048360                ShellGetFileInfo
 .text.ShellInitialize
                0x0000000000048370       0x28 /tmp/Shell.dll.q6gkOU.ltrans9.ltrans.o
                0x0000000000048370                ShellInitialize
 .text.ShellIsHexaDecimalDigitCharacter
                0x0000000000048398       0x3c /tmp/Shell.dll.q6gkOU.ltrans9.ltrans.o
                0x0000000000048398                ShellIsHexaDecimalDigitCharacter
 .text.InternalShellIsHexOrDecimalNumber
                0x00000000000483d4      0x12c /tmp/Shell.dll.q6gkOU.ltrans9.ltrans.o
 .text.ShellConvertStringToUint64
                0x0000000000048500      0x280 /tmp/Shell.dll.q6gkOU.ltrans9.ltrans.o
                0x0000000000048500                ShellConvertStringToUint64
 .text.ShellStrToUintn
                0x0000000000048780       0x78 /tmp/Shell.dll.q6gkOU.ltrans9.ltrans.o
                0x0000000000048780                ShellStrToUintn
 .text.InternalIsFlag
                0x00000000000487f8       0x68 /tmp/Shell.dll.q6gkOU.ltrans9.ltrans.o
                0x00000000000487f8                InternalIsFlag
 .text.HiiRemovePackages
                0x0000000000048860       0x18 /tmp/Shell.dll.q6gkOU.ltrans9.ltrans.o
                0x0000000000048860                HiiRemovePackages
 .text.StringNoCaseCompare
                0x0000000000048878       0x6c /tmp/Shell.dll.q6gkOU.ltrans9.ltrans.o
                0x0000000000048878                StringNoCaseCompare
 .text.QuickSortWorker
                0x00000000000488e4      0x144 /tmp/Shell.dll.q6gkOU.ltrans9.ltrans.o
                0x00000000000488e4                QuickSortWorker
 .text.EfiGetSystemConfigurationTable
                0x0000000000048a28       0x94 /tmp/Shell.dll.q6gkOU.ltrans9.ltrans.o
                0x0000000000048a28                EfiGetSystemConfigurationTable
 .text.DevicePathFromHandle
                0x0000000000048abc       0x6c /tmp/Shell.dll.q6gkOU.ltrans9.ltrans.o
                0x0000000000048abc                DevicePathFromHandle
 .text.SetDevicePathEndNode
                0x0000000000048b28       0x10 /tmp/Shell.dll.q6gkOU.ltrans9.ltrans.o
                0x0000000000048b28                SetDevicePathEndNode
 .text.IsDevicePathEnd
                0x0000000000048b38       0x24 /tmp/Shell.dll.q6gkOU.ltrans9.ltrans.o
                0x0000000000048b38                IsDevicePathEnd
 .text.NextDevicePathNode
                0x0000000000048b5c       0x28 /tmp/Shell.dll.q6gkOU.ltrans9.ltrans.o
                0x0000000000048b5c                NextDevicePathNode
 .text.UefiDevicePathLibGetDevicePathSize
                0x0000000000048b84       0x70 /tmp/Shell.dll.q6gkOU.ltrans9.ltrans.o
                0x0000000000048b84                UefiDevicePathLibGetDevicePathSize
 .text.FreePool
                0x0000000000048bf4       0x14 /tmp/Shell.dll.q6gkOU.ltrans9.ltrans.o
                0x0000000000048bf4                FreePool
 .text.ShellCommandLineFreeVarList
                0x0000000000048c08       0x70 /tmp/Shell.dll.q6gkOU.ltrans9.ltrans.o
                0x0000000000048c08                ShellCommandLineFreeVarList
 .text.ShellCloseFileMetaArg
                0x0000000000048c78       0xbc /tmp/Shell.dll.q6gkOU.ltrans9.ltrans.o
                0x0000000000048c78                ShellCloseFileMetaArg
 .text.FileHandleFindNextFile.part.0
                0x0000000000048d34       0x94 /tmp/Shell.dll.q6gkOU.ltrans9.ltrans.o
                0x0000000000048d34                FileHandleFindNextFile.part.0
 .text.ReallocatePool
                0x0000000000048dc8       0x70 /tmp/Shell.dll.q6gkOU.ltrans9.ltrans.o
                0x0000000000048dc8                ReallocatePool
 .text.UefiDevicePathLibCatPrint
                0x0000000000048e38      0x158 /tmp/Shell.dll.q6gkOU.ltrans9.ltrans.o
 .text.DevPathToTextNodeGeneric
                0x0000000000048f90       0xe8 /tmp/Shell.dll.q6gkOU.ltrans9.ltrans.o
 .text.DevPathToTextEndInstance
                0x0000000000049078        0xc /tmp/Shell.dll.q6gkOU.ltrans9.ltrans.o
 .text.DevPathToTextBBS
                0x0000000000049084       0xa0 /tmp/Shell.dll.q6gkOU.ltrans9.ltrans.o
 .text.DevPathToTextRamDisk
                0x0000000000049124      0x1cc /tmp/Shell.dll.q6gkOU.ltrans9.ltrans.o
 .text.DevPathRelativeOffsetRange
                0x00000000000492f0       0x10 /tmp/Shell.dll.q6gkOU.ltrans9.ltrans.o
 .text.DevPathToTextFvFile
                0x0000000000049300       0x10 /tmp/Shell.dll.q6gkOU.ltrans9.ltrans.o
 .text.DevPathToTextFv
                0x0000000000049310       0x10 /tmp/Shell.dll.q6gkOU.ltrans9.ltrans.o
 .text.DevPathToTextMediaProtocol
                0x0000000000049320       0x10 /tmp/Shell.dll.q6gkOU.ltrans9.ltrans.o
 .text.DevPathToTextFilePath
                0x0000000000049330       0x10 /tmp/Shell.dll.q6gkOU.ltrans9.ltrans.o
 .text.DevPathToTextCDROM
                0x0000000000049340       0x30 /tmp/Shell.dll.q6gkOU.ltrans9.ltrans.o
 .text.DevPathToTextHardDrive
                0x0000000000049370       0x8c /tmp/Shell.dll.q6gkOU.ltrans9.ltrans.o
 .text.DevPathToTextBluetoothLE
                0x00000000000493fc       0x44 /tmp/Shell.dll.q6gkOU.ltrans9.ltrans.o
 .text.DevPathToTextWiFi
                0x0000000000049440       0x70 /tmp/Shell.dll.q6gkOU.ltrans9.ltrans.o
 .text.DevPathToTextBluetooth
                0x00000000000494b0       0x24 /tmp/Shell.dll.q6gkOU.ltrans9.ltrans.o
 .text.DevPathToTextVlan
                0x00000000000494d4       0x10 /tmp/Shell.dll.q6gkOU.ltrans9.ltrans.o
 .text.DevPathToTextiSCSI
                0x00000000000494e4      0x10c /tmp/Shell.dll.q6gkOU.ltrans9.ltrans.o
 .text.DevPathToTextUart
                0x00000000000495f0      0x118 /tmp/Shell.dll.q6gkOU.ltrans9.ltrans.o
 .text.DevPathToTextInfiniBand
                0x0000000000049708       0x1c /tmp/Shell.dll.q6gkOU.ltrans9.ltrans.o
 .text.CatIPv6Address
                0x0000000000049724       0x8c /tmp/Shell.dll.q6gkOU.ltrans9.ltrans.o
 .text.CatIPv4Address
                0x00000000000497b0       0x1c /tmp/Shell.dll.q6gkOU.ltrans9.ltrans.o
 .text.DevPathToTextDns
                0x00000000000497cc       0xc4 /tmp/Shell.dll.q6gkOU.ltrans9.ltrans.o
 .text.CatNetworkProtocol
                0x0000000000049890       0x38 /tmp/Shell.dll.q6gkOU.ltrans9.ltrans.o
 .text.DevPathToTextIPv6
                0x00000000000498c8       0xec /tmp/Shell.dll.q6gkOU.ltrans9.ltrans.o
 .text.DevPathToTextIPv4
                0x00000000000499b4       0xf4 /tmp/Shell.dll.q6gkOU.ltrans9.ltrans.o
 .text.DevPathToTextMacAddr
                0x0000000000049aa8       0x8c /tmp/Shell.dll.q6gkOU.ltrans9.ltrans.o
 .text.DevPathToTextI2O
                0x0000000000049b34       0x10 /tmp/Shell.dll.q6gkOU.ltrans9.ltrans.o
 .text.DevPathToTextSata
                0x0000000000049b44       0x18 /tmp/Shell.dll.q6gkOU.ltrans9.ltrans.o
 .text.DevPathToTextUsbClass
                0x0000000000049b5c      0x194 /tmp/Shell.dll.q6gkOU.ltrans9.ltrans.o
 .text.DevPathToTextLogicalUnit
                0x0000000000049cf0       0x10 /tmp/Shell.dll.q6gkOU.ltrans9.ltrans.o
 .text.DevPathToTextUsb
                0x0000000000049d00       0x14 /tmp/Shell.dll.q6gkOU.ltrans9.ltrans.o
 .text.DevPathToText1394
                0x0000000000049d14       0x10 /tmp/Shell.dll.q6gkOU.ltrans9.ltrans.o
 .text.DevPathToTextEmmc
                0x0000000000049d24       0x10 /tmp/Shell.dll.q6gkOU.ltrans9.ltrans.o
 .text.DevPathToTextSd
                0x0000000000049d34       0x10 /tmp/Shell.dll.q6gkOU.ltrans9.ltrans.o
 .text.DevPathToTextUfs
                0x0000000000049d44       0x14 /tmp/Shell.dll.q6gkOU.ltrans9.ltrans.o
 .text.DevPathToTextNVMe
                0x0000000000049d58       0x54 /tmp/Shell.dll.q6gkOU.ltrans9.ltrans.o
 .text.DevPathToTextSasEx
                0x0000000000049dac      0x18c /tmp/Shell.dll.q6gkOU.ltrans9.ltrans.o
 .text.DevPathToTextFibreEx
                0x0000000000049f38       0xa8 /tmp/Shell.dll.q6gkOU.ltrans9.ltrans.o
 .text.DevPathToTextFibre
                0x0000000000049fe0       0x10 /tmp/Shell.dll.q6gkOU.ltrans9.ltrans.o
 .text.DevPathToTextScsi
                0x0000000000049ff0       0x14 /tmp/Shell.dll.q6gkOU.ltrans9.ltrans.o
 .text.DevPathToTextAtapi
                0x000000000004a004       0x60 /tmp/Shell.dll.q6gkOU.ltrans9.ltrans.o
 .text.DevPathToTextAcpiAdr
                0x000000000004a064       0x9c /tmp/Shell.dll.q6gkOU.ltrans9.ltrans.o
 .text.DevPathToTextAcpiEx
                0x000000000004a100      0x288 /tmp/Shell.dll.q6gkOU.ltrans9.ltrans.o
 .text.DevPathToTextAcpi
                0x000000000004a388       0xc0 /tmp/Shell.dll.q6gkOU.ltrans9.ltrans.o
 .text.DevPathToTextBmc
                0x000000000004a448       0x3c /tmp/Shell.dll.q6gkOU.ltrans9.ltrans.o
 .text.DevPathToTextController
                0x000000000004a484       0x10 /tmp/Shell.dll.q6gkOU.ltrans9.ltrans.o
 .text.DevPathToTextVendor
                0x000000000004a494      0x350 /tmp/Shell.dll.q6gkOU.ltrans9.ltrans.o
 .text.DevPathToTextMemMap
                0x000000000004a7e4       0x14 /tmp/Shell.dll.q6gkOU.ltrans9.ltrans.o
 .text.DevPathToTextPccard
                0x000000000004a7f8       0x10 /tmp/Shell.dll.q6gkOU.ltrans9.ltrans.o
 .text.DevPathToTextPci
                0x000000000004a808       0x14 /tmp/Shell.dll.q6gkOU.ltrans9.ltrans.o
 .text.AllocateCopyPool
                0x000000000004a81c       0x3c /tmp/Shell.dll.q6gkOU.ltrans9.ltrans.o
                0x000000000004a81c                AllocateCopyPool
 .text.InternalShellStripQuotes.part.0
                0x000000000004a858       0x7c /tmp/Shell.dll.q6gkOU.ltrans9.ltrans.o
                0x000000000004a858                InternalShellStripQuotes.part.0
 .text.ShellOpenFileByName
                0x000000000004a8d4      0x384 /tmp/Shell.dll.q6gkOU.ltrans9.ltrans.o
                0x000000000004a8d4                ShellOpenFileByName
 .text.ShellCreateDirectory
                0x000000000004ac58       0x2c /tmp/Shell.dll.q6gkOU.ltrans9.ltrans.o
                0x000000000004ac58                ShellCreateDirectory
 .text.UefiDevicePathLibStrDuplicate
                0x000000000004ac84       0x24 /tmp/Shell.dll.q6gkOU.ltrans9.ltrans.o
                0x000000000004ac84                UefiDevicePathLibStrDuplicate
 .text.DevPathToTextUsbWWID
                0x000000000004aca8       0x90 /tmp/Shell.dll.q6gkOU.ltrans9.ltrans.o
 .text.UefiDevicePathLibDuplicateDevicePath
                0x000000000004ad38       0x34 /tmp/Shell.dll.q6gkOU.ltrans9.ltrans.o
                0x000000000004ad38                UefiDevicePathLibDuplicateDevicePath
 .text.AllocateZeroPool
                0x000000000004ad6c       0x34 /tmp/Shell.dll.q6gkOU.ltrans9.ltrans.o
                0x000000000004ad6c                AllocateZeroPool
 .text.ShellFileHandleReturnLine
                0x000000000004ada0       0xe8 /tmp/Shell.dll.q6gkOU.ltrans9.ltrans.o
                0x000000000004ada0                ShellFileHandleReturnLine
 .text.StrnCatGrow
                0x000000000004ae88       0xfc /tmp/Shell.dll.q6gkOU.ltrans9.ltrans.o
                0x000000000004ae88                StrnCatGrow
 .text.ConvertMemoryType
                0x000000000004af84      0x164 /tmp/Shell.dll.q6gkOU.ltrans9.ltrans.o
 .text.ShellCommandLineGetValue
                0x000000000004b0e8      0x148 /tmp/Shell.dll.q6gkOU.ltrans9.ltrans.o
                0x000000000004b0e8                ShellCommandLineGetValue
 .text.ShellCommandLineGetFlag
                0x000000000004b230      0x130 /tmp/Shell.dll.q6gkOU.ltrans9.ltrans.o
                0x000000000004b230                ShellCommandLineGetFlag
 .text.InternalShellPrintWorker
                0x000000000004b360      0x32c /tmp/Shell.dll.q6gkOU.ltrans9.ltrans.o
 .text.ShellPrintEx
                0x000000000004b68c       0xb8 /tmp/Shell.dll.q6gkOU.ltrans9.ltrans.o
                0x000000000004b68c                ShellPrintEx
 .text.ShellPrintHelp
                0x000000000004b744      0x118 /tmp/Shell.dll.q6gkOU.ltrans9.ltrans.o
                0x000000000004b744                ShellPrintHelp
 .text.ShellPromptForResponse
                0x000000000004b85c      0x5f0 /tmp/Shell.dll.q6gkOU.ltrans9.ltrans.o
                0x000000000004b85c                ShellPromptForResponse
 .text.ShellOpenFileMetaArg
                0x000000000004be4c      0x2d4 /tmp/Shell.dll.q6gkOU.ltrans9.ltrans.o
                0x000000000004be4c                ShellOpenFileMetaArg
 .text.ShellFileExists
                0x000000000004c120       0x64 /tmp/Shell.dll.q6gkOU.ltrans9.ltrans.o
                0x000000000004c120                ShellFileExists
 .text.ShellDeleteFileByName
                0x000000000004c184       0x70 /tmp/Shell.dll.q6gkOU.ltrans9.ltrans.o
                0x000000000004c184                ShellDeleteFileByName
 .text.FullyQualifyPath
                0x000000000004c1f4      0x158 /tmp/Shell.dll.q6gkOU.ltrans9.ltrans.o
                0x000000000004c1f4                FullyQualifyPath
 .text.FileHandleGetInfo
                0x000000000004c34c       0xc4 /tmp/Shell.dll.q6gkOU.ltrans9.ltrans.o
                0x000000000004c34c                FileHandleGetInfo
 .text.FileHandleGetSize
                0x000000000004c410       0x54 /tmp/Shell.dll.q6gkOU.ltrans9.ltrans.o
                0x000000000004c410                FileHandleGetSize
 .text.FileHandleIsDirectory
                0x000000000004c464       0x50 /tmp/Shell.dll.q6gkOU.ltrans9.ltrans.o
                0x000000000004c464                FileHandleIsDirectory
 .text.ShellIsFile
                0x000000000004c4b4       0x88 /tmp/Shell.dll.q6gkOU.ltrans9.ltrans.o
                0x000000000004c4b4                ShellIsFile
 .text.ShellIsDirectory
                0x000000000004c53c      0x150 /tmp/Shell.dll.q6gkOU.ltrans9.ltrans.o
                0x000000000004c53c                ShellIsDirectory
 .text.ShellFindFilePath
                0x000000000004c68c      0x2a0 /tmp/Shell.dll.q6gkOU.ltrans9.ltrans.o
                0x000000000004c68c                ShellFindFilePath
 .text.HiiGetSupportedLanguages
                0x000000000004c92c       0xc0 /tmp/Shell.dll.q6gkOU.ltrans9.ltrans.o
                0x000000000004c92c                HiiGetSupportedLanguages
 .text.HiiAddPackages
                0x000000000004c9ec      0x1c8 /tmp/Shell.dll.q6gkOU.ltrans9.ltrans.o
                0x000000000004c9ec                HiiAddPackages
 .text.HandleParsingHiiInit
                0x000000000004cbb4       0x48 /tmp/Shell.dll.q6gkOU.ltrans9.ltrans.o
                0x000000000004cbb4                HandleParsingHiiInit
 .text.GetBestLanguage
                0x000000000004cbfc      0x1ac /tmp/Shell.dll.q6gkOU.ltrans9.ltrans.o
                0x000000000004cbfc                GetBestLanguage
 .text.UefiDevicePathLibConvertDevicePathToText
                0x000000000004cda8      0x168 /tmp/Shell.dll.q6gkOU.ltrans9.ltrans.o
                0x000000000004cda8                UefiDevicePathLibConvertDevicePathToText
 .text.DevicePathCompare
                0x000000000004cf10       0xe0 /tmp/Shell.dll.q6gkOU.ltrans9.ltrans.o
                0x000000000004cf10                DevicePathCompare
 .text.UefiDevicePathLibCreateDeviceNode
                0x000000000004cff0       0x64 /tmp/Shell.dll.q6gkOU.ltrans9.ltrans.o
                0x000000000004cff0                UefiDevicePathLibCreateDeviceNode
 .text.DevPathFromTextIPv6
                0x000000000004d054      0x140 /tmp/Shell.dll.q6gkOU.ltrans9.ltrans.o
                0x000000000004d054                DevPathFromTextIPv6
 .text.DevPathFromTextSata
                0x000000000004d194       0x94 /tmp/Shell.dll.q6gkOU.ltrans9.ltrans.o
                0x000000000004d194                DevPathFromTextSata
 .text.DevPathFromTextBBS
                0x000000000004d228      0x170 /tmp/Shell.dll.q6gkOU.ltrans9.ltrans.o
                0x000000000004d228                DevPathFromTextBBS
 .text.DevPathFromTextPersistentVirtualCd
                0x000000000004d398       0xe0 /tmp/Shell.dll.q6gkOU.ltrans9.ltrans.o
                0x000000000004d398                DevPathFromTextPersistentVirtualCd
 .text.DevPathFromTextPersistentVirtualDisk
                0x000000000004d478       0xe0 /tmp/Shell.dll.q6gkOU.ltrans9.ltrans.o
                0x000000000004d478                DevPathFromTextPersistentVirtualDisk
 .text.DevPathFromTextVirtualCd
                0x000000000004d558       0xe0 /tmp/Shell.dll.q6gkOU.ltrans9.ltrans.o
                0x000000000004d558                DevPathFromTextVirtualCd
 .text.DevPathFromTextVirtualDisk
                0x000000000004d638       0xe0 /tmp/Shell.dll.q6gkOU.ltrans9.ltrans.o
                0x000000000004d638                DevPathFromTextVirtualDisk
 .text.DevPathFromTextRamDisk
                0x000000000004d718       0xe8 /tmp/Shell.dll.q6gkOU.ltrans9.ltrans.o
                0x000000000004d718                DevPathFromTextRamDisk
 .text.DevPathFromTextRelativeOffsetRange
                0x000000000004d800       0x6c /tmp/Shell.dll.q6gkOU.ltrans9.ltrans.o
                0x000000000004d800                DevPathFromTextRelativeOffsetRange
 .text.DevPathFromTextFvFile
                0x000000000004d86c       0x4c /tmp/Shell.dll.q6gkOU.ltrans9.ltrans.o
                0x000000000004d86c                DevPathFromTextFvFile
 .text.DevPathFromTextFv
                0x000000000004d8b8       0x4c /tmp/Shell.dll.q6gkOU.ltrans9.ltrans.o
                0x000000000004d8b8                DevPathFromTextFv
 .text.DevPathFromTextMedia
                0x000000000004d904       0x4c /tmp/Shell.dll.q6gkOU.ltrans9.ltrans.o
                0x000000000004d904                DevPathFromTextMedia
 .text.DevPathFromTextCDROM
                0x000000000004d950       0x84 /tmp/Shell.dll.q6gkOU.ltrans9.ltrans.o
                0x000000000004d950                DevPathFromTextCDROM
 .text.DevPathFromTextHD
                0x000000000004d9d4      0x160 /tmp/Shell.dll.q6gkOU.ltrans9.ltrans.o
                0x000000000004d9d4                DevPathFromTextHD
 .text.DevPathFromTextUri
                0x000000000004db34       0x60 /tmp/Shell.dll.q6gkOU.ltrans9.ltrans.o
                0x000000000004db34                DevPathFromTextUri
 .text.DevPathFromTextDns
                0x000000000004db94      0x13c /tmp/Shell.dll.q6gkOU.ltrans9.ltrans.o
                0x000000000004db94                DevPathFromTextDns
 .text.DevPathFromTextBluetoothLE
                0x000000000004dcd0       0x74 /tmp/Shell.dll.q6gkOU.ltrans9.ltrans.o
                0x000000000004dcd0                DevPathFromTextBluetoothLE
 .text.DevPathFromTextWiFi
                0x000000000004dd44       0xb0 /tmp/Shell.dll.q6gkOU.ltrans9.ltrans.o
                0x000000000004dd44                DevPathFromTextWiFi
 .text.DevPathFromTextBluetooth
                0x000000000004ddf4       0x54 /tmp/Shell.dll.q6gkOU.ltrans9.ltrans.o
                0x000000000004ddf4                DevPathFromTextBluetooth
 .text.DevPathFromTextVlan
                0x000000000004de48       0x4c /tmp/Shell.dll.q6gkOU.ltrans9.ltrans.o
                0x000000000004de48                DevPathFromTextVlan
 .text.DevPathFromTextiSCSI
                0x000000000004de94      0x1a8 /tmp/Shell.dll.q6gkOU.ltrans9.ltrans.o
                0x000000000004de94                DevPathFromTextiSCSI
 .text.DevPathFromTextUnit
                0x000000000004e03c       0x4c /tmp/Shell.dll.q6gkOU.ltrans9.ltrans.o
                0x000000000004e03c                DevPathFromTextUnit
 .text.DevPathFromTextUsbWwid
                0x000000000004e088       0xe8 /tmp/Shell.dll.q6gkOU.ltrans9.ltrans.o
                0x000000000004e088                DevPathFromTextUsbWwid
 .text.ConvertFromTextUsbClass
                0x000000000004e170      0x118 /tmp/Shell.dll.q6gkOU.ltrans9.ltrans.o
 .text.DevPathFromTextUsbTestAndMeasurement
                0x000000000004e288       0x58 /tmp/Shell.dll.q6gkOU.ltrans9.ltrans.o
                0x000000000004e288                DevPathFromTextUsbTestAndMeasurement
 .text.DevPathFromTextUsbIrdaBridge
                0x000000000004e2e0       0x58 /tmp/Shell.dll.q6gkOU.ltrans9.ltrans.o
                0x000000000004e2e0                DevPathFromTextUsbIrdaBridge
 .text.DevPathFromTextUsbDeviceFirmwareUpdate
                0x000000000004e338       0x58 /tmp/Shell.dll.q6gkOU.ltrans9.ltrans.o
                0x000000000004e338                DevPathFromTextUsbDeviceFirmwareUpdate
 .text.DevPathFromTextUsbWireless
                0x000000000004e390       0x5c /tmp/Shell.dll.q6gkOU.ltrans9.ltrans.o
                0x000000000004e390                DevPathFromTextUsbWireless
 .text.DevPathFromTextUsbDiagnostic
                0x000000000004e3ec       0x5c /tmp/Shell.dll.q6gkOU.ltrans9.ltrans.o
                0x000000000004e3ec                DevPathFromTextUsbDiagnostic
 .text.DevPathFromTextUsbVideo
                0x000000000004e448       0x5c /tmp/Shell.dll.q6gkOU.ltrans9.ltrans.o
                0x000000000004e448                DevPathFromTextUsbVideo
 .text.DevPathFromTextUsbSmartCard
                0x000000000004e4a4       0x5c /tmp/Shell.dll.q6gkOU.ltrans9.ltrans.o
                0x000000000004e4a4                DevPathFromTextUsbSmartCard
 .text.DevPathFromTextUsbCDCData
                0x000000000004e500       0x5c /tmp/Shell.dll.q6gkOU.ltrans9.ltrans.o
                0x000000000004e500                DevPathFromTextUsbCDCData
 .text.DevPathFromTextUsbHub
                0x000000000004e55c       0x5c /tmp/Shell.dll.q6gkOU.ltrans9.ltrans.o
                0x000000000004e55c                DevPathFromTextUsbHub
 .text.DevPathFromTextUsbMassStorage
                0x000000000004e5b8       0x5c /tmp/Shell.dll.q6gkOU.ltrans9.ltrans.o
                0x000000000004e5b8                DevPathFromTextUsbMassStorage
 .text.DevPathFromTextUsbPrinter
                0x000000000004e614       0x5c /tmp/Shell.dll.q6gkOU.ltrans9.ltrans.o
                0x000000000004e614                DevPathFromTextUsbPrinter
 .text.DevPathFromTextUsbImage
                0x000000000004e670       0x5c /tmp/Shell.dll.q6gkOU.ltrans9.ltrans.o
                0x000000000004e670                DevPathFromTextUsbImage
 .text.DevPathFromTextUsbHID
                0x000000000004e6cc       0x5c /tmp/Shell.dll.q6gkOU.ltrans9.ltrans.o
                0x000000000004e6cc                DevPathFromTextUsbHID
 .text.DevPathFromTextUsbCDCControl
                0x000000000004e728       0x5c /tmp/Shell.dll.q6gkOU.ltrans9.ltrans.o
                0x000000000004e728                DevPathFromTextUsbCDCControl
 .text.DevPathFromTextUsbAudio
                0x000000000004e784       0x5c /tmp/Shell.dll.q6gkOU.ltrans9.ltrans.o
                0x000000000004e784                DevPathFromTextUsbAudio
 .text.DevPathFromTextUsbClass
                0x000000000004e7e0       0x58 /tmp/Shell.dll.q6gkOU.ltrans9.ltrans.o
                0x000000000004e7e0                DevPathFromTextUsbClass
 .text.DevPathFromTextUart
                0x000000000004e838      0x1b0 /tmp/Shell.dll.q6gkOU.ltrans9.ltrans.o
                0x000000000004e838                DevPathFromTextUart
 .text.DevPathFromTextIPv4
                0x000000000004e9e8      0x130 /tmp/Shell.dll.q6gkOU.ltrans9.ltrans.o
                0x000000000004e9e8                DevPathFromTextIPv4
 .text.DevPathFromTextMAC
                0x000000000004eb18       0x84 /tmp/Shell.dll.q6gkOU.ltrans9.ltrans.o
                0x000000000004eb18                DevPathFromTextMAC
 .text.DevPathFromTextDebugPort
                0x000000000004eb9c       0x40 /tmp/Shell.dll.q6gkOU.ltrans9.ltrans.o
                0x000000000004eb9c                DevPathFromTextDebugPort
 .text.DevPathFromTextEmmc
                0x000000000004ebdc       0x4c /tmp/Shell.dll.q6gkOU.ltrans9.ltrans.o
                0x000000000004ebdc                DevPathFromTextEmmc
 .text.DevPathFromTextSd
                0x000000000004ec28       0x4c /tmp/Shell.dll.q6gkOU.ltrans9.ltrans.o
                0x000000000004ec28                DevPathFromTextSd
 .text.DevPathFromTextUfs
                0x000000000004ec74       0x6c /tmp/Shell.dll.q6gkOU.ltrans9.ltrans.o
                0x000000000004ec74                DevPathFromTextUfs
 .text.DevPathFromTextNVMe
                0x000000000004ece0       0xb4 /tmp/Shell.dll.q6gkOU.ltrans9.ltrans.o
                0x000000000004ece0                DevPathFromTextNVMe
 .text.DevPathFromTextSasEx
                0x000000000004ed94      0x244 /tmp/Shell.dll.q6gkOU.ltrans9.ltrans.o
                0x000000000004ed94                DevPathFromTextSasEx
 .text.DevPathFromTextSAS
                0x000000000004efd8      0x218 /tmp/Shell.dll.q6gkOU.ltrans9.ltrans.o
                0x000000000004efd8                DevPathFromTextSAS
 .text.DevPathFromTextUartFlowCtrl
                0x000000000004f1f0       0x88 /tmp/Shell.dll.q6gkOU.ltrans9.ltrans.o
                0x000000000004f1f0                DevPathFromTextUartFlowCtrl
 .text.DevPathFromTextVenUtf8
                0x000000000004f278       0x40 /tmp/Shell.dll.q6gkOU.ltrans9.ltrans.o
                0x000000000004f278                DevPathFromTextVenUtf8
 .text.DevPathFromTextVenVt100Plus
                0x000000000004f2b8       0x40 /tmp/Shell.dll.q6gkOU.ltrans9.ltrans.o
                0x000000000004f2b8                DevPathFromTextVenVt100Plus
 .text.DevPathFromTextVenVt100
                0x000000000004f2f8       0x40 /tmp/Shell.dll.q6gkOU.ltrans9.ltrans.o
                0x000000000004f2f8                DevPathFromTextVenVt100
 .text.DevPathFromTextVenPcAnsi
                0x000000000004f338       0x40 /tmp/Shell.dll.q6gkOU.ltrans9.ltrans.o
                0x000000000004f338                DevPathFromTextVenPcAnsi
 .text.DevPathFromTextInfiniband
                0x000000000004f378       0xbc /tmp/Shell.dll.q6gkOU.ltrans9.ltrans.o
                0x000000000004f378                DevPathFromTextInfiniband
 .text.DevPathFromTextI2O
                0x000000000004f434       0x4c /tmp/Shell.dll.q6gkOU.ltrans9.ltrans.o
                0x000000000004f434                DevPathFromTextI2O
 .text.DevPathFromTextUsb
                0x000000000004f480       0x6c /tmp/Shell.dll.q6gkOU.ltrans9.ltrans.o
                0x000000000004f480                DevPathFromTextUsb
 .text.DevPathFromText1394
                0x000000000004f4ec       0x50 /tmp/Shell.dll.q6gkOU.ltrans9.ltrans.o
                0x000000000004f4ec                DevPathFromText1394
 .text.DevPathFromTextFibreEx
                0x000000000004f53c       0x88 /tmp/Shell.dll.q6gkOU.ltrans9.ltrans.o
                0x000000000004f53c                DevPathFromTextFibreEx
 .text.DevPathFromTextFibre
                0x000000000004f5c4       0x70 /tmp/Shell.dll.q6gkOU.ltrans9.ltrans.o
                0x000000000004f5c4                DevPathFromTextFibre
 .text.DevPathFromTextScsi
                0x000000000004f634       0x6c /tmp/Shell.dll.q6gkOU.ltrans9.ltrans.o
                0x000000000004f634                DevPathFromTextScsi
 .text.DevPathFromTextAta
                0x000000000004f6a0       0xf4 /tmp/Shell.dll.q6gkOU.ltrans9.ltrans.o
                0x000000000004f6a0                DevPathFromTextAta
 .text.DevPathFromTextAcpiAdr
                0x000000000004f794       0x9c /tmp/Shell.dll.q6gkOU.ltrans9.ltrans.o
                0x000000000004f794                DevPathFromTextAcpiAdr
 .text.DevPathFromTextAcpiExp
                0x000000000004f830       0xec /tmp/Shell.dll.q6gkOU.ltrans9.ltrans.o
                0x000000000004f830                DevPathFromTextAcpiExp
 .text.DevPathFromTextAcpiEx
                0x000000000004f91c      0x138 /tmp/Shell.dll.q6gkOU.ltrans9.ltrans.o
                0x000000000004f91c                DevPathFromTextAcpiEx
 .text.ConvertFromTextAcpi
                0x000000000004fa54       0x64 /tmp/Shell.dll.q6gkOU.ltrans9.ltrans.o
 .text.DevPathFromTextParallelPort
                0x000000000004fab8        0x8 /tmp/Shell.dll.q6gkOU.ltrans9.ltrans.o
                0x000000000004fab8                DevPathFromTextParallelPort
 .text.DevPathFromTextSerial
                0x000000000004fac0        0x8 /tmp/Shell.dll.q6gkOU.ltrans9.ltrans.o
                0x000000000004fac0                DevPathFromTextSerial
 .text.DevPathFromTextKeyboard
                0x000000000004fac8        0x8 /tmp/Shell.dll.q6gkOU.ltrans9.ltrans.o
                0x000000000004fac8                DevPathFromTextKeyboard
 .text.DevPathFromTextFloppy
                0x000000000004fad0        0x8 /tmp/Shell.dll.q6gkOU.ltrans9.ltrans.o
                0x000000000004fad0                DevPathFromTextFloppy
 .text.DevPathFromTextPcieRoot
                0x000000000004fad8        0x8 /tmp/Shell.dll.q6gkOU.ltrans9.ltrans.o
                0x000000000004fad8                DevPathFromTextPcieRoot
 .text.DevPathFromTextPciRoot
                0x000000000004fae0        0x8 /tmp/Shell.dll.q6gkOU.ltrans9.ltrans.o
                0x000000000004fae0                DevPathFromTextPciRoot
 .text.DevPathFromTextAcpi
                0x000000000004fae8       0x6c /tmp/Shell.dll.q6gkOU.ltrans9.ltrans.o
                0x000000000004fae8                DevPathFromTextAcpi
 .text.DevPathFromTextBmc
                0x000000000004fb54       0x74 /tmp/Shell.dll.q6gkOU.ltrans9.ltrans.o
                0x000000000004fb54                DevPathFromTextBmc
 .text.DevPathFromTextCtrl
                0x000000000004fbc8       0x4c /tmp/Shell.dll.q6gkOU.ltrans9.ltrans.o
                0x000000000004fbc8                DevPathFromTextCtrl
 .text.ConvertFromTextVendor
                0x000000000004fc14       0x90 /tmp/Shell.dll.q6gkOU.ltrans9.ltrans.o
 .text.DevPathFromTextVenMedia
                0x000000000004fca4        0xc /tmp/Shell.dll.q6gkOU.ltrans9.ltrans.o
                0x000000000004fca4                DevPathFromTextVenMedia
 .text.DevPathFromTextVenMsg
                0x000000000004fcb0        0xc /tmp/Shell.dll.q6gkOU.ltrans9.ltrans.o
                0x000000000004fcb0                DevPathFromTextVenMsg
 .text.DevPathFromTextVenHw
                0x000000000004fcbc        0xc /tmp/Shell.dll.q6gkOU.ltrans9.ltrans.o
                0x000000000004fcbc                DevPathFromTextVenHw
 .text.DevPathFromTextMemoryMapped
                0x000000000004fcc8       0x84 /tmp/Shell.dll.q6gkOU.ltrans9.ltrans.o
                0x000000000004fcc8                DevPathFromTextMemoryMapped
 .text.DevPathFromTextPcCard
                0x000000000004fd4c       0x4c /tmp/Shell.dll.q6gkOU.ltrans9.ltrans.o
                0x000000000004fd4c                DevPathFromTextPcCard
 .text.DevPathFromTextPci
                0x000000000004fd98       0x6c /tmp/Shell.dll.q6gkOU.ltrans9.ltrans.o
                0x000000000004fd98                DevPathFromTextPci
 .text.DevPathFromTextGenericPath
                0x000000000004fe04       0x88 /tmp/Shell.dll.q6gkOU.ltrans9.ltrans.o
 .text.DevPathFromTextBbsPath
                0x000000000004fe8c        0xc /tmp/Shell.dll.q6gkOU.ltrans9.ltrans.o
                0x000000000004fe8c                DevPathFromTextBbsPath
 .text.DevPathFromTextMediaPath
                0x000000000004fe98        0xc /tmp/Shell.dll.q6gkOU.ltrans9.ltrans.o
                0x000000000004fe98                DevPathFromTextMediaPath
 .text.DevPathFromTextMsg
                0x000000000004fea4        0xc /tmp/Shell.dll.q6gkOU.ltrans9.ltrans.o
                0x000000000004fea4                DevPathFromTextMsg
 .text.DevPathFromTextAcpiPath
                0x000000000004feb0        0xc /tmp/Shell.dll.q6gkOU.ltrans9.ltrans.o
                0x000000000004feb0                DevPathFromTextAcpiPath
 .text.DevPathFromTextHardwarePath
                0x000000000004febc        0xc /tmp/Shell.dll.q6gkOU.ltrans9.ltrans.o
                0x000000000004febc                DevPathFromTextHardwarePath
 .text.DevPathFromTextPath
                0x000000000004fec8       0x28 /tmp/Shell.dll.q6gkOU.ltrans9.ltrans.o
                0x000000000004fec8                DevPathFromTextPath
 .text.AllocatePool
                0x000000000004fef0        0x4 /tmp/Shell.dll.q6gkOU.ltrans9.ltrans.o
                0x000000000004fef0                AllocatePool
 .text.GetVariable2
                0x000000000004fef4      0x114 /tmp/Shell.dll.q6gkOU.ltrans9.ltrans.o
                0x000000000004fef4                GetVariable2
 .text.HiiGetString
                0x0000000000050008      0x180 /tmp/Shell.dll.q6gkOU.ltrans9.ltrans.o
                0x0000000000050008                HiiGetString
 .text.PciRootBridgeIoDumpInformation
                0x0000000000050188      0x320 /tmp/Shell.dll.q6gkOU.ltrans9.ltrans.o
                0x0000000000050188                PciRootBridgeIoDumpInformation
 .text.EdidActiveProtocolDumpInformation
                0x00000000000504a8      0x140 /tmp/Shell.dll.q6gkOU.ltrans9.ltrans.o
                0x00000000000504a8                EdidActiveProtocolDumpInformation
 .text.EdidDiscoveredProtocolDumpInformation
                0x00000000000505e8      0x140 /tmp/Shell.dll.q6gkOU.ltrans9.ltrans.o
                0x00000000000505e8                EdidDiscoveredProtocolDumpInformation
 .text.GraphicsOutputProtocolDumpInformation
                0x0000000000050728      0x2dc /tmp/Shell.dll.q6gkOU.ltrans9.ltrans.o
                0x0000000000050728                GraphicsOutputProtocolDumpInformation
 .text.LoadedImageProtocolDumpInformation
                0x0000000000050a04      0x268 /tmp/Shell.dll.q6gkOU.ltrans9.ltrans.o
                0x0000000000050a04                LoadedImageProtocolDumpInformation
 .text.ShellPromptForResponseHii
                0x0000000000050c6c       0x58 /tmp/Shell.dll.q6gkOU.ltrans9.ltrans.o
                0x0000000000050c6c                ShellPromptForResponseHii
 .text.ShellPrintHiiEx
                0x0000000000050cc4       0xec /tmp/Shell.dll.q6gkOU.ltrans9.ltrans.o
                0x0000000000050cc4                ShellPrintHiiEx
 .text.DevPathToTextUri
                0x0000000000050db0       0x6c /tmp/Shell.dll.q6gkOU.ltrans9.ltrans.o
 .text.UefiDevicePathLibAppendDevicePath
                0x0000000000050e1c       0xc4 /tmp/Shell.dll.q6gkOU.ltrans9.ltrans.o
                0x0000000000050e1c                UefiDevicePathLibAppendDevicePath
 .text.FileDevicePath
                0x0000000000050ee0       0xa0 /tmp/Shell.dll.q6gkOU.ltrans9.ltrans.o
                0x0000000000050ee0                FileDevicePath
 .text.UefiDevicePathLibAppendDevicePathNode
                0x0000000000050f80       0x9c /tmp/Shell.dll.q6gkOU.ltrans9.ltrans.o
                0x0000000000050f80                UefiDevicePathLibAppendDevicePathNode
 .text.InternalSafeStringNoStrOverlap
                0x000000000005101c       0x3c /tmp/Shell.dll.q6gkOU.ltrans10.ltrans.o
 .text.GetPreviousNode
                0x0000000000051058        0x8 /tmp/Shell.dll.q6gkOU.ltrans10.ltrans.o
                0x0000000000051058                GetPreviousNode
 .text.GetNextNode
                0x0000000000051060        0x8 /tmp/Shell.dll.q6gkOU.ltrans10.ltrans.o
                0x0000000000051060                GetNextNode
 .text.FileBasedSimpleTextOutTestString
                0x0000000000051068        0x8 /tmp/Shell.dll.q6gkOU.ltrans10.ltrans.o
                0x0000000000051068                FileBasedSimpleTextOutTestString
 .text.FileBasedSimpleTextOutQueryMode
                0x0000000000051070       0x10 /tmp/Shell.dll.q6gkOU.ltrans10.ltrans.o
 .text.FileBasedSimpleTextOutSetAttribute
                0x0000000000051080        0x8 /tmp/Shell.dll.q6gkOU.ltrans10.ltrans.o
 .text.FileBasedSimpleTextOutSetCursorPosition
                0x0000000000051088        0x8 /tmp/Shell.dll.q6gkOU.ltrans10.ltrans.o
 .text.FileBasedSimpleTextInReset
                0x0000000000051090        0x8 /tmp/Shell.dll.q6gkOU.ltrans10.ltrans.o
 .text.FileBasedSimpleTextOutEnableCursor
                0x0000000000051098        0x8 /tmp/Shell.dll.q6gkOU.ltrans10.ltrans.o
 .text.FileInterfaceNopGeneric
                0x00000000000510a0        0x8 /tmp/Shell.dll.q6gkOU.ltrans10.ltrans.o
                0x00000000000510a0                FileInterfaceNopGeneric
 .text.FileBasedSimpleTextOutClearScreen
                0x00000000000510a8        0x8 /tmp/Shell.dll.q6gkOU.ltrans10.ltrans.o
 .text.FileInterfaceNopSetPosition
                0x00000000000510b0        0x8 /tmp/Shell.dll.q6gkOU.ltrans10.ltrans.o
                0x00000000000510b0                FileInterfaceNopSetPosition
 .text.FileBasedSimpleTextOutSetMode
                0x00000000000510b8        0x8 /tmp/Shell.dll.q6gkOU.ltrans10.ltrans.o
 .text.FileBasedSimpleTextOutReset
                0x00000000000510c0        0x8 /tmp/Shell.dll.q6gkOU.ltrans10.ltrans.o
 .text.FileBasedSimpleTextInReadKeyStroke
                0x00000000000510c8       0xb4 /tmp/Shell.dll.q6gkOU.ltrans10.ltrans.o
 .text.ConInWaitForKey
                0x000000000005117c       0x14 /tmp/Shell.dll.q6gkOU.ltrans10.ltrans.o
 .text.ConsoleLoggerEnableCursor
                0x0000000000051190       0x38 /tmp/Shell.dll.q6gkOU.ltrans10.ltrans.o
                0x0000000000051190                ConsoleLoggerEnableCursor
 .text.ConsoleLoggerSetCursorPosition
                0x00000000000511c8       0x5c /tmp/Shell.dll.q6gkOU.ltrans10.ltrans.o
                0x00000000000511c8                ConsoleLoggerSetCursorPosition
 .text.ConsoleLoggerClearScreen
                0x0000000000051224       0xcc /tmp/Shell.dll.q6gkOU.ltrans10.ltrans.o
                0x0000000000051224                ConsoleLoggerClearScreen
 .text.ConsoleLoggerSetAttribute
                0x00000000000512f0       0x34 /tmp/Shell.dll.q6gkOU.ltrans10.ltrans.o
                0x00000000000512f0                ConsoleLoggerSetAttribute
 .text.ConsoleLoggerQueryMode
                0x0000000000051324       0x10 /tmp/Shell.dll.q6gkOU.ltrans10.ltrans.o
                0x0000000000051324                ConsoleLoggerQueryMode
 .text.ConsoleLoggerTestString
                0x0000000000051334       0x10 /tmp/Shell.dll.q6gkOU.ltrans10.ltrans.o
                0x0000000000051334                ConsoleLoggerTestString
 .text.UpdateDisplayFromHistory
                0x0000000000051344      0x1f8 /tmp/Shell.dll.q6gkOU.ltrans10.ltrans.o
 .text.FileInterfaceFileOpen
                0x000000000005153c       0x10 /tmp/Shell.dll.q6gkOU.ltrans10.ltrans.o
                0x000000000005153c                FileInterfaceFileOpen
 .text.FileInterfaceFileFlush
                0x000000000005154c       0x10 /tmp/Shell.dll.q6gkOU.ltrans10.ltrans.o
                0x000000000005154c                FileInterfaceFileFlush
 .text.FileInterfaceFileSetInfo
                0x000000000005155c       0x10 /tmp/Shell.dll.q6gkOU.ltrans10.ltrans.o
                0x000000000005155c                FileInterfaceFileSetInfo
 .text.FileInterfaceFileGetInfo
                0x000000000005156c       0x10 /tmp/Shell.dll.q6gkOU.ltrans10.ltrans.o
                0x000000000005156c                FileInterfaceFileGetInfo
 .text.FileInterfaceFileGetPosition
                0x000000000005157c       0x10 /tmp/Shell.dll.q6gkOU.ltrans10.ltrans.o
                0x000000000005157c                FileInterfaceFileGetPosition
 .text.FileInterfaceFileSetPosition
                0x000000000005158c       0x10 /tmp/Shell.dll.q6gkOU.ltrans10.ltrans.o
                0x000000000005158c                FileInterfaceFileSetPosition
 .text.FileInterfaceOpenNotFound
                0x000000000005159c        0xc /tmp/Shell.dll.q6gkOU.ltrans10.ltrans.o
                0x000000000005159c                FileInterfaceOpenNotFound
 .text.FileInterfaceMemGetPosition
                0x00000000000515a8       0x10 /tmp/Shell.dll.q6gkOU.ltrans10.ltrans.o
 .text.FileInterfaceMemSetPosition
                0x00000000000515b8       0x24 /tmp/Shell.dll.q6gkOU.ltrans10.ltrans.o
 .text.FileInterfaceNopSetInfo
                0x00000000000515dc        0x8 /tmp/Shell.dll.q6gkOU.ltrans10.ltrans.o
                0x00000000000515dc                FileInterfaceNopSetInfo
 .text.FileInterfaceNopGetPosition
                0x00000000000515e4        0x8 /tmp/Shell.dll.q6gkOU.ltrans10.ltrans.o
                0x00000000000515e4                FileInterfaceNopGetPosition
 .text.FileInterfaceNopGetInfo
                0x00000000000515ec        0x8 /tmp/Shell.dll.q6gkOU.ltrans10.ltrans.o
                0x00000000000515ec                FileInterfaceNopGetInfo
 .text.FileInterfaceEnvRead
                0x00000000000515f4       0x88 /tmp/Shell.dll.q6gkOU.ltrans10.ltrans.o
 .text.FileInterfaceNulWrite
                0x000000000005167c        0x8 /tmp/Shell.dll.q6gkOU.ltrans10.ltrans.o
                0x000000000005167c                FileInterfaceNulWrite
 .text.FileInterfaceNulRead
                0x0000000000051684        0xc /tmp/Shell.dll.q6gkOU.ltrans10.ltrans.o
 .text.FileInterfaceStdInWrite
                0x0000000000051690        0x8 /tmp/Shell.dll.q6gkOU.ltrans10.ltrans.o
                0x0000000000051690                FileInterfaceStdInWrite
 .text.FileInterfaceStdErrRead
                0x0000000000051698        0x8 /tmp/Shell.dll.q6gkOU.ltrans10.ltrans.o
 .text.FileInterfaceStdOutRead
                0x00000000000516a0        0x8 /tmp/Shell.dll.q6gkOU.ltrans10.ltrans.o
 .text.FileInterfaceStdErrWrite
                0x00000000000516a8       0x1c /tmp/Shell.dll.q6gkOU.ltrans10.ltrans.o
 .text.FileInterfaceStdOutWrite
                0x00000000000516c4       0x44 /tmp/Shell.dll.q6gkOU.ltrans10.ltrans.o
 .text.NotificationFunction
                0x0000000000051708       0xa0 /tmp/Shell.dll.q6gkOU.ltrans10.ltrans.o
                0x0000000000051708                NotificationFunction
 .text.ToLower  0x00000000000517a8       0x30 /tmp/Shell.dll.q6gkOU.ltrans10.ltrans.o
 .text.EfiShellIsRootShell
                0x00000000000517d8        0xc /tmp/Shell.dll.q6gkOU.ltrans10.ltrans.o
                0x00000000000517d8                EfiShellIsRootShell
 .text.EfiShellGetPageBreak
                0x00000000000517e4        0xc /tmp/Shell.dll.q6gkOU.ltrans10.ltrans.o
                0x00000000000517e4                EfiShellGetPageBreak
 .text.EfiShellEnablePageBreak
                0x00000000000517f0       0x10 /tmp/Shell.dll.q6gkOU.ltrans10.ltrans.o
                0x00000000000517f0                EfiShellEnablePageBreak
 .text.EfiShellDisablePageBreak
                0x0000000000051800        0xc /tmp/Shell.dll.q6gkOU.ltrans10.ltrans.o
                0x0000000000051800                EfiShellDisablePageBreak
 .text.WriteFileTag
                0x000000000005180c       0x6c /tmp/Shell.dll.q6gkOU.ltrans10.ltrans.o
 .text.CalculateEfiHdrCrc
                0x0000000000051878       0x70 /tmp/Shell.dll.q6gkOU.ltrans10.ltrans.o
 .text.IsUnicodeFile
                0x00000000000518e8      0x108 /tmp/Shell.dll.q6gkOU.ltrans10.ltrans.o
 .text.CloseSimpleTextOutOnFile
                0x00000000000519f0       0x64 /tmp/Shell.dll.q6gkOU.ltrans10.ltrans.o
 .text.FileInterfaceFileClose
                0x0000000000051a54       0x38 /tmp/Shell.dll.q6gkOU.ltrans10.ltrans.o
                0x0000000000051a54                FileInterfaceFileClose
 .text.FileInterfaceFileDelete
                0x0000000000051a8c       0x38 /tmp/Shell.dll.q6gkOU.ltrans10.ltrans.o
                0x0000000000051a8c                FileInterfaceFileDelete
 .text.FileInterfaceMemClose
                0x0000000000051ac4       0x38 /tmp/Shell.dll.q6gkOU.ltrans10.ltrans.o
 .text.InternalFreeShellFileInfoNode
                0x0000000000051afc       0x5c /tmp/Shell.dll.q6gkOU.ltrans10.ltrans.o
 .text.CreateSimpleTextOutOnFile
                0x0000000000051b58      0x18c /tmp/Shell.dll.q6gkOU.ltrans10.ltrans.o
 .text.IsVolatileEnv
                0x0000000000051ce4      0x120 /tmp/Shell.dll.q6gkOU.ltrans10.ltrans.o
 .text.IsCommand
                0x0000000000051e04       0x28 /tmp/Shell.dll.q6gkOU.ltrans10.ltrans.o
 .text.IsScriptOnlyCommand
                0x0000000000051e2c       0xb0 /tmp/Shell.dll.q6gkOU.ltrans10.ltrans.o
 .text.EfiShellClose
                0x0000000000051edc       0x24 /tmp/Shell.dll.q6gkOU.ltrans10.ltrans.o
                0x0000000000051edc                EfiShellClose
 .text.EfiShellBatchIsActive
                0x0000000000051f00       0x1c /tmp/Shell.dll.q6gkOU.ltrans10.ltrans.o
                0x0000000000051f00                EfiShellBatchIsActive
 .text.EfiShellGetDeviceName
                0x0000000000051f1c      0x388 /tmp/Shell.dll.q6gkOU.ltrans10.ltrans.o
                0x0000000000051f1c                EfiShellGetDeviceName
 .text.BasePrintLibValueToString
                0x00000000000522a4       0x2c /tmp/Shell.dll.q6gkOU.ltrans10.ltrans.o
                0x00000000000522a4                BasePrintLibValueToString
 .text.BasePrintLibFillBuffer
                0x00000000000522d0       0x34 /tmp/Shell.dll.q6gkOU.ltrans10.ltrans.o
                0x00000000000522d0                BasePrintLibFillBuffer
 .text.SPrintLength
                0x0000000000052304       0x40 /tmp/Shell.dll.q6gkOU.ltrans10.ltrans.o
                0x0000000000052304                SPrintLength
 .text.AsciiSPrint
                0x0000000000052344       0xb8 /tmp/Shell.dll.q6gkOU.ltrans10.ltrans.o
                0x0000000000052344                AsciiSPrint
 .text.UnicodeVSPrint
                0x00000000000523fc       0x54 /tmp/Shell.dll.q6gkOU.ltrans10.ltrans.o
                0x00000000000523fc                UnicodeVSPrint
 .text.UnicodeSPrint
                0x0000000000052450       0xa4 /tmp/Shell.dll.q6gkOU.ltrans10.ltrans.o
                0x0000000000052450                UnicodeSPrint
 .text.DivU64x32
                0x00000000000524f4        0xc /tmp/Shell.dll.q6gkOU.ltrans10.ltrans.o
                0x00000000000524f4                DivU64x32
 .text.LShiftU64
                0x0000000000052500        0x8 /tmp/Shell.dll.q6gkOU.ltrans10.ltrans.o
                0x0000000000052500                LShiftU64
 .text.MultU64x32
                0x0000000000052508        0xc /tmp/Shell.dll.q6gkOU.ltrans10.ltrans.o
                0x0000000000052508                MultU64x32
 .text.RShiftU64
                0x0000000000052514        0x8 /tmp/Shell.dll.q6gkOU.ltrans10.ltrans.o
                0x0000000000052514                RShiftU64
 .text.SwapBytes32
                0x000000000005251c       0x20 /tmp/Shell.dll.q6gkOU.ltrans10.ltrans.o
                0x000000000005251c                SwapBytes32
 .text.PathRemoveLastItem
                0x000000000005253c       0x5c /tmp/Shell.dll.q6gkOU.ltrans10.ltrans.o
                0x000000000005253c                PathRemoveLastItem
 .text.AsciiStrnCmp
                0x0000000000052598       0x44 /tmp/Shell.dll.q6gkOU.ltrans10.ltrans.o
                0x0000000000052598                AsciiStrnCmp
 .text.AsciiStrLen
                0x00000000000525dc       0x1c /tmp/Shell.dll.q6gkOU.ltrans10.ltrans.o
                0x00000000000525dc                AsciiStrLen
 .text.AsciiStrSize
                0x00000000000525f8       0x18 /tmp/Shell.dll.q6gkOU.ltrans10.ltrans.o
 .text.FileInterfaceFileWrite
                0x0000000000052610       0xd0 /tmp/Shell.dll.q6gkOU.ltrans10.ltrans.o
                0x0000000000052610                FileInterfaceFileWrite
 .text.EfiShellRegisterGuidName
                0x00000000000526e0      0x214 /tmp/Shell.dll.q6gkOU.ltrans10.ltrans.o
                0x00000000000526e0                EfiShellRegisterGuidName
 .text.StrHexToUint64
                0x00000000000528f4       0x50 /tmp/Shell.dll.q6gkOU.ltrans10.ltrans.o
                0x00000000000528f4                StrHexToUint64
 .text.InternalIsHexaDecimalDigitCharacter
                0x0000000000052944       0x34 /tmp/Shell.dll.q6gkOU.ltrans10.ltrans.o
                0x0000000000052944                InternalIsHexaDecimalDigitCharacter
 .text.CharToUpper
                0x0000000000052978       0x20 /tmp/Shell.dll.q6gkOU.ltrans10.ltrans.o
                0x0000000000052978                CharToUpper
 .text.InternalHexCharToUintn
                0x0000000000052998       0x3c /tmp/Shell.dll.q6gkOU.ltrans10.ltrans.o
                0x0000000000052998                InternalHexCharToUintn
 .text.StrStr   0x00000000000529d4       0x48 /tmp/Shell.dll.q6gkOU.ltrans10.ltrans.o
                0x00000000000529d4                StrStr
 .text.FixFileName
                0x0000000000052a1c       0x78 /tmp/Shell.dll.q6gkOU.ltrans10.ltrans.o
 .text.FixVarName
                0x0000000000052a94       0x48 /tmp/Shell.dll.q6gkOU.ltrans10.ltrans.o
 .text.StrnCmp  0x0000000000052adc       0x44 /tmp/Shell.dll.q6gkOU.ltrans10.ltrans.o
                0x0000000000052adc                StrnCmp
 .text.StrCmp   0x0000000000052b20       0x28 /tmp/Shell.dll.q6gkOU.ltrans10.ltrans.o
                0x0000000000052b20                StrCmp
 .text.StrLen   0x0000000000052b48       0x1c /tmp/Shell.dll.q6gkOU.ltrans10.ltrans.o
                0x0000000000052b48                StrLen
 .text.StrSize  0x0000000000052b64       0x1c /tmp/Shell.dll.q6gkOU.ltrans10.ltrans.o
                0x0000000000052b64                StrSize
 .text.InternalDuplicateShellFileInfo
                0x0000000000052b80       0xe4 /tmp/Shell.dll.q6gkOU.ltrans10.ltrans.o
 .text.FileBasedSimpleTextOutOutputString
                0x0000000000052c64       0x78 /tmp/Shell.dll.q6gkOU.ltrans10.ltrans.o
 .text.EfiShellGetDevicePathFromMap
                0x0000000000052cdc       0xb0 /tmp/Shell.dll.q6gkOU.ltrans10.ltrans.o
                0x0000000000052cdc                EfiShellGetDevicePathFromMap
 .text.FindFirstCharacter
                0x0000000000052d8c       0x88 /tmp/Shell.dll.q6gkOU.ltrans10.ltrans.o
 .text.ContainsSplit
                0x0000000000052e14       0xf0 /tmp/Shell.dll.q6gkOU.ltrans10.ltrans.o
 .text.GetOperationType
                0x0000000000052f04      0x134 /tmp/Shell.dll.q6gkOU.ltrans10.ltrans.o
 .text.AsciiStrnLenS
                0x0000000000053038       0x3c /tmp/Shell.dll.q6gkOU.ltrans10.ltrans.o
                0x0000000000053038                AsciiStrnLenS
 .text.AsciiStrToUnicodeStrS
                0x0000000000053074       0xa8 /tmp/Shell.dll.q6gkOU.ltrans10.ltrans.o
 .text.StrHexToBytes
                0x000000000005311c       0xcc /tmp/Shell.dll.q6gkOU.ltrans10.ltrans.o
                0x000000000005311c                StrHexToBytes
 .text.StrnLenS
                0x00000000000531e8       0x3c /tmp/Shell.dll.q6gkOU.ltrans10.ltrans.o
                0x00000000000531e8                StrnLenS
 .text.StrDecimalToUint64
                0x0000000000053224       0xac /tmp/Shell.dll.q6gkOU.ltrans10.ltrans.o
                0x0000000000053224                StrDecimalToUint64
 .text.StrHexToUintnS
                0x00000000000532d0      0x114 /tmp/Shell.dll.q6gkOU.ltrans10.ltrans.o
                0x00000000000532d0                StrHexToUintnS
 .text.StrHexToUintn
                0x00000000000533e4       0x48 /tmp/Shell.dll.q6gkOU.ltrans10.ltrans.o
                0x00000000000533e4                StrHexToUintn
 .text.StrDecimalToUintnS
                0x000000000005342c       0xf0 /tmp/Shell.dll.q6gkOU.ltrans10.ltrans.o
                0x000000000005342c                StrDecimalToUintnS
 .text.StrDecimalToUintn
                0x000000000005351c       0x48 /tmp/Shell.dll.q6gkOU.ltrans10.ltrans.o
                0x000000000005351c                StrDecimalToUintn
 .text.StrnCatS
                0x0000000000053564       0xfc /tmp/Shell.dll.q6gkOU.ltrans10.ltrans.o
                0x0000000000053564                StrnCatS
 .text.StrCatS  0x0000000000053660       0xc4 /tmp/Shell.dll.q6gkOU.ltrans10.ltrans.o
                0x0000000000053660                StrCatS
 .text.StrnCpyS
                0x0000000000053724       0xe0 /tmp/Shell.dll.q6gkOU.ltrans10.ltrans.o
                0x0000000000053724                StrnCpyS
 .text.StrCpyS  0x0000000000053804       0xa0 /tmp/Shell.dll.q6gkOU.ltrans10.ltrans.o
                0x0000000000053804                StrCpyS
 .text.RemoveEntryList
                0x00000000000538a4       0x14 /tmp/Shell.dll.q6gkOU.ltrans10.ltrans.o
                0x00000000000538a4                RemoveEntryList
 .text.SwapListEntries
                0x00000000000538b8       0x8c /tmp/Shell.dll.q6gkOU.ltrans10.ltrans.o
                0x00000000000538b8                SwapListEntries
 .text.IsNodeAtEnd
                0x0000000000053944       0x20 /tmp/Shell.dll.q6gkOU.ltrans10.ltrans.o
                0x0000000000053944                IsNodeAtEnd
 .text.IsNull   0x0000000000053964        0xc /tmp/Shell.dll.q6gkOU.ltrans10.ltrans.o
                0x0000000000053964                IsNull
 .text.IsListEmpty
                0x0000000000053970       0x10 /tmp/Shell.dll.q6gkOU.ltrans10.ltrans.o
                0x0000000000053970                IsListEmpty
 .text.GetFirstNode
                0x0000000000053980        0x8 /tmp/Shell.dll.q6gkOU.ltrans10.ltrans.o
                0x0000000000053980                GetFirstNode
 .text.ShellRemvoeEnvVarFromList
                0x0000000000053988       0xb8 /tmp/Shell.dll.q6gkOU.ltrans10.ltrans.o
 .text.EfiShellGetHelpText
                0x0000000000053a40      0x198 /tmp/Shell.dll.q6gkOU.ltrans10.ltrans.o
                0x0000000000053a40                EfiShellGetHelpText
 .text.EfiShellFreeFileList
                0x0000000000053bd8       0x84 /tmp/Shell.dll.q6gkOU.ltrans10.ltrans.o
                0x0000000000053bd8                EfiShellFreeFileList
 .text.EfiShellRemoveDupInFileList
                0x0000000000053c5c      0x124 /tmp/Shell.dll.q6gkOU.ltrans10.ltrans.o
                0x0000000000053c5c                EfiShellRemoveDupInFileList
 .text.EfiShellGetFilePathFromDevicePath
                0x0000000000053d80      0x204 /tmp/Shell.dll.q6gkOU.ltrans10.ltrans.o
                0x0000000000053d80                EfiShellGetFilePathFromDevicePath
 .text.EfiShellSetMap
                0x0000000000053f84      0x1b8 /tmp/Shell.dll.q6gkOU.ltrans10.ltrans.o
                0x0000000000053f84                EfiShellSetMap
 .text.InsertTailList
                0x000000000005413c       0x18 /tmp/Shell.dll.q6gkOU.ltrans10.ltrans.o
                0x000000000005413c                InsertTailList
 .text.ShellAddEnvVarToList
                0x0000000000054154      0x114 /tmp/Shell.dll.q6gkOU.ltrans10.ltrans.o
 .text.FileInterfaceEnvClose
                0x0000000000054268      0x1c0 /tmp/Shell.dll.q6gkOU.ltrans10.ltrans.o
 .text.FileInterfaceEnvDelete
                0x0000000000054428       0x48 /tmp/Shell.dll.q6gkOU.ltrans10.ltrans.o
 .text.AddBufferToFreeList
                0x0000000000054470       0x4c /tmp/Shell.dll.q6gkOU.ltrans10.ltrans.o
 .text.EfiShellGetGuidName
                0x00000000000544bc       0x70 /tmp/Shell.dll.q6gkOU.ltrans10.ltrans.o
                0x00000000000544bc                EfiShellGetGuidName
 .text.EfiShellGetMapFromDevicePath
                0x000000000005452c      0x128 /tmp/Shell.dll.q6gkOU.ltrans10.ltrans.o
                0x000000000005452c                EfiShellGetMapFromDevicePath
 .text.EfiShellOpenRootByHandle
                0x0000000000054654      0x100 /tmp/Shell.dll.q6gkOU.ltrans10.ltrans.o
                0x0000000000054654                EfiShellOpenRootByHandle
 .text.EfiShellOpenRoot
                0x0000000000054754       0x94 /tmp/Shell.dll.q6gkOU.ltrans10.ltrans.o
                0x0000000000054754                EfiShellOpenRoot
 .text.InsertHeadList
                0x00000000000547e8       0x14 /tmp/Shell.dll.q6gkOU.ltrans10.ltrans.o
                0x00000000000547e8                InsertHeadList
 .text.InitializeListHead
                0x00000000000547fc        0x8 /tmp/Shell.dll.q6gkOU.ltrans10.ltrans.o
                0x00000000000547fc                InitializeListHead
 .text.EfiShellFindFilesInDir
                0x0000000000054804      0x394 /tmp/Shell.dll.q6gkOU.ltrans10.ltrans.o
                0x0000000000054804                EfiShellFindFilesInDir
 .text.DebugCodeEnabled
                0x0000000000054b98        0x8 /tmp/Shell.dll.q6gkOU.ltrans10.ltrans.o
                0x0000000000054b98                DebugCodeEnabled
 .text.CopyMem  0x0000000000054ba0       0x1c /tmp/Shell.dll.q6gkOU.ltrans10.ltrans.o
                0x0000000000054ba0                CopyMem
 .text.PathCleanUpDirectories
                0x0000000000054bbc      0x15c /tmp/Shell.dll.q6gkOU.ltrans10.ltrans.o
                0x0000000000054bbc                PathCleanUpDirectories
 .text.FileInterfaceFileRead
                0x0000000000054d18      0x174 /tmp/Shell.dll.q6gkOU.ltrans10.ltrans.o
                0x0000000000054d18                FileInterfaceFileRead
 .text.FileInterfaceMemRead
                0x0000000000054e8c       0x64 /tmp/Shell.dll.q6gkOU.ltrans10.ltrans.o
 .text.FileInterfaceMemWrite
                0x0000000000054ef0      0x168 /tmp/Shell.dll.q6gkOU.ltrans10.ltrans.o
 .text.CreateFileInterfaceEnv
                0x0000000000055058      0x12c /tmp/Shell.dll.q6gkOU.ltrans10.ltrans.o
 .text.FileInterfaceEnvVolWrite
                0x0000000000055184      0x1b4 /tmp/Shell.dll.q6gkOU.ltrans10.ltrans.o
 .text.FileInterfaceEnvNonVolWrite
                0x0000000000055338      0x1b4 /tmp/Shell.dll.q6gkOU.ltrans10.ltrans.o
 .text.GetNextParameter
                0x00000000000554ec      0x1c4 /tmp/Shell.dll.q6gkOU.ltrans10.ltrans.o
 .text.TrimSpaces
                0x00000000000556b0       0x84 /tmp/Shell.dll.q6gkOU.ltrans10.ltrans.o
 .text.SetMem   0x0000000000055734       0x10 /tmp/Shell.dll.q6gkOU.ltrans10.ltrans.o
                0x0000000000055734                SetMem
 .text.SetMem16
                0x0000000000055744       0x14 /tmp/Shell.dll.q6gkOU.ltrans10.ltrans.o
                0x0000000000055744                SetMem16
 .text.AppendStringToHistory
                0x0000000000055758      0x1e4 /tmp/Shell.dll.q6gkOU.ltrans10.ltrans.o
 .text.ConsoleLoggerOutputStringSplit
                0x000000000005593c       0x48 /tmp/Shell.dll.q6gkOU.ltrans10.ltrans.o
 .text.ConsoleLoggerOutputString
                0x0000000000055984      0x330 /tmp/Shell.dll.q6gkOU.ltrans10.ltrans.o
                0x0000000000055984                ConsoleLoggerOutputString
 .text.ZeroMem  0x0000000000055cb4        0xc /tmp/Shell.dll.q6gkOU.ltrans10.ltrans.o
                0x0000000000055cb4                ZeroMem
 .text.FileInterfaceStdInRead
                0x0000000000055cc0      0xd18 /tmp/Shell.dll.q6gkOU.ltrans10.ltrans.o
                0x0000000000055cc0                FileInterfaceStdInRead
 .text.CompareGuid
                0x00000000000569d8        0x4 /tmp/Shell.dll.q6gkOU.ltrans10.ltrans.o
                0x00000000000569d8                CompareGuid
 .text.FileInterfaceMemGetInfo
                0x00000000000569dc       0x94 /tmp/Shell.dll.q6gkOU.ltrans10.ltrans.o
 .text.EfiShellGetAlias
                0x0000000000056a70      0x288 /tmp/Shell.dll.q6gkOU.ltrans10.ltrans.o
                0x0000000000056a70                EfiShellGetAlias
 .text.CopyGuid
                0x0000000000056cf8        0x8 /tmp/Shell.dll.q6gkOU.ltrans10.ltrans.o
                0x0000000000056cf8                CopyGuid
 .text.StrToGuid
                0x0000000000056d00      0x144 /tmp/Shell.dll.q6gkOU.ltrans10.ltrans.o
                0x0000000000056d00                StrToGuid
 .text.EfiShellGetGuidFromName
                0x0000000000056e44       0x88 /tmp/Shell.dll.q6gkOU.ltrans10.ltrans.o
                0x0000000000056e44                EfiShellGetGuidFromName
 .text.CloseSimpleTextInOnFile
                0x0000000000056ecc       0x80 /tmp/Shell.dll.q6gkOU.ltrans10.ltrans.o
                0x0000000000056ecc                CloseSimpleTextInOnFile
 .text.CreateSimpleTextInOnFile
                0x0000000000056f4c      0x120 /tmp/Shell.dll.q6gkOU.ltrans10.ltrans.o
                0x0000000000056f4c                CreateSimpleTextInOnFile
 .text.ConsoleLoggerResetBuffers
                0x000000000005706c       0xdc /tmp/Shell.dll.q6gkOU.ltrans10.ltrans.o
                0x000000000005706c                ConsoleLoggerResetBuffers
 .text.ConsoleLoggerSetMode
                0x0000000000057148       0x64 /tmp/Shell.dll.q6gkOU.ltrans10.ltrans.o
                0x0000000000057148                ConsoleLoggerSetMode
 .text.ConsoleLoggerReset
                0x00000000000571ac       0x54 /tmp/Shell.dll.q6gkOU.ltrans10.ltrans.o
                0x00000000000571ac                ConsoleLoggerReset
 .text.ManFileFindSections
                0x0000000000057200      0x1f8 /tmp/Shell.dll.q6gkOU.ltrans10.ltrans.o
                0x0000000000057200                ManFileFindSections
 .text.FreeEnvironmentVariableList.part.0
                0x00000000000573f8       0x64 /tmp/Shell.dll.q6gkOU.ltrans10.ltrans.o
                0x00000000000573f8                FreeEnvironmentVariableList.part.0
 .text.GetEnvironmentVariableList
                0x000000000005745c      0x290 /tmp/Shell.dll.q6gkOU.ltrans10.ltrans.o
                0x000000000005745c                GetEnvironmentVariableList
 .text.SetEnvironmentVariableList
                0x00000000000576ec      0x160 /tmp/Shell.dll.q6gkOU.ltrans10.ltrans.o
 .text.SetEnvironmentVariables.part.0
                0x000000000005784c      0x17c /tmp/Shell.dll.q6gkOU.ltrans10.ltrans.o
 .text.EfiShellGetEnvEx
                0x00000000000579c8      0x250 /tmp/Shell.dll.q6gkOU.ltrans10.ltrans.o
                0x00000000000579c8                EfiShellGetEnvEx
 .text.EfiShellGetEnv
                0x0000000000057c18        0x8 /tmp/Shell.dll.q6gkOU.ltrans10.ltrans.o
                0x0000000000057c18                EfiShellGetEnv
 .text.EfiShellGetCurDir
                0x0000000000057c20       0xc4 /tmp/Shell.dll.q6gkOU.ltrans10.ltrans.o
                0x0000000000057c20                EfiShellGetCurDir
 .text.EfiShellGetDevicePathFromFilePath
                0x0000000000057ce4      0x200 /tmp/Shell.dll.q6gkOU.ltrans10.ltrans.o
                0x0000000000057ce4                EfiShellGetDevicePathFromFilePath
 .text.ProcessCommandLineToFinal
                0x0000000000057ee4      0x724 /tmp/Shell.dll.q6gkOU.ltrans10.ltrans.o
 .text.CreateFileInterfaceMem
                0x0000000000058608       0xe0 /tmp/Shell.dll.q6gkOU.ltrans10.ltrans.o
                0x0000000000058608                CreateFileInterfaceMem
 .text.CleanUpShellProtocol
                0x00000000000586e8       0xc4 /tmp/Shell.dll.q6gkOU.ltrans10.ltrans.o
                0x00000000000586e8                CleanUpShellProtocol
 .text.InternalSetAlias
                0x00000000000587ac       0xdc /tmp/Shell.dll.q6gkOU.ltrans10.ltrans.o
                0x00000000000587ac                InternalSetAlias
 .text.EfiShellSetAlias
                0x0000000000058888       0x9c /tmp/Shell.dll.q6gkOU.ltrans10.ltrans.o
                0x0000000000058888                EfiShellSetAlias
 .text.InternalEfiShellSetEnv
                0x0000000000058924      0x10c /tmp/Shell.dll.q6gkOU.ltrans10.ltrans.o
                0x0000000000058924                InternalEfiShellSetEnv
 .text.EfiShellSetCurDir
                0x0000000000058a30      0x2f0 /tmp/Shell.dll.q6gkOU.ltrans10.ltrans.o
                0x0000000000058a30                EfiShellSetCurDir
 .text.EfiShellSetEnv
                0x0000000000058d20       0xe4 /tmp/Shell.dll.q6gkOU.ltrans10.ltrans.o
                0x0000000000058d20                EfiShellSetEnv
 .text.SetLastError
                0x0000000000058e04       0x94 /tmp/Shell.dll.q6gkOU.ltrans10.ltrans.o
 .text.InternalOpenFileDevicePath
                0x0000000000058e98      0x228 /tmp/Shell.dll.q6gkOU.ltrans10.ltrans.o
                0x0000000000058e98                InternalOpenFileDevicePath
 .text.EfiShellOpenFileByName
                0x00000000000590c0      0x1bc /tmp/Shell.dll.q6gkOU.ltrans10.ltrans.o
                0x00000000000590c0                EfiShellOpenFileByName
 .text.ShellSearchHandle.part.0
                0x000000000005927c      0x3bc /tmp/Shell.dll.q6gkOU.ltrans10.ltrans.o
 .text.EfiShellFindFiles
                0x0000000000059638      0x178 /tmp/Shell.dll.q6gkOU.ltrans10.ltrans.o
                0x0000000000059638                EfiShellFindFiles
 .text.EfiShellOpenFileList
                0x00000000000597b0      0x1b8 /tmp/Shell.dll.q6gkOU.ltrans10.ltrans.o
                0x00000000000597b0                EfiShellOpenFileList
 .text.EfiShellCreateFile
                0x0000000000059968       0xe4 /tmp/Shell.dll.q6gkOU.ltrans10.ltrans.o
                0x0000000000059968                EfiShellCreateFile
 .text.EfiShellDeleteFileByName
                0x0000000000059a4c       0x70 /tmp/Shell.dll.q6gkOU.ltrans10.ltrans.o
                0x0000000000059a4c                EfiShellDeleteFileByName
 .text.RestoreArgcArgv
                0x0000000000059abc       0x74 /tmp/Shell.dll.q6gkOU.ltrans10.ltrans.o
                0x0000000000059abc                RestoreArgcArgv
 .text.ParseCommandLineToArgs
                0x0000000000059b30      0x1cc /tmp/Shell.dll.q6gkOU.ltrans10.ltrans.o
                0x0000000000059b30                ParseCommandLineToArgs
 .text.InternalShellExecuteDevicePath
                0x0000000000059cfc      0x328 /tmp/Shell.dll.q6gkOU.ltrans10.ltrans.o
 .text.RunShellCommand
                0x000000000005a024     0x1a34 /tmp/Shell.dll.q6gkOU.ltrans10.ltrans.o
                0x000000000005a024                RunShellCommand
 .text.EfiShellExecute
                0x000000000005ba58      0x278 /tmp/Shell.dll.q6gkOU.ltrans10.ltrans.o
                0x000000000005ba58                EfiShellExecute
 .text.RestoreBufferList
                0x000000000005bcd0       0x34 /tmp/Shell.dll.q6gkOU.ltrans10.ltrans.o
                0x000000000005bcd0                RestoreBufferList
 .text.ProcessLibraryConstructorList
                0x000000000005bd04     0x1098 /tmp/Shell.dll.q6gkOU.ltrans11.ltrans.o
 .text.memcpy   0x000000000005cd9c       0x20 /tmp/Shell.dll.q6gkOU.ltrans11.ltrans.o
                0x000000000005cd9c                memcpy
 .text.__stack_chk_fail
                0x000000000005cdbc        0x4 /tmp/Shell.dll.q6gkOU.ltrans11.ltrans.o
                0x000000000005cdbc                __stack_chk_fail
 .text._ModuleEntryPoint
                0x000000000005cdc0     0x1cd0 /tmp/Shell.dll.q6gkOU.ltrans11.ltrans.o
                0x000000000005cdc0                _ModuleEntryPoint
 .text          0x000000000005ea90      0x200 /home/alastair/pftf-rpi4/Build/RPi4/RELEASE_GCC5/AARCH64/MdePkg/Library/BaseMemoryLibOptDxe/BaseMemoryLibOptDxe/OUTPUT/BaseMemoryLibOptDxe.lib(SetMem.obj)
                0x000000000005ea90                InternalMemSetMem16
                0x000000000005ea9c                InternalMemSetMem32
                0x000000000005eaa8                InternalMemSetMem64
                0x000000000005eab4                InternalMemZeroMem
                0x000000000005eabc                InternalMemSetMem
 .text          0x000000000005ec90      0x218 /home/alastair/pftf-rpi4/Build/RPi4/RELEASE_GCC5/AARCH64/MdePkg/Library/BaseMemoryLibOptDxe/BaseMemoryLibOptDxe/OUTPUT/BaseMemoryLibOptDxe.lib(CopyMem.obj)
                0x000000000005edfc                InternalMemCopyMem
 *fill*         0x000000000005eea8       0x18 
 .text          0x000000000005eec0       0x20 /home/alastair/pftf-rpi4/Build/RPi4/RELEASE_GCC5/AARCH64/MdePkg/Library/BaseMemoryLibOptDxe/BaseMemoryLibOptDxe/OUTPUT/BaseMemoryLibOptDxe.lib(CompareGuid.obj)
                0x000000000005eec0                InternalMemCompareGuid
 .text          0x000000000005eee0        0x8 /home/alastair/pftf-rpi4/Build/RPi4/RELEASE_GCC5/AARCH64/MdePkg/Library/BaseLib/BaseLib/OUTPUT/BaseLib.lib(CpuBreakpoint.obj)
                0x000000000005eee0                CpuBreakpoint
 *fill*         0x000000000005eee8       0x18 
 .text          0x000000000005ef00       0xe0 /home/alastair/pftf-rpi4/Build/RPi4/RELEASE_GCC5/AARCH64/MdePkg/Library/BaseMemoryLibOptDxe/BaseMemoryLibOptDxe/OUTPUT/BaseMemoryLibOptDxe.lib(CompareMem.obj)
                0x000000000005ef00                InternalMemCompareMem
 *(.rodata .rodata.* .gnu.linkonce.r.*)
 .rodata.ManFileFindTitleSection.part.0.constprop.0.str2.2
                0x000000000005efe0       0x14 /tmp/Shell.dll.q6gkOU.ltrans0.ltrans.o
 .rodata.InternalCommandLineParse.part.0.constprop.0.str2.2
                0x000000000005eff4        0xc /tmp/Shell.dll.q6gkOU.ltrans0.ltrans.o
                                         0x10 (size before relaxing)
 .rodata.InternalCommandLineParse.part.0.constprop.0
                0x000000000005f000        0x6 /tmp/Shell.dll.q6gkOU.ltrans0.ltrans.o
 .rodata.ShellFindFilePathEx.part.0.constprop.0.str2.2
                0x000000000005f006        0xc /tmp/Shell.dll.q6gkOU.ltrans0.ltrans.o
                                          0x4 (size before relaxing)
 .rodata.RunScriptFile.constprop.0.str2.2
                0x000000000005f006       0x9e /tmp/Shell.dll.q6gkOU.ltrans0.ltrans.o
                                         0xbc (size before relaxing)
 .rodata.RunScriptFile.constprop.0
                0x000000000005f0a4        0xa /tmp/Shell.dll.q6gkOU.ltrans0.ltrans.o
 .rodata.RunSplitCommand.constprop.0.str2.2
                0x000000000005f0ae       0x9e /tmp/Shell.dll.q6gkOU.ltrans0.ltrans.o
                                          0x4 (size before relaxing)
 .rodata.ShellCommandAddMapItemAndUpdatePath.constprop.0.str2.2
                0x000000000005f0ae       0x3c /tmp/Shell.dll.q6gkOU.ltrans0.ltrans.o
                                         0x40 (size before relaxing)
 .rodata.GetBestLanguageForDriver.constprop.0.str1.1
                0x000000000005f0ea        0x0 /tmp/Shell.dll.q6gkOU.ltrans0.ltrans.o
                                          0x1 (size before relaxing)
 .rodata.GetBestLanguageForDriver.constprop.0.str2.2
                0x000000000005f0ea       0x1a /tmp/Shell.dll.q6gkOU.ltrans0.ltrans.o
 .rodata.ProcessManFile.constprop.0.str1.1
                0x000000000005f104        0x0 /tmp/Shell.dll.q6gkOU.ltrans0.ltrans.o
                                          0x3 (size before relaxing)
 .rodata.ProcessManFile.constprop.0.str2.2
                0x000000000005f104       0x14 /tmp/Shell.dll.q6gkOU.ltrans0.ltrans.o
 .rodata.StatusBarRefresh.constprop.0.str2.2
                0x000000000005f118       0x58 /tmp/Shell.dll.q6gkOU.ltrans0.ltrans.o
                                         0x62 (size before relaxing)
 .rodata.QueryTable.constprop.0.str2.2
                0x000000000005f170       0x22 /tmp/Shell.dll.q6gkOU.ltrans0.ltrans.o
                                         0x26 (size before relaxing)
 .rodata.BcfgLibraryRegisterBcfgCommand.part.0.str2.2
                0x000000000005f192        0xa /tmp/Shell.dll.q6gkOU.ltrans0.ltrans.o
 .rodata.CatSDumpHex.constprop.0.str2.2
                0x000000000005f19c       0x2c /tmp/Shell.dll.q6gkOU.ltrans0.ltrans.o
 .rodata.HBufferImageSave.constprop.0.str2.2
                0x000000000005f1c8       0xe2 /tmp/Shell.dll.q6gkOU.ltrans0.ltrans.o
 .rodata.Dump12Chars.str2.2
                0x000000000005f2aa       0x32 /tmp/Shell.dll.q6gkOU.ltrans0.ltrans.o
 .rodata.Dump8Chars.str2.2
                0x000000000005f2dc       0x32 /tmp/Shell.dll.q6gkOU.ltrans0.ltrans.o
                                         0x22 (size before relaxing)
 .rodata.Dump6Chars.str2.2
                0x000000000005f2dc       0x32 /tmp/Shell.dll.q6gkOU.ltrans0.ltrans.o
                                         0x1a (size before relaxing)
 .rodata.Dump4Chars.str2.2
                0x000000000005f2dc       0x32 /tmp/Shell.dll.q6gkOU.ltrans0.ltrans.o
                                         0x12 (size before relaxing)
 .rodata.Dump3Chars.str2.2
                0x000000000005f2dc       0x32 /tmp/Shell.dll.q6gkOU.ltrans0.ltrans.o
                                          0xe (size before relaxing)
 .rodata.BasePrintLibSPrintMarker.constprop.0.str1.1
                0x000000000005f2dc       0x7b /tmp/Shell.dll.q6gkOU.ltrans0.ltrans.o
 *fill*         0x000000000005f357        0x1 
 .rodata.BasePrintLibSPrintMarker.constprop.0
                0x000000000005f358       0x5e /tmp/Shell.dll.q6gkOU.ltrans0.ltrans.o
 .rodata.BcfgMod.str2.2
                0x000000000005f3b6       0xd0 /tmp/Shell.dll.q6gkOU.ltrans0.ltrans.o
                                         0xe2 (size before relaxing)
 .rodata.ShellCommandRunBcfg.str2.2
                0x000000000005f486      0x13e /tmp/Shell.dll.q6gkOU.ltrans0.ltrans.o
                                        0x154 (size before relaxing)
 .rodata.ShellCommandRunBcfg
                0x000000000005f5c4       0x14 /tmp/Shell.dll.q6gkOU.ltrans0.ltrans.o
 .rodata.PrintFieldName.str2.2
                0x000000000005f5d8       0x16 /tmp/Shell.dll.q6gkOU.ltrans0.ltrans.o
 .rodata.DumpSratPciBdfNumber.str2.2
                0x000000000005f5ee       0x6a /tmp/Shell.dll.q6gkOU.ltrans0.ltrans.o
                                         0x76 (size before relaxing)
 .rodata.DumpCacheAttributes.str2.2
                0x000000000005f658       0xa0 /tmp/Shell.dll.q6gkOU.ltrans0.ltrans.o
                                         0xa8 (size before relaxing)
 .rodata.DumpRaw.str2.2
                0x000000000005f6f8       0x7a /tmp/Shell.dll.q6gkOU.ltrans0.ltrans.o
 .rodata.VerifyChecksum.constprop.0.str2.2
                0x000000000005f772       0x6e /tmp/Shell.dll.q6gkOU.ltrans0.ltrans.o
 .rodata.ParseAcpi.str2.2
                0x000000000005f7e0      0x116 /tmp/Shell.dll.q6gkOU.ltrans0.ltrans.o
 *fill*         0x000000000005f8f6        0x2 
 .rodata.ParseAcpi
                0x000000000005f8f8        0x8 /tmp/Shell.dll.q6gkOU.ltrans0.ltrans.o
 .rodata.DumpAcpiHeader.str1.1
                0x000000000005f900       0x12 /tmp/Shell.dll.q6gkOU.ltrans0.ltrans.o
 .rodata.ParseAcpiSpcr.str1.1
                0x000000000005f912        0x5 /tmp/Shell.dll.q6gkOU.ltrans0.ltrans.o
 .rodata.ParseAcpiMcfg.str1.1
                0x000000000005f917       0x1d /tmp/Shell.dll.q6gkOU.ltrans0.ltrans.o
 .rodata.DumpIortNodeIdMappings.str1.1
                0x000000000005f934       0x10 /tmp/Shell.dll.q6gkOU.ltrans0.ltrans.o
 .rodata.ParseAcpiXsdt.str1.1
                0x000000000005f944        0x5 /tmp/Shell.dll.q6gkOU.ltrans0.ltrans.o
 *fill*         0x000000000005f949        0x1 
 .rodata.ParseAcpiXsdt.str2.2
                0x000000000005f94a       0xb8 /tmp/Shell.dll.q6gkOU.ltrans0.ltrans.o
                                         0xc6 (size before relaxing)
 .rodata.ParseAcpiSrat.str1.1
                0x000000000005fa02       0xcd /tmp/Shell.dll.q6gkOU.ltrans0.ltrans.o
 *fill*         0x000000000005facf        0x1 
 .rodata.ParseAcpiSrat.str2.2
                0x000000000005fad0      0x220 /tmp/Shell.dll.q6gkOU.ltrans0.ltrans.o
 .rodata.ParseAcpiSrat
                0x000000000005fcf0        0x6 /tmp/Shell.dll.q6gkOU.ltrans0.ltrans.o
 .rodata.DumpSratDeviceHandle.str2.2
                0x000000000005fcf6       0x5c /tmp/Shell.dll.q6gkOU.ltrans0.ltrans.o
 .rodata.ValidateSratDeviceHandleType.str2.2
                0x000000000005fd52       0x84 /tmp/Shell.dll.q6gkOU.ltrans0.ltrans.o
 .rodata.ValidateSratReserved.str2.2
                0x000000000005fdd6       0x74 /tmp/Shell.dll.q6gkOU.ltrans0.ltrans.o
 .rodata.ValidateIrq.str2.2
                0x000000000005fe4a       0x6c /tmp/Shell.dll.q6gkOU.ltrans0.ltrans.o
 .rodata.ValidateInterruptType.str2.2
                0x000000000005feb6       0x78 /tmp/Shell.dll.q6gkOU.ltrans0.ltrans.o
 .rodata.ParseAcpiSlit.str1.1
                0x000000000005ff2e        0x5 /tmp/Shell.dll.q6gkOU.ltrans0.ltrans.o
 *fill*         0x000000000005ff33        0x1 
 .rodata.ParseAcpiSlit.str2.2
                0x000000000005ff34      0x410 /tmp/Shell.dll.q6gkOU.ltrans0.ltrans.o
                                        0x420 (size before relaxing)
 .rodata.ParseAcpiRsdp.str1.1
                0x0000000000060344        0x5 /tmp/Shell.dll.q6gkOU.ltrans0.ltrans.o
 *fill*         0x0000000000060349        0x1 
 .rodata.ParseAcpiRsdp.str2.2
                0x000000000006034a      0x10a /tmp/Shell.dll.q6gkOU.ltrans0.ltrans.o
 .rodata.ValidateXsdtAddress.str2.2
                0x0000000000060454       0x8a /tmp/Shell.dll.q6gkOU.ltrans0.ltrans.o
 .rodata.ValidateRsdtAddress.str2.2
                0x00000000000604de       0x82 /tmp/Shell.dll.q6gkOU.ltrans0.ltrans.o
 .rodata.ParseAcpiPptt.str1.1
                0x0000000000060560       0x4a /tmp/Shell.dll.q6gkOU.ltrans0.ltrans.o
 .rodata.ParseAcpiPptt.str2.2
                0x00000000000605aa      0x422 /tmp/Shell.dll.q6gkOU.ltrans0.ltrans.o
 .rodata.ValidateCacheAttributes.lto_priv.1.str2.2
                0x00000000000609cc       0x7a /tmp/Shell.dll.q6gkOU.ltrans0.ltrans.o
 .rodata.ValidateCacheLineSize.str2.2
                0x0000000000060a46       0xfe /tmp/Shell.dll.q6gkOU.ltrans0.ltrans.o
 .rodata.ValidateCacheAssociativity.str2.2
                0x0000000000060b44       0x66 /tmp/Shell.dll.q6gkOU.ltrans0.ltrans.o
 .rodata.ValidateCacheNumberOfSets.str2.2
                0x0000000000060baa      0x270 /tmp/Shell.dll.q6gkOU.ltrans0.ltrans.o
 .rodata.ParseAcpiPcct.str1.1
                0x0000000000060e1a       0x55 /tmp/Shell.dll.q6gkOU.ltrans0.ltrans.o
 *fill*         0x0000000000060e6f        0x1 
 .rodata.ParseAcpiPcct.str2.2
                0x0000000000060e70      0x21c /tmp/Shell.dll.q6gkOU.ltrans0.ltrans.o
 .rodata.ParseAcpiPcct
                0x000000000006108c        0x5 /tmp/Shell.dll.q6gkOU.ltrans0.ltrans.o
 *fill*         0x0000000000061091        0x1 
 .rodata.ValidatePlatInterrupt.str2.2
                0x0000000000061092       0xcc /tmp/Shell.dll.q6gkOU.ltrans0.ltrans.o
 .rodata.ValidatePccGas.str2.2
                0x000000000006115e       0x3c /tmp/Shell.dll.q6gkOU.ltrans0.ltrans.o
 .rodata.ValidateRangeLength8.str2.2
                0x000000000006119a       0xc0 /tmp/Shell.dll.q6gkOU.ltrans0.ltrans.o
 .rodata.ValidateRangeLength4.str2.2
                0x000000000006125a       0xd8 /tmp/Shell.dll.q6gkOU.ltrans0.ltrans.o
 .rodata.ParseAcpiMadt.str1.1
                0x0000000000061332       0x2a /tmp/Shell.dll.q6gkOU.ltrans0.ltrans.o
 .rodata.ParseAcpiMadt.str2.2
                0x000000000006135c      0x2ae /tmp/Shell.dll.q6gkOU.ltrans0.ltrans.o
 *fill*         0x000000000006160a        0x2 
 .rodata.ParseAcpiMadt
                0x000000000006160c        0x5 /tmp/Shell.dll.q6gkOU.ltrans0.ltrans.o
 *fill*         0x0000000000061611        0x1 
 .rodata.ValidateSpeOverflowInterrupt.str2.2
                0x0000000000061612      0x1b4 /tmp/Shell.dll.q6gkOU.ltrans0.ltrans.o
 .rodata.ValidateGICDSystemVectorBase.str2.2
                0x00000000000617c6       0x52 /tmp/Shell.dll.q6gkOU.ltrans0.ltrans.o
 .rodata.ParseAcpiIort.str1.1
                0x0000000000061818       0xc8 /tmp/Shell.dll.q6gkOU.ltrans0.ltrans.o
 .rodata.ParseAcpiIort.str2.2
                0x00000000000618e0      0x2cc /tmp/Shell.dll.q6gkOU.ltrans0.ltrans.o
                                        0x2d2 (size before relaxing)
 .rodata.ParseAcpiIort
                0x0000000000061bac        0xc /tmp/Shell.dll.q6gkOU.ltrans0.ltrans.o
 .rodata.ValidateItsIdArrayReference.str2.2
                0x0000000000061bb8       0x5a /tmp/Shell.dll.q6gkOU.ltrans0.ltrans.o
 .rodata.ValidatePmcgIdMappingCount.str2.2
                0x0000000000061c12       0x74 /tmp/Shell.dll.q6gkOU.ltrans0.ltrans.o
 .rodata.ValidateItsIdMappingCount.str2.2
                0x0000000000061c86       0x58 /tmp/Shell.dll.q6gkOU.ltrans0.ltrans.o
 .rodata.ParseAcpiHmat.str1.1
                0x0000000000061cde       0x96 /tmp/Shell.dll.q6gkOU.ltrans0.ltrans.o
 .rodata.ParseAcpiHmat.str2.2
                0x0000000000061d74      0x7b6 /tmp/Shell.dll.q6gkOU.ltrans0.ltrans.o
                                        0x7bc (size before relaxing)
 .rodata.ValidateCacheAttributes.lto_priv.0.str2.2
                0x000000000006252a      0x1be /tmp/Shell.dll.q6gkOU.ltrans0.ltrans.o
 .rodata.ParseAcpiGtdt.str1.1
                0x00000000000626e8       0x33 /tmp/Shell.dll.q6gkOU.ltrans0.ltrans.o
 *fill*         0x000000000006271b        0x1 
 .rodata.ParseAcpiGtdt.str2.2
                0x000000000006271c      0x268 /tmp/Shell.dll.q6gkOU.ltrans0.ltrans.o
 .rodata.ValidateGtFrameNumber.str2.2
                0x0000000000062984       0x8a /tmp/Shell.dll.q6gkOU.ltrans0.ltrans.o
 .rodata.ValidateGtBlockTimerCount.str2.2
                0x0000000000062a0e       0x62 /tmp/Shell.dll.q6gkOU.ltrans0.ltrans.o
 .rodata.ParseAcpiFadt.str1.1
                0x0000000000062a70        0x5 /tmp/Shell.dll.q6gkOU.ltrans0.ltrans.o
 *fill*         0x0000000000062a75        0x1 
 .rodata.ParseAcpiFadt.str2.2
                0x0000000000062a76      0x1f0 /tmp/Shell.dll.q6gkOU.ltrans0.ltrans.o
 .rodata.str2.2
                0x0000000000062c66     0x22be /tmp/Shell.dll.q6gkOU.ltrans0.ltrans.o
                                       0x25b2 (size before relaxing)
 .rodata        0x0000000000064f24        0x4 /tmp/Shell.dll.q6gkOU.ltrans0.ltrans.o
 .rodata.AcpiHeaderParser.lto_priv.0
                0x0000000000064f28      0x1f8 /tmp/Shell.dll.q6gkOU.ltrans0.ltrans.o
                0x0000000000064f28                AcpiHeaderParser.lto_priv.0
 .rodata.CacheTypeStructureParser
                0x0000000000065120      0x230 /tmp/Shell.dll.q6gkOU.ltrans0.ltrans.o
 .rodata.FadtParser
                0x0000000000065350      0xe00 /tmp/Shell.dll.q6gkOU.ltrans0.ltrans.o
 .rodata.GasParser.lto_priv.0
                0x0000000000066150      0x118 /tmp/Shell.dll.q6gkOU.ltrans0.ltrans.o
                0x0000000000066150                GasParser.lto_priv.0
 .rodata.GicCParser
                0x0000000000066268      0x3f0 /tmp/Shell.dll.q6gkOU.ltrans0.ltrans.o
 .rodata.GicDParser
                0x0000000000066658      0x1c0 /tmp/Shell.dll.q6gkOU.ltrans0.ltrans.o
 .rodata.GicITSParser
                0x0000000000066818      0x150 /tmp/Shell.dll.q6gkOU.ltrans0.ltrans.o
 .rodata.GicMSIFrameParser
                0x0000000000066968      0x1c0 /tmp/Shell.dll.q6gkOU.ltrans0.ltrans.o
 .rodata.GicRParser
                0x0000000000066b28      0x118 /tmp/Shell.dll.q6gkOU.ltrans0.ltrans.o
 .rodata.GtBlockParser
                0x0000000000066c40      0x150 /tmp/Shell.dll.q6gkOU.ltrans0.ltrans.o
 .rodata.GtBlockTimerParser
                0x0000000000066d90      0x1f8 /tmp/Shell.dll.q6gkOU.ltrans0.ltrans.o
 .rodata.GtPlatformTimerHeaderParser
                0x0000000000066f88       0xa8 /tmp/Shell.dll.q6gkOU.ltrans0.ltrans.o
 .rodata.GtdtParser
                0x0000000000067030      0x540 /tmp/Shell.dll.q6gkOU.ltrans0.ltrans.o
 .rodata.Hex.lto_priv.0
                0x0000000000067570       0x10 /tmp/Shell.dll.q6gkOU.ltrans0.ltrans.o
                0x0000000000067570                Hex.lto_priv.0
 .rodata.HmatParser
                0x0000000000067580      0x230 /tmp/Shell.dll.q6gkOU.ltrans0.ltrans.o
 .rodata.HmatStructureHeaderParser
                0x00000000000677b0       0xa8 /tmp/Shell.dll.q6gkOU.ltrans0.ltrans.o
 .rodata.IdStructureParser
                0x0000000000067858      0x1f8 /tmp/Shell.dll.q6gkOU.ltrans0.ltrans.o
 .rodata.InterruptArrayParser
                0x0000000000067a50       0x70 /tmp/Shell.dll.q6gkOU.ltrans0.ltrans.o
 .rodata.IortNodeHeaderParser
                0x0000000000067ac0      0x150 /tmp/Shell.dll.q6gkOU.ltrans0.ltrans.o
 .rodata.IortNodeIdMappingParser
                0x0000000000067c10      0x118 /tmp/Shell.dll.q6gkOU.ltrans0.ltrans.o
 .rodata.IortNodeItsParser
                0x0000000000067d28      0x188 /tmp/Shell.dll.q6gkOU.ltrans0.ltrans.o
 .rodata.IortNodeNamedComponentParser
                0x0000000000067eb0      0x1f8 /tmp/Shell.dll.q6gkOU.ltrans0.ltrans.o
 .rodata.IortNodePmcgParser
                0x00000000000680a8      0x230 /tmp/Shell.dll.q6gkOU.ltrans0.ltrans.o
 .rodata.IortNodeRootComplexParser
                0x00000000000682d8      0x268 /tmp/Shell.dll.q6gkOU.ltrans0.ltrans.o
 .rodata.IortNodeSmmuV1V2Parser
                0x0000000000068540      0x428 /tmp/Shell.dll.q6gkOU.ltrans0.ltrans.o
 .rodata.IortNodeSmmuV3Parser
                0x0000000000068968      0x3b8 /tmp/Shell.dll.q6gkOU.ltrans0.ltrans.o
 .rodata.IortParser
                0x0000000000068d20      0x2a0 /tmp/Shell.dll.q6gkOU.ltrans0.ltrans.o
 .rodata.ItsIdParser
                0x0000000000068fc0       0x38 /tmp/Shell.dll.q6gkOU.ltrans0.ltrans.o
 .rodata.MadtInterruptControllerHeaderParser
                0x0000000000068ff8       0xa8 /tmp/Shell.dll.q6gkOU.ltrans0.ltrans.o
 .rodata.MadtParser
                0x00000000000690a0      0x268 /tmp/Shell.dll.q6gkOU.ltrans0.ltrans.o
 .rodata.McfgParser
                0x0000000000069308      0x230 /tmp/Shell.dll.q6gkOU.ltrans0.ltrans.o
 .rodata.MemProximityDomainAttributeParser
                0x0000000000069538      0x230 /tmp/Shell.dll.q6gkOU.ltrans0.ltrans.o
 .rodata.MemSideCacheInfoParser
                0x0000000000069768      0x1f8 /tmp/Shell.dll.q6gkOU.ltrans0.ltrans.o
 .rodata.ParamList
                0x0000000000069960       0x30 /tmp/Shell.dll.q6gkOU.ltrans0.ltrans.o
 .rodata.PccSubspaceHeaderParser
                0x0000000000069990       0x70 /tmp/Shell.dll.q6gkOU.ltrans0.ltrans.o
 .rodata.PccSubspaceType0Parser
                0x0000000000069a00      0x268 /tmp/Shell.dll.q6gkOU.ltrans0.ltrans.o
 .rodata.PccSubspaceType1Parser
                0x0000000000069c68      0x2d8 /tmp/Shell.dll.q6gkOU.ltrans0.ltrans.o
 .rodata.PccSubspaceType2Parser
                0x0000000000069f40      0x380 /tmp/Shell.dll.q6gkOU.ltrans0.ltrans.o
 .rodata.PccSubspaceType3Parser
                0x000000000006a2c0      0x540 /tmp/Shell.dll.q6gkOU.ltrans0.ltrans.o
 .rodata.PcctParser
                0x000000000006a800      0x268 /tmp/Shell.dll.q6gkOU.ltrans0.ltrans.o
 .rodata.PciCfgSpaceBaseAddrParser
                0x000000000006aa68      0x118 /tmp/Shell.dll.q6gkOU.ltrans0.ltrans.o
 .rodata.PpttParser
                0x000000000006ab80      0x1f8 /tmp/Shell.dll.q6gkOU.ltrans0.ltrans.o
 .rodata.ProcessorHierarchyNodeStructureParser
                0x000000000006ad78      0x188 /tmp/Shell.dll.q6gkOU.ltrans0.ltrans.o
 .rodata.ProcessorTopologyStructureHeaderParser
                0x000000000006af00       0xa8 /tmp/Shell.dll.q6gkOU.ltrans0.ltrans.o
 .rodata.RsdpParser
                0x000000000006afa8      0x1f8 /tmp/Shell.dll.q6gkOU.ltrans0.ltrans.o
 .rodata.SBSAGenericWatchdogParser
                0x000000000006b1a0      0x188 /tmp/Shell.dll.q6gkOU.ltrans0.ltrans.o
 .rodata.SlitParser
                0x000000000006b328      0x230 /tmp/Shell.dll.q6gkOU.ltrans0.ltrans.o
 .rodata.SllbiNames
                0x000000000006b558       0x30 /tmp/Shell.dll.q6gkOU.ltrans0.ltrans.o
 .rodata.SllbiParser
                0x000000000006b588      0x230 /tmp/Shell.dll.q6gkOU.ltrans0.ltrans.o
 .rodata.SpcrParser
                0x000000000006b7b8      0x658 /tmp/Shell.dll.q6gkOU.ltrans0.ltrans.o
 .rodata.SratApciSapicAffinityParser
                0x000000000006be10      0x1c0 /tmp/Shell.dll.q6gkOU.ltrans0.ltrans.o
 .rodata.SratDeviceHandleAcpiParser
                0x000000000006bfd0       0xa8 /tmp/Shell.dll.q6gkOU.ltrans0.ltrans.o
 .rodata.SratDeviceHandlePciParser
                0x000000000006c078       0xa8 /tmp/Shell.dll.q6gkOU.ltrans0.ltrans.o
 .rodata.SratGenericInitiatorAffinityParser
                0x000000000006c120      0x1c0 /tmp/Shell.dll.q6gkOU.ltrans0.ltrans.o
 .rodata.SratGicCAffinityParser
                0x000000000006c2e0      0x150 /tmp/Shell.dll.q6gkOU.ltrans0.ltrans.o
 .rodata.SratGicITSAffinityParser
                0x000000000006c430      0x118 /tmp/Shell.dll.q6gkOU.ltrans0.ltrans.o
 .rodata.SratMemAffinityParser
                0x000000000006c548      0x268 /tmp/Shell.dll.q6gkOU.ltrans0.ltrans.o
 .rodata.SratParser
                0x000000000006c7b0      0x268 /tmp/Shell.dll.q6gkOU.ltrans0.ltrans.o
 .rodata.SratResourceAllocationParser
                0x000000000006ca18       0x70 /tmp/Shell.dll.q6gkOU.ltrans0.ltrans.o
 .rodata.SratX2ApciAffinityParser
                0x000000000006ca88      0x1c0 /tmp/Shell.dll.q6gkOU.ltrans0.ltrans.o
 .rodata.XsdtParser
                0x000000000006cc48      0x1f8 /tmp/Shell.dll.q6gkOU.ltrans0.ltrans.o
 .rodata.mBmLoadOptionName
                0x000000000006ce40       0x20 /tmp/Shell.dll.q6gkOU.ltrans0.ltrans.o
 .rodata.mErrorString
                0x000000000006ce60      0x2b5 /tmp/Shell.dll.q6gkOU.ltrans0.ltrans.o
 *fill*         0x000000000006d115        0x1 
 .rodata.mExecutableExtensions.lto_priv.0
                0x000000000006d116       0x14 /tmp/Shell.dll.q6gkOU.ltrans0.ltrans.o
                0x000000000006d116                mExecutableExtensions.lto_priv.0
 .rodata.mFileName
                0x000000000006d12a       0x1c /tmp/Shell.dll.q6gkOU.ltrans0.ltrans.o
 .rodata.mWarningString
                0x000000000006d146       0x96 /tmp/Shell.dll.q6gkOU.ltrans0.ltrans.o
 .rodata.ValidateFlags.lto_priv.0.str2.2
                0x000000000006d1dc       0x78 /tmp/Shell.dll.q6gkOU.ltrans1.ltrans.o
 .rodata.ValidateXFirmwareCtrl.lto_priv.0.str2.2
                0x000000000006d254       0x76 /tmp/Shell.dll.q6gkOU.ltrans1.ltrans.o
 .rodata.ValidateFirmwareCtrl.lto_priv.0.str2.2
                0x000000000006d2ca       0x72 /tmp/Shell.dll.q6gkOU.ltrans1.ltrans.o
 .rodata.ValidateNameSpaceStrLen.str2.2
                0x000000000006d33c       0xe0 /tmp/Shell.dll.q6gkOU.ltrans1.ltrans.o
 .rodata.DumpVendorSpecificData.str2.2
                0x000000000006d41c       0xae /tmp/Shell.dll.q6gkOU.ltrans1.ltrans.o
 .rodata.DumpVendorSpecificData.str1.1
                0x000000000006d4ca        0x1 /tmp/Shell.dll.q6gkOU.ltrans1.ltrans.o
 .rodata.ValidateInterruptFlags.str2.2
                0x000000000006d4ca       0x50 /tmp/Shell.dll.q6gkOU.ltrans1.ltrans.o
 .rodata.ValidateInterruptType.str2.2
                0x000000000006d51a       0x50 /tmp/Shell.dll.q6gkOU.ltrans1.ltrans.o
 .rodata.ValidateInterfaceType.str2.2
                0x000000000006d56a       0x50 /tmp/Shell.dll.q6gkOU.ltrans1.ltrans.o
 .rodata.ValidateGicInterfaceType.str2.2
                0x000000000006d5ba       0x4c /tmp/Shell.dll.q6gkOU.ltrans1.ltrans.o
 .rodata.ValidateProcessorFlags.str2.2
                0x000000000006d606       0x9e /tmp/Shell.dll.q6gkOU.ltrans1.ltrans.o
 .rodata.ParseAcpiFacs.str1.1
                0x000000000006d6a4        0x5 /tmp/Shell.dll.q6gkOU.ltrans1.ltrans.o
 .rodata.ParseAcpiBgrt.str1.1
                0x000000000006d6a9        0x5 /tmp/Shell.dll.q6gkOU.ltrans1.ltrans.o
 .rodata.ParseAcpiDbg2.str1.1
                0x000000000006d6ae       0x17 /tmp/Shell.dll.q6gkOU.ltrans1.ltrans.o
 *fill*         0x000000000006d6c5        0x1 
 .rodata.ParseAcpiDbg2.str2.2
                0x000000000006d6c6      0x482 /tmp/Shell.dll.q6gkOU.ltrans1.ltrans.o
                                        0x4b4 (size before relaxing)
 .rodata.ParseAcpiAest.str1.1
                0x000000000006db48       0x89 /tmp/Shell.dll.q6gkOU.ltrans1.ltrans.o
                                         0x98 (size before relaxing)
 *fill*         0x000000000006dbd1        0x1 
 .rodata.ParseAcpiAest.str2.2
                0x000000000006dbd2      0x51c /tmp/Shell.dll.q6gkOU.ltrans1.ltrans.o
 *fill*         0x000000000006e0ee        0x2 
 .rodata.ParseAcpiAest
                0x000000000006e0f0        0x5 /tmp/Shell.dll.q6gkOU.ltrans1.ltrans.o
 *fill*         0x000000000006e0f5        0x1 
 .rodata.DumpAcpiTableToFile.str2.2
                0x000000000006e0f6       0xc4 /tmp/Shell.dll.q6gkOU.ltrans1.ltrans.o
 .rodata.ShellCommandRunIfconfig.str2.2
                0x000000000006e1ba       0xc8 /tmp/Shell.dll.q6gkOU.ltrans1.ltrans.o
                                         0xe4 (size before relaxing)
 .rodata.ShellCommandRunPing.str2.2
                0x000000000006e282       0x1a /tmp/Shell.dll.q6gkOU.ltrans1.ltrans.o
                                         0x24 (size before relaxing)
 .rodata.ProcessTableReportOptions.str2.2
                0x000000000006e29c       0xb6 /tmp/Shell.dll.q6gkOU.ltrans1.ltrans.o
 *fill*         0x000000000006e352        0x2 
 .rodata.ProcessTableReportOptions
                0x000000000006e354        0x4 /tmp/Shell.dll.q6gkOU.ltrans1.ltrans.o
 .rodata.ShellCommandRunAcpiView.str2.2
                0x000000000006e358      0x3ea /tmp/Shell.dll.q6gkOU.ltrans1.ltrans.o
                                        0x3f0 (size before relaxing)
 .rodata.ProcessAcpiTable.str2.2
                0x000000000006e742       0x66 /tmp/Shell.dll.q6gkOU.ltrans1.ltrans.o
 .rodata.PrintBitsInfo.str2.2
                0x000000000006e7a8        0x8 /tmp/Shell.dll.q6gkOU.ltrans1.ltrans.o
 .rodata.str2.2
                0x000000000006e7b0     0x2424 /tmp/Shell.dll.q6gkOU.ltrans1.ltrans.o
                                       0x2750 (size before relaxing)
 .rodata.str1.1
                0x0000000000070bd4        0xc /tmp/Shell.dll.q6gkOU.ltrans1.ltrans.o
 .rodata.AestGicStructure
                0x0000000000070be0       0x70 /tmp/Shell.dll.q6gkOU.ltrans1.ltrans.o
 .rodata.AestMemoryControllerStructure
                0x0000000000070c50       0x38 /tmp/Shell.dll.q6gkOU.ltrans1.ltrans.o
 .rodata.AestNodeHeaderParser
                0x0000000000070c88      0x230 /tmp/Shell.dll.q6gkOU.ltrans1.ltrans.o
 .rodata.AestNodeInterface
                0x0000000000070eb8      0x1f8 /tmp/Shell.dll.q6gkOU.ltrans1.ltrans.o
 .rodata.AestNodeInterrupt
                0x00000000000710b0      0x150 /tmp/Shell.dll.q6gkOU.ltrans1.ltrans.o
 .rodata.AestParser
                0x0000000000071200      0x1f8 /tmp/Shell.dll.q6gkOU.ltrans1.ltrans.o
 .rodata.AestProcessorCacheResourceSubstructure
                0x00000000000713f8       0x70 /tmp/Shell.dll.q6gkOU.ltrans1.ltrans.o
 .rodata.AestProcessorGenericResourceSubstructure
                0x0000000000071468       0x38 /tmp/Shell.dll.q6gkOU.ltrans1.ltrans.o
 .rodata.AestProcessorStructure
                0x00000000000714a0      0x150 /tmp/Shell.dll.q6gkOU.ltrans1.ltrans.o
 .rodata.AestProcessorTlbResourceSubstructure
                0x00000000000715f0       0x70 /tmp/Shell.dll.q6gkOU.ltrans1.ltrans.o
 .rodata.AestSmmuStructure
                0x0000000000071660       0x70 /tmp/Shell.dll.q6gkOU.ltrans1.ltrans.o
 .rodata.AestVendorDefinedStructure
                0x00000000000716d0       0xa8 /tmp/Shell.dll.q6gkOU.ltrans1.ltrans.o
 .rodata.ArmSbbr10Mandatory
                0x0000000000071778       0x1c /tmp/Shell.dll.q6gkOU.ltrans1.ltrans.o
 .rodata.ArmSbbr11Mandatory
                0x0000000000071794       0x20 /tmp/Shell.dll.q6gkOU.ltrans1.ltrans.o
 .rodata.ArmSbbr12Mandatory
                0x00000000000717b4       0x24 /tmp/Shell.dll.q6gkOU.ltrans1.ltrans.o
 .rodata.ArmSbbrReqs
                0x00000000000717d8       0x30 /tmp/Shell.dll.q6gkOU.ltrans1.ltrans.o
 .rodata.ArmSbbrVersions
                0x0000000000071808       0x18 /tmp/Shell.dll.q6gkOU.ltrans1.ltrans.o
 .rodata.BgrtParser
                0x0000000000071820      0x348 /tmp/Shell.dll.q6gkOU.ltrans1.ltrans.o
 .rodata.Dbg2Parser
                0x0000000000071b68      0x268 /tmp/Shell.dll.q6gkOU.ltrans1.ltrans.o
 .rodata.DbgDevInfoHeaderParser
                0x0000000000071dd0       0x70 /tmp/Shell.dll.q6gkOU.ltrans1.ltrans.o
 .rodata.DbgDevInfoParser
                0x0000000000071e40      0x2a0 /tmp/Shell.dll.q6gkOU.ltrans1.ltrans.o
 .rodata.FacsParser
                0x00000000000720e0      0x2d8 /tmp/Shell.dll.q6gkOU.ltrans1.ltrans.o
 .rodata.ParamList
                0x00000000000723b8       0x70 /tmp/Shell.dll.q6gkOU.ltrans1.ltrans.o
 .rodata.PermanentString
                0x0000000000072428       0x14 /tmp/Shell.dll.q6gkOU.ltrans1.ltrans.o
 *fill*         0x000000000007243c        0x4 
 .rodata.PingParamList
                0x0000000000072440       0x60 /tmp/Shell.dll.q6gkOU.ltrans1.ltrans.o
 .rodata.gIp4AllMasks
                0x00000000000724a0       0x84 /tmp/Shell.dll.q6gkOU.ltrans1.ltrans.o
 .rodata.gShellAcpiViewFileName
                0x0000000000072524       0x1a /tmp/Shell.dll.q6gkOU.ltrans1.ltrans.o
 .rodata.gShellNetwork1FileName
                0x000000000007253e       0x1c /tmp/Shell.dll.q6gkOU.ltrans1.ltrans.o
 .rodata.SmbiosPrintStructure.part.0.str1.1
                0x000000000007255a      0xb28 /tmp/Shell.dll.q6gkOU.ltrans2.ltrans.o
                                        0xbd9 (size before relaxing)
 .rodata.SmbiosPrintStructure.part.0.str2.2
                0x0000000000073082     0x142a /tmp/Shell.dll.q6gkOU.ltrans2.ltrans.o
                                       0x1474 (size before relaxing)
 .rodata.SmbiosPrintStructure.part.0
                0x00000000000744ac      0x332 /tmp/Shell.dll.q6gkOU.ltrans2.ltrans.o
 .rodata.str2.2
                0x00000000000747de     0x3e8a /tmp/Shell.dll.q6gkOU.ltrans2.ltrans.o
                                       0x40b8 (size before relaxing)
 .rodata.Smbios64BitPrintEPSInfo.str2.2
                0x0000000000078668        0x4 /tmp/Shell.dll.q6gkOU.ltrans3.ltrans.o
 .rodata.HBufferImagePrintLine.str2.2
                0x0000000000078668       0x14 /tmp/Shell.dll.q6gkOU.ltrans3.ltrans.o
                                         0x42 (size before relaxing)
 .rodata.ExplainPcieRootStatus.str2.2
                0x000000000007867c      0x15e /tmp/Shell.dll.q6gkOU.ltrans3.ltrans.o
 .rodata.ExplainPcieRootCap.str2.2
                0x00000000000787da       0x72 /tmp/Shell.dll.q6gkOU.ltrans3.ltrans.o
 .rodata.ExplainPcieRootControl.str2.2
                0x000000000007884c      0x23a /tmp/Shell.dll.q6gkOU.ltrans3.ltrans.o
 .rodata.ExplainPcieSlotStatus.str2.2
                0x0000000000078a86      0x45a /tmp/Shell.dll.q6gkOU.ltrans3.ltrans.o
 .rodata.ExplainPcieSlotControl.str2.2
                0x0000000000078ee0      0x588 /tmp/Shell.dll.q6gkOU.ltrans3.ltrans.o
 .rodata.ExplainPcieSlotCap.str2.2
                0x0000000000079468      0x5f0 /tmp/Shell.dll.q6gkOU.ltrans3.ltrans.o
 .rodata.ExplainPcieLinkStatus.str2.2
                0x0000000000079a58      0x374 /tmp/Shell.dll.q6gkOU.ltrans3.ltrans.o
                                        0x386 (size before relaxing)
 .rodata.ExplainPcieLinkControl.str2.2
                0x0000000000079dcc      0x478 /tmp/Shell.dll.q6gkOU.ltrans3.ltrans.o
 .rodata.ExplainPcieLinkCap.str2.2
                0x000000000007a244      0x50a /tmp/Shell.dll.q6gkOU.ltrans3.ltrans.o
 .rodata.ExplainPcieDeviceStatus.str2.2
                0x000000000007a74e      0x27c /tmp/Shell.dll.q6gkOU.ltrans3.ltrans.o
 .rodata.ExplainPcieDeviceControl.str2.2
                0x000000000007a9ca      0x50e /tmp/Shell.dll.q6gkOU.ltrans3.ltrans.o
 .rodata.ExplainPcieDeviceCap.str2.2
                0x000000000007aed8      0x43c /tmp/Shell.dll.q6gkOU.ltrans3.ltrans.o
 .rodata.ExplainPcieCapReg.str2.2
                0x000000000007b314      0x192 /tmp/Shell.dll.q6gkOU.ltrans3.ltrans.o
 .rodata.InputBarPrintInput.str2.2
                0x000000000007b4a6        0x6 /tmp/Shell.dll.q6gkOU.ltrans3.ltrans.o
 .rodata.ShellCommandRunDblk.str2.2
                0x000000000007b4a6       0x6e /tmp/Shell.dll.q6gkOU.ltrans3.ltrans.o
 .rodata.GetAttrType.str2.2
                0x000000000007b514       0x3e /tmp/Shell.dll.q6gkOU.ltrans3.ltrans.o
                                         0x46 (size before relaxing)
 .rodata.CascadeProcessVariables.str2.2
                0x000000000007b552       0x3e /tmp/Shell.dll.q6gkOU.ltrans3.ltrans.o
                                          0xa (size before relaxing)
 .rodata.ShellCommandRunDmpStore.str2.2
                0x000000000007b552       0x44 /tmp/Shell.dll.q6gkOU.ltrans3.ltrans.o
                                         0x56 (size before relaxing)
 .rodata.DisplayMmMemorySize.str2.2
                0x000000000007b596        0xc /tmp/Shell.dll.q6gkOU.ltrans3.ltrans.o
 .rodata.HBufferImageRestoreMousePosition.str2.2
                0x000000000007b596        0x6 /tmp/Shell.dll.q6gkOU.ltrans3.ltrans.o
 .rodata.HMemImageRead.str2.2
                0x000000000007b596       0x82 /tmp/Shell.dll.q6gkOU.ltrans3.ltrans.o
 .rodata.HFileImageRead.str2.2
                0x000000000007b618       0x5c /tmp/Shell.dll.q6gkOU.ltrans3.ltrans.o
 .rodata.HDiskImageRead.str2.2
                0x000000000007b674       0x74 /tmp/Shell.dll.q6gkOU.ltrans3.ltrans.o
 .rodata.HBufferImageHandleInput.str2.2
                0x000000000007b6e8       0x20 /tmp/Shell.dll.q6gkOU.ltrans3.ltrans.o
 .rodata.HBufferImageHandleInput
                0x000000000007b708       0x26 /tmp/Shell.dll.q6gkOU.ltrans3.ltrans.o
 .rodata.InputBarSetPrompt.str2.2
                0x000000000007b72e        0x8 /tmp/Shell.dll.q6gkOU.ltrans3.ltrans.o
 .rodata.InputBarRefresh.str2.2
                0x000000000007b736        0xe /tmp/Shell.dll.q6gkOU.ltrans3.ltrans.o
 .rodata.MainTitleBarRefresh.str2.2
                0x000000000007b744       0x9a /tmp/Shell.dll.q6gkOU.ltrans3.ltrans.o
                                         0xc4 (size before relaxing)
 .rodata.ShellCommandRunSmbiosView.str2.2
                0x000000000007b7de      0x136 /tmp/Shell.dll.q6gkOU.ltrans3.ltrans.o
                                        0x234 (size before relaxing)
 .rodata.ShellCommandRunSmbiosView.str1.1
                0x000000000007b914        0xb /tmp/Shell.dll.q6gkOU.ltrans3.ltrans.o
 *fill*         0x000000000007b91f        0x1 
 .rodata.str2.2
                0x000000000007b920      0x604 /tmp/Shell.dll.q6gkOU.ltrans3.ltrans.o
                                        0x656 (size before relaxing)
 *fill*         0x000000000007bf24        0x4 
 .rodata.ASPMCtrlStrTable
                0x000000000007bf28       0x20 /tmp/Shell.dll.q6gkOU.ltrans3.ltrans.o
 .rodata.CSWTCH.173
                0x000000000007bf48       0x28 /tmp/Shell.dll.q6gkOU.ltrans3.ltrans.o
 .rodata.CSWTCH.358
                0x000000000007bf70       0x28 /tmp/Shell.dll.q6gkOU.ltrans3.ltrans.o
 .rodata.CSWTCH.359
                0x000000000007bf98       0x20 /tmp/Shell.dll.q6gkOU.ltrans3.ltrans.o
 .rodata.DevicePortTypeTable
                0x000000000007bfb8       0x58 /tmp/Shell.dll.q6gkOU.ltrans3.ltrans.o
 .rodata.IndicatorTable
                0x000000000007c010       0x20 /tmp/Shell.dll.q6gkOU.ltrans3.ltrans.o
 .rodata.L0sLatencyStrTable
                0x000000000007c030       0x40 /tmp/Shell.dll.q6gkOU.ltrans3.ltrans.o
 .rodata.L1LatencyStrTable
                0x000000000007c070       0x40 /tmp/Shell.dll.q6gkOU.ltrans3.ltrans.o
 .rodata.ParamList.lto_priv.0
                0x000000000007c0b0       0x70 /tmp/Shell.dll.q6gkOU.ltrans3.ltrans.o
 .rodata.ParamList.lto_priv.1
                0x000000000007c120       0x50 /tmp/Shell.dll.q6gkOU.ltrans3.ltrans.o
 .rodata.SlotPwrLmtScaleTable
                0x000000000007c170       0x20 /tmp/Shell.dll.q6gkOU.ltrans3.ltrans.o
 .rodata.PciPrintClassCode.str2.2
                0x000000000007c190       0x2e /tmp/Shell.dll.q6gkOU.ltrans4.ltrans.o
                                         0x3e (size before relaxing)
 .rodata.PrintDifferentPoint.str2.2
                0x000000000007c1be       0x2c /tmp/Shell.dll.q6gkOU.ltrans4.ltrans.o
                                         0x4a (size before relaxing)
 .rodata.ShellCommandRunPci.str2.2
                0x000000000007c1ea      0x19a /tmp/Shell.dll.q6gkOU.ltrans4.ltrans.o
                                        0x1ae (size before relaxing)
 .rodata.ShellCommandRunPci
                0x000000000007c384       0x32 /tmp/Shell.dll.q6gkOU.ltrans4.ltrans.o
 .rodata.DisplaySettings.str2.2
                0x000000000007c3b6       0x10 /tmp/Shell.dll.q6gkOU.ltrans4.ltrans.o
                                         0x20 (size before relaxing)
 *fill*         0x000000000007c3c6        0x2 
 .rodata.ShellCommandRunSerMode
                0x000000000007c3c8       0x10 /tmp/Shell.dll.q6gkOU.ltrans4.ltrans.o
 .rodata.ParseParameterData.str2.2
                0x000000000007c3d8        0xe /tmp/Shell.dll.q6gkOU.ltrans4.ltrans.o
                                         0x14 (size before relaxing)
 .rodata.ParseParameterData.str1.1
                0x000000000007c3e6        0x3 /tmp/Shell.dll.q6gkOU.ltrans4.ltrans.o
 *fill*         0x000000000007c3e9        0x1 
 .rodata.ShellCommandRunSetVar.str2.2
                0x000000000007c3ea       0x24 /tmp/Shell.dll.q6gkOU.ltrans4.ltrans.o
                                         0x30 (size before relaxing)
 *fill*         0x000000000007c40e        0x2 
 .rodata.ShellMmAccess
                0x000000000007c410       0x10 /tmp/Shell.dll.q6gkOU.ltrans4.ltrans.o
 .rodata.ShellCommandRunMm.str2.2
                0x000000000007c420       0x48 /tmp/Shell.dll.q6gkOU.ltrans4.ltrans.o
                                         0x4e (size before relaxing)
 .rodata.LoadEfiDriversFromRomImage.str2.2
                0x000000000007c468       0x24 /tmp/Shell.dll.q6gkOU.ltrans4.ltrans.o
 .rodata.ShellCommandRunLoadPciRom.str2.2
                0x000000000007c48c        0x8 /tmp/Shell.dll.q6gkOU.ltrans4.ltrans.o
 .rodata.ShellCommandRunLoadPciRom.str1.1
                0x000000000007c494        0xb /tmp/Shell.dll.q6gkOU.ltrans4.ltrans.o
 *fill*         0x000000000007c49f        0x1 
 .rodata.ShellCommandRunDmem.str2.2
                0x000000000007c4a0        0xa /tmp/Shell.dll.q6gkOU.ltrans4.ltrans.o
 .rodata.ShellCommandRunMode.str2.2
                0x000000000007c4aa        0xa /tmp/Shell.dll.q6gkOU.ltrans4.ltrans.o
 .rodata.ShellCommandRunEfiDecompress.str2.2
                0x000000000007c4aa       0x1c /tmp/Shell.dll.q6gkOU.ltrans4.ltrans.o
 .rodata.ShellCommandRunEfiCompress.str2.2
                0x000000000007c4c6       0x18 /tmp/Shell.dll.q6gkOU.ltrans4.ltrans.o
 .rodata.ShellCommandRunMemMap.str2.2
                0x000000000007c4de        0xe /tmp/Shell.dll.q6gkOU.ltrans4.ltrans.o
                                         0x18 (size before relaxing)
 .rodata.ShellCommandRunMemMap
                0x000000000007c4ec       0x1e /tmp/Shell.dll.q6gkOU.ltrans4.ltrans.o
 .rodata.ShellCommandRunComp.str2.2
                0x000000000007c50a       0x22 /tmp/Shell.dll.q6gkOU.ltrans4.ltrans.o
                                         0x2a (size before relaxing)
 .rodata.ShellCommandRunSetSize.str2.2
                0x000000000007c52c       0x10 /tmp/Shell.dll.q6gkOU.ltrans4.ltrans.o
 .rodata.HMainCommandSelectEnd.str2.2
                0x000000000007c53c       0x24 /tmp/Shell.dll.q6gkOU.ltrans4.ltrans.o
 .rodata.HMainCommandSelectStart.str2.2
                0x000000000007c560       0x28 /tmp/Shell.dll.q6gkOU.ltrans4.ltrans.o
 .rodata.HMainCommandExit.str2.2
                0x000000000007c588       0x52 /tmp/Shell.dll.q6gkOU.ltrans4.ltrans.o
 .rodata.HMainCommandOpenMemory.str2.2
                0x000000000007c5da       0x8a /tmp/Shell.dll.q6gkOU.ltrans4.ltrans.o
 .rodata.HMainCommandOpenDisk.str2.2
                0x000000000007c664       0x78 /tmp/Shell.dll.q6gkOU.ltrans4.ltrans.o
                                         0x7e (size before relaxing)
 .rodata.HMainCommandOpenFile.str2.2
                0x000000000007c6dc       0x4c /tmp/Shell.dll.q6gkOU.ltrans4.ltrans.o
 .rodata.HMainCommandPaste.str2.2
                0x000000000007c728       0x22 /tmp/Shell.dll.q6gkOU.ltrans4.ltrans.o
 .rodata.HMainCommandCut.str2.2
                0x000000000007c74a       0x2a /tmp/Shell.dll.q6gkOU.ltrans4.ltrans.o
 .rodata.HMainCommandSaveBuffer.str2.2
                0x000000000007c774      0x146 /tmp/Shell.dll.q6gkOU.ltrans4.ltrans.o
 .rodata.str2.2
                0x000000000007c8ba     0x2526 /tmp/Shell.dll.q6gkOU.ltrans4.ltrans.o
                                       0x2892 (size before relaxing)
 .rodata.CSWTCH.68
                0x000000000007ede0        0x6 /tmp/Shell.dll.q6gkOU.ltrans4.ltrans.o
 *fill*         0x000000000007ede6        0x2 
 .rodata.CSWTCH.69
                0x000000000007ede8       0x20 /tmp/Shell.dll.q6gkOU.ltrans4.ltrans.o
 .rodata.NameEfiACPIMemoryNVS
                0x000000000007ee08       0x1c /tmp/Shell.dll.q6gkOU.ltrans4.ltrans.o
 .rodata.NameEfiACPIMemoryNVSShort
                0x000000000007ee24       0x12 /tmp/Shell.dll.q6gkOU.ltrans4.ltrans.o
 .rodata.NameEfiACPIReclaimMemory
                0x000000000007ee36       0x24 /tmp/Shell.dll.q6gkOU.ltrans4.ltrans.o
 .rodata.NameEfiACPIReclaimMemoryShort
                0x000000000007ee5a       0x14 /tmp/Shell.dll.q6gkOU.ltrans4.ltrans.o
 .rodata.NameEfiBootServicesCode
                0x000000000007ee6e       0x20 /tmp/Shell.dll.q6gkOU.ltrans4.ltrans.o
 .rodata.NameEfiBootServicesCodeShort
                0x000000000007ee8e       0x10 /tmp/Shell.dll.q6gkOU.ltrans4.ltrans.o
 .rodata.NameEfiBootServicesData
                0x000000000007ee9e       0x20 /tmp/Shell.dll.q6gkOU.ltrans4.ltrans.o
 .rodata.NameEfiBootServicesDataShort
                0x000000000007eebe       0x10 /tmp/Shell.dll.q6gkOU.ltrans4.ltrans.o
 .rodata.NameEfiConventionalMemory
                0x000000000007eece       0x14 /tmp/Shell.dll.q6gkOU.ltrans4.ltrans.o
 .rodata.NameEfiLoaderCode
                0x000000000007eee2       0x16 /tmp/Shell.dll.q6gkOU.ltrans4.ltrans.o
 .rodata.NameEfiLoaderData
                0x000000000007eef8       0x16 /tmp/Shell.dll.q6gkOU.ltrans4.ltrans.o
 .rodata.NameEfiMemoryMappedIO
                0x000000000007ef0e       0x1e /tmp/Shell.dll.q6gkOU.ltrans4.ltrans.o
 .rodata.NameEfiMemoryMappedIOPortSpace
                0x000000000007ef2c       0x30 /tmp/Shell.dll.q6gkOU.ltrans4.ltrans.o
 .rodata.NameEfiMemoryMappedIOPortSpaceShort
                0x000000000007ef5c       0x14 /tmp/Shell.dll.q6gkOU.ltrans4.ltrans.o
 .rodata.NameEfiMemoryMappedIOShort
                0x000000000007ef70        0xa /tmp/Shell.dll.q6gkOU.ltrans4.ltrans.o
 .rodata.NameEfiPalCode
                0x000000000007ef7a       0x10 /tmp/Shell.dll.q6gkOU.ltrans4.ltrans.o
 .rodata.NameEfiPersistentMemory
                0x000000000007ef8a       0x16 /tmp/Shell.dll.q6gkOU.ltrans4.ltrans.o
 .rodata.NameEfiReservedMemoryType
                0x000000000007efa0       0x12 /tmp/Shell.dll.q6gkOU.ltrans4.ltrans.o
 .rodata.NameEfiRuntimeServicesCode
                0x000000000007efb2       0x18 /tmp/Shell.dll.q6gkOU.ltrans4.ltrans.o
 .rodata.NameEfiRuntimeServicesCodeShort
                0x000000000007efca       0x10 /tmp/Shell.dll.q6gkOU.ltrans4.ltrans.o
 .rodata.NameEfiRuntimeServicesData
                0x000000000007efda       0x18 /tmp/Shell.dll.q6gkOU.ltrans4.ltrans.o
 .rodata.NameEfiRuntimeServicesDataShort
                0x000000000007eff2       0x10 /tmp/Shell.dll.q6gkOU.ltrans4.ltrans.o
 .rodata.NameEfiUnusableMemory
                0x000000000007f002       0x1e /tmp/Shell.dll.q6gkOU.ltrans4.ltrans.o
 .rodata.NameEfiUnusableMemoryShort
                0x000000000007f020       0x12 /tmp/Shell.dll.q6gkOU.ltrans4.ltrans.o
 *fill*         0x000000000007f032        0x6 
 .rodata.ParamList.lto_priv.2
                0x000000000007f038       0x30 /tmp/Shell.dll.q6gkOU.ltrans4.ltrans.o
 .rodata.ParamList.lto_priv.3
                0x000000000007f068       0x20 /tmp/Shell.dll.q6gkOU.ltrans4.ltrans.o
 .rodata.ParamList.lto_priv.4
                0x000000000007f088       0x20 /tmp/Shell.dll.q6gkOU.ltrans4.ltrans.o
 .rodata.ParamList.lto_priv.5
                0x000000000007f0a8       0x80 /tmp/Shell.dll.q6gkOU.ltrans4.ltrans.o
 .rodata.ParamList.lto_priv.6
                0x000000000007f128       0x50 /tmp/Shell.dll.q6gkOU.ltrans4.ltrans.o
 .rodata.ParamList.lto_priv.7
                0x000000000007f178       0x40 /tmp/Shell.dll.q6gkOU.ltrans4.ltrans.o
 .rodata.PcieExplainList
                0x000000000007f1b8      0x280 /tmp/Shell.dll.q6gkOU.ltrans4.ltrans.o
 .rodata.mShellMmAccessTypeStr
                0x000000000007f438        0xa /tmp/Shell.dll.q6gkOU.ltrans4.ltrans.o
 *fill*         0x000000000007f442        0x6 
 .rodata.mShellMmMaxNumber
                0x000000000007f448       0x48 /tmp/Shell.dll.q6gkOU.ltrans4.ltrans.o
 .rodata.mShellMmRootBridgeIoWidth
                0x000000000007f490       0x24 /tmp/Shell.dll.q6gkOU.ltrans4.ltrans.o
 *fill*         0x000000000007f4b4        0x4 
 .rodata.mUefiDevicePathLibDevPathFromTextTable
                0x000000000007f4b8      0x570 /tmp/Shell.dll.q6gkOU.ltrans4.ltrans.o
 .rodata.MainCommandSwitchFileType.str2.2
                0x000000000007fa28       0x46 /tmp/Shell.dll.q6gkOU.ltrans5.ltrans.o
 .rodata.HMainCommandGoToOffset.str2.2
                0x000000000007fa6e       0x3c /tmp/Shell.dll.q6gkOU.ltrans5.ltrans.o
 .rodata.FileBufferRestoreMousePosition.str2.2
                0x000000000007faaa        0xa /tmp/Shell.dll.q6gkOU.ltrans5.ltrans.o
 .rodata.HMainCommandDisplayHelp.str2.2
                0x000000000007faaa        0xe /tmp/Shell.dll.q6gkOU.ltrans5.ltrans.o
 .rodata.LineCat.str2.2
                0x000000000007fab8        0xa /tmp/Shell.dll.q6gkOU.ltrans5.ltrans.o
 .rodata.MainCommandGotoLine.str2.2
                0x000000000007fac2       0x34 /tmp/Shell.dll.q6gkOU.ltrans5.ltrans.o
 .rodata.MainCommandPasteLine.str2.2
                0x000000000007faf6       0x22 /tmp/Shell.dll.q6gkOU.ltrans5.ltrans.o
                                         0x28 (size before relaxing)
 .rodata.EditGetDefaultFileName.str2.2
                0x000000000007fb18       0x1a /tmp/Shell.dll.q6gkOU.ltrans5.ltrans.o
 .rodata.MainCommandCutLine.str2.2
                0x000000000007fb32       0x1e /tmp/Shell.dll.q6gkOU.ltrans5.ltrans.o
 .rodata.FileBufferPrintLine.str2.2
                0x000000000007fb50        0x6 /tmp/Shell.dll.q6gkOU.ltrans5.ltrans.o
                                          0xa (size before relaxing)
 .rodata.ShellCmdDriverConfigurationProcessActionRequired.str2.2
                0x000000000007fb56       0x8c /tmp/Shell.dll.q6gkOU.ltrans5.ltrans.o
                                         0xb4 (size before relaxing)
 *fill*         0x000000000007fbe2        0x2 
 .rodata.ShellCmdDriverConfigurationProcessActionRequired
                0x000000000007fbe4        0x4 /tmp/Shell.dll.q6gkOU.ltrans5.ltrans.o
 .rodata.PreHiiDrvCfg.str1.1
                0x000000000007fbe8        0x1 /tmp/Shell.dll.q6gkOU.ltrans5.ltrans.o
 .rodata.PreHiiDrvCfg.str2.2
                0x000000000007fbe8        0xe /tmp/Shell.dll.q6gkOU.ltrans5.ltrans.o
                                         0x18 (size before relaxing)
 .rodata.DoDevTreeForHandle.str2.2
                0x000000000007fbf6       0x12 /tmp/Shell.dll.q6gkOU.ltrans5.ltrans.o
                                         0x24 (size before relaxing)
 .rodata.ShellCommandRunDevTree.str2.2
                0x000000000007fc08       0x10 /tmp/Shell.dll.q6gkOU.ltrans5.ltrans.o
                                         0x16 (size before relaxing)
 .rodata.ShellCommandRunDevTree.str1.1
                0x000000000007fc18        0x3 /tmp/Shell.dll.q6gkOU.ltrans5.ltrans.o
 *fill*         0x000000000007fc1b        0x1 
 .rodata.ShellCommandRunDrivers.str2.2
                0x000000000007fc1c       0x10 /tmp/Shell.dll.q6gkOU.ltrans5.ltrans.o
                                         0x1e (size before relaxing)
 .rodata.ShellCommandRunDh.str2.2
                0x000000000007fc2c       0x18 /tmp/Shell.dll.q6gkOU.ltrans5.ltrans.o
                                         0x32 (size before relaxing)
 .rodata.ShellCommandRunDh.str1.1
                0x000000000007fc44        0x6 /tmp/Shell.dll.q6gkOU.ltrans5.ltrans.o
 .rodata.ShellCommandRunHexEdit.str2.2
                0x000000000007fc4a       0xb6 /tmp/Shell.dll.q6gkOU.ltrans5.ltrans.o
                                         0xee (size before relaxing)
 .rodata.FileBufferSave.str2.2
                0x000000000007fd00       0xe2 /tmp/Shell.dll.q6gkOU.ltrans5.ltrans.o
 .rodata.MainCommandSaveFile.str2.2
                0x000000000007fd00       0x4c /tmp/Shell.dll.q6gkOU.ltrans5.ltrans.o
                                        0x106 (size before relaxing)
 .rodata.MainCommandExit.str2.2
                0x000000000007fd4c       0x4e /tmp/Shell.dll.q6gkOU.ltrans5.ltrans.o
 .rodata.FileBufferRead.str2.2
                0x000000000007fd9a       0xf2 /tmp/Shell.dll.q6gkOU.ltrans5.ltrans.o
                                        0x10e (size before relaxing)
 .rodata.MainCommandOpenFile.str2.2
                0x000000000007fe8c       0x28 /tmp/Shell.dll.q6gkOU.ltrans5.ltrans.o
 .rodata.ShellCommandRunEdit.str2.2
                0x000000000007fe8c       0x1c /tmp/Shell.dll.q6gkOU.ltrans5.ltrans.o
                                         0x38 (size before relaxing)
 .rodata.ShellCommandRunEdit
                0x000000000007fea8       0x30 /tmp/Shell.dll.q6gkOU.ltrans5.ltrans.o
 .rodata.MainCommandSearchReplace.str2.2
                0x000000000007fed8       0xe0 /tmp/Shell.dll.q6gkOU.ltrans5.ltrans.o
 .rodata.ShellCommandRunDrvCfg.str2.2
                0x000000000007ffb8       0x72 /tmp/Shell.dll.q6gkOU.ltrans5.ltrans.o
                                         0x92 (size before relaxing)
 .rodata        0x000000000008002a        0x4 /tmp/Shell.dll.q6gkOU.ltrans5.ltrans.o
 *fill*         0x000000000008002e        0x2 
 .rodata.HexEditorMenuItems
                0x0000000000080030       0xb0 /tmp/Shell.dll.q6gkOU.ltrans5.ltrans.o
 .rodata.HexMainMenuHelpInfo
                0x00000000000800e0       0x30 /tmp/Shell.dll.q6gkOU.ltrans5.ltrans.o
 .rodata.MainMenuHelpInfo
                0x0000000000080110       0x30 /tmp/Shell.dll.q6gkOU.ltrans5.ltrans.o
 .rodata.ParamList.lto_priv.10
                0x0000000000080140       0x30 /tmp/Shell.dll.q6gkOU.ltrans5.ltrans.o
 .rodata.ParamList.lto_priv.11
                0x0000000000080170       0x40 /tmp/Shell.dll.q6gkOU.ltrans5.ltrans.o
 .rodata.ParamList.lto_priv.8
                0x00000000000801b0       0x70 /tmp/Shell.dll.q6gkOU.ltrans5.ltrans.o
 .rodata.ParamList.lto_priv.9
                0x0000000000080220       0x30 /tmp/Shell.dll.q6gkOU.ltrans5.ltrans.o
 .rodata.ParamListHii
                0x0000000000080250       0x60 /tmp/Shell.dll.q6gkOU.ltrans5.ltrans.o
 .rodata.ParamListPreHii
                0x00000000000802b0       0x60 /tmp/Shell.dll.q6gkOU.ltrans5.ltrans.o
 .rodata.gUnicodeFileTag
                0x0000000000080310        0x2 /tmp/Shell.dll.q6gkOU.ltrans5.ltrans.o
                0x0000000000080310                gUnicodeFileTag
 .rodata.mFileName
                0x0000000000080312       0x1e /tmp/Shell.dll.q6gkOU.ltrans5.ltrans.o
 .rodata.ShellLevel3CommandsLibSetAlias.str2.2
                0x0000000000080330        0xc /tmp/Shell.dll.q6gkOU.ltrans6.ltrans.o
 .rodata.GetProtocolInfoString.str2.2
                0x000000000008033c       0x10 /tmp/Shell.dll.q6gkOU.ltrans6.ltrans.o
                                         0x30 (size before relaxing)
 .rodata.ShellCommandRunGetMtc.str2.2
                0x000000000008034c        0xe /tmp/Shell.dll.q6gkOU.ltrans6.ltrans.o
                                         0x14 (size before relaxing)
 .rodata.ShellCommandRunStall.str2.2
                0x000000000008035a        0xc /tmp/Shell.dll.q6gkOU.ltrans6.ltrans.o
 .rodata.ShellCommandRunDrvDiag.str2.2
                0x0000000000080366       0xb0 /tmp/Shell.dll.q6gkOU.ltrans6.ltrans.o
                                         0xce (size before relaxing)
 .rodata.ShellCommandRunDrvDiag.str1.1
                0x0000000000080416        0x3 /tmp/Shell.dll.q6gkOU.ltrans6.ltrans.o
 .rodata.ShellCommandRunVer.str2.2
                0x0000000000080416       0x46 /tmp/Shell.dll.q6gkOU.ltrans6.ltrans.o
                                         0x62 (size before relaxing)
 .rodata.ShellCommandRunEcho.str2.2
                0x000000000008045c        0xa /tmp/Shell.dll.q6gkOU.ltrans6.ltrans.o
                                         0x2a (size before relaxing)
 .rodata.ShellCommandRunUnload.str2.2
                0x0000000000080466       0x1c /tmp/Shell.dll.q6gkOU.ltrans6.ltrans.o
                                         0x40 (size before relaxing)
 .rodata.ShellCommandRunOpenInfo.str2.2
                0x0000000000080482       0x24 /tmp/Shell.dll.q6gkOU.ltrans6.ltrans.o
 .rodata.ShellCommandRunDevices.str2.2
                0x00000000000804a6       0x14 /tmp/Shell.dll.q6gkOU.ltrans6.ltrans.o
                                         0x2e (size before relaxing)
 .rodata.ShellCommandRunDisconnect.str2.2
                0x00000000000804ba       0xaa /tmp/Shell.dll.q6gkOU.ltrans6.ltrans.o
                                         0xb8 (size before relaxing)
 .rodata.ShellCommandRunConnect.str2.2
                0x0000000000080564       0x10 /tmp/Shell.dll.q6gkOU.ltrans6.ltrans.o
                                         0x20 (size before relaxing)
 .rodata.ShellCommandRunReconnect.str2.2
                0x0000000000080574       0x14 /tmp/Shell.dll.q6gkOU.ltrans6.ltrans.o
 .rodata.DoTouchByHandle.str2.2
                0x0000000000080588       0x26 /tmp/Shell.dll.q6gkOU.ltrans6.ltrans.o
                                         0x34 (size before relaxing)
 .rodata.ShellCommandRunType.str2.2
                0x00000000000805ae       0x10 /tmp/Shell.dll.q6gkOU.ltrans6.ltrans.o
                                         0x2c (size before relaxing)
 .rodata.ShellCommandRunCls.str2.2
                0x00000000000805be        0x8 /tmp/Shell.dll.q6gkOU.ltrans6.ltrans.o
 .rodata.ShellCommandRunHelp.str2.2
                0x00000000000805c6       0xb6 /tmp/Shell.dll.q6gkOU.ltrans6.ltrans.o
                                         0xba (size before relaxing)
 .rodata.ShellCommandRunPause.str2.2
                0x000000000008067c        0xc /tmp/Shell.dll.q6gkOU.ltrans6.ltrans.o
                                         0x12 (size before relaxing)
 .rodata.ShellCommandRunAlias.str2.2
                0x0000000000080688        0xa /tmp/Shell.dll.q6gkOU.ltrans6.ltrans.o
 .rodata.ShellCommandRunShift.str2.2
                0x0000000000080688        0xc /tmp/Shell.dll.q6gkOU.ltrans6.ltrans.o
 .rodata.ShellCommandRunEndFor.str2.2
                0x0000000000080694       0x1c /tmp/Shell.dll.q6gkOU.ltrans6.ltrans.o
                                         0x2c (size before relaxing)
 .rodata.ShellCommandRunEndIf.str2.2
                0x00000000000806b0       0x24 /tmp/Shell.dll.q6gkOU.ltrans6.ltrans.o
                                         0x30 (size before relaxing)
 .rodata.ShellCommandRunElse.str2.2
                0x00000000000806d4       0x14 /tmp/Shell.dll.q6gkOU.ltrans6.ltrans.o
 .rodata.ShellCommandRunElse.str1.1
                0x00000000000806e8        0x5 /tmp/Shell.dll.q6gkOU.ltrans6.ltrans.o
 *fill*         0x00000000000806ed        0x1 
 .rodata.ShellCommandRunFor.str2.2
                0x00000000000806ee       0x14 /tmp/Shell.dll.q6gkOU.ltrans6.ltrans.o
                                         0x32 (size before relaxing)
 .rodata.DoDhByHandle.str2.2
                0x0000000000080702       0xc2 /tmp/Shell.dll.q6gkOU.ltrans6.ltrans.o
                                         0xe4 (size before relaxing)
 *fill*         0x00000000000807c4        0x4 
 .rodata.CSWTCH.37
                0x00000000000807c8      0x180 /tmp/Shell.dll.q6gkOU.ltrans6.ltrans.o
 .rodata.ParamList.lto_priv.12
                0x0000000000080948       0x20 /tmp/Shell.dll.q6gkOU.ltrans6.ltrans.o
 .rodata.ParamList.lto_priv.13
                0x0000000000080968       0x30 /tmp/Shell.dll.q6gkOU.ltrans6.ltrans.o
 .rodata.ParamList.lto_priv.14
                0x0000000000080998       0x30 /tmp/Shell.dll.q6gkOU.ltrans6.ltrans.o
 .rodata.ParamList.lto_priv.15
                0x00000000000809c8       0x20 /tmp/Shell.dll.q6gkOU.ltrans6.ltrans.o
 .rodata.ParamList.lto_priv.16
                0x00000000000809e8       0x50 /tmp/Shell.dll.q6gkOU.ltrans6.ltrans.o
 .rodata.ParamList.lto_priv.17
                0x0000000000080a38       0x30 /tmp/Shell.dll.q6gkOU.ltrans6.ltrans.o
 .rodata.ParamList.lto_priv.18
                0x0000000000080a68       0x20 /tmp/Shell.dll.q6gkOU.ltrans6.ltrans.o
 .rodata.ParamList.lto_priv.19
                0x0000000000080a88       0x50 /tmp/Shell.dll.q6gkOU.ltrans6.ltrans.o
 .rodata.ParamList.lto_priv.20
                0x0000000000080ad8       0x30 /tmp/Shell.dll.q6gkOU.ltrans6.ltrans.o
 .rodata.ParamList.lto_priv.21
                0x0000000000080b08       0x30 /tmp/Shell.dll.q6gkOU.ltrans6.ltrans.o
 .rodata.ParamList.lto_priv.22
                0x0000000000080b38       0x30 /tmp/Shell.dll.q6gkOU.ltrans6.ltrans.o
 .rodata.ParamList.lto_priv.23
                0x0000000000080b68       0x20 /tmp/Shell.dll.q6gkOU.ltrans6.ltrans.o
 .rodata.ParamList.lto_priv.24
                0x0000000000080b88       0x40 /tmp/Shell.dll.q6gkOU.ltrans6.ltrans.o
 .rodata.ParamList.lto_priv.25
                0x0000000000080bc8       0x60 /tmp/Shell.dll.q6gkOU.ltrans6.ltrans.o
 .rodata.StringChild
                0x0000000000080c28       0x14 /tmp/Shell.dll.q6gkOU.ltrans6.ltrans.o
 .rodata.StringDriver
                0x0000000000080c3c       0x14 /tmp/Shell.dll.q6gkOU.ltrans6.ltrans.o
 .rodata.StringDriverEx
                0x0000000000080c50       0x14 /tmp/Shell.dll.q6gkOU.ltrans6.ltrans.o
 .rodata.StringExclusive
                0x0000000000080c64       0x14 /tmp/Shell.dll.q6gkOU.ltrans6.ltrans.o
 .rodata.StringGetProt
                0x0000000000080c78       0x14 /tmp/Shell.dll.q6gkOU.ltrans6.ltrans.o
 .rodata.StringHandProt
                0x0000000000080c8c       0x14 /tmp/Shell.dll.q6gkOU.ltrans6.ltrans.o
 .rodata.StringTestProt
                0x0000000000080ca0       0x14 /tmp/Shell.dll.q6gkOU.ltrans6.ltrans.o
 .rodata.StringUnknown
                0x0000000000080cb4       0x14 /tmp/Shell.dll.q6gkOU.ltrans6.ltrans.o
 .rodata._gPcd_FixedAtBuild_PcdShellSupplier
                0x0000000000080cc8        0xe /tmp/Shell.dll.q6gkOU.ltrans6.ltrans.o
                0x0000000000080cc8                _gPcd_FixedAtBuild_PcdShellSupplier
 .rodata.gShellLevel3FileName
                0x0000000000080cd6       0x1c /tmp/Shell.dll.q6gkOU.ltrans6.ltrans.o
 .rodata.mFileName
                0x0000000000080cf2       0x20 /tmp/Shell.dll.q6gkOU.ltrans6.ltrans.o
 *fill*         0x0000000000080d12        0x6 
 .rodata.mGuidDataLen
                0x0000000000080d18       0x28 /tmp/Shell.dll.q6gkOU.ltrans6.ltrans.o
 .rodata.TestNodeForMove.str2.2
                0x0000000000080d40        0x4 /tmp/Shell.dll.q6gkOU.ltrans7.ltrans.o
 .rodata.PerformResultOperation.str2.2
                0x0000000000080d40       0x1c /tmp/Shell.dll.q6gkOU.ltrans7.ltrans.o
 .rodata.ShellCommandRunExit.str2.2
                0x0000000000080d40        0x6 /tmp/Shell.dll.q6gkOU.ltrans7.ltrans.o
                                         0x10 (size before relaxing)
 .rodata.ShellCommandRunSet.str2.2
                0x0000000000080d46        0x6 /tmp/Shell.dll.q6gkOU.ltrans7.ltrans.o
                                         0x1c (size before relaxing)
 .rodata.ShellCommandRunVol.str2.2
                0x0000000000080d46       0x1c /tmp/Shell.dll.q6gkOU.ltrans7.ltrans.o
                                         0x5e (size before relaxing)
 .rodata.ShellCommandRunAttrib.str2.2
                0x0000000000080d62       0x26 /tmp/Shell.dll.q6gkOU.ltrans7.ltrans.o
                                         0x48 (size before relaxing)
 .rodata.CascadeDelete.str2.2
                0x0000000000080d88        0x6 /tmp/Shell.dll.q6gkOU.ltrans7.ltrans.o
 .rodata.ShellCommandRunRm.str2.2
                0x0000000000080d88        0x6 /tmp/Shell.dll.q6gkOU.ltrans7.ltrans.o
 .rodata.ShellCommandRunParse.str2.2
                0x0000000000080d88       0x4e /tmp/Shell.dll.q6gkOU.ltrans7.ltrans.o
                                         0x5e (size before relaxing)
 .rodata.CopySingleFile.str2.2
                0x0000000000080dd6        0x6 /tmp/Shell.dll.q6gkOU.ltrans7.ltrans.o
 .rodata.CopySingleFile
                0x0000000000080ddc        0xc /tmp/Shell.dll.q6gkOU.ltrans7.ltrans.o
 .rodata.ValidateAndMoveFiles.str2.2
                0x0000000000080de8        0xc /tmp/Shell.dll.q6gkOU.ltrans7.ltrans.o
 .rodata.ValidateAndMoveFiles
                0x0000000000080de8        0x6 /tmp/Shell.dll.q6gkOU.ltrans7.ltrans.o
 .rodata.ValidateAndCopyFiles.str2.2
                0x0000000000080dee        0x6 /tmp/Shell.dll.q6gkOU.ltrans7.ltrans.o
 .rodata.ShellCommandRunMkDir.str2.2
                0x0000000000080dee        0xc /tmp/Shell.dll.q6gkOU.ltrans7.ltrans.o
 .rodata.ShellCommandRunCd.str2.2
                0x0000000000080dfa        0x6 /tmp/Shell.dll.q6gkOU.ltrans7.ltrans.o
 .rodata.ShellCommandRunReset.str2.2
                0x0000000000080e00       0x88 /tmp/Shell.dll.q6gkOU.ltrans7.ltrans.o
                                         0xa0 (size before relaxing)
 .rodata.ShellCommandRunMap.str2.2
                0x0000000000080e88       0x88 /tmp/Shell.dll.q6gkOU.ltrans7.ltrans.o
                                         0x28 (size before relaxing)
 .rodata.ShellCommandRunIf.str2.2
                0x0000000000080e88       0xcc /tmp/Shell.dll.q6gkOU.ltrans7.ltrans.o
                                        0x146 (size before relaxing)
 .rodata.ShellCommandRunIf
                0x0000000000080f54       0x12 /tmp/Shell.dll.q6gkOU.ltrans7.ltrans.o
 .rodata.ShellCommandRunGoto.str2.2
                0x0000000000080f66       0x14 /tmp/Shell.dll.q6gkOU.ltrans7.ltrans.o
                                         0x2a (size before relaxing)
 .rodata.AllFiles
                0x0000000000080f7a        0x4 /tmp/Shell.dll.q6gkOU.ltrans7.ltrans.o
 *fill*         0x0000000000080f7e        0x2 
 .rodata.AttribParamList
                0x0000000000080f80       0x90 /tmp/Shell.dll.q6gkOU.ltrans7.ltrans.o
 .rodata.MapParamList
                0x0000000000081010       0x90 /tmp/Shell.dll.q6gkOU.ltrans7.ltrans.o
 .rodata.ParamList.lto_priv.26
                0x00000000000810a0       0x30 /tmp/Shell.dll.q6gkOU.ltrans7.ltrans.o
 .rodata.ParamList.lto_priv.27
                0x00000000000810d0       0x30 /tmp/Shell.dll.q6gkOU.ltrans7.ltrans.o
 .rodata.ParamList.lto_priv.28
                0x0000000000081100       0x20 /tmp/Shell.dll.q6gkOU.ltrans7.ltrans.o
 .rodata.ParamList.lto_priv.29
                0x0000000000081120       0x30 /tmp/Shell.dll.q6gkOU.ltrans7.ltrans.o
 .rodata.ParamList.lto_priv.30
                0x0000000000081150       0x20 /tmp/Shell.dll.q6gkOU.ltrans7.ltrans.o
 .rodata.ResetParamList
                0x0000000000081170       0x50 /tmp/Shell.dll.q6gkOU.ltrans7.ltrans.o
 .rodata.SetParamList
                0x00000000000811c0       0x30 /tmp/Shell.dll.q6gkOU.ltrans7.ltrans.o
 .rodata.mFileName
                0x00000000000811f0       0x1c /tmp/Shell.dll.q6gkOU.ltrans7.ltrans.o
 .rodata.DevicePathProtocolDumpInformationEx.str2.2
                0x000000000008120c        0xc /tmp/Shell.dll.q6gkOU.ltrans8.ltrans.o
 .rodata.GetFullyQualifiedPath.str2.2
                0x000000000008120c        0x8 /tmp/Shell.dll.q6gkOU.ltrans8.ltrans.o
 .rodata.ShellCommandRunTimeZone.str2.2
                0x000000000008120c       0x32 /tmp/Shell.dll.q6gkOU.ltrans8.ltrans.o
                                         0x6c (size before relaxing)
 .rodata.ShellCommandRunTime.str2.2
                0x000000000008123e       0x34 /tmp/Shell.dll.q6gkOU.ltrans8.ltrans.o
                                         0x3a (size before relaxing)
 *fill*         0x0000000000081272        0x2 
 .rodata.ShellCommandRunTime
                0x0000000000081274        0x4 /tmp/Shell.dll.q6gkOU.ltrans8.ltrans.o
 .rodata.ShellCommandRunDate.str2.2
                0x0000000000081278       0x34 /tmp/Shell.dll.q6gkOU.ltrans8.ltrans.o
                                         0x18 (size before relaxing)
 .rodata.DriverEfiVersionProtocolDumpInformation.str2.2
                0x0000000000081278        0xe /tmp/Shell.dll.q6gkOU.ltrans8.ltrans.o
 .rodata.FirmwareManagementDumpInformation.str2.2
                0x0000000000081286      0x168 /tmp/Shell.dll.q6gkOU.ltrans8.ltrans.o
                                        0x176 (size before relaxing)
 .rodata.AppendCSDStr.str2.2
                0x00000000000813ee        0x8 /tmp/Shell.dll.q6gkOU.ltrans8.ltrans.o
                                         0x14 (size before relaxing)
 .rodata.DevPathSerial1394.str2.2
                0x00000000000813f6        0x8 /tmp/Shell.dll.q6gkOU.ltrans8.ltrans.o
 .rodata.DevPathSerialMacAddr.str2.2
                0x00000000000813f6        0xa /tmp/Shell.dll.q6gkOU.ltrans8.ltrans.o
 .rodata.AppendCSDNum.str2.2
                0x00000000000813f6        0x8 /tmp/Shell.dll.q6gkOU.ltrans8.ltrans.o
 .rodata.DevPathSerialIPv4.str2.2
                0x00000000000813f6       0x22 /tmp/Shell.dll.q6gkOU.ltrans8.ltrans.o
 .rodata.DevPathSerialVendor.str2.2
                0x0000000000081418        0x6 /tmp/Shell.dll.q6gkOU.ltrans8.ltrans.o
 .rodata.PartitionInfoProtocolDumpInformation.str2.2
                0x0000000000081418        0xe /tmp/Shell.dll.q6gkOU.ltrans8.ltrans.o
 .rodata.PciIoProtocolDumpInformation.str2.2
                0x0000000000081426       0x1c /tmp/Shell.dll.q6gkOU.ltrans8.ltrans.o
 .rodata.DebugSupportProtocolDumpInformation.str2.2
                0x0000000000081442       0x1c /tmp/Shell.dll.q6gkOU.ltrans8.ltrans.o
 .rodata.TxtOutProtocolDumpInformation.str2.2
                0x000000000008145e        0x2 /tmp/Shell.dll.q6gkOU.ltrans8.ltrans.o
 .rodata.BlockIoProtocolDumpInformation.str2.2
                0x000000000008145e       0x70 /tmp/Shell.dll.q6gkOU.ltrans8.ltrans.o
                                         0x84 (size before relaxing)
 .rodata.ShellCommandConsistMappingGenMappingName.str2.2
                0x00000000000814ce        0xc /tmp/Shell.dll.q6gkOU.ltrans8.ltrans.o
 .rodata.PrintLsOutput.str2.2
                0x00000000000814ce       0x2c /tmp/Shell.dll.q6gkOU.ltrans8.ltrans.o
                                         0x58 (size before relaxing)
 .rodata.DumpHex.str1.1
                0x00000000000814fa        0x1 /tmp/Shell.dll.q6gkOU.ltrans8.ltrans.o
 .rodata.DumpHex.str2.2
                0x00000000000814fa       0x2c /tmp/Shell.dll.q6gkOU.ltrans8.ltrans.o
 .rodata.ShellCommandCreateNewMappingName.str2.2
                0x00000000000814fa       0x1a /tmp/Shell.dll.q6gkOU.ltrans8.ltrans.o
 .rodata.CommandInit.str2.2
                0x0000000000081514       0x1a /tmp/Shell.dll.q6gkOU.ltrans8.ltrans.o
 .rodata.ShellCommandRunLs.str2.2
                0x0000000000081514        0xc /tmp/Shell.dll.q6gkOU.ltrans8.ltrans.o
 .rodata.ShellCommandRunLoad.str2.2
                0x0000000000081514       0x1a /tmp/Shell.dll.q6gkOU.ltrans8.ltrans.o
                                         0x12 (size before relaxing)
 .rodata.ShellCommandCreateInitialMappingsAndPaths.str2.2
                0x0000000000081514       0x12 /tmp/Shell.dll.q6gkOU.ltrans8.ltrans.o
 .rodata.ShellCommandRegisterCommandName.str2.2
                0x0000000000081514        0x4 /tmp/Shell.dll.q6gkOU.ltrans8.ltrans.o
 .rodata.PerformSingleMappingDisplay.str2.2
                0x0000000000081514       0x26 /tmp/Shell.dll.q6gkOU.ltrans8.ltrans.o
                                         0x3a (size before relaxing)
 .rodata.PerformMappingDisplay.str2.2
                0x000000000008153a        0x8 /tmp/Shell.dll.q6gkOU.ltrans8.ltrans.o
 .rodata.AdapterInformationDumpInformation.str2.2
                0x000000000008153a      0x13a /tmp/Shell.dll.q6gkOU.ltrans8.ltrans.o
 .rodata.str2.2
                0x0000000000081674        0x6 /tmp/Shell.dll.q6gkOU.ltrans8.ltrans.o
                                         0x16 (size before relaxing)
 .rodata.Cd     0x000000000008167a        0x8 /tmp/Shell.dll.q6gkOU.ltrans8.ltrans.o
 *fill*         0x0000000000081682        0x6 
 .rodata.DevPathConsistMappingTable
                0x0000000000081688      0x1f8 /tmp/Shell.dll.q6gkOU.ltrans8.ltrans.o
 .rodata.EfiIsaAcpiProtocolGuid
                0x0000000000081880       0x10 /tmp/Shell.dll.q6gkOU.ltrans8.ltrans.o
 .rodata.EfiIsaIoProtocolGuid
                0x0000000000081890       0x10 /tmp/Shell.dll.q6gkOU.ltrans8.ltrans.o
 .rodata.Fp     0x00000000000818a0        0x8 /tmp/Shell.dll.q6gkOU.ltrans8.ltrans.o
 .rodata.Hd     0x00000000000818a8        0x8 /tmp/Shell.dll.q6gkOU.ltrans8.ltrans.o
 .rodata.LoadParamList
                0x00000000000818b0       0x20 /tmp/Shell.dll.q6gkOU.ltrans8.ltrans.o
 .rodata.LsParamList
                0x00000000000818d0       0x40 /tmp/Shell.dll.q6gkOU.ltrans8.ltrans.o
 .rodata.TimeParamList3
                0x0000000000081910       0x30 /tmp/Shell.dll.q6gkOU.ltrans8.ltrans.o
 .rodata.TimeZoneList
                0x0000000000081940       0x90 /tmp/Shell.dll.q6gkOU.ltrans8.ltrans.o
 .rodata.TimeZoneParamList3
                0x00000000000819d0       0x40 /tmp/Shell.dll.q6gkOU.ltrans8.ltrans.o
 .rodata.WinNtIoProtocolGuid
                0x0000000000081a10       0x10 /tmp/Shell.dll.q6gkOU.ltrans8.ltrans.o
 .rodata.WinNtSerialPortGuid
                0x0000000000081a20       0x10 /tmp/Shell.dll.q6gkOU.ltrans8.ltrans.o
 .rodata.WinNtThunkProtocolGuid
                0x0000000000081a30       0x10 /tmp/Shell.dll.q6gkOU.ltrans8.ltrans.o
 .rodata.mFileName
                0x0000000000081a40       0x1c /tmp/Shell.dll.q6gkOU.ltrans8.ltrans.o
 *fill*         0x0000000000081a5c        0x4 
 .rodata.mGuidStringList
                0x0000000000081a60     0x1a28 /tmp/Shell.dll.q6gkOU.ltrans8.ltrans.o
 .rodata.mGuidStringListNT
                0x0000000000083488       0x60 /tmp/Shell.dll.q6gkOU.ltrans8.ltrans.o
 .rodata.mMTDName
                0x00000000000834e8       0x50 /tmp/Shell.dll.q6gkOU.ltrans8.ltrans.o
 .rodata.NetworkProtocolFromText.str2.2
                0x0000000000083538       0x10 /tmp/Shell.dll.q6gkOU.ltrans9.ltrans.o
 .rodata.ShellConvertStringToUint64.str2.2
                0x0000000000083548        0x6 /tmp/Shell.dll.q6gkOU.ltrans9.ltrans.o
                                          0xc (size before relaxing)
 .rodata.DevPathToTextNodeGeneric.str2.2
                0x000000000008354e       0x22 /tmp/Shell.dll.q6gkOU.ltrans9.ltrans.o
                                         0x34 (size before relaxing)
 .rodata.DevPathToTextBBS.str2.2
                0x0000000000083570       0x2c /tmp/Shell.dll.q6gkOU.ltrans9.ltrans.o
                                         0x3a (size before relaxing)
 .rodata.DevPathToTextRamDisk.str2.2
                0x000000000008359c       0xca /tmp/Shell.dll.q6gkOU.ltrans9.ltrans.o
                                        0x136 (size before relaxing)
 .rodata.DevPathRelativeOffsetRange.str2.2
                0x0000000000083666       0x28 /tmp/Shell.dll.q6gkOU.ltrans9.ltrans.o
 .rodata.DevPathToTextFvFile.str2.2
                0x000000000008368e       0x16 /tmp/Shell.dll.q6gkOU.ltrans9.ltrans.o
 .rodata.DevPathToTextFv.str2.2
                0x00000000000836a4        0xe /tmp/Shell.dll.q6gkOU.ltrans9.ltrans.o
 .rodata.DevPathToTextMediaProtocol.str2.2
                0x00000000000836b2       0x14 /tmp/Shell.dll.q6gkOU.ltrans9.ltrans.o
 .rodata.DevPathToTextFilePath.str2.2
                0x00000000000836c6        0x6 /tmp/Shell.dll.q6gkOU.ltrans9.ltrans.o
 .rodata.DevPathToTextCDROM.str2.2
                0x00000000000836c6       0x48 /tmp/Shell.dll.q6gkOU.ltrans9.ltrans.o
 .rodata.DevPathToTextHardDrive.str2.2
                0x000000000008370e       0x64 /tmp/Shell.dll.q6gkOU.ltrans9.ltrans.o
                                         0x7e (size before relaxing)
 .rodata.DevPathToTextBluetoothLE.str2.2
                0x0000000000083772       0x5a /tmp/Shell.dll.q6gkOU.ltrans9.ltrans.o
 .rodata.DevPathToTextWiFi.str2.2
                0x00000000000837cc       0x14 /tmp/Shell.dll.q6gkOU.ltrans9.ltrans.o
 .rodata.DevPathToTextBluetooth.str2.2
                0x00000000000837e0       0x48 /tmp/Shell.dll.q6gkOU.ltrans9.ltrans.o
 .rodata.DevPathToTextVlan.str2.2
                0x0000000000083828       0x12 /tmp/Shell.dll.q6gkOU.ltrans9.ltrans.o
 .rodata.DevPathToTextiSCSI.str2.2
                0x000000000008383a       0x64 /tmp/Shell.dll.q6gkOU.ltrans9.ltrans.o
                                         0x88 (size before relaxing)
 .rodata.DevPathToTextUart.str2.2
                0x000000000008389e       0x50 /tmp/Shell.dll.q6gkOU.ltrans9.ltrans.o
                                         0x74 (size before relaxing)
 *fill*         0x00000000000838ee        0x2 
 .rodata.DevPathToTextUart
                0x00000000000838f0        0x4 /tmp/Shell.dll.q6gkOU.ltrans9.ltrans.o
 .rodata.DevPathToTextInfiniBand.str2.2
                0x00000000000838f4       0x4c /tmp/Shell.dll.q6gkOU.ltrans9.ltrans.o
 .rodata.CatIPv6Address.str2.2
                0x0000000000083940       0x90 /tmp/Shell.dll.q6gkOU.ltrans9.ltrans.o
 .rodata.CatIPv4Address.str2.2
                0x00000000000839d0       0x18 /tmp/Shell.dll.q6gkOU.ltrans9.ltrans.o
 .rodata.DevPathToTextDns.str2.2
                0x00000000000839e8        0xa /tmp/Shell.dll.q6gkOU.ltrans9.ltrans.o
 .rodata.CatNetworkProtocol.str2.2
                0x00000000000839f2        0xa /tmp/Shell.dll.q6gkOU.ltrans9.ltrans.o
 .rodata.DevPathToTextIPv6.str2.2
                0x00000000000839f2       0x80 /tmp/Shell.dll.q6gkOU.ltrans9.ltrans.o
                                         0x8e (size before relaxing)
 .rodata.DevPathToTextIPv4.str2.2
                0x0000000000083a72       0x24 /tmp/Shell.dll.q6gkOU.ltrans9.ltrans.o
 .rodata.DevPathToTextMacAddr.str2.2
                0x0000000000083a96        0xa /tmp/Shell.dll.q6gkOU.ltrans9.ltrans.o
 .rodata.DevPathToTextI2O.str2.2
                0x0000000000083aa0       0x14 /tmp/Shell.dll.q6gkOU.ltrans9.ltrans.o
 .rodata.DevPathToTextSata.str2.2
                0x0000000000083ab4       0x2a /tmp/Shell.dll.q6gkOU.ltrans9.ltrans.o
 .rodata.DevPathToTextUsbClass.str2.2
                0x0000000000083ade      0x14a /tmp/Shell.dll.q6gkOU.ltrans9.ltrans.o
                                        0x250 (size before relaxing)
 .rodata.DevPathToTextUsbClass
                0x0000000000083c28        0xe /tmp/Shell.dll.q6gkOU.ltrans9.ltrans.o
 .rodata.DevPathToTextLogicalUnit.str2.2
                0x0000000000083c36       0x16 /tmp/Shell.dll.q6gkOU.ltrans9.ltrans.o
 .rodata.DevPathToTextUsb.str2.2
                0x0000000000083c4c       0x1e /tmp/Shell.dll.q6gkOU.ltrans9.ltrans.o
 .rodata.DevPathToText1394.str2.2
                0x0000000000083c6a       0x1c /tmp/Shell.dll.q6gkOU.ltrans9.ltrans.o
 .rodata.DevPathToTextEmmc.str2.2
                0x0000000000083c86       0x16 /tmp/Shell.dll.q6gkOU.ltrans9.ltrans.o
 .rodata.DevPathToTextSd.str2.2
                0x0000000000083c9c       0x12 /tmp/Shell.dll.q6gkOU.ltrans9.ltrans.o
 .rodata.DevPathToTextUfs.str2.2
                0x0000000000083cae       0x1e /tmp/Shell.dll.q6gkOU.ltrans9.ltrans.o
 .rodata.DevPathToTextNVMe.str2.2
                0x0000000000083ccc       0x66 /tmp/Shell.dll.q6gkOU.ltrans9.ltrans.o
 .rodata.DevPathToTextSasEx.str2.2
                0x0000000000083d32       0xac /tmp/Shell.dll.q6gkOU.ltrans9.ltrans.o
                                         0xc0 (size before relaxing)
 .rodata.DevPathToTextFibreEx.str2.2
                0x0000000000083dde       0x16 /tmp/Shell.dll.q6gkOU.ltrans9.ltrans.o
 .rodata.DevPathToTextFibre.str2.2
                0x0000000000083df4       0x26 /tmp/Shell.dll.q6gkOU.ltrans9.ltrans.o
 .rodata.DevPathToTextScsi.str2.2
                0x0000000000083e1a       0x20 /tmp/Shell.dll.q6gkOU.ltrans9.ltrans.o
 .rodata.DevPathToTextAtapi.str2.2
                0x0000000000083e3a       0x64 /tmp/Shell.dll.q6gkOU.ltrans9.ltrans.o
                                         0x72 (size before relaxing)
 .rodata.DevPathToTextAcpiAdr.str2.2
                0x0000000000083e9e       0x26 /tmp/Shell.dll.q6gkOU.ltrans9.ltrans.o
 .rodata.DevPathToTextAcpiEx.str2.2
                0x0000000000083ec4      0x12c /tmp/Shell.dll.q6gkOU.ltrans9.ltrans.o
                                        0x148 (size before relaxing)
 .rodata.DevPathToTextAcpi.str2.2
                0x0000000000083ff0       0xc2 /tmp/Shell.dll.q6gkOU.ltrans9.ltrans.o
 .rodata.DevPathToTextBmc.str2.2
                0x00000000000840b2       0x20 /tmp/Shell.dll.q6gkOU.ltrans9.ltrans.o
 .rodata.DevPathToTextController.str2.2
                0x00000000000840d2       0x16 /tmp/Shell.dll.q6gkOU.ltrans9.ltrans.o
 .rodata.DevPathToTextVendor.str2.2
                0x00000000000840e8      0x136 /tmp/Shell.dll.q6gkOU.ltrans9.ltrans.o
                                        0x166 (size before relaxing)
 .rodata.DevPathToTextMemMap.str2.2
                0x000000000008421e       0x3e /tmp/Shell.dll.q6gkOU.ltrans9.ltrans.o
 .rodata.DevPathToTextPccard.str2.2
                0x000000000008425c       0x1a /tmp/Shell.dll.q6gkOU.ltrans9.ltrans.o
 .rodata.DevPathToTextPci.str2.2
                0x0000000000084276       0x1e /tmp/Shell.dll.q6gkOU.ltrans9.ltrans.o
 .rodata.ShellOpenFileByName.str2.2
                0x0000000000084294       0x12 /tmp/Shell.dll.q6gkOU.ltrans9.ltrans.o
 .rodata.DevPathToTextUsbWWID.str2.2
                0x00000000000842a6       0x3a /tmp/Shell.dll.q6gkOU.ltrans9.ltrans.o
 .rodata.ConvertMemoryType.str2.2
                0x00000000000842e0      0x23e /tmp/Shell.dll.q6gkOU.ltrans9.ltrans.o
 *fill*         0x000000000008451e        0x2 
 .rodata.ConvertMemoryType
                0x0000000000084520       0x10 /tmp/Shell.dll.q6gkOU.ltrans9.ltrans.o
 .rodata.InternalShellPrintWorker.str2.2
                0x0000000000084530       0x20 /tmp/Shell.dll.q6gkOU.ltrans9.ltrans.o
                                         0x4a (size before relaxing)
 .rodata.ShellPrintHelp.str2.2
                0x0000000000084550       0x2e /tmp/Shell.dll.q6gkOU.ltrans9.ltrans.o
 .rodata.ShellPromptForResponse.str2.2
                0x000000000008457e        0xc /tmp/Shell.dll.q6gkOU.ltrans9.ltrans.o
 *fill*         0x000000000008457e        0x2 
 .rodata.ShellPromptForResponse
                0x0000000000084580        0xa /tmp/Shell.dll.q6gkOU.ltrans9.ltrans.o
 .rodata.FullyQualifyPath.str2.2
                0x000000000008458a       0x10 /tmp/Shell.dll.q6gkOU.ltrans9.ltrans.o
 .rodata.ShellFindFilePath.str2.2
                0x000000000008458a        0xe /tmp/Shell.dll.q6gkOU.ltrans9.ltrans.o
 .rodata.UefiDevicePathLibConvertDevicePathToText.str2.2
                0x000000000008458a        0x4 /tmp/Shell.dll.q6gkOU.ltrans9.ltrans.o
 .rodata.DevPathFromTextIPv6.str2.2
                0x000000000008458a       0x2e /tmp/Shell.dll.q6gkOU.ltrans9.ltrans.o
 .rodata.DevPathFromTextBBS.str2.2
                0x00000000000845b8       0x1e /tmp/Shell.dll.q6gkOU.ltrans9.ltrans.o
                                         0x46 (size before relaxing)
 .rodata.DevPathFromTextUart.str2.2
                0x00000000000845d6       0x10 /tmp/Shell.dll.q6gkOU.ltrans9.ltrans.o
                                         0x24 (size before relaxing)
 *fill*         0x00000000000845e6        0x2 
 .rodata.DevPathFromTextUart
                0x00000000000845e8       0x10 /tmp/Shell.dll.q6gkOU.ltrans9.ltrans.o
 .rodata.DevPathFromTextSasEx.str2.2
                0x00000000000845f8       0x16 /tmp/Shell.dll.q6gkOU.ltrans9.ltrans.o
 .rodata.HiiGetString.str1.1
                0x000000000008460e        0x1 /tmp/Shell.dll.q6gkOU.ltrans9.ltrans.o
 .rodata.HiiGetString.str2.2
                0x000000000008460e       0x1a /tmp/Shell.dll.q6gkOU.ltrans9.ltrans.o
 .rodata.PciRootBridgeIoDumpInformation.str2.2
                0x000000000008460e       0x66 /tmp/Shell.dll.q6gkOU.ltrans9.ltrans.o
                                         0x70 (size before relaxing)
 .rodata.EdidActiveProtocolDumpInformation.str2.2
                0x0000000000084674       0x16 /tmp/Shell.dll.q6gkOU.ltrans9.ltrans.o
 .rodata.EdidDiscoveredProtocolDumpInformation.str2.2
                0x000000000008468a       0x1e /tmp/Shell.dll.q6gkOU.ltrans9.ltrans.o
 .rodata.GraphicsOutputProtocolDumpInformation.str2.2
                0x00000000000846a8      0x108 /tmp/Shell.dll.q6gkOU.ltrans9.ltrans.o
 .rodata.GraphicsOutputProtocolDumpInformation
                0x00000000000847b0        0x5 /tmp/Shell.dll.q6gkOU.ltrans9.ltrans.o
 *fill*         0x00000000000847b5        0x1 
 .rodata.DevPathToTextUri.str2.2
                0x00000000000847b6       0x10 /tmp/Shell.dll.q6gkOU.ltrans9.ltrans.o
 .rodata.str2.2
                0x00000000000847c6       0x50 /tmp/Shell.dll.q6gkOU.ltrans9.ltrans.o
 .rodata.CSWTCH.42
                0x00000000000847c6        0x6 /tmp/Shell.dll.q6gkOU.ltrans9.ltrans.o
 *fill*         0x00000000000847cc        0x4 
 .rodata.CSWTCH.58
                0x00000000000847d0       0x30 /tmp/Shell.dll.q6gkOU.ltrans9.ltrans.o
 .rodata.mEndOfPakageList
                0x0000000000084800        0x4 /tmp/Shell.dll.q6gkOU.ltrans9.ltrans.o
 .rodata.mUefiDevicePathLibEndDevicePath
                0x0000000000084804        0x4 /tmp/Shell.dll.q6gkOU.ltrans9.ltrans.o
 .rodata.mUefiDevicePathLibToTextTable
                0x0000000000084808      0x320 /tmp/Shell.dll.q6gkOU.ltrans9.ltrans.o
 .rodata.mUefiDevicePathLibToTextTableGeneric
                0x0000000000084b28       0x60 /tmp/Shell.dll.q6gkOU.ltrans9.ltrans.o
 .rodata.IsScriptOnlyCommand.str2.2
                0x0000000000084b88       0x3c /tmp/Shell.dll.q6gkOU.ltrans10.ltrans.o
 .rodata.FileInterfaceFileWrite.str1.1
                0x0000000000084b88        0x3 /tmp/Shell.dll.q6gkOU.ltrans10.ltrans.o
 .rodata.EfiShellRegisterGuidName.str1.1
                0x0000000000084b88        0x7 /tmp/Shell.dll.q6gkOU.ltrans10.ltrans.o
 .rodata.FixFileName.str2.2
                0x0000000000084b8f        0x8 /tmp/Shell.dll.q6gkOU.ltrans10.ltrans.o
 .rodata.FixVarName.str2.2
                0x0000000000084b8f        0x4 /tmp/Shell.dll.q6gkOU.ltrans10.ltrans.o
 .rodata.EfiShellGetDevicePathFromMap.str2.2
                0x0000000000084b8f        0x4 /tmp/Shell.dll.q6gkOU.ltrans10.ltrans.o
 .rodata.ContainsSplit.str2.2
                0x0000000000084b8f        0x4 /tmp/Shell.dll.q6gkOU.ltrans10.ltrans.o
 .rodata.EfiShellGetFilePathFromDevicePath.str2.2
                0x0000000000084b8f        0x4 /tmp/Shell.dll.q6gkOU.ltrans10.ltrans.o
 .rodata.EfiShellGetMapFromDevicePath.str2.2
                0x0000000000084b8f        0x4 /tmp/Shell.dll.q6gkOU.ltrans10.ltrans.o
 .rodata.EfiShellFindFilesInDir.str2.2
                0x0000000000084b8f        0xa /tmp/Shell.dll.q6gkOU.ltrans10.ltrans.o
 *fill*         0x0000000000084b8f        0x1 
 .rodata.PathCleanUpDirectories.str2.2
                0x0000000000084b90       0x1c /tmp/Shell.dll.q6gkOU.ltrans10.ltrans.o
 .rodata.GetNextParameter.str2.2
                0x0000000000084bac        0x6 /tmp/Shell.dll.q6gkOU.ltrans10.ltrans.o
                                          0xc (size before relaxing)
 .rodata.AppendStringToHistory.str2.2
                0x0000000000084bb2        0x6 /tmp/Shell.dll.q6gkOU.ltrans10.ltrans.o
 .rodata.FileInterfaceStdInRead.str2.2
                0x0000000000084bb2       0x28 /tmp/Shell.dll.q6gkOU.ltrans10.ltrans.o
                                         0x32 (size before relaxing)
 *fill*         0x0000000000084bda        0x2 
 .rodata.FileInterfaceStdInRead
                0x0000000000084bdc       0x2e /tmp/Shell.dll.q6gkOU.ltrans10.ltrans.o
 .rodata.ManFileFindSections.str2.2
                0x0000000000084c0a       0x10 /tmp/Shell.dll.q6gkOU.ltrans10.ltrans.o
 .rodata.SetEnvironmentVariables.part.0.str2.2
                0x0000000000084c1a        0x4 /tmp/Shell.dll.q6gkOU.ltrans10.ltrans.o
 .rodata.EfiShellGetCurDir.str2.2
                0x0000000000084c1a        0x8 /tmp/Shell.dll.q6gkOU.ltrans10.ltrans.o
 .rodata.ProcessCommandLineToFinal.str2.2
                0x0000000000084c1a        0xc /tmp/Shell.dll.q6gkOU.ltrans10.ltrans.o
                                         0x1c (size before relaxing)
 .rodata.EfiShellSetEnv.str2.2
                0x0000000000084c26       0x5c /tmp/Shell.dll.q6gkOU.ltrans10.ltrans.o
                                         0x82 (size before relaxing)
 .rodata.SetLastError.str2.2
                0x0000000000084c82       0x2a /tmp/Shell.dll.q6gkOU.ltrans10.ltrans.o
 .rodata.EfiShellOpenFileByName.str2.2
                0x0000000000084c82       0x12 /tmp/Shell.dll.q6gkOU.ltrans10.ltrans.o
                                         0x2a (size before relaxing)
 .rodata.RunShellCommand.str2.2
                0x0000000000084c94       0xee /tmp/Shell.dll.q6gkOU.ltrans10.ltrans.o
                                         0xf6 (size before relaxing)
 .rodata.EfiShellExecute.str2.2
                0x0000000000084d82       0x22 /tmp/Shell.dll.q6gkOU.ltrans10.ltrans.o
 .rodata.mHexStr
                0x0000000000084da4       0x10 /tmp/Shell.dll.q6gkOU.ltrans10.ltrans.o
 .rodata.mNoNestingEnvVarName
                0x0000000000084db4       0x14 /tmp/Shell.dll.q6gkOU.ltrans10.ltrans.o
                0x0000000000084db4                mNoNestingEnvVarName
 .rodata.mNoNestingTrue
                0x0000000000084dc8        0xa /tmp/Shell.dll.q6gkOU.ltrans10.ltrans.o
                0x0000000000084dc8                mNoNestingTrue
 .rodata.mScriptExtension
                0x0000000000084dd2        0xa /tmp/Shell.dll.q6gkOU.ltrans10.ltrans.o
 .rodata.ProcessLibraryConstructorList.str2.2
                0x0000000000084ddc       0xf8 /tmp/Shell.dll.q6gkOU.ltrans11.ltrans.o
                                        0x442 (size before relaxing)
 .rodata._ModuleEntryPoint.str2.2
                0x0000000000084ed4      0x102 /tmp/Shell.dll.q6gkOU.ltrans11.ltrans.o
                                        0x1b2 (size before relaxing)
 *fill*         0x0000000000084fd6        0x2 
 .rodata.ParserList
                0x0000000000084fd8      0x130 /tmp/Shell.dll.q6gkOU.ltrans11.ltrans.o
 .rodata.mStartupScript
                0x0000000000085108       0x18 /tmp/Shell.dll.q6gkOU.ltrans11.ltrans.o
 *(.got .got.*)
 .got           0x0000000000085120        0x8 /home/alastair/pftf-rpi4/edk2/ArmPkg/Library/GccLto/liblto-aarch64.a
                0x0000000000085120                _GLOBAL_OFFSET_TABLE_
 .got.plt       0x0000000000085128       0x18 /home/alastair/pftf-rpi4/edk2/ArmPkg/Library/GccLto/liblto-aarch64.a
 *:AutoGen.obj(.data.g*Guid)

.plt            0x0000000000085140        0x0
 .plt           0x0000000000085140        0x0 /home/alastair/pftf-rpi4/edk2/ArmPkg/Library/GccLto/liblto-aarch64.a

.data           0x0000000000086000    0x64e08
 *(.data .data.* .gnu.linkonce.d.*)
 .data.rel.ro   0x0000000000086000        0x0 /home/alastair/pftf-rpi4/edk2/ArmPkg/Library/GccLto/liblto-aarch64.a
 .data.SELSysManagementTypesTable
                0x0000000000086000      0x100 /tmp/Shell.dll.q6gkOU.ltrans0.ltrans.o
 .data.ShellInfoObject
                0x0000000000086100      0x140 /tmp/Shell.dll.q6gkOU.ltrans0.ltrans.o
                0x0000000000086100                ShellInfoObject
 .data.UefiShellBcfgCommandLibStrings
                0x0000000000086240     0x3034 /tmp/Shell.dll.q6gkOU.ltrans0.ltrans.o
 .data.gEdkiiVariableLockProtocolGuid
                0x0000000000089274       0x10 /tmp/Shell.dll.q6gkOU.ltrans0.ltrans.o
 .data.gEfiAdapterInfoMediaStateGuid
                0x0000000000089284       0x10 /tmp/Shell.dll.q6gkOU.ltrans0.ltrans.o
                0x0000000000089284                gEfiAdapterInfoMediaStateGuid
 .data.gEfiAdapterInformationProtocolGuid
                0x0000000000089294       0x10 /tmp/Shell.dll.q6gkOU.ltrans0.ltrans.o
                0x0000000000089294                gEfiAdapterInformationProtocolGuid
 .data.gEfiBlockIoProtocolGuid
                0x00000000000892a4       0x10 /tmp/Shell.dll.q6gkOU.ltrans0.ltrans.o
                0x00000000000892a4                gEfiBlockIoProtocolGuid
 .data.gEfiDevicePathProtocolGuid
                0x00000000000892b4       0x10 /tmp/Shell.dll.q6gkOU.ltrans0.ltrans.o
                0x00000000000892b4                gEfiDevicePathProtocolGuid
 .data.gEfiGlobalVariableGuid
                0x00000000000892c4       0x10 /tmp/Shell.dll.q6gkOU.ltrans0.ltrans.o
                0x00000000000892c4                gEfiGlobalVariableGuid
 .data.gEfiHiiPackageListProtocolGuid
                0x00000000000892d4       0x10 /tmp/Shell.dll.q6gkOU.ltrans0.ltrans.o
                0x00000000000892d4                gEfiHiiPackageListProtocolGuid
 .data.gEfiLoadedImageProtocolGuid
                0x00000000000892e4       0x10 /tmp/Shell.dll.q6gkOU.ltrans0.ltrans.o
                0x00000000000892e4                gEfiLoadedImageProtocolGuid
 .data.gEfiShellEnvironment2ExtGuid
                0x00000000000892f4       0x10 /tmp/Shell.dll.q6gkOU.ltrans0.ltrans.o
 .data.gEfiShellEnvironment2Guid
                0x0000000000089304       0x10 /tmp/Shell.dll.q6gkOU.ltrans0.ltrans.o
                0x0000000000089304                gEfiShellEnvironment2Guid
 .data.gEfiShellInterfaceGuid
                0x0000000000089314       0x10 /tmp/Shell.dll.q6gkOU.ltrans0.ltrans.o
                0x0000000000089314                gEfiShellInterfaceGuid
 .data.gEfiShellParametersProtocolGuid
                0x0000000000089324       0x10 /tmp/Shell.dll.q6gkOU.ltrans0.ltrans.o
                0x0000000000089324                gEfiShellParametersProtocolGuid
 .data.gEfiShellProtocolGuid
                0x0000000000089334       0x10 /tmp/Shell.dll.q6gkOU.ltrans0.ltrans.o
                0x0000000000089334                gEfiShellProtocolGuid
 .data.gEfiSimpleNetworkProtocolGuid
                0x0000000000089344       0x10 /tmp/Shell.dll.q6gkOU.ltrans0.ltrans.o
                0x0000000000089344                gEfiSimpleNetworkProtocolGuid
 .data.gShellBcfgHiiGuid
                0x0000000000089354       0x10 /tmp/Shell.dll.q6gkOU.ltrans0.ltrans.o
 .data.mShellManHiiDevicePath
                0x0000000000089364       0x18 /tmp/Shell.dll.q6gkOU.ltrans0.ltrans.o
 .data.ArmSbbrTableCounts
                0x000000000008937c       0x48 /tmp/Shell.dll.q6gkOU.ltrans1.ltrans.o
 *fill*         0x00000000000893c4        0x4 
 .data.McErrorCorrectCapabilityTable
                0x00000000000893c8       0x60 /tmp/Shell.dll.q6gkOU.ltrans1.ltrans.o
 .data.McInterleaveSupportTable
                0x0000000000089428       0x70 /tmp/Shell.dll.q6gkOU.ltrans1.ltrans.o
 .data.MemoryErrorGranularityTable
                0x0000000000089498       0x40 /tmp/Shell.dll.q6gkOU.ltrans1.ltrans.o
 .data.MemoryErrorOperationTable
                0x00000000000894d8       0x50 /tmp/Shell.dll.q6gkOU.ltrans1.ltrans.o
 .data.MemoryErrorTypeTable
                0x0000000000089528       0xe0 /tmp/Shell.dll.q6gkOU.ltrans1.ltrans.o
 .data.MmMemoryTypeTable
                0x0000000000089608       0xb0 /tmp/Shell.dll.q6gkOU.ltrans1.ltrans.o
 .data.OnboardDeviceTypesTable
                0x00000000000896b8       0xa0 /tmp/Shell.dll.q6gkOU.ltrans1.ltrans.o
 .data.PortConnectorTypeTable
                0x0000000000089758      0x2a0 /tmp/Shell.dll.q6gkOU.ltrans1.ltrans.o
 .data.SELTypesTable
                0x00000000000899f8      0x1b0 /tmp/Shell.dll.q6gkOU.ltrans1.ltrans.o
 .data.SELVarDataFormatTypeTable
                0x0000000000089ba8       0x90 /tmp/Shell.dll.q6gkOU.ltrans1.ltrans.o
 .data.SystemEnclosureStatusTable
                0x0000000000089c38       0x60 /tmp/Shell.dll.q6gkOU.ltrans1.ltrans.o
 .data.SystemEnclosureTypeTable
                0x0000000000089c98      0x240 /tmp/Shell.dll.q6gkOU.ltrans1.ltrans.o
 .data.SystemSlotTypeTable
                0x0000000000089ed8      0x410 /tmp/Shell.dll.q6gkOU.ltrans1.ltrans.o
 .data.gEfiAcpiTableGuid
                0x000000000008a2e8       0x10 /tmp/Shell.dll.q6gkOU.ltrans1.ltrans.o
 .data.gEfiIp4Config2ProtocolGuid
                0x000000000008a2f8       0x10 /tmp/Shell.dll.q6gkOU.ltrans1.ltrans.o
                0x000000000008a2f8                gEfiIp4Config2ProtocolGuid
 .data.gEfiIp4ProtocolGuid
                0x000000000008a308       0x10 /tmp/Shell.dll.q6gkOU.ltrans1.ltrans.o
                0x000000000008a308                gEfiIp4ProtocolGuid
 .data.gEfiIp4ServiceBindingProtocolGuid
                0x000000000008a318       0x10 /tmp/Shell.dll.q6gkOU.ltrans1.ltrans.o
                0x000000000008a318                gEfiIp4ServiceBindingProtocolGuid
 .data.gEfiIp6ConfigProtocolGuid
                0x000000000008a328       0x10 /tmp/Shell.dll.q6gkOU.ltrans1.ltrans.o
                0x000000000008a328                gEfiIp6ConfigProtocolGuid
 .data.gEfiIp6ProtocolGuid
                0x000000000008a338       0x10 /tmp/Shell.dll.q6gkOU.ltrans1.ltrans.o
                0x000000000008a338                gEfiIp6ProtocolGuid
 .data.gEfiIp6ServiceBindingProtocolGuid
                0x000000000008a348       0x10 /tmp/Shell.dll.q6gkOU.ltrans1.ltrans.o
                0x000000000008a348                gEfiIp6ServiceBindingProtocolGuid
 .data.mIfConfigCheckList
                0x000000000008a358       0x60 /tmp/Shell.dll.q6gkOU.ltrans1.ltrans.o
 .data.mSetCheckList
                0x000000000008a3b8       0x60 /tmp/Shell.dll.q6gkOU.ltrans1.ltrans.o
 .data.BaseBoardBoardTypeTable
                0x000000000008a418       0xd0 /tmp/Shell.dll.q6gkOU.ltrans2.ltrans.o
 .data.BaseBoardFeatureFlagsTable
                0x000000000008a4e8       0x50 /tmp/Shell.dll.q6gkOU.ltrans2.ltrans.o
 .data.CacheAssociativityTable
                0x000000000008a538       0xe0 /tmp/Shell.dll.q6gkOU.ltrans2.ltrans.o
 .data.CacheErrCorrectingTypeTable
                0x000000000008a618       0x60 /tmp/Shell.dll.q6gkOU.ltrans2.ltrans.o
 .data.CacheSRAMTypeTable
                0x000000000008a678       0x70 /tmp/Shell.dll.q6gkOU.ltrans2.ltrans.o
 .data.CacheSystemCacheTypeTable
                0x000000000008a6e8       0x50 /tmp/Shell.dll.q6gkOU.ltrans2.ltrans.o
 .data.CoolingDeviceStatusTable
                0x000000000008a738       0x60 /tmp/Shell.dll.q6gkOU.ltrans2.ltrans.o
 .data.CoolingDeviceTypeTable
                0x000000000008a798       0xb0 /tmp/Shell.dll.q6gkOU.ltrans2.ltrans.o
 .data.ECPLocTable
                0x000000000008a848       0xb0 /tmp/Shell.dll.q6gkOU.ltrans2.ltrans.o
 .data.ECPStatusTable
                0x000000000008a8f8       0x60 /tmp/Shell.dll.q6gkOU.ltrans2.ltrans.o
 .data.IPMIDIBMCInterfaceTypeTable
                0x000000000008a958       0x60 /tmp/Shell.dll.q6gkOU.ltrans2.ltrans.o
 .data.MCHostInterfaceTypeTable
                0x000000000008a9b8       0x30 /tmp/Shell.dll.q6gkOU.ltrans2.ltrans.o
 .data.MDAddressTypeTable
                0x000000000008a9e8       0x50 /tmp/Shell.dll.q6gkOU.ltrans2.ltrans.o
 .data.MDTypeTable
                0x000000000008aa38       0xd0 /tmp/Shell.dll.q6gkOU.ltrans2.ltrans.o
 .data.McErrorDetectMethodTable
                0x000000000008ab08       0x80 /tmp/Shell.dll.q6gkOU.ltrans2.ltrans.o
 .data.McMemorySpeedsTable
                0x000000000008ab88       0x50 /tmp/Shell.dll.q6gkOU.ltrans2.ltrans.o
 .data.MemoryChannelTypeTable
                0x000000000008abd8       0x40 /tmp/Shell.dll.q6gkOU.ltrans2.ltrans.o
 .data.MemoryDeviceFormFactorTable
                0x000000000008ac18      0x100 /tmp/Shell.dll.q6gkOU.ltrans2.ltrans.o
 .data.MemoryDeviceMemoryOperatingModeCapabilityTable
                0x000000000008ad18       0x50 /tmp/Shell.dll.q6gkOU.ltrans2.ltrans.o
 .data.MemoryDeviceMemoryTechnologyTable
                0x000000000008ad68       0x70 /tmp/Shell.dll.q6gkOU.ltrans2.ltrans.o
 .data.MemoryDeviceTypeDetailTable
                0x000000000008add8       0xe0 /tmp/Shell.dll.q6gkOU.ltrans2.ltrans.o
 .data.MemoryDeviceTypeTable
                0x000000000008aeb8      0x200 /tmp/Shell.dll.q6gkOU.ltrans2.ltrans.o
 .data.MemoryModuleVoltageTable
                0x000000000008b0b8       0x30 /tmp/Shell.dll.q6gkOU.ltrans2.ltrans.o
 .data.MmErrorStatusTable
                0x000000000008b0e8       0x30 /tmp/Shell.dll.q6gkOU.ltrans2.ltrans.o
 .data.PBDeviceChemistryTable
                0x000000000008b118       0x80 /tmp/Shell.dll.q6gkOU.ltrans2.ltrans.o
 .data.PMAErrorCorrectionTypesTable
                0x000000000008b198       0x70 /tmp/Shell.dll.q6gkOU.ltrans2.ltrans.o
 .data.PMALocationTable
                0x000000000008b208       0xf0 /tmp/Shell.dll.q6gkOU.ltrans2.ltrans.o
 .data.PMAUseTable
                0x000000000008b2f8       0x70 /tmp/Shell.dll.q6gkOU.ltrans2.ltrans.o
 .data.PointingDeviceInterfaceTable
                0x000000000008b368       0xb0 /tmp/Shell.dll.q6gkOU.ltrans2.ltrans.o
 .data.PointingDeviceTypeTable
                0x000000000008b418       0x70 /tmp/Shell.dll.q6gkOU.ltrans2.ltrans.o
 .data.PortTypeTable
                0x000000000008b488      0x270 /tmp/Shell.dll.q6gkOU.ltrans2.ltrans.o
 .data.PostResultsBitmapDw1Table
                0x000000000008b6f8      0x200 /tmp/Shell.dll.q6gkOU.ltrans2.ltrans.o
 .data.PostResultsBitmapDw2Table
                0x000000000008b8f8      0x200 /tmp/Shell.dll.q6gkOU.ltrans2.ltrans.o
 .data.ProcessorArchitectureTypesTable
                0x000000000008baf8       0x90 /tmp/Shell.dll.q6gkOU.ltrans2.ltrans.o
 .data.ProcessorCharacteristicsTable
                0x000000000008bb88       0x90 /tmp/Shell.dll.q6gkOU.ltrans2.ltrans.o
 .data.ProcessorTypeTable
                0x000000000008bc18       0x60 /tmp/Shell.dll.q6gkOU.ltrans2.ltrans.o
 .data.ProcessorUpgradeTable
                0x000000000008bc78      0x3c0 /tmp/Shell.dll.q6gkOU.ltrans2.ltrans.o
 .data.SESecurityStatusTable
                0x000000000008c038       0x50 /tmp/Shell.dll.q6gkOU.ltrans2.ltrans.o
 .data.SlotCharacteristics1Table
                0x000000000008c088       0x80 /tmp/Shell.dll.q6gkOU.ltrans2.ltrans.o
 .data.SlotCharacteristics2Table
                0x000000000008c108       0x40 /tmp/Shell.dll.q6gkOU.ltrans2.ltrans.o
 .data.StructureTypeInfoTable
                0x000000000008c148      0x2f0 /tmp/Shell.dll.q6gkOU.ltrans2.ltrans.o
 .data.SystemSlotCurrentUsageTable
                0x000000000008c438       0x50 /tmp/Shell.dll.q6gkOU.ltrans2.ltrans.o
 .data.SystemSlotDataBusWidthTable
                0x000000000008c488       0xe0 /tmp/Shell.dll.q6gkOU.ltrans2.ltrans.o
 .data.SystemSlotLengthTable
                0x000000000008c568       0x40 /tmp/Shell.dll.q6gkOU.ltrans2.ltrans.o
 .data.SystemWakeupTypeTable
                0x000000000008c5a8       0x80 /tmp/Shell.dll.q6gkOU.ltrans2.ltrans.o
 .data.TemperatureProbeLocTable
                0x000000000008c628       0xb0 /tmp/Shell.dll.q6gkOU.ltrans2.ltrans.o
 .data.TemperatureProbeStatusTable
                0x000000000008c6d8       0x60 /tmp/Shell.dll.q6gkOU.ltrans2.ltrans.o
 .data.VPLocationTable
                0x000000000008c738       0x60 /tmp/Shell.dll.q6gkOU.ltrans2.ltrans.o
 .data.VPStatusTable
                0x000000000008c798       0xb0 /tmp/Shell.dll.q6gkOU.ltrans2.ltrans.o
 .data.EmptyParamList
                0x000000000008c848       0x10 /tmp/Shell.dll.q6gkOU.ltrans3.ltrans.o
                0x000000000008c848                EmptyParamList
 .data.gEfiPciRootBridgeIoProtocolGuid
                0x000000000008c858       0x10 /tmp/Shell.dll.q6gkOU.ltrans3.ltrans.o
                0x000000000008c858                gEfiPciRootBridgeIoProtocolGuid
 .data.gEfiSmbios3TableGuid
                0x000000000008c868       0x10 /tmp/Shell.dll.q6gkOU.ltrans3.ltrans.o
                0x000000000008c868                gEfiSmbios3TableGuid
 .data.gEfiSmbiosTableGuid
                0x000000000008c878       0x10 /tmp/Shell.dll.q6gkOU.ltrans3.ltrans.o
                0x000000000008c878                gEfiSmbiosTableGuid
 .data.gShowType
                0x000000000008c888        0x1 /tmp/Shell.dll.q6gkOU.ltrans3.ltrans.o
 *fill*         0x000000000008c889        0x7 
 .data.PCIBlankEntry
                0x000000000008c890       0x30 /tmp/Shell.dll.q6gkOU.ltrans4.ltrans.o
 .data.PCIPIFClass_0100
                0x000000000008c8c0       0x90 /tmp/Shell.dll.q6gkOU.ltrans4.ltrans.o
 .data.PCIPIFClass_0101
                0x000000000008c950      0x318 /tmp/Shell.dll.q6gkOU.ltrans4.ltrans.o
 .data.PCIPIFClass_0105
                0x000000000008cc68       0x48 /tmp/Shell.dll.q6gkOU.ltrans4.ltrans.o
 .data.PCIPIFClass_0106
                0x000000000008ccb0       0x60 /tmp/Shell.dll.q6gkOU.ltrans4.ltrans.o
 .data.PCIPIFClass_0107
                0x000000000008cd10       0x48 /tmp/Shell.dll.q6gkOU.ltrans4.ltrans.o
 .data.PCIPIFClass_0108
                0x000000000008cd58       0x60 /tmp/Shell.dll.q6gkOU.ltrans4.ltrans.o
 .data.PCIPIFClass_0109
                0x000000000008cdb8       0x48 /tmp/Shell.dll.q6gkOU.ltrans4.ltrans.o
 .data.PCIPIFClass_0300
                0x000000000008ce00       0x48 /tmp/Shell.dll.q6gkOU.ltrans4.ltrans.o
 .data.PCIPIFClass_0604
                0x000000000008ce48       0x48 /tmp/Shell.dll.q6gkOU.ltrans4.ltrans.o
 .data.PCIPIFClass_0609
                0x000000000008ce90       0x48 /tmp/Shell.dll.q6gkOU.ltrans4.ltrans.o
 .data.PCIPIFClass_060b
                0x000000000008ced8       0x48 /tmp/Shell.dll.q6gkOU.ltrans4.ltrans.o
 .data.PCIPIFClass_0700
                0x000000000008cf20       0xc0 /tmp/Shell.dll.q6gkOU.ltrans4.ltrans.o
 .data.PCIPIFClass_0701
                0x000000000008cfe0       0x90 /tmp/Shell.dll.q6gkOU.ltrans4.ltrans.o
 .data.PCIPIFClass_0703
                0x000000000008d070       0x90 /tmp/Shell.dll.q6gkOU.ltrans4.ltrans.o
 .data.PCIPIFClass_0800
                0x000000000008d100       0x90 /tmp/Shell.dll.q6gkOU.ltrans4.ltrans.o
 .data.PCIPIFClass_0801
                0x000000000008d190       0x60 /tmp/Shell.dll.q6gkOU.ltrans4.ltrans.o
 .data.PCIPIFClass_0802
                0x000000000008d1f0       0x60 /tmp/Shell.dll.q6gkOU.ltrans4.ltrans.o
 .data.PCIPIFClass_0803
                0x000000000008d250       0x60 /tmp/Shell.dll.q6gkOU.ltrans4.ltrans.o
 .data.PCIPIFClass_0904
                0x000000000008d2b0       0x48 /tmp/Shell.dll.q6gkOU.ltrans4.ltrans.o
 .data.PCIPIFClass_0c00
                0x000000000008d2f8       0x48 /tmp/Shell.dll.q6gkOU.ltrans4.ltrans.o
 .data.PCIPIFClass_0c03
                0x000000000008d340       0xa8 /tmp/Shell.dll.q6gkOU.ltrans4.ltrans.o
 .data.PCIPIFClass_0c07
                0x000000000008d3e8       0x60 /tmp/Shell.dll.q6gkOU.ltrans4.ltrans.o
 .data.PCIPIFClass_0d01
                0x000000000008d448       0x48 /tmp/Shell.dll.q6gkOU.ltrans4.ltrans.o
 .data.PCIPIFClass_0e00
                0x000000000008d490       0x48 /tmp/Shell.dll.q6gkOU.ltrans4.ltrans.o
 .data.PCISubClass_00
                0x000000000008d4d8       0x48 /tmp/Shell.dll.q6gkOU.ltrans4.ltrans.o
 .data.PCISubClass_01
                0x000000000008d520      0x120 /tmp/Shell.dll.q6gkOU.ltrans4.ltrans.o
 .data.PCISubClass_02
                0x000000000008d640       0xf0 /tmp/Shell.dll.q6gkOU.ltrans4.ltrans.o
 .data.PCISubClass_03
                0x000000000008d730       0x78 /tmp/Shell.dll.q6gkOU.ltrans4.ltrans.o
 .data.PCISubClass_04
                0x000000000008d7a8       0x90 /tmp/Shell.dll.q6gkOU.ltrans4.ltrans.o
 .data.PCISubClass_05
                0x000000000008d838       0x60 /tmp/Shell.dll.q6gkOU.ltrans4.ltrans.o
 .data.PCISubClass_06
                0x000000000008d898      0x150 /tmp/Shell.dll.q6gkOU.ltrans4.ltrans.o
 .data.PCISubClass_07
                0x000000000008d9e8       0xc0 /tmp/Shell.dll.q6gkOU.ltrans4.ltrans.o
 .data.PCISubClass_08
                0x000000000008daa8       0xf0 /tmp/Shell.dll.q6gkOU.ltrans4.ltrans.o
 .data.PCISubClass_09
                0x000000000008db98       0xa8 /tmp/Shell.dll.q6gkOU.ltrans4.ltrans.o
 .data.PCISubClass_0a
                0x000000000008dc40       0x48 /tmp/Shell.dll.q6gkOU.ltrans4.ltrans.o
 .data.PCISubClass_0b
                0x000000000008dc88       0xd8 /tmp/Shell.dll.q6gkOU.ltrans4.ltrans.o
 .data.PCISubClass_0c
                0x000000000008dd60      0x120 /tmp/Shell.dll.q6gkOU.ltrans4.ltrans.o
 .data.PCISubClass_0d
                0x000000000008de80       0xd8 /tmp/Shell.dll.q6gkOU.ltrans4.ltrans.o
 .data.PCISubClass_0e
                0x000000000008df58       0x30 /tmp/Shell.dll.q6gkOU.ltrans4.ltrans.o
 .data.PCISubClass_0f
                0x000000000008df88       0x90 /tmp/Shell.dll.q6gkOU.ltrans4.ltrans.o
 .data.PCISubClass_10
                0x000000000008e018       0x60 /tmp/Shell.dll.q6gkOU.ltrans4.ltrans.o
 .data.PCISubClass_11
                0x000000000008e078       0x90 /tmp/Shell.dll.q6gkOU.ltrans4.ltrans.o
 .data.PCISubClass_12
                0x000000000008e108       0x30 /tmp/Shell.dll.q6gkOU.ltrans4.ltrans.o
 .data.PCISubClass_13
                0x000000000008e138       0x30 /tmp/Shell.dll.q6gkOU.ltrans4.ltrans.o
 .data.SfoParamList
                0x000000000008e168       0x20 /tmp/Shell.dll.q6gkOU.ltrans4.ltrans.o
                0x000000000008e168                SfoParamList
 .data.gClassStringList
                0x000000000008e188      0x210 /tmp/Shell.dll.q6gkOU.ltrans4.ltrans.o
 .data.gEfiAcpi10TableGuid
                0x000000000008e398       0x10 /tmp/Shell.dll.q6gkOU.ltrans4.ltrans.o
 .data.gEfiAcpi20TableGuid
                0x000000000008e3a8       0x10 /tmp/Shell.dll.q6gkOU.ltrans4.ltrans.o
 .data.gEfiCpuIo2ProtocolGuid
                0x000000000008e3b8       0x10 /tmp/Shell.dll.q6gkOU.ltrans4.ltrans.o
                0x000000000008e3b8                gEfiCpuIo2ProtocolGuid
 .data.gEfiDecompressProtocolGuid
                0x000000000008e3c8       0x10 /tmp/Shell.dll.q6gkOU.ltrans4.ltrans.o
                0x000000000008e3c8                gEfiDecompressProtocolGuid
 .data.gEfiMpsTableGuid
                0x000000000008e3d8       0x10 /tmp/Shell.dll.q6gkOU.ltrans4.ltrans.o
 .data.gEfiSerialIoProtocolGuid
                0x000000000008e3e8       0x10 /tmp/Shell.dll.q6gkOU.ltrans4.ltrans.o
                0x000000000008e3e8                gEfiSerialIoProtocolGuid
 .data.CfgGuidList
                0x000000000008e3f8       0x18 /tmp/Shell.dll.q6gkOU.ltrans5.ltrans.o
 .data.FileBufferConst
                0x000000000008e410       0x78 /tmp/Shell.dll.q6gkOU.ltrans5.ltrans.o
 .data.HBufferImageConst
                0x000000000008e488       0x78 /tmp/Shell.dll.q6gkOU.ltrans5.ltrans.o
 .data.HMainEditorConst
                0x000000000008e500       0x50 /tmp/Shell.dll.q6gkOU.ltrans5.ltrans.o
 .data.HexMainControlBasedMenuFunctions
                0x000000000008e550       0xd8 /tmp/Shell.dll.q6gkOU.ltrans5.ltrans.o
 .data.MainControlBasedMenuFunctions
                0x000000000008e628       0xd8 /tmp/Shell.dll.q6gkOU.ltrans5.ltrans.o
 .data.MainEditorConst
                0x000000000008e700       0x48 /tmp/Shell.dll.q6gkOU.ltrans5.ltrans.o
 .data.MainMenuItems
                0x000000000008e748       0xb0 /tmp/Shell.dll.q6gkOU.ltrans5.ltrans.o
 .data.gEfiDriverBindingProtocolGuid
                0x000000000008e7f8       0x10 /tmp/Shell.dll.q6gkOU.ltrans5.ltrans.o
                0x000000000008e7f8                gEfiDriverBindingProtocolGuid
 .data.gEfiDriverConfiguration2ProtocolGuid
                0x000000000008e808       0x10 /tmp/Shell.dll.q6gkOU.ltrans5.ltrans.o
                0x000000000008e808                gEfiDriverConfiguration2ProtocolGuid
 .data.gEfiDriverConfigurationProtocolGuid
                0x000000000008e818       0x10 /tmp/Shell.dll.q6gkOU.ltrans5.ltrans.o
                0x000000000008e818                gEfiDriverConfigurationProtocolGuid
 .data.gEfiDriverDiagnostics2ProtocolGuid
                0x000000000008e828       0x10 /tmp/Shell.dll.q6gkOU.ltrans5.ltrans.o
                0x000000000008e828                gEfiDriverDiagnostics2ProtocolGuid
 .data.gEfiDriverDiagnosticsProtocolGuid
                0x000000000008e838       0x10 /tmp/Shell.dll.q6gkOU.ltrans5.ltrans.o
                0x000000000008e838                gEfiDriverDiagnosticsProtocolGuid
 .data.gEfiFirmwareVolume2ProtocolGuid
                0x000000000008e848       0x10 /tmp/Shell.dll.q6gkOU.ltrans5.ltrans.o
                0x000000000008e848                gEfiFirmwareVolume2ProtocolGuid
 .data.gEfiHiiConfigAccessProtocolGuid
                0x000000000008e858       0x10 /tmp/Shell.dll.q6gkOU.ltrans5.ltrans.o
                0x000000000008e858                gEfiHiiConfigAccessProtocolGuid
 .data.gEfiHiiDatabaseProtocolGuid
                0x000000000008e868       0x10 /tmp/Shell.dll.q6gkOU.ltrans5.ltrans.o
                0x000000000008e868                gEfiHiiDatabaseProtocolGuid
 .data.gEfiSimplePointerProtocolGuid
                0x000000000008e878       0x10 /tmp/Shell.dll.q6gkOU.ltrans5.ltrans.o
                0x000000000008e878                gEfiSimplePointerProtocolGuid
 .data.gEfiSimpleTextInputExProtocolGuid
                0x000000000008e888       0x10 /tmp/Shell.dll.q6gkOU.ltrans5.ltrans.o
                0x000000000008e888                gEfiSimpleTextInputExProtocolGuid
 .data.DiagGuidList
                0x000000000008e898       0x18 /tmp/Shell.dll.q6gkOU.ltrans6.ltrans.o
 .data.gEfiComponentName2ProtocolGuid
                0x000000000008e8b0       0x10 /tmp/Shell.dll.q6gkOU.ltrans6.ltrans.o
                0x000000000008e8b0                gEfiComponentName2ProtocolGuid
 .data.gEfiComponentNameProtocolGuid
                0x000000000008e8c0       0x10 /tmp/Shell.dll.q6gkOU.ltrans6.ltrans.o
                0x000000000008e8c0                gEfiComponentNameProtocolGuid
 .data.gEfiPciIoProtocolGuid
                0x000000000008e8d0       0x10 /tmp/Shell.dll.q6gkOU.ltrans6.ltrans.o
                0x000000000008e8d0                gEfiPciIoProtocolGuid
 .data.gEfiShellDynamicCommandProtocolGuid
                0x000000000008e8e0       0x10 /tmp/Shell.dll.q6gkOU.ltrans6.ltrans.o
                0x000000000008e8e0                gEfiShellDynamicCommandProtocolGuid
 .data.gEfiFileSystemInfoGuid
                0x000000000008e8f0       0x10 /tmp/Shell.dll.q6gkOU.ltrans7.ltrans.o
                0x000000000008e8f0                gEfiFileSystemInfoGuid
 .data.gEfiSimpleFileSystemProtocolGuid
                0x000000000008e900       0x10 /tmp/Shell.dll.q6gkOU.ltrans7.ltrans.o
                0x000000000008e900                gEfiSimpleFileSystemProtocolGuid
 .data.gEfiAbsolutePointerProtocolGuid
                0x000000000008e910       0x10 /tmp/Shell.dll.q6gkOU.ltrans8.ltrans.o
 .data.gEfiAcpiSdtProtocolGuid
                0x000000000008e920       0x10 /tmp/Shell.dll.q6gkOU.ltrans8.ltrans.o
 .data.gEfiAcpiTableProtocolGuid
                0x000000000008e930       0x10 /tmp/Shell.dll.q6gkOU.ltrans8.ltrans.o
 .data.gEfiAdapterInfoNetworkBootGuid
                0x000000000008e940       0x10 /tmp/Shell.dll.q6gkOU.ltrans8.ltrans.o
 .data.gEfiAdapterInfoSanMacAddressGuid
                0x000000000008e950       0x10 /tmp/Shell.dll.q6gkOU.ltrans8.ltrans.o
 .data.gEfiAdapterInfoUndiIpv6SupportGuid
                0x000000000008e960       0x10 /tmp/Shell.dll.q6gkOU.ltrans8.ltrans.o
 .data.gEfiArpProtocolGuid
                0x000000000008e970       0x10 /tmp/Shell.dll.q6gkOU.ltrans8.ltrans.o
 .data.gEfiArpServiceBindingProtocolGuid
                0x000000000008e980       0x10 /tmp/Shell.dll.q6gkOU.ltrans8.ltrans.o
 .data.gEfiAtaPassThruProtocolGuid
                0x000000000008e990       0x10 /tmp/Shell.dll.q6gkOU.ltrans8.ltrans.o
 .data.gEfiAuthenticationInfoProtocolGuid
                0x000000000008e9a0       0x10 /tmp/Shell.dll.q6gkOU.ltrans8.ltrans.o
 .data.gEfiBdsArchProtocolGuid
                0x000000000008e9b0       0x10 /tmp/Shell.dll.q6gkOU.ltrans8.ltrans.o
 .data.gEfiBisProtocolGuid
                0x000000000008e9c0       0x10 /tmp/Shell.dll.q6gkOU.ltrans8.ltrans.o
 .data.gEfiBlockIo2ProtocolGuid
                0x000000000008e9d0       0x10 /tmp/Shell.dll.q6gkOU.ltrans8.ltrans.o
 .data.gEfiBlockIoCryptoProtocolGuid
                0x000000000008e9e0       0x10 /tmp/Shell.dll.q6gkOU.ltrans8.ltrans.o
 .data.gEfiBluetoothAttributeProtocolGuid
                0x000000000008e9f0       0x10 /tmp/Shell.dll.q6gkOU.ltrans8.ltrans.o
 .data.gEfiBluetoothAttributeServiceBindingProtocolGuid
                0x000000000008ea00       0x10 /tmp/Shell.dll.q6gkOU.ltrans8.ltrans.o
 .data.gEfiBluetoothConfigProtocolGuid
                0x000000000008ea10       0x10 /tmp/Shell.dll.q6gkOU.ltrans8.ltrans.o
 .data.gEfiBluetoothHcProtocolGuid
                0x000000000008ea20       0x10 /tmp/Shell.dll.q6gkOU.ltrans8.ltrans.o
 .data.gEfiBluetoothIoProtocolGuid
                0x000000000008ea30       0x10 /tmp/Shell.dll.q6gkOU.ltrans8.ltrans.o
 .data.gEfiBluetoothIoServiceBindingProtocolGuid
                0x000000000008ea40       0x10 /tmp/Shell.dll.q6gkOU.ltrans8.ltrans.o
 .data.gEfiBluetoothLeConfigProtocolGuid
                0x000000000008ea50       0x10 /tmp/Shell.dll.q6gkOU.ltrans8.ltrans.o
 .data.gEfiBootManagerPolicyProtocolGuid
                0x000000000008ea60       0x10 /tmp/Shell.dll.q6gkOU.ltrans8.ltrans.o
 .data.gEfiBusSpecificDriverOverrideProtocolGuid
                0x000000000008ea70       0x10 /tmp/Shell.dll.q6gkOU.ltrans8.ltrans.o
 .data.gEfiCapsuleArchProtocolGuid
                0x000000000008ea80       0x10 /tmp/Shell.dll.q6gkOU.ltrans8.ltrans.o
 .data.gEfiConfigKeywordHandlerProtocolGuid
                0x000000000008ea90       0x10 /tmp/Shell.dll.q6gkOU.ltrans8.ltrans.o
 .data.gEfiConsoleInDeviceGuid
                0x000000000008eaa0       0x10 /tmp/Shell.dll.q6gkOU.ltrans8.ltrans.o
 .data.gEfiConsoleOutDeviceGuid
                0x000000000008eab0       0x10 /tmp/Shell.dll.q6gkOU.ltrans8.ltrans.o
 .data.gEfiCpuArchProtocolGuid
                0x000000000008eac0       0x10 /tmp/Shell.dll.q6gkOU.ltrans8.ltrans.o
 .data.gEfiDebugPortProtocolGuid
                0x000000000008ead0       0x10 /tmp/Shell.dll.q6gkOU.ltrans8.ltrans.o
                0x000000000008ead0                gEfiDebugPortProtocolGuid
 .data.gEfiDebugSupportProtocolGuid
                0x000000000008eae0       0x10 /tmp/Shell.dll.q6gkOU.ltrans8.ltrans.o
 .data.gEfiDeferredImageLoadProtocolGuid
                0x000000000008eaf0       0x10 /tmp/Shell.dll.q6gkOU.ltrans8.ltrans.o
 .data.gEfiDeviceIoProtocolGuid
                0x000000000008eb00       0x10 /tmp/Shell.dll.q6gkOU.ltrans8.ltrans.o
 .data.gEfiDevicePathFromTextProtocolGuid
                0x000000000008eb10       0x10 /tmp/Shell.dll.q6gkOU.ltrans8.ltrans.o
 .data.gEfiDevicePathToTextProtocolGuid
                0x000000000008eb20       0x10 /tmp/Shell.dll.q6gkOU.ltrans8.ltrans.o
 .data.gEfiDevicePathUtilitiesProtocolGuid
                0x000000000008eb30       0x10 /tmp/Shell.dll.q6gkOU.ltrans8.ltrans.o
 .data.gEfiDhcp4ProtocolGuid
                0x000000000008eb40       0x10 /tmp/Shell.dll.q6gkOU.ltrans8.ltrans.o
 .data.gEfiDhcp4ServiceBindingProtocolGuid
                0x000000000008eb50       0x10 /tmp/Shell.dll.q6gkOU.ltrans8.ltrans.o
 .data.gEfiDhcp6ProtocolGuid
                0x000000000008eb60       0x10 /tmp/Shell.dll.q6gkOU.ltrans8.ltrans.o
 .data.gEfiDhcp6ServiceBindingProtocolGuid
                0x000000000008eb70       0x10 /tmp/Shell.dll.q6gkOU.ltrans8.ltrans.o
 .data.gEfiDiskInfoProtocolGuid
                0x000000000008eb80       0x10 /tmp/Shell.dll.q6gkOU.ltrans8.ltrans.o
 .data.gEfiDiskIo2ProtocolGuid
                0x000000000008eb90       0x10 /tmp/Shell.dll.q6gkOU.ltrans8.ltrans.o
 .data.gEfiDiskIoProtocolGuid
                0x000000000008eba0       0x10 /tmp/Shell.dll.q6gkOU.ltrans8.ltrans.o
 .data.gEfiDns4ProtocolGuid
                0x000000000008ebb0       0x10 /tmp/Shell.dll.q6gkOU.ltrans8.ltrans.o
 .data.gEfiDns4ServiceBindingProtocolGuid
                0x000000000008ebc0       0x10 /tmp/Shell.dll.q6gkOU.ltrans8.ltrans.o
 .data.gEfiDns6ProtocolGuid
                0x000000000008ebd0       0x10 /tmp/Shell.dll.q6gkOU.ltrans8.ltrans.o
 .data.gEfiDns6ServiceBindingProtocolGuid
                0x000000000008ebe0       0x10 /tmp/Shell.dll.q6gkOU.ltrans8.ltrans.o
 .data.gEfiDriverFamilyOverrideProtocolGuid
                0x000000000008ebf0       0x10 /tmp/Shell.dll.q6gkOU.ltrans8.ltrans.o
 .data.gEfiDriverHealthProtocolGuid
                0x000000000008ec00       0x10 /tmp/Shell.dll.q6gkOU.ltrans8.ltrans.o
 .data.gEfiDriverSupportedEfiVersionProtocolGuid
                0x000000000008ec10       0x10 /tmp/Shell.dll.q6gkOU.ltrans8.ltrans.o
 .data.gEfiDxeMmReadyToLockProtocolGuid
                0x000000000008ec20       0x10 /tmp/Shell.dll.q6gkOU.ltrans8.ltrans.o
 .data.gEfiDxeSmmReadyToLockProtocolGuid
                0x000000000008ec30       0x10 /tmp/Shell.dll.q6gkOU.ltrans8.ltrans.o
 .data.gEfiEapConfigurationProtocolGuid
                0x000000000008ec40       0x10 /tmp/Shell.dll.q6gkOU.ltrans8.ltrans.o
 .data.gEfiEapManagement2ProtocolGuid
                0x000000000008ec50       0x10 /tmp/Shell.dll.q6gkOU.ltrans8.ltrans.o
 .data.gEfiEapManagementProtocolGuid
                0x000000000008ec60       0x10 /tmp/Shell.dll.q6gkOU.ltrans8.ltrans.o
 .data.gEfiEapProtocolGuid
                0x000000000008ec70       0x10 /tmp/Shell.dll.q6gkOU.ltrans8.ltrans.o
 .data.gEfiEbcProtocolGuid
                0x000000000008ec80       0x10 /tmp/Shell.dll.q6gkOU.ltrans8.ltrans.o
 .data.gEfiEdidActiveProtocolGuid
                0x000000000008ec90       0x10 /tmp/Shell.dll.q6gkOU.ltrans8.ltrans.o
                0x000000000008ec90                gEfiEdidActiveProtocolGuid
 .data.gEfiEdidDiscoveredProtocolGuid
                0x000000000008eca0       0x10 /tmp/Shell.dll.q6gkOU.ltrans8.ltrans.o
                0x000000000008eca0                gEfiEdidDiscoveredProtocolGuid
 .data.gEfiEdidOverrideProtocolGuid
                0x000000000008ecb0       0x10 /tmp/Shell.dll.q6gkOU.ltrans8.ltrans.o
 .data.gEfiEraseBlockProtocolGuid
                0x000000000008ecc0       0x10 /tmp/Shell.dll.q6gkOU.ltrans8.ltrans.o
 .data.gEfiExtScsiPassThruProtocolGuid
                0x000000000008ecd0       0x10 /tmp/Shell.dll.q6gkOU.ltrans8.ltrans.o
 .data.gEfiFileInfoGuid
                0x000000000008ece0       0x10 /tmp/Shell.dll.q6gkOU.ltrans8.ltrans.o
                0x000000000008ece0                gEfiFileInfoGuid
 .data.gEfiFirmwareManagementProtocolGuid
                0x000000000008ecf0       0x10 /tmp/Shell.dll.q6gkOU.ltrans8.ltrans.o
 .data.gEfiFirmwareVolumeBlock2ProtocolGuid
                0x000000000008ed00       0x10 /tmp/Shell.dll.q6gkOU.ltrans8.ltrans.o
 .data.gEfiFirmwareVolumeBlockProtocolGuid
                0x000000000008ed10       0x10 /tmp/Shell.dll.q6gkOU.ltrans8.ltrans.o
 .data.gEfiFormBrowser2ProtocolGuid
                0x000000000008ed20       0x10 /tmp/Shell.dll.q6gkOU.ltrans8.ltrans.o
 .data.gEfiFtp4ProtocolGuid
                0x000000000008ed30       0x10 /tmp/Shell.dll.q6gkOU.ltrans8.ltrans.o
 .data.gEfiFtp4ServiceBindingProtocolGuid
                0x000000000008ed40       0x10 /tmp/Shell.dll.q6gkOU.ltrans8.ltrans.o
 .data.gEfiGetPcdInfoProtocolGuid
                0x000000000008ed50       0x10 /tmp/Shell.dll.q6gkOU.ltrans8.ltrans.o
 .data.gEfiGraphicsOutputProtocolGuid
                0x000000000008ed60       0x10 /tmp/Shell.dll.q6gkOU.ltrans8.ltrans.o
                0x000000000008ed60                gEfiGraphicsOutputProtocolGuid
 .data.gEfiHash2ProtocolGuid
                0x000000000008ed70       0x10 /tmp/Shell.dll.q6gkOU.ltrans8.ltrans.o
 .data.gEfiHash2ServiceBindingProtocolGuid
                0x000000000008ed80       0x10 /tmp/Shell.dll.q6gkOU.ltrans8.ltrans.o
 .data.gEfiHashProtocolGuid
                0x000000000008ed90       0x10 /tmp/Shell.dll.q6gkOU.ltrans8.ltrans.o
 .data.gEfiHashServiceBindingProtocolGuid
                0x000000000008eda0       0x10 /tmp/Shell.dll.q6gkOU.ltrans8.ltrans.o
 .data.gEfiHiiConfigRoutingProtocolGuid
                0x000000000008edb0       0x10 /tmp/Shell.dll.q6gkOU.ltrans8.ltrans.o
                0x000000000008edb0                gEfiHiiConfigRoutingProtocolGuid
 .data.gEfiHiiFontProtocolGuid
                0x000000000008edc0       0x10 /tmp/Shell.dll.q6gkOU.ltrans8.ltrans.o
                0x000000000008edc0                gEfiHiiFontProtocolGuid
 .data.gEfiHiiImageDecoderProtocolGuid
                0x000000000008edd0       0x10 /tmp/Shell.dll.q6gkOU.ltrans8.ltrans.o
 .data.gEfiHiiImageExProtocolGuid
                0x000000000008ede0       0x10 /tmp/Shell.dll.q6gkOU.ltrans8.ltrans.o
 .data.gEfiHiiImageProtocolGuid
                0x000000000008edf0       0x10 /tmp/Shell.dll.q6gkOU.ltrans8.ltrans.o
                0x000000000008edf0                gEfiHiiImageProtocolGuid
 .data.gEfiHiiPopupProtocolGuid
                0x000000000008ee00       0x10 /tmp/Shell.dll.q6gkOU.ltrans8.ltrans.o
 .data.gEfiHiiStringProtocolGuid
                0x000000000008ee10       0x10 /tmp/Shell.dll.q6gkOU.ltrans8.ltrans.o
                0x000000000008ee10                gEfiHiiStringProtocolGuid
 .data.gEfiHttpBootCallbackProtocolGuid
                0x000000000008ee20       0x10 /tmp/Shell.dll.q6gkOU.ltrans8.ltrans.o
 .data.gEfiHttpProtocolGuid
                0x000000000008ee30       0x10 /tmp/Shell.dll.q6gkOU.ltrans8.ltrans.o
 .data.gEfiHttpServiceBindingProtocolGuid
                0x000000000008ee40       0x10 /tmp/Shell.dll.q6gkOU.ltrans8.ltrans.o
 .data.gEfiHttpUtilitiesProtocolGuid
                0x000000000008ee50       0x10 /tmp/Shell.dll.q6gkOU.ltrans8.ltrans.o
 .data.gEfiI2cBusConfigurationManagementProtocolGuid
                0x000000000008ee60       0x10 /tmp/Shell.dll.q6gkOU.ltrans8.ltrans.o
 .data.gEfiI2cEnumerateProtocolGuid
                0x000000000008ee70       0x10 /tmp/Shell.dll.q6gkOU.ltrans8.ltrans.o
 .data.gEfiI2cHostProtocolGuid
                0x000000000008ee80       0x10 /tmp/Shell.dll.q6gkOU.ltrans8.ltrans.o
 .data.gEfiI2cIoProtocolGuid
                0x000000000008ee90       0x10 /tmp/Shell.dll.q6gkOU.ltrans8.ltrans.o
 .data.gEfiI2cMasterProtocolGuid
                0x000000000008eea0       0x10 /tmp/Shell.dll.q6gkOU.ltrans8.ltrans.o
 .data.gEfiIScsiInitiatorNameProtocolGuid
                0x000000000008eeb0       0x10 /tmp/Shell.dll.q6gkOU.ltrans8.ltrans.o
 .data.gEfiIdeControllerInitProtocolGuid
                0x000000000008eec0       0x10 /tmp/Shell.dll.q6gkOU.ltrans8.ltrans.o
 .data.gEfiIncompatiblePciDeviceSupportProtocolGuid
                0x000000000008eed0       0x10 /tmp/Shell.dll.q6gkOU.ltrans8.ltrans.o
 .data.gEfiIp4ConfigProtocolGuid
                0x000000000008eee0       0x10 /tmp/Shell.dll.q6gkOU.ltrans8.ltrans.o
 .data.gEfiIpSec2ProtocolGuid
                0x000000000008eef0       0x10 /tmp/Shell.dll.q6gkOU.ltrans8.ltrans.o
 .data.gEfiIpSecConfigProtocolGuid
                0x000000000008ef00       0x10 /tmp/Shell.dll.q6gkOU.ltrans8.ltrans.o
 .data.gEfiIpSecProtocolGuid
                0x000000000008ef10       0x10 /tmp/Shell.dll.q6gkOU.ltrans8.ltrans.o
 .data.gEfiIsaHcProtocolGuid
                0x000000000008ef20       0x10 /tmp/Shell.dll.q6gkOU.ltrans8.ltrans.o
 .data.gEfiIsaHcServiceBindingProtocolGuid
                0x000000000008ef30       0x10 /tmp/Shell.dll.q6gkOU.ltrans8.ltrans.o
 .data.gEfiKmsProtocolGuid
                0x000000000008ef40       0x10 /tmp/Shell.dll.q6gkOU.ltrans8.ltrans.o
 .data.gEfiLegacyRegion2ProtocolGuid
                0x000000000008ef50       0x10 /tmp/Shell.dll.q6gkOU.ltrans8.ltrans.o
 .data.gEfiLoadFile2ProtocolGuid
                0x000000000008ef60       0x10 /tmp/Shell.dll.q6gkOU.ltrans8.ltrans.o
 .data.gEfiLoadFileProtocolGuid
                0x000000000008ef70       0x10 /tmp/Shell.dll.q6gkOU.ltrans8.ltrans.o
 .data.gEfiLoadedImageDevicePathProtocolGuid
                0x000000000008ef80       0x10 /tmp/Shell.dll.q6gkOU.ltrans8.ltrans.o
 .data.gEfiManagedNetworkProtocolGuid
                0x000000000008ef90       0x10 /tmp/Shell.dll.q6gkOU.ltrans8.ltrans.o
 .data.gEfiManagedNetworkServiceBindingProtocolGuid
                0x000000000008efa0       0x10 /tmp/Shell.dll.q6gkOU.ltrans8.ltrans.o
 .data.gEfiMetronomeArchProtocolGuid
                0x000000000008efb0       0x10 /tmp/Shell.dll.q6gkOU.ltrans8.ltrans.o
 .data.gEfiMmAccessProtocolGuid
                0x000000000008efc0       0x10 /tmp/Shell.dll.q6gkOU.ltrans8.ltrans.o
 .data.gEfiMmBaseProtocolGuid
                0x000000000008efd0       0x10 /tmp/Shell.dll.q6gkOU.ltrans8.ltrans.o
 .data.gEfiMmCommunicationProtocolGuid
                0x000000000008efe0       0x10 /tmp/Shell.dll.q6gkOU.ltrans8.ltrans.o
 .data.gEfiMmConfigurationProtocolGuid
                0x000000000008eff0       0x10 /tmp/Shell.dll.q6gkOU.ltrans8.ltrans.o
 .data.gEfiMmControlProtocolGuid
                0x000000000008f000       0x10 /tmp/Shell.dll.q6gkOU.ltrans8.ltrans.o
 .data.gEfiMmCpuIoProtocolGuid
                0x000000000008f010       0x10 /tmp/Shell.dll.q6gkOU.ltrans8.ltrans.o
 .data.gEfiMmCpuProtocolGuid
                0x000000000008f020       0x10 /tmp/Shell.dll.q6gkOU.ltrans8.ltrans.o
 .data.gEfiMmEndOfDxeProtocolGuid
                0x000000000008f030       0x10 /tmp/Shell.dll.q6gkOU.ltrans8.ltrans.o
 .data.gEfiMmGpiDispatchProtocolGuid
                0x000000000008f040       0x10 /tmp/Shell.dll.q6gkOU.ltrans8.ltrans.o
 .data.gEfiMmIoTrapDispatchProtocolGuid
                0x000000000008f050       0x10 /tmp/Shell.dll.q6gkOU.ltrans8.ltrans.o
 .data.gEfiMmPciRootBridgeIoProtocolGuid
                0x000000000008f060       0x10 /tmp/Shell.dll.q6gkOU.ltrans8.ltrans.o
 .data.gEfiMmPeriodicTimerDispatchProtocolGuid
                0x000000000008f070       0x10 /tmp/Shell.dll.q6gkOU.ltrans8.ltrans.o
 .data.gEfiMmPowerButtonDispatchProtocolGuid
                0x000000000008f080       0x10 /tmp/Shell.dll.q6gkOU.ltrans8.ltrans.o
 .data.gEfiMmReadyToLockProtocolGuid
                0x000000000008f090       0x10 /tmp/Shell.dll.q6gkOU.ltrans8.ltrans.o
 .data.gEfiMmRscHandlerProtocolGuid
                0x000000000008f0a0       0x10 /tmp/Shell.dll.q6gkOU.ltrans8.ltrans.o
 .data.gEfiMmStandbyButtonDispatchProtocolGuid
                0x000000000008f0b0       0x10 /tmp/Shell.dll.q6gkOU.ltrans8.ltrans.o
 .data.gEfiMmStatusCodeProtocolGuid
                0x000000000008f0c0       0x10 /tmp/Shell.dll.q6gkOU.ltrans8.ltrans.o
 .data.gEfiMmSwDispatchProtocolGuid
                0x000000000008f0d0       0x10 /tmp/Shell.dll.q6gkOU.ltrans8.ltrans.o
 .data.gEfiMmSxDispatchProtocolGuid
                0x000000000008f0e0       0x10 /tmp/Shell.dll.q6gkOU.ltrans8.ltrans.o
 .data.gEfiMmUsbDispatchProtocolGuid
                0x000000000008f0f0       0x10 /tmp/Shell.dll.q6gkOU.ltrans8.ltrans.o
 .data.gEfiMonotonicCounterArchProtocolGuid
                0x000000000008f100       0x10 /tmp/Shell.dll.q6gkOU.ltrans8.ltrans.o
 .data.gEfiMpServiceProtocolGuid
                0x000000000008f110       0x10 /tmp/Shell.dll.q6gkOU.ltrans8.ltrans.o
 .data.gEfiMtftp4ProtocolGuid
                0x000000000008f120       0x10 /tmp/Shell.dll.q6gkOU.ltrans8.ltrans.o
 .data.gEfiMtftp4ServiceBindingProtocolGuid
                0x000000000008f130       0x10 /tmp/Shell.dll.q6gkOU.ltrans8.ltrans.o
 .data.gEfiMtftp6ProtocolGuid
                0x000000000008f140       0x10 /tmp/Shell.dll.q6gkOU.ltrans8.ltrans.o
 .data.gEfiMtftp6ServiceBindingProtocolGuid
                0x000000000008f150       0x10 /tmp/Shell.dll.q6gkOU.ltrans8.ltrans.o
 .data.gEfiNetworkInterfaceIdentifierProtocolGuid
                0x000000000008f160       0x10 /tmp/Shell.dll.q6gkOU.ltrans8.ltrans.o
 .data.gEfiNetworkInterfaceIdentifierProtocolGuid_31
                0x000000000008f170       0x10 /tmp/Shell.dll.q6gkOU.ltrans8.ltrans.o
 .data.gEfiNvmExpressPassThruProtocolGuid
                0x000000000008f180       0x10 /tmp/Shell.dll.q6gkOU.ltrans8.ltrans.o
 .data.gEfiPartTypeLegacyMbrGuid
                0x000000000008f190       0x10 /tmp/Shell.dll.q6gkOU.ltrans8.ltrans.o
 .data.gEfiPartTypeSystemPartGuid
                0x000000000008f1a0       0x10 /tmp/Shell.dll.q6gkOU.ltrans8.ltrans.o
 .data.gEfiPartitionInfoProtocolGuid
                0x000000000008f1b0       0x10 /tmp/Shell.dll.q6gkOU.ltrans8.ltrans.o
 .data.gEfiPcAnsiGuid
                0x000000000008f1c0       0x10 /tmp/Shell.dll.q6gkOU.ltrans8.ltrans.o
                0x000000000008f1c0                gEfiPcAnsiGuid
 .data.gEfiPcdProtocolGuid
                0x000000000008f1d0       0x10 /tmp/Shell.dll.q6gkOU.ltrans8.ltrans.o
 .data.gEfiPciEnumerationCompleteProtocolGuid
                0x000000000008f1e0       0x10 /tmp/Shell.dll.q6gkOU.ltrans8.ltrans.o
 .data.gEfiPciHostBridgeResourceAllocationProtocolGuid
                0x000000000008f1f0       0x10 /tmp/Shell.dll.q6gkOU.ltrans8.ltrans.o
 .data.gEfiPciHotPlugInitProtocolGuid
                0x000000000008f200       0x10 /tmp/Shell.dll.q6gkOU.ltrans8.ltrans.o
 .data.gEfiPciHotPlugRequestProtocolGuid
                0x000000000008f210       0x10 /tmp/Shell.dll.q6gkOU.ltrans8.ltrans.o
 .data.gEfiPciOverrideProtocolGuid
                0x000000000008f220       0x10 /tmp/Shell.dll.q6gkOU.ltrans8.ltrans.o
 .data.gEfiPciPlatformProtocolGuid
                0x000000000008f230       0x10 /tmp/Shell.dll.q6gkOU.ltrans8.ltrans.o
 .data.gEfiPkcs7VerifyProtocolGuid
                0x000000000008f240       0x10 /tmp/Shell.dll.q6gkOU.ltrans8.ltrans.o
 .data.gEfiPlatformDriverOverrideProtocolGuid
                0x000000000008f250       0x10 /tmp/Shell.dll.q6gkOU.ltrans8.ltrans.o
 .data.gEfiPlatformToDriverConfigurationProtocolGuid
                0x000000000008f260       0x10 /tmp/Shell.dll.q6gkOU.ltrans8.ltrans.o
 .data.gEfiPxeBaseCodeCallbackProtocolGuid
                0x000000000008f270       0x10 /tmp/Shell.dll.q6gkOU.ltrans8.ltrans.o
 .data.gEfiPxeBaseCodeProtocolGuid
                0x000000000008f280       0x10 /tmp/Shell.dll.q6gkOU.ltrans8.ltrans.o
 .data.gEfiRamDiskProtocolGuid
                0x000000000008f290       0x10 /tmp/Shell.dll.q6gkOU.ltrans8.ltrans.o
 .data.gEfiRealTimeClockArchProtocolGuid
                0x000000000008f2a0       0x10 /tmp/Shell.dll.q6gkOU.ltrans8.ltrans.o
 .data.gEfiRegularExpressionProtocolGuid
                0x000000000008f2b0       0x10 /tmp/Shell.dll.q6gkOU.ltrans8.ltrans.o
 .data.gEfiResetArchProtocolGuid
                0x000000000008f2c0       0x10 /tmp/Shell.dll.q6gkOU.ltrans8.ltrans.o
 .data.gEfiResetNotificationProtocolGuid
                0x000000000008f2d0       0x10 /tmp/Shell.dll.q6gkOU.ltrans8.ltrans.o
 .data.gEfiRestProtocolGuid
                0x000000000008f2e0       0x10 /tmp/Shell.dll.q6gkOU.ltrans8.ltrans.o
 .data.gEfiRngProtocolGuid
                0x000000000008f2f0       0x10 /tmp/Shell.dll.q6gkOU.ltrans8.ltrans.o
 .data.gEfiRscHandlerProtocolGuid
                0x000000000008f300       0x10 /tmp/Shell.dll.q6gkOU.ltrans8.ltrans.o
 .data.gEfiRuntimeArchProtocolGuid
                0x000000000008f310       0x10 /tmp/Shell.dll.q6gkOU.ltrans8.ltrans.o
 .data.gEfiS3SaveStateProtocolGuid
                0x000000000008f320       0x10 /tmp/Shell.dll.q6gkOU.ltrans8.ltrans.o
 .data.gEfiS3SmmSaveStateProtocolGuid
                0x000000000008f330       0x10 /tmp/Shell.dll.q6gkOU.ltrans8.ltrans.o
 .data.gEfiSasDevicePathGuid
                0x000000000008f340       0x10 /tmp/Shell.dll.q6gkOU.ltrans8.ltrans.o
                0x000000000008f340                gEfiSasDevicePathGuid
 .data.gEfiScsiIoProtocolGuid
                0x000000000008f350       0x10 /tmp/Shell.dll.q6gkOU.ltrans8.ltrans.o
 .data.gEfiScsiPassThruProtocolGuid
                0x000000000008f360       0x10 /tmp/Shell.dll.q6gkOU.ltrans8.ltrans.o
 .data.gEfiSdMmcPassThruProtocolGuid
                0x000000000008f370       0x10 /tmp/Shell.dll.q6gkOU.ltrans8.ltrans.o
 .data.gEfiSecurity2ArchProtocolGuid
                0x000000000008f380       0x10 /tmp/Shell.dll.q6gkOU.ltrans8.ltrans.o
 .data.gEfiSecurityArchProtocolGuid
                0x000000000008f390       0x10 /tmp/Shell.dll.q6gkOU.ltrans8.ltrans.o
 .data.gEfiSecurityPolicyProtocolGuid
                0x000000000008f3a0       0x10 /tmp/Shell.dll.q6gkOU.ltrans8.ltrans.o
 .data.gEfiSimpleTextInProtocolGuid
                0x000000000008f3b0       0x10 /tmp/Shell.dll.q6gkOU.ltrans8.ltrans.o
                0x000000000008f3b0                gEfiSimpleTextInProtocolGuid
 .data.gEfiSimpleTextOutProtocolGuid
                0x000000000008f3c0       0x10 /tmp/Shell.dll.q6gkOU.ltrans8.ltrans.o
                0x000000000008f3c0                gEfiSimpleTextOutProtocolGuid
 .data.gEfiSioControlProtocolGuid
                0x000000000008f3d0       0x10 /tmp/Shell.dll.q6gkOU.ltrans8.ltrans.o
 .data.gEfiSioProtocolGuid
                0x000000000008f3e0       0x10 /tmp/Shell.dll.q6gkOU.ltrans8.ltrans.o
 .data.gEfiSmartCardEdgeProtocolGuid
                0x000000000008f3f0       0x10 /tmp/Shell.dll.q6gkOU.ltrans8.ltrans.o
 .data.gEfiSmartCardReaderProtocolGuid
                0x000000000008f400       0x10 /tmp/Shell.dll.q6gkOU.ltrans8.ltrans.o
 .data.gEfiSmbiosProtocolGuid
                0x000000000008f410       0x10 /tmp/Shell.dll.q6gkOU.ltrans8.ltrans.o
 .data.gEfiSmbusHcProtocolGuid
                0x000000000008f420       0x10 /tmp/Shell.dll.q6gkOU.ltrans8.ltrans.o
 .data.gEfiSmmAccess2ProtocolGuid
                0x000000000008f430       0x10 /tmp/Shell.dll.q6gkOU.ltrans8.ltrans.o
 .data.gEfiSmmBase2ProtocolGuid
                0x000000000008f440       0x10 /tmp/Shell.dll.q6gkOU.ltrans8.ltrans.o
 .data.gEfiSmmCommunicationProtocolGuid
                0x000000000008f450       0x10 /tmp/Shell.dll.q6gkOU.ltrans8.ltrans.o
 .data.gEfiSmmConfigurationProtocolGuid
                0x000000000008f460       0x10 /tmp/Shell.dll.q6gkOU.ltrans8.ltrans.o
 .data.gEfiSmmControl2ProtocolGuid
                0x000000000008f470       0x10 /tmp/Shell.dll.q6gkOU.ltrans8.ltrans.o
 .data.gEfiSmmCpuIo2ProtocolGuid
                0x000000000008f480       0x10 /tmp/Shell.dll.q6gkOU.ltrans8.ltrans.o
 .data.gEfiSmmCpuProtocolGuid
                0x000000000008f490       0x10 /tmp/Shell.dll.q6gkOU.ltrans8.ltrans.o
 .data.gEfiSmmEndOfDxeProtocolGuid
                0x000000000008f4a0       0x10 /tmp/Shell.dll.q6gkOU.ltrans8.ltrans.o
 .data.gEfiSmmGpiDispatch2ProtocolGuid
                0x000000000008f4b0       0x10 /tmp/Shell.dll.q6gkOU.ltrans8.ltrans.o
 .data.gEfiSmmIoTrapDispatch2ProtocolGuid
                0x000000000008f4c0       0x10 /tmp/Shell.dll.q6gkOU.ltrans8.ltrans.o
 .data.gEfiSmmPciRootBridgeIoProtocolGuid
                0x000000000008f4d0       0x10 /tmp/Shell.dll.q6gkOU.ltrans8.ltrans.o
 .data.gEfiSmmPeriodicTimerDispatch2ProtocolGuid
                0x000000000008f4e0       0x10 /tmp/Shell.dll.q6gkOU.ltrans8.ltrans.o
 .data.gEfiSmmPowerButtonDispatch2ProtocolGuid
                0x000000000008f4f0       0x10 /tmp/Shell.dll.q6gkOU.ltrans8.ltrans.o
 .data.gEfiSmmReadyToLockProtocolGuid
                0x000000000008f500       0x10 /tmp/Shell.dll.q6gkOU.ltrans8.ltrans.o
 .data.gEfiSmmRscHandlerProtocolGuid
                0x000000000008f510       0x10 /tmp/Shell.dll.q6gkOU.ltrans8.ltrans.o
 .data.gEfiSmmStandbyButtonDispatch2ProtocolGuid
                0x000000000008f520       0x10 /tmp/Shell.dll.q6gkOU.ltrans8.ltrans.o
 .data.gEfiSmmStatusCodeProtocolGuid
                0x000000000008f530       0x10 /tmp/Shell.dll.q6gkOU.ltrans8.ltrans.o
 .data.gEfiSmmSwDispatch2ProtocolGuid
                0x000000000008f540       0x10 /tmp/Shell.dll.q6gkOU.ltrans8.ltrans.o
 .data.gEfiSmmSxDispatch2ProtocolGuid
                0x000000000008f550       0x10 /tmp/Shell.dll.q6gkOU.ltrans8.ltrans.o
 .data.gEfiSmmUsbDispatch2ProtocolGuid
                0x000000000008f560       0x10 /tmp/Shell.dll.q6gkOU.ltrans8.ltrans.o
 .data.gEfiStandardErrorDeviceGuid
                0x000000000008f570       0x10 /tmp/Shell.dll.q6gkOU.ltrans8.ltrans.o
 .data.gEfiStatusCodeRuntimeProtocolGuid
                0x000000000008f580       0x10 /tmp/Shell.dll.q6gkOU.ltrans8.ltrans.o
 .data.gEfiStorageSecurityCommandProtocolGuid
                0x000000000008f590       0x10 /tmp/Shell.dll.q6gkOU.ltrans8.ltrans.o
 .data.gEfiSupplicantProtocolGuid
                0x000000000008f5a0       0x10 /tmp/Shell.dll.q6gkOU.ltrans8.ltrans.o
 .data.gEfiSupplicantServiceBindingProtocolGuid
                0x000000000008f5b0       0x10 /tmp/Shell.dll.q6gkOU.ltrans8.ltrans.o
 .data.gEfiTapeIoProtocolGuid
                0x000000000008f5c0       0x10 /tmp/Shell.dll.q6gkOU.ltrans8.ltrans.o
 .data.gEfiTcg2ProtocolGuid
                0x000000000008f5d0       0x10 /tmp/Shell.dll.q6gkOU.ltrans8.ltrans.o
 .data.gEfiTcgProtocolGuid
                0x000000000008f5e0       0x10 /tmp/Shell.dll.q6gkOU.ltrans8.ltrans.o
 .data.gEfiTcp4ProtocolGuid
                0x000000000008f5f0       0x10 /tmp/Shell.dll.q6gkOU.ltrans8.ltrans.o
 .data.gEfiTcp4ServiceBindingProtocolGuid
                0x000000000008f600       0x10 /tmp/Shell.dll.q6gkOU.ltrans8.ltrans.o
 .data.gEfiTcp6ProtocolGuid
                0x000000000008f610       0x10 /tmp/Shell.dll.q6gkOU.ltrans8.ltrans.o
 .data.gEfiTcp6ServiceBindingProtocolGuid
                0x000000000008f620       0x10 /tmp/Shell.dll.q6gkOU.ltrans8.ltrans.o
 .data.gEfiTimerArchProtocolGuid
                0x000000000008f630       0x10 /tmp/Shell.dll.q6gkOU.ltrans8.ltrans.o
 .data.gEfiTimestampProtocolGuid
                0x000000000008f640       0x10 /tmp/Shell.dll.q6gkOU.ltrans8.ltrans.o
 .data.gEfiTlsConfigurationProtocolGuid
                0x000000000008f650       0x10 /tmp/Shell.dll.q6gkOU.ltrans8.ltrans.o
 .data.gEfiTlsProtocolGuid
                0x000000000008f660       0x10 /tmp/Shell.dll.q6gkOU.ltrans8.ltrans.o
 .data.gEfiTlsServiceBindingProtocolGuid
                0x000000000008f670       0x10 /tmp/Shell.dll.q6gkOU.ltrans8.ltrans.o
 .data.gEfiUdp4ProtocolGuid
                0x000000000008f680       0x10 /tmp/Shell.dll.q6gkOU.ltrans8.ltrans.o
 .data.gEfiUdp4ServiceBindingProtocolGuid
                0x000000000008f690       0x10 /tmp/Shell.dll.q6gkOU.ltrans8.ltrans.o
 .data.gEfiUdp6ProtocolGuid
                0x000000000008f6a0       0x10 /tmp/Shell.dll.q6gkOU.ltrans8.ltrans.o
 .data.gEfiUdp6ServiceBindingProtocolGuid
                0x000000000008f6b0       0x10 /tmp/Shell.dll.q6gkOU.ltrans8.ltrans.o
 .data.gEfiUfsDeviceConfigProtocolGuid
                0x000000000008f6c0       0x10 /tmp/Shell.dll.q6gkOU.ltrans8.ltrans.o
 .data.gEfiUgaDrawProtocolGuid
                0x000000000008f6d0       0x10 /tmp/Shell.dll.q6gkOU.ltrans8.ltrans.o
 .data.gEfiUgaIoProtocolGuid
                0x000000000008f6e0       0x10 /tmp/Shell.dll.q6gkOU.ltrans8.ltrans.o
 .data.gEfiUnicodeCollation2ProtocolGuid
                0x000000000008f6f0       0x10 /tmp/Shell.dll.q6gkOU.ltrans8.ltrans.o
                0x000000000008f6f0                gEfiUnicodeCollation2ProtocolGuid
 .data.gEfiUnicodeCollationProtocolGuid
                0x000000000008f700       0x10 /tmp/Shell.dll.q6gkOU.ltrans8.ltrans.o
                0x000000000008f700                gEfiUnicodeCollationProtocolGuid
 .data.gEfiUsb2HcProtocolGuid
                0x000000000008f710       0x10 /tmp/Shell.dll.q6gkOU.ltrans8.ltrans.o
 .data.gEfiUsbFunctionIoProtocolGuid
                0x000000000008f720       0x10 /tmp/Shell.dll.q6gkOU.ltrans8.ltrans.o
 .data.gEfiUsbHcProtocolGuid
                0x000000000008f730       0x10 /tmp/Shell.dll.q6gkOU.ltrans8.ltrans.o
 .data.gEfiUsbIoProtocolGuid
                0x000000000008f740       0x10 /tmp/Shell.dll.q6gkOU.ltrans8.ltrans.o
 .data.gEfiUserCredential2ProtocolGuid
                0x000000000008f750       0x10 /tmp/Shell.dll.q6gkOU.ltrans8.ltrans.o
 .data.gEfiUserCredentialProtocolGuid
                0x000000000008f760       0x10 /tmp/Shell.dll.q6gkOU.ltrans8.ltrans.o
 .data.gEfiUserManagerProtocolGuid
                0x000000000008f770       0x10 /tmp/Shell.dll.q6gkOU.ltrans8.ltrans.o
 .data.gEfiVT100Guid
                0x000000000008f780       0x10 /tmp/Shell.dll.q6gkOU.ltrans8.ltrans.o
                0x000000000008f780                gEfiVT100Guid
 .data.gEfiVT100PlusGuid
                0x000000000008f790       0x10 /tmp/Shell.dll.q6gkOU.ltrans8.ltrans.o
                0x000000000008f790                gEfiVT100PlusGuid
 .data.gEfiVTUTF8Guid
                0x000000000008f7a0       0x10 /tmp/Shell.dll.q6gkOU.ltrans8.ltrans.o
                0x000000000008f7a0                gEfiVTUTF8Guid
 .data.gEfiVariableArchProtocolGuid
                0x000000000008f7b0       0x10 /tmp/Shell.dll.q6gkOU.ltrans8.ltrans.o
 .data.gEfiVariableWriteArchProtocolGuid
                0x000000000008f7c0       0x10 /tmp/Shell.dll.q6gkOU.ltrans8.ltrans.o
 .data.gEfiVlanConfigProtocolGuid
                0x000000000008f7d0       0x10 /tmp/Shell.dll.q6gkOU.ltrans8.ltrans.o
 .data.gEfiWatchdogTimerArchProtocolGuid
                0x000000000008f7e0       0x10 /tmp/Shell.dll.q6gkOU.ltrans8.ltrans.o
 .data.gEfiWiFi2ProtocolGuid
                0x000000000008f7f0       0x10 /tmp/Shell.dll.q6gkOU.ltrans8.ltrans.o
 .data.gEfiWiFiProtocolGuid
                0x000000000008f800       0x10 /tmp/Shell.dll.q6gkOU.ltrans8.ltrans.o
 .data.gGetPcdInfoProtocolGuid
                0x000000000008f810       0x10 /tmp/Shell.dll.q6gkOU.ltrans8.ltrans.o
 .data.gPcdProtocolGuid
                0x000000000008f820       0x10 /tmp/Shell.dll.q6gkOU.ltrans8.ltrans.o
 .data.mDayOfMonth
                0x000000000008f830       0x60 /tmp/Shell.dll.q6gkOU.ltrans8.ltrans.o
 .data.UefiHandleParsingLibStrings
                0x000000000008f890     0x45d1 /tmp/Shell.dll.q6gkOU.ltrans9.ltrans.o
 *fill*         0x0000000000093e61        0x3 
 .data.gEfiPersistentVirtualCdGuid
                0x0000000000093e64       0x10 /tmp/Shell.dll.q6gkOU.ltrans9.ltrans.o
 .data.gEfiPersistentVirtualDiskGuid
                0x0000000000093e74       0x10 /tmp/Shell.dll.q6gkOU.ltrans9.ltrans.o
 .data.gEfiUartDevicePathGuid
                0x0000000000093e84       0x10 /tmp/Shell.dll.q6gkOU.ltrans9.ltrans.o
 .data.gEfiVirtualCdGuid
                0x0000000000093e94       0x10 /tmp/Shell.dll.q6gkOU.ltrans9.ltrans.o
 .data.gEfiVirtualDiskGuid
                0x0000000000093ea4       0x10 /tmp/Shell.dll.q6gkOU.ltrans9.ltrans.o
 .data.gHandleParsingHiiGuid
                0x0000000000093eb4       0x10 /tmp/Shell.dll.q6gkOU.ltrans9.ltrans.o
 *fill*         0x0000000000093ec4        0x4 
 .data.FileInterfaceNulFile
                0x0000000000093ec8       0x78 /tmp/Shell.dll.q6gkOU.ltrans10.ltrans.o
                0x0000000000093ec8                FileInterfaceNulFile
 .data.FileInterfaceStdErr
                0x0000000000093f40       0x78 /tmp/Shell.dll.q6gkOU.ltrans10.ltrans.o
                0x0000000000093f40                FileInterfaceStdErr
 .data.FileInterfaceStdOut
                0x0000000000093fb8       0x78 /tmp/Shell.dll.q6gkOU.ltrans10.ltrans.o
                0x0000000000093fb8                FileInterfaceStdOut
 .data.gShellAliasGuid
                0x0000000000094030       0x10 /tmp/Shell.dll.q6gkOU.ltrans10.ltrans.o
 .data.gShellVariableGuid
                0x0000000000094040       0x10 /tmp/Shell.dll.q6gkOU.ltrans10.ltrans.o
                0x0000000000094040                gShellVariableGuid
 .data.FileInterfaceStdIn
                0x0000000000094050       0x78 /tmp/Shell.dll.q6gkOU.ltrans11.ltrans.o
 .data.ShellStrings
                0x00000000000940c8      0x5b7 /tmp/Shell.dll.q6gkOU.ltrans11.ltrans.o
 .data.UefiShellAcpiViewCommandLibStrings
                0x000000000009467f     0x2704 /tmp/Shell.dll.q6gkOU.ltrans11.ltrans.o
 .data.UefiShellDebug1CommandsLibStrings
                0x0000000000096d83    0x1d394 /tmp/Shell.dll.q6gkOU.ltrans11.ltrans.o
 .data.UefiShellDriver1CommandsLibStrings
                0x00000000000b4117     0xcaee /tmp/Shell.dll.q6gkOU.ltrans11.ltrans.o
 .data.UefiShellLevel1CommandsLibStrings
                0x00000000000c0c05     0x8663 /tmp/Shell.dll.q6gkOU.ltrans11.ltrans.o
 .data.UefiShellLevel2CommandsLibStrings
                0x00000000000c9268    0x138f5 /tmp/Shell.dll.q6gkOU.ltrans11.ltrans.o
 .data.UefiShellLevel3CommandsLibStrings
                0x00000000000dcb5d     0x83a9 /tmp/Shell.dll.q6gkOU.ltrans11.ltrans.o
 .data.UefiShellNetwork1CommandsLibStrings
                0x00000000000e4f06     0x26a1 /tmp/Shell.dll.q6gkOU.ltrans11.ltrans.o
 *fill*         0x00000000000e75a7        0x1 
 .data.__stack_chk_guard
                0x00000000000e75a8        0x8 /tmp/Shell.dll.q6gkOU.ltrans11.ltrans.o
                0x00000000000e75a8                __stack_chk_guard
 .data.gEfiCallerIdGuid
                0x00000000000e75b0       0x10 /tmp/Shell.dll.q6gkOU.ltrans11.ltrans.o
 .data.gEfiDxeServicesTableGuid
                0x00000000000e75c0       0x10 /tmp/Shell.dll.q6gkOU.ltrans11.ltrans.o
 .data.gEfiHobListGuid
                0x00000000000e75d0       0x10 /tmp/Shell.dll.q6gkOU.ltrans11.ltrans.o
 .data.gShellAcpiViewHiiGuid
                0x00000000000e75e0       0x10 /tmp/Shell.dll.q6gkOU.ltrans11.ltrans.o
 .data.gShellDebug1HiiGuid
                0x00000000000e75f0       0x10 /tmp/Shell.dll.q6gkOU.ltrans11.ltrans.o
 .data.gShellDriver1HiiGuid
                0x00000000000e7600       0x10 /tmp/Shell.dll.q6gkOU.ltrans11.ltrans.o
 .data.gShellLevel1HiiGuid
                0x00000000000e7610       0x10 /tmp/Shell.dll.q6gkOU.ltrans11.ltrans.o
 .data.gShellLevel2HiiGuid
                0x00000000000e7620       0x10 /tmp/Shell.dll.q6gkOU.ltrans11.ltrans.o
 .data.gShellLevel3HiiGuid
                0x00000000000e7630       0x10 /tmp/Shell.dll.q6gkOU.ltrans11.ltrans.o
 .data.gShellNetwork1HiiGuid
                0x00000000000e7640       0x10 /tmp/Shell.dll.q6gkOU.ltrans11.ltrans.o
 .data.mShellProtocol
                0x00000000000e7650      0x168 /tmp/Shell.dll.q6gkOU.ltrans11.ltrans.o
 *(.bss .bss.*)
 .bss.AcpiHdrInfo.lto_priv.0
                0x00000000000e77b8       0x48 /tmp/Shell.dll.q6gkOU.ltrans0.ltrans.o
 .bss.AcpiHdrInfo.lto_priv.1
                0x00000000000e7800       0x48 /tmp/Shell.dll.q6gkOU.ltrans0.ltrans.o
 .bss.AcpiHdrInfo.lto_priv.10
                0x00000000000e7848       0x48 /tmp/Shell.dll.q6gkOU.ltrans0.ltrans.o
 .bss.AcpiHdrInfo.lto_priv.11
                0x00000000000e7890       0x48 /tmp/Shell.dll.q6gkOU.ltrans0.ltrans.o
 .bss.AcpiHdrInfo.lto_priv.12
                0x00000000000e78d8       0x48 /tmp/Shell.dll.q6gkOU.ltrans0.ltrans.o
                0x00000000000e78d8                AcpiHdrInfo.lto_priv.12
 .bss.AcpiHdrInfo.lto_priv.2
                0x00000000000e7920       0x48 /tmp/Shell.dll.q6gkOU.ltrans0.ltrans.o
 .bss.AcpiHdrInfo.lto_priv.3
                0x00000000000e7968       0x48 /tmp/Shell.dll.q6gkOU.ltrans0.ltrans.o
 .bss.AcpiHdrInfo.lto_priv.4
                0x00000000000e79b0       0x48 /tmp/Shell.dll.q6gkOU.ltrans0.ltrans.o
 .bss.AcpiHdrInfo.lto_priv.5
                0x00000000000e79f8       0x48 /tmp/Shell.dll.q6gkOU.ltrans0.ltrans.o
 .bss.AcpiHdrInfo.lto_priv.6
                0x00000000000e7a40       0x48 /tmp/Shell.dll.q6gkOU.ltrans0.ltrans.o
 .bss.AcpiHdrInfo.lto_priv.7
                0x00000000000e7a88       0x48 /tmp/Shell.dll.q6gkOU.ltrans0.ltrans.o
 .bss.AcpiHdrInfo.lto_priv.8
                0x00000000000e7ad0       0x48 /tmp/Shell.dll.q6gkOU.ltrans0.ltrans.o
 .bss.AcpiHdrInfo.lto_priv.9
                0x00000000000e7b18       0x48 /tmp/Shell.dll.q6gkOU.ltrans0.ltrans.o
 .bss.DsdtAddress
                0x00000000000e7b60        0x8 /tmp/Shell.dll.q6gkOU.ltrans0.ltrans.o
 .bss.ExtendedPccSubspaceInterruptFlags
                0x00000000000e7b68        0x8 /tmp/Shell.dll.q6gkOU.ltrans0.ltrans.o
 .bss.FadtMinorRevision
                0x00000000000e7b70        0x8 /tmp/Shell.dll.q6gkOU.ltrans0.ltrans.o
 .bss.FileFunctionMap
                0x00000000000e7b78       0x50 /tmp/Shell.dll.q6gkOU.ltrans0.ltrans.o
                0x00000000000e7b78                FileFunctionMap
 .bss.FirmwareCtrl
                0x00000000000e7bc8        0x8 /tmp/Shell.dll.q6gkOU.ltrans0.ltrans.o
 .bss.Flags     0x00000000000e7bd0        0x8 /tmp/Shell.dll.q6gkOU.ltrans0.ltrans.o
 .bss.GtBlockTimerCount
                0x00000000000e7bd8        0x8 /tmp/Shell.dll.q6gkOU.ltrans0.ltrans.o
 .bss.GtBlockTimerOffset
                0x00000000000e7be0        0x8 /tmp/Shell.dll.q6gkOU.ltrans0.ltrans.o
 .bss.GtdtPlatformTimerCount
                0x00000000000e7be8        0x8 /tmp/Shell.dll.q6gkOU.ltrans0.ltrans.o
 .bss.GtdtPlatformTimerOffset
                0x00000000000e7bf0        0x8 /tmp/Shell.dll.q6gkOU.ltrans0.ltrans.o
 .bss.HBufferImage
                0x00000000000e7bf8       0x78 /tmp/Shell.dll.q6gkOU.ltrans0.ltrans.o
                0x00000000000e7bf8                HBufferImage
 .bss.HFileImage
                0x00000000000e7c70       0x18 /tmp/Shell.dll.q6gkOU.ltrans0.ltrans.o
                0x00000000000e7c70                HFileImage
 .bss.HMemImage
                0x00000000000e7c88       0x18 /tmp/Shell.dll.q6gkOU.ltrans0.ltrans.o
                0x00000000000e7c88                HMemImage
 .bss.HmatStructureLength
                0x00000000000e7ca0        0x8 /tmp/Shell.dll.q6gkOU.ltrans0.ltrans.o
 .bss.HmatStructureType
                0x00000000000e7ca8        0x8 /tmp/Shell.dll.q6gkOU.ltrans0.ltrans.o
 .bss.InterruptContextCount
                0x00000000000e7cb0        0x8 /tmp/Shell.dll.q6gkOU.ltrans0.ltrans.o
 .bss.InterruptContextOffset
                0x00000000000e7cb8        0x8 /tmp/Shell.dll.q6gkOU.ltrans0.ltrans.o
 .bss.IortIdMappingCount
                0x00000000000e7cc0        0x8 /tmp/Shell.dll.q6gkOU.ltrans0.ltrans.o
 .bss.IortIdMappingOffset
                0x00000000000e7cc8        0x8 /tmp/Shell.dll.q6gkOU.ltrans0.ltrans.o
 .bss.IortNodeCount
                0x00000000000e7cd0        0x8 /tmp/Shell.dll.q6gkOU.ltrans0.ltrans.o
 .bss.IortNodeLength
                0x00000000000e7cd8        0x8 /tmp/Shell.dll.q6gkOU.ltrans0.ltrans.o
 .bss.IortNodeOffset
                0x00000000000e7ce0        0x8 /tmp/Shell.dll.q6gkOU.ltrans0.ltrans.o
 .bss.IortNodeType
                0x00000000000e7ce8        0x8 /tmp/Shell.dll.q6gkOU.ltrans0.ltrans.o
 .bss.ItsCount  0x00000000000e7cf0        0x8 /tmp/Shell.dll.q6gkOU.ltrans0.ltrans.o
 .bss.MadtInterruptControllerLength
                0x00000000000e7cf8        0x8 /tmp/Shell.dll.q6gkOU.ltrans0.ltrans.o
 .bss.MadtInterruptControllerType
                0x00000000000e7d00        0x8 /tmp/Shell.dll.q6gkOU.ltrans0.ltrans.o
 .bss.NumberInitiatorProximityDomain
                0x00000000000e7d08        0x8 /tmp/Shell.dll.q6gkOU.ltrans0.ltrans.o
 .bss.NumberOfPrivateResources
                0x00000000000e7d10        0x8 /tmp/Shell.dll.q6gkOU.ltrans0.ltrans.o
 .bss.NumberSMBIOSHandles
                0x00000000000e7d18        0x8 /tmp/Shell.dll.q6gkOU.ltrans0.ltrans.o
 .bss.NumberTargetProximityDomain
                0x00000000000e7d20        0x8 /tmp/Shell.dll.q6gkOU.ltrans0.ltrans.o
 .bss.PccGlobalFlags
                0x00000000000e7d28        0x8 /tmp/Shell.dll.q6gkOU.ltrans0.ltrans.o
 .bss.PccSubspaceLength
                0x00000000000e7d30        0x8 /tmp/Shell.dll.q6gkOU.ltrans0.ltrans.o
 .bss.PccSubspaceType
                0x00000000000e7d38        0x8 /tmp/Shell.dll.q6gkOU.ltrans0.ltrans.o
 .bss.PlatformTimerLength
                0x00000000000e7d40        0x8 /tmp/Shell.dll.q6gkOU.ltrans0.ltrans.o
 .bss.PlatformTimerType
                0x00000000000e7d48        0x8 /tmp/Shell.dll.q6gkOU.ltrans0.ltrans.o
 .bss.PmuInterruptCount
                0x00000000000e7d50        0x8 /tmp/Shell.dll.q6gkOU.ltrans0.ltrans.o
 .bss.PmuInterruptOffset
                0x00000000000e7d58        0x8 /tmp/Shell.dll.q6gkOU.ltrans0.ltrans.o
 .bss.ProcessorTopologyStructureLength
                0x00000000000e7d60        0x8 /tmp/Shell.dll.q6gkOU.ltrans0.ltrans.o
 .bss.ProcessorTopologyStructureType
                0x00000000000e7d68        0x8 /tmp/Shell.dll.q6gkOU.ltrans0.ltrans.o
 .bss.SlitSystemLocalityCount
                0x00000000000e7d70        0x8 /tmp/Shell.dll.q6gkOU.ltrans0.ltrans.o
 .bss.SllbiDataType
                0x00000000000e7d78        0x8 /tmp/Shell.dll.q6gkOU.ltrans0.ltrans.o
 .bss.SllbiFlags
                0x00000000000e7d80        0x8 /tmp/Shell.dll.q6gkOU.ltrans0.ltrans.o
 .bss.SratDeviceHandleType
                0x00000000000e7d88        0x8 /tmp/Shell.dll.q6gkOU.ltrans0.ltrans.o
 .bss.SratRALength
                0x00000000000e7d90        0x8 /tmp/Shell.dll.q6gkOU.ltrans0.ltrans.o
 .bss.SratRAType
                0x00000000000e7d98        0x8 /tmp/Shell.dll.q6gkOU.ltrans0.ltrans.o
 .bss.StatusBarNeedRefresh
                0x00000000000e7da0        0x1 /tmp/Shell.dll.q6gkOU.ltrans0.ltrans.o
                0x00000000000e7da0                StatusBarNeedRefresh
 *fill*         0x00000000000e7da1        0x7 
 .bss.StatusString
                0x00000000000e7da8        0x8 /tmp/Shell.dll.q6gkOU.ltrans0.ltrans.o
                0x00000000000e7da8                StatusString
 .bss.StatusStringChanged
                0x00000000000e7db0        0x1 /tmp/Shell.dll.q6gkOU.ltrans0.ltrans.o
                0x00000000000e7db0                StatusStringChanged
 *fill*         0x00000000000e7db1        0x7 
 .bss.X_DsdtAddress
                0x00000000000e7db8        0x8 /tmp/Shell.dll.q6gkOU.ltrans0.ltrans.o
 .bss.X_FirmwareCtrl
                0x00000000000e7dc0        0x8 /tmp/Shell.dll.q6gkOU.ltrans0.ltrans.o
 .bss.XsdtAddress
                0x00000000000e7dc8        0x8 /tmp/Shell.dll.q6gkOU.ltrans0.ltrans.o
 .bss.gBS       0x00000000000e7dd0        0x8 /tmp/Shell.dll.q6gkOU.ltrans0.ltrans.o
                0x00000000000e7dd0                gBS
 .bss.gEfiShellParametersProtocol
                0x00000000000e7dd8        0x8 /tmp/Shell.dll.q6gkOU.ltrans0.ltrans.o
                0x00000000000e7dd8                gEfiShellParametersProtocol
 .bss.gEfiShellProtocol
                0x00000000000e7de0        0x8 /tmp/Shell.dll.q6gkOU.ltrans0.ltrans.o
                0x00000000000e7de0                gEfiShellProtocol
 .bss.gHiiDatabase
                0x00000000000e7de8        0x8 /tmp/Shell.dll.q6gkOU.ltrans0.ltrans.o
                0x00000000000e7de8                gHiiDatabase
 .bss.gImageHandle
                0x00000000000e7df0        0x8 /tmp/Shell.dll.q6gkOU.ltrans0.ltrans.o
                0x00000000000e7df0                gImageHandle
 .bss.gIndent   0x00000000000e7df8        0x4 /tmp/Shell.dll.q6gkOU.ltrans0.ltrans.o
 *fill*         0x00000000000e7dfc        0x4 
 .bss.gRT       0x00000000000e7e00        0x8 /tmp/Shell.dll.q6gkOU.ltrans0.ltrans.o
                0x00000000000e7e00                gRT
 .bss.gST       0x00000000000e7e08        0x8 /tmp/Shell.dll.q6gkOU.ltrans0.ltrans.o
                0x00000000000e7e08                gST
 .bss.gShellBcfgHiiHandle.lto_priv.0
                0x00000000000e7e10        0x8 /tmp/Shell.dll.q6gkOU.ltrans0.ltrans.o
                0x00000000000e7e10                gShellBcfgHiiHandle.lto_priv.0
 .bss.gShellDebug1HiiHandle
                0x00000000000e7e18        0x8 /tmp/Shell.dll.q6gkOU.ltrans0.ltrans.o
                0x00000000000e7e18                gShellDebug1HiiHandle
 .bss.gShellMapList
                0x00000000000e7e20       0x30 /tmp/Shell.dll.q6gkOU.ltrans0.ltrans.o
                0x00000000000e7e20                gShellMapList
 .bss.gUnicodeCollation
                0x00000000000e7e50        0x8 /tmp/Shell.dll.q6gkOU.ltrans0.ltrans.o
                0x00000000000e7e50                gUnicodeCollation
 .bss.mColourHighlighting.lto_priv.0
                0x00000000000e7e58        0x1 /tmp/Shell.dll.q6gkOU.ltrans0.ltrans.o
                0x00000000000e7e58                mColourHighlighting.lto_priv.0
 *fill*         0x00000000000e7e59        0x7 
 .bss.mCommandList.lto_priv.0
                0x00000000000e7e60       0x40 /tmp/Shell.dll.q6gkOU.ltrans0.ltrans.o
                0x00000000000e7e60                mCommandList.lto_priv.0
 .bss.mConsistencyCheck.lto_priv.0
                0x00000000000e7ea0        0x1 /tmp/Shell.dll.q6gkOU.ltrans0.ltrans.o
                0x00000000000e7ea0                mConsistencyCheck.lto_priv.0
 .bss.mEchoState.lto_priv.0
                0x00000000000e7ea1        0x1 /tmp/Shell.dll.q6gkOU.ltrans0.ltrans.o
                0x00000000000e7ea1                mEchoState.lto_priv.0
 *fill*         0x00000000000e7ea2        0x6 
 .bss.mEfiShellEnvironment2
                0x00000000000e7ea8        0x8 /tmp/Shell.dll.q6gkOU.ltrans0.ltrans.o
                0x00000000000e7ea8                mEfiShellEnvironment2
 .bss.mEfiShellEnvironment2Handle
                0x00000000000e7eb0        0x8 /tmp/Shell.dll.q6gkOU.ltrans0.ltrans.o
                0x00000000000e7eb0                mEfiShellEnvironment2Handle
 .bss.mEfiShellInterface
                0x00000000000e7eb8        0x8 /tmp/Shell.dll.q6gkOU.ltrans0.ltrans.o
                0x00000000000e7eb8                mEfiShellInterface
 .bss.mExitCode.lto_priv.0
                0x00000000000e7ec0        0x8 /tmp/Shell.dll.q6gkOU.ltrans0.ltrans.o
                0x00000000000e7ec0                mExitCode.lto_priv.0
 .bss.mExitRequested.lto_priv.0
                0x00000000000e7ec8        0x1 /tmp/Shell.dll.q6gkOU.ltrans0.ltrans.o
                0x00000000000e7ec8                mExitRequested.lto_priv.0
 .bss.mExitScript.lto_priv.0
                0x00000000000e7ec9        0x1 /tmp/Shell.dll.q6gkOU.ltrans0.ltrans.o
                0x00000000000e7ec9                mExitScript.lto_priv.0
 *fill*         0x00000000000e7eca        0x6 
 .bss.mShellManDriverHandle
                0x00000000000e7ed0        0x8 /tmp/Shell.dll.q6gkOU.ltrans0.ltrans.o
 .bss.mShellManHiiHandle
                0x00000000000e7ed8        0x8 /tmp/Shell.dll.q6gkOU.ltrans0.ltrans.o
 .bss.mTableErrorCount.lto_priv.0
                0x00000000000e7ee0        0x4 /tmp/Shell.dll.q6gkOU.ltrans0.ltrans.o
                0x00000000000e7ee0                mTableErrorCount.lto_priv.0
 *fill*         0x00000000000e7ee4        0x4 
 .bss.mTableParserList.lto_priv.0
                0x00000000000e7ee8      0x200 /tmp/Shell.dll.q6gkOU.ltrans0.ltrans.o
                0x00000000000e7ee8                mTableParserList.lto_priv.0
 .bss.mTableWarningCount.lto_priv.0
                0x00000000000e80e8        0x4 /tmp/Shell.dll.q6gkOU.ltrans0.ltrans.o
                0x00000000000e80e8                mTableWarningCount.lto_priv.0
 *fill*         0x00000000000e80ec        0x4 
 .bss.AcpiHdrInfo.lto_priv.13
                0x00000000000e80f0       0x48 /tmp/Shell.dll.q6gkOU.ltrans1.ltrans.o
 .bss.AcpiHdrInfo.lto_priv.14
                0x00000000000e8138       0x48 /tmp/Shell.dll.q6gkOU.ltrans1.ltrans.o
 .bss.AcpiHdrInfo.lto_priv.15
                0x00000000000e8180       0x48 /tmp/Shell.dll.q6gkOU.ltrans1.ltrans.o
 .bss.AddrSizeOffset
                0x00000000000e81c8        0x8 /tmp/Shell.dll.q6gkOU.ltrans1.ltrans.o
 .bss.AestNodeLength
                0x00000000000e81d0        0x8 /tmp/Shell.dll.q6gkOU.ltrans1.ltrans.o
 .bss.AestNodeType
                0x00000000000e81d8        0x8 /tmp/Shell.dll.q6gkOU.ltrans1.ltrans.o
 .bss.BaseAddrRegOffset
                0x00000000000e81e0        0x8 /tmp/Shell.dll.q6gkOU.ltrans1.ltrans.o
 .bss.CheckConflict.16865
                0x00000000000e81e8        0x4 /tmp/Shell.dll.q6gkOU.ltrans1.ltrans.o
 .bss.CheckDuplicate.16864
                0x00000000000e81ec        0x4 /tmp/Shell.dll.q6gkOU.ltrans1.ltrans.o
 .bss.DbgDevInfoLen
                0x00000000000e81f0        0x8 /tmp/Shell.dll.q6gkOU.ltrans1.ltrans.o
 .bss.GasCount  0x00000000000e81f8        0x8 /tmp/Shell.dll.q6gkOU.ltrans1.ltrans.o
 .bss.NameSpaceStringLength
                0x00000000000e8200        0x8 /tmp/Shell.dll.q6gkOU.ltrans1.ltrans.o
 .bss.NameSpaceStringOffset
                0x00000000000e8208        0x8 /tmp/Shell.dll.q6gkOU.ltrans1.ltrans.o
 .bss.NodeDataOffset
                0x00000000000e8210        0x8 /tmp/Shell.dll.q6gkOU.ltrans1.ltrans.o
 .bss.NodeInterfaceOffset
                0x00000000000e8218        0x8 /tmp/Shell.dll.q6gkOU.ltrans1.ltrans.o
 .bss.NodeInterruptArrayOffset
                0x00000000000e8220        0x8 /tmp/Shell.dll.q6gkOU.ltrans1.ltrans.o
 .bss.NodeInterruptCount
                0x00000000000e8228        0x8 /tmp/Shell.dll.q6gkOU.ltrans1.ltrans.o
 .bss.NumberDbgDeviceInfo
                0x00000000000e8230        0x8 /tmp/Shell.dll.q6gkOU.ltrans1.ltrans.o
 .bss.OEMDataLength
                0x00000000000e8238        0x8 /tmp/Shell.dll.q6gkOU.ltrans1.ltrans.o
 .bss.OEMDataOffset
                0x00000000000e8240        0x8 /tmp/Shell.dll.q6gkOU.ltrans1.ltrans.o
 .bss.OffsetDbgDeviceInfo
                0x00000000000e8248        0x8 /tmp/Shell.dll.q6gkOU.ltrans1.ltrans.o
 .bss.ProcessorFlags
                0x00000000000e8250        0x8 /tmp/Shell.dll.q6gkOU.ltrans1.ltrans.o
 .bss.ProcessorId
                0x00000000000e8258        0x8 /tmp/Shell.dll.q6gkOU.ltrans1.ltrans.o
 .bss.ProcessorResourceType
                0x00000000000e8260        0x8 /tmp/Shell.dll.q6gkOU.ltrans1.ltrans.o
 .bss.gShellAcpiViewHiiHandle
                0x00000000000e8268        0x8 /tmp/Shell.dll.q6gkOU.ltrans1.ltrans.o
                0x00000000000e8268                gShellAcpiViewHiiHandle
 .bss.gShellNetwork1HiiHandle
                0x00000000000e8270        0x8 /tmp/Shell.dll.q6gkOU.ltrans1.ltrans.o
                0x00000000000e8270                gShellNetwork1HiiHandle
 .bss.mBinTableCount
                0x00000000000e8278        0x4 /tmp/Shell.dll.q6gkOU.ltrans1.ltrans.o
 *fill*         0x00000000000e827c        0x4 
 .bss.mDstString
                0x00000000000e8280        0x8 /tmp/Shell.dll.q6gkOU.ltrans1.ltrans.o
 .bss.mMandatoryTableSpec
                0x00000000000e8288        0x8 /tmp/Shell.dll.q6gkOU.ltrans1.ltrans.o
 .bss.mMandatoryTableValidate
                0x00000000000e8290        0x1 /tmp/Shell.dll.q6gkOU.ltrans1.ltrans.o
 *fill*         0x00000000000e8291        0x3 
 .bss.mReportType
                0x00000000000e8294        0x4 /tmp/Shell.dll.q6gkOU.ltrans1.ltrans.o
 .bss.mSelectedAcpiTable
                0x00000000000e8298       0x18 /tmp/Shell.dll.q6gkOU.ltrans1.ltrans.o
 .bss.mSrcString
                0x00000000000e82b0        0x8 /tmp/Shell.dll.q6gkOU.ltrans1.ltrans.o
 .bss.mTableCount
                0x00000000000e82b8        0x4 /tmp/Shell.dll.q6gkOU.ltrans1.ltrans.o
 .bss.mZeroIp4Addr
                0x00000000000e82bc        0x4 /tmp/Shell.dll.q6gkOU.ltrans1.ltrans.o
 .bss.SmbiosMajorVersion
                0x00000000000e82c0        0x1 /tmp/Shell.dll.q6gkOU.ltrans2.ltrans.o
                0x00000000000e82c0                SmbiosMajorVersion
 .bss.SmbiosMinorVersion
                0x00000000000e82c1        0x1 /tmp/Shell.dll.q6gkOU.ltrans2.ltrans.o
                0x00000000000e82c1                SmbiosMinorVersion
 *fill*         0x00000000000e82c2        0x2 
 .bss.CPos.10284
                0x00000000000e82c4        0x4 /tmp/Shell.dll.q6gkOU.ltrans3.ltrans.o
 .bss.ControlBasedMenuFunctions
                0x00000000000e82c8        0x8 /tmp/Shell.dll.q6gkOU.ltrans3.ltrans.o
                0x00000000000e82c8                ControlBasedMenuFunctions
 .bss.HBufferImageBackupVar
                0x00000000000e82d0       0x78 /tmp/Shell.dll.q6gkOU.ltrans3.ltrans.o
                0x00000000000e82d0                HBufferImageBackupVar
 .bss.HBufferImageMouseNeedRefresh
                0x00000000000e8348        0x1 /tmp/Shell.dll.q6gkOU.ltrans3.ltrans.o
                0x00000000000e8348                HBufferImageMouseNeedRefresh
 .bss.HBufferImageNeedRefresh
                0x00000000000e8349        0x1 /tmp/Shell.dll.q6gkOU.ltrans3.ltrans.o
                0x00000000000e8349                HBufferImageNeedRefresh
 .bss.HBufferImageOnlyLineNeedRefresh
                0x00000000000e834a        0x1 /tmp/Shell.dll.q6gkOU.ltrans3.ltrans.o
                0x00000000000e834a                HBufferImageOnlyLineNeedRefresh
 *fill*         0x00000000000e834b        0x5 
 .bss.HDiskImage
                0x00000000000e8350       0x20 /tmp/Shell.dll.q6gkOU.ltrans3.ltrans.o
                0x00000000000e8350                HDiskImage
 .bss.HDiskImageBackupVar
                0x00000000000e8370       0x20 /tmp/Shell.dll.q6gkOU.ltrans3.ltrans.o
                0x00000000000e8370                HDiskImageBackupVar
 .bss.HEditorFirst
                0x00000000000e8390        0x1 /tmp/Shell.dll.q6gkOU.ltrans3.ltrans.o
                0x00000000000e8390                HEditorFirst
 .bss.HEditorMouseAction
                0x00000000000e8391        0x1 /tmp/Shell.dll.q6gkOU.ltrans3.ltrans.o
                0x00000000000e8391                HEditorMouseAction
 *fill*         0x00000000000e8392        0x6 
 .bss.HFileImageBackupVar
                0x00000000000e8398       0x18 /tmp/Shell.dll.q6gkOU.ltrans3.ltrans.o
                0x00000000000e8398                HFileImageBackupVar
 .bss.HMainEditor
                0x00000000000e83b0       0x50 /tmp/Shell.dll.q6gkOU.ltrans3.ltrans.o
                0x00000000000e83b0                HMainEditor
 .bss.HMainEditorBackupVar
                0x00000000000e8400       0x50 /tmp/Shell.dll.q6gkOU.ltrans3.ltrans.o
                0x00000000000e8400                HMainEditorBackupVar
 .bss.HMemImageBackupVar
                0x00000000000e8450       0x18 /tmp/Shell.dll.q6gkOU.ltrans3.ltrans.o
                0x00000000000e8450                HMemImageBackupVar
 .bss.MenuItems
                0x00000000000e8468        0x8 /tmp/Shell.dll.q6gkOU.ltrans3.ltrans.o
 .bss.NumItems  0x00000000000e8470        0x8 /tmp/Shell.dll.q6gkOU.ltrans3.ltrans.o
 .bss.StringSize
                0x00000000000e8478        0x8 /tmp/Shell.dll.q6gkOU.ltrans3.ltrans.o
                0x00000000000e8478                StringSize
 .bss.Title     0x00000000000e8480        0x8 /tmp/Shell.dll.q6gkOU.ltrans3.ltrans.o
                0x00000000000e8480                Title
 .bss.m64Init   0x00000000000e8488        0x1 /tmp/Shell.dll.q6gkOU.ltrans3.ltrans.o
 *fill*         0x00000000000e8489        0x1 
 .bss.mAvail    0x00000000000e848a        0x2 /tmp/Shell.dll.q6gkOU.ltrans3.ltrans.o
 .bss.mBitCount
                0x00000000000e848c        0x4 /tmp/Shell.dll.q6gkOU.ltrans3.ltrans.o
 .bss.mBuf      0x00000000000e8490        0x8 /tmp/Shell.dll.q6gkOU.ltrans3.ltrans.o
 .bss.mBufSiz   0x00000000000e8498        0x4 /tmp/Shell.dll.q6gkOU.ltrans3.ltrans.o
 .bss.mCCode    0x00000000000e849c      0x3fc /tmp/Shell.dll.q6gkOU.ltrans3.ltrans.o
 .bss.mCFreq    0x00000000000e8898      0x7f6 /tmp/Shell.dll.q6gkOU.ltrans3.ltrans.o
 .bss.mCLen     0x00000000000e908e      0x1fe /tmp/Shell.dll.q6gkOU.ltrans3.ltrans.o
 *fill*         0x00000000000e928c        0x4 
 .bss.mChildCount
                0x00000000000e9290        0x8 /tmp/Shell.dll.q6gkOU.ltrans3.ltrans.o
 .bss.mCompSize
                0x00000000000e9298        0x4 /tmp/Shell.dll.q6gkOU.ltrans3.ltrans.o
 .bss.mCrc      0x00000000000e929c        0x4 /tmp/Shell.dll.q6gkOU.ltrans3.ltrans.o
 .bss.mCrcTable
                0x00000000000e92a0      0x200 /tmp/Shell.dll.q6gkOU.ltrans3.ltrans.o
 .bss.mDst      0x00000000000e94a0        0x8 /tmp/Shell.dll.q6gkOU.ltrans3.ltrans.o
 .bss.mDstUpperLimit
                0x00000000000e94a8        0x8 /tmp/Shell.dll.q6gkOU.ltrans3.ltrans.o
 .bss.mFreq     0x00000000000e94b0        0x8 /tmp/Shell.dll.q6gkOU.ltrans3.ltrans.o
 .bss.mHeap     0x00000000000e94b8      0x3fe /tmp/Shell.dll.q6gkOU.ltrans3.ltrans.o
 *fill*         0x00000000000e98b6        0x2 
 .bss.mHeapSize
                0x00000000000e98b8        0x4 /tmp/Shell.dll.q6gkOU.ltrans3.ltrans.o
 .bss.mHuffmanDepth
                0x00000000000e98bc        0x4 /tmp/Shell.dll.q6gkOU.ltrans3.ltrans.o
 .bss.mInit     0x00000000000e98c0        0x1 /tmp/Shell.dll.q6gkOU.ltrans3.ltrans.o
 *fill*         0x00000000000e98c1        0x1 
 .bss.mLeft     0x00000000000e98c2      0x7f6 /tmp/Shell.dll.q6gkOU.ltrans3.ltrans.o
 .bss.mLen      0x00000000000ea0b8        0x8 /tmp/Shell.dll.q6gkOU.ltrans3.ltrans.o
 .bss.mLenCnt   0x00000000000ea0c0       0x22 /tmp/Shell.dll.q6gkOU.ltrans3.ltrans.o
 *fill*         0x00000000000ea0e2        0x6 
 .bss.mLevel    0x00000000000ea0e8        0x8 /tmp/Shell.dll.q6gkOU.ltrans3.ltrans.o
 .bss.mMatchLen
                0x00000000000ea0f0        0x4 /tmp/Shell.dll.q6gkOU.ltrans3.ltrans.o
 .bss.mMatchPos
                0x00000000000ea0f4        0x2 /tmp/Shell.dll.q6gkOU.ltrans3.ltrans.o
 *fill*         0x00000000000ea0f6        0x2 
 .bss.mNext     0x00000000000ea0f8        0x8 /tmp/Shell.dll.q6gkOU.ltrans3.ltrans.o
 .bss.mNumberOfSmbios64BitStructures
                0x00000000000ea100        0x8 /tmp/Shell.dll.q6gkOU.ltrans3.ltrans.o
 .bss.mOrigSize
                0x00000000000ea108        0x4 /tmp/Shell.dll.q6gkOU.ltrans3.ltrans.o
 .bss.mOutputMask
                0x00000000000ea10c        0x4 /tmp/Shell.dll.q6gkOU.ltrans3.ltrans.o
 .bss.mOutputPos
                0x00000000000ea110        0x4 /tmp/Shell.dll.q6gkOU.ltrans3.ltrans.o
 .bss.mPFreq    0x00000000000ea114       0x36 /tmp/Shell.dll.q6gkOU.ltrans3.ltrans.o
 .bss.mPTCode   0x00000000000ea14a       0x26 /tmp/Shell.dll.q6gkOU.ltrans3.ltrans.o
 .bss.mPTLen    0x00000000000ea170       0x13 /tmp/Shell.dll.q6gkOU.ltrans3.ltrans.o
 *fill*         0x00000000000ea183        0x5 
 .bss.mParent   0x00000000000ea188        0x8 /tmp/Shell.dll.q6gkOU.ltrans3.ltrans.o
 .bss.mPos      0x00000000000ea190        0x2 /tmp/Shell.dll.q6gkOU.ltrans3.ltrans.o
 *fill*         0x00000000000ea192        0x6 
 .bss.mPosition
                0x00000000000ea198        0x8 /tmp/Shell.dll.q6gkOU.ltrans3.ltrans.o
 .bss.mPrev     0x00000000000ea1a0        0x8 /tmp/Shell.dll.q6gkOU.ltrans3.ltrans.o
 .bss.mPrompt   0x00000000000ea1a8        0x8 /tmp/Shell.dll.q6gkOU.ltrans3.ltrans.o
                0x00000000000ea1a8                mPrompt
 .bss.mRemainder
                0x00000000000ea1b0        0x4 /tmp/Shell.dll.q6gkOU.ltrans3.ltrans.o
 *fill*         0x00000000000ea1b4        0x4 
 .bss.mReturnString
                0x00000000000ea1b8        0x8 /tmp/Shell.dll.q6gkOU.ltrans3.ltrans.o
                0x00000000000ea1b8                mReturnString
 .bss.mRight    0x00000000000ea1c0      0x7f6 /tmp/Shell.dll.q6gkOU.ltrans3.ltrans.o
 *fill*         0x00000000000ea9b6        0x2 
 .bss.mSmbios64BitStatisticsTable
                0x00000000000ea9b8        0x8 /tmp/Shell.dll.q6gkOU.ltrans3.ltrans.o
 .bss.mSmbios64BitTable
                0x00000000000ea9c0        0x8 /tmp/Shell.dll.q6gkOU.ltrans3.ltrans.o
 .bss.mSmbios64BitTableLength
                0x00000000000ea9c8        0x8 /tmp/Shell.dll.q6gkOU.ltrans3.ltrans.o
 .bss.mSmbiosTable
                0x00000000000ea9d0        0x8 /tmp/Shell.dll.q6gkOU.ltrans3.ltrans.o
 .bss.mSortPtr  0x00000000000ea9d8        0x8 /tmp/Shell.dll.q6gkOU.ltrans3.ltrans.o
 .bss.mSrc      0x00000000000ea9e0        0x8 /tmp/Shell.dll.q6gkOU.ltrans3.ltrans.o
 .bss.mSrcUpperLimit
                0x00000000000ea9e8        0x8 /tmp/Shell.dll.q6gkOU.ltrans3.ltrans.o
 .bss.mStatisticsTable
                0x00000000000ea9f0        0x8 /tmp/Shell.dll.q6gkOU.ltrans3.ltrans.o
 .bss.mSubBitBuf
                0x00000000000ea9f8        0x4 /tmp/Shell.dll.q6gkOU.ltrans3.ltrans.o
 .bss.mTFreq    0x00000000000ea9fc       0x4a /tmp/Shell.dll.q6gkOU.ltrans3.ltrans.o
 *fill*         0x00000000000eaa46        0x2 
 .bss.mTempInt32
                0x00000000000eaa48        0x4 /tmp/Shell.dll.q6gkOU.ltrans3.ltrans.o
 *fill*         0x00000000000eaa4c        0x4 
 .bss.mText     0x00000000000eaa50        0x8 /tmp/Shell.dll.q6gkOU.ltrans3.ltrans.o
 .bss.mTextInEx
                0x00000000000eaa58        0x8 /tmp/Shell.dll.q6gkOU.ltrans3.ltrans.o
                0x00000000000eaa58                mTextInEx
 .bss.m_Smbios64BitStruct
                0x00000000000eaa60        0x8 /tmp/Shell.dll.q6gkOU.ltrans3.ltrans.o
 .bss.m_SmbiosStruct
                0x00000000000eaa68        0x8 /tmp/Shell.dll.q6gkOU.ltrans3.ltrans.o
 .bss.HClipBoard
                0x00000000000eaa70       0x10 /tmp/Shell.dll.q6gkOU.ltrans4.ltrans.o
                0x00000000000eaa70                HClipBoard
 .bss.HEditorExit
                0x00000000000eaa80        0x1 /tmp/Shell.dll.q6gkOU.ltrans4.ltrans.o
                0x00000000000eaa80                HEditorExit
 *fill*         0x00000000000eaa81        0x7 
 .bss.mConfigSpace
                0x00000000000eaa88        0x8 /tmp/Shell.dll.q6gkOU.ltrans4.ltrans.o
 .bss.EditorExit
                0x00000000000eaa90        0x1 /tmp/Shell.dll.q6gkOU.ltrans5.ltrans.o
 .bss.EditorFirst
                0x00000000000eaa91        0x1 /tmp/Shell.dll.q6gkOU.ltrans5.ltrans.o
 .bss.EditorMouseAction
                0x00000000000eaa92        0x1 /tmp/Shell.dll.q6gkOU.ltrans5.ltrans.o
 *fill*         0x00000000000eaa93        0x5 
 .bss.FileBuffer
                0x00000000000eaa98       0x78 /tmp/Shell.dll.q6gkOU.ltrans5.ltrans.o
 .bss.FileBufferBackupVar
                0x00000000000eab10       0x78 /tmp/Shell.dll.q6gkOU.ltrans5.ltrans.o
 .bss.FileBufferMouseNeedRefresh
                0x00000000000eab88        0x1 /tmp/Shell.dll.q6gkOU.ltrans5.ltrans.o
 .bss.FileBufferNeedRefresh
                0x00000000000eab89        0x1 /tmp/Shell.dll.q6gkOU.ltrans5.ltrans.o
 .bss.FileBufferOnlyLineNeedRefresh
                0x00000000000eab8a        0x1 /tmp/Shell.dll.q6gkOU.ltrans5.ltrans.o
 *fill*         0x00000000000eab8b        0x5 
 .bss.HClipBoardConst
                0x00000000000eab90       0x10 /tmp/Shell.dll.q6gkOU.ltrans5.ltrans.o
 .bss.HDiskImageConst
                0x00000000000eaba0       0x20 /tmp/Shell.dll.q6gkOU.ltrans5.ltrans.o
 .bss.HFileImageConst
                0x00000000000eabc0       0x78 /tmp/Shell.dll.q6gkOU.ltrans5.ltrans.o
 .bss.HMemImageConst
                0x00000000000eac38       0x18 /tmp/Shell.dll.q6gkOU.ltrans5.ltrans.o
 .bss.HOriginalColors
                0x00000000000eac50        0x4 /tmp/Shell.dll.q6gkOU.ltrans5.ltrans.o
 *fill*         0x00000000000eac54        0x4 
 .bss.HOriginalMode
                0x00000000000eac58        0x8 /tmp/Shell.dll.q6gkOU.ltrans5.ltrans.o
 .bss.MainEditor
                0x00000000000eac60       0x48 /tmp/Shell.dll.q6gkOU.ltrans5.ltrans.o
 .bss.OriginalColors
                0x00000000000eaca8        0x4 /tmp/Shell.dll.q6gkOU.ltrans5.ltrans.o
 *fill*         0x00000000000eacac        0x4 
 .bss.OriginalMode
                0x00000000000eacb0        0x8 /tmp/Shell.dll.q6gkOU.ltrans5.ltrans.o
 .bss.gShellDriver1HiiHandle
                0x00000000000eacb8        0x8 /tmp/Shell.dll.q6gkOU.ltrans5.ltrans.o
                0x00000000000eacb8                gShellDriver1HiiHandle
 .bss.gInReconnect
                0x00000000000eacc0        0x1 /tmp/Shell.dll.q6gkOU.ltrans6.ltrans.o
 *fill*         0x00000000000eacc1        0x7 
 .bss.gShellLevel1HiiHandle
                0x00000000000eacc8        0x8 /tmp/Shell.dll.q6gkOU.ltrans6.ltrans.o
                0x00000000000eacc8                gShellLevel1HiiHandle
 .bss.gShellLevel3HiiHandle
                0x00000000000eacd0        0x8 /tmp/Shell.dll.q6gkOU.ltrans6.ltrans.o
                0x00000000000eacd0                gShellLevel3HiiHandle
 .bss.gShellLevel2HiiHandle
                0x00000000000eacd8        0x8 /tmp/Shell.dll.q6gkOU.ltrans7.ltrans.o
                0x00000000000eacd8                gShellLevel2HiiHandle
 .bss.gShellCurMapping
                0x00000000000eace0        0x8 /tmp/Shell.dll.q6gkOU.ltrans8.ltrans.o
                0x00000000000eace0                gShellCurMapping
 .bss.mAliasList.lto_priv.0
                0x00000000000eace8       0x20 /tmp/Shell.dll.q6gkOU.ltrans8.ltrans.o
                0x00000000000eace8                mAliasList.lto_priv.0
 .bss.mBlkMaxCount
                0x00000000000ead08        0x8 /tmp/Shell.dll.q6gkOU.ltrans8.ltrans.o
 .bss.mFileHandleList.lto_priv.0
                0x00000000000ead10       0x18 /tmp/Shell.dll.q6gkOU.ltrans8.ltrans.o
                0x00000000000ead10                mFileHandleList.lto_priv.0
 .bss.mFsMaxCount
                0x00000000000ead28        0x8 /tmp/Shell.dll.q6gkOU.ltrans8.ltrans.o
 .bss.mGuidList
                0x00000000000ead30        0x8 /tmp/Shell.dll.q6gkOU.ltrans8.ltrans.o
                0x00000000000ead30                mGuidList
 .bss.mGuidListCount
                0x00000000000ead38        0x8 /tmp/Shell.dll.q6gkOU.ltrans8.ltrans.o
                0x00000000000ead38                mGuidListCount
 .bss.mHandleList
                0x00000000000ead40       0x28 /tmp/Shell.dll.q6gkOU.ltrans8.ltrans.o
 .bss.mHandleParsingHiiHandle
                0x00000000000ead68        0x8 /tmp/Shell.dll.q6gkOU.ltrans8.ltrans.o
                0x00000000000ead68                mHandleParsingHiiHandle
 .bss.mProfileList.lto_priv.0
                0x00000000000ead70        0x8 /tmp/Shell.dll.q6gkOU.ltrans8.ltrans.o
                0x00000000000ead70                mProfileList.lto_priv.0
 .bss.mProfileListSize.lto_priv.0
                0x00000000000ead78        0x8 /tmp/Shell.dll.q6gkOU.ltrans8.ltrans.o
                0x00000000000ead78                mProfileListSize.lto_priv.0
 .bss.mScriptList.lto_priv.0
                0x00000000000ead80       0x18 /tmp/Shell.dll.q6gkOU.ltrans8.ltrans.o
                0x00000000000ead80                mScriptList.lto_priv.0
 .bss.gHiiString
                0x00000000000ead98        0x8 /tmp/Shell.dll.q6gkOU.ltrans9.ltrans.o
                0x00000000000ead98                gHiiString
 .bss.mUnicodeCollation
                0x00000000000eada0        0x8 /tmp/Shell.dll.q6gkOU.ltrans9.ltrans.o
 .bss.mUnicodeCollationProtocol
                0x00000000000eada8        0x8 /tmp/Shell.dll.q6gkOU.ltrans9.ltrans.o
                0x00000000000eada8                mUnicodeCollationProtocol
 .bss.AsciiRedirection
                0x00000000000eadb0        0x1 /tmp/Shell.dll.q6gkOU.ltrans10.ltrans.o
 *fill*         0x00000000000eadb1        0x7 
 .bss.gShellEnvVarList
                0x00000000000eadb8       0x28 /tmp/Shell.dll.q6gkOU.ltrans10.ltrans.o
                0x00000000000eadb8                gShellEnvVarList
 .bss.gDS       0x00000000000eade0        0x8 /tmp/Shell.dll.q6gkOU.ltrans11.ltrans.o
 .bss.gHiiConfigRouting
                0x00000000000eade8        0x8 /tmp/Shell.dll.q6gkOU.ltrans11.ltrans.o
 .bss.gHiiFont  0x00000000000eadf0        0x8 /tmp/Shell.dll.q6gkOU.ltrans11.ltrans.o
 .bss.gHiiImage
                0x00000000000eadf8        0x8 /tmp/Shell.dll.q6gkOU.ltrans11.ltrans.o
 .bss.mHobList  0x00000000000eae00        0x8 /tmp/Shell.dll.q6gkOU.ltrans11.ltrans.o

.dynbss         0x00000000000eae08        0x0
 .dynbss        0x00000000000eae08        0x0 /home/alastair/pftf-rpi4/edk2/ArmPkg/Library/GccLto/liblto-aarch64.a

.eh_frame
 *(.eh_frame)

.rela           0x00000000000eae08    0x17418
 *(.rela .rela.*)
 .rela.got      0x00000000000eae08        0x0 /home/alastair/pftf-rpi4/edk2/ArmPkg/Library/GccLto/liblto-aarch64.a
 .rela.plt      0x00000000000eae08        0x0 /home/alastair/pftf-rpi4/edk2/ArmPkg/Library/GccLto/liblto-aarch64.a
 .rela.bss      0x00000000000eae08        0x0 /home/alastair/pftf-rpi4/edk2/ArmPkg/Library/GccLto/liblto-aarch64.a
 .rela.data.rel.ro
                0x00000000000eae08        0x0 /home/alastair/pftf-rpi4/edk2/ArmPkg/Library/GccLto/liblto-aarch64.a
 .rela.ifunc    0x00000000000eae08        0x0 /home/alastair/pftf-rpi4/edk2/ArmPkg/Library/GccLto/liblto-aarch64.a
 .rela.data.SELSysManagementTypesTable
                0x00000000000eae08      0x180 /home/alastair/pftf-rpi4/edk2/ArmPkg/Library/GccLto/liblto-aarch64.a
 .rela.rodata.AcpiHeaderParser.lto_priv.0
                0x00000000000eaf88      0x288 /home/alastair/pftf-rpi4/edk2/ArmPkg/Library/GccLto/liblto-aarch64.a
 .rela.rodata.CacheTypeStructureParser
                0x00000000000eb210      0x240 /home/alastair/pftf-rpi4/edk2/ArmPkg/Library/GccLto/liblto-aarch64.a
 .rela.rodata.FadtParser
                0x00000000000eb450      0xdb0 /home/alastair/pftf-rpi4/edk2/ArmPkg/Library/GccLto/liblto-aarch64.a
 .rela.rodata.GasParser.lto_priv.0
                0x00000000000ec200       0xf0 /home/alastair/pftf-rpi4/edk2/ArmPkg/Library/GccLto/liblto-aarch64.a
 .rela.rodata.GicCParser
                0x00000000000ec2f0      0x378 /home/alastair/pftf-rpi4/edk2/ArmPkg/Library/GccLto/liblto-aarch64.a
 .rela.rodata.GicDParser
                0x00000000000ec668      0x1b0 /home/alastair/pftf-rpi4/edk2/ArmPkg/Library/GccLto/liblto-aarch64.a
 .rela.rodata.GicITSParser
                0x00000000000ec818      0x120 /home/alastair/pftf-rpi4/edk2/ArmPkg/Library/GccLto/liblto-aarch64.a
 .rela.rodata.GicMSIFrameParser
                0x00000000000ec938      0x180 /home/alastair/pftf-rpi4/edk2/ArmPkg/Library/GccLto/liblto-aarch64.a
 .rela.rodata.GicRParser
                0x00000000000ecab8       0xf0 /home/alastair/pftf-rpi4/edk2/ArmPkg/Library/GccLto/liblto-aarch64.a
 .rela.rodata.GtBlockParser
                0x00000000000ecba8      0x168 /home/alastair/pftf-rpi4/edk2/ArmPkg/Library/GccLto/liblto-aarch64.a
 .rela.rodata.GtBlockTimerParser
                0x00000000000ecd10      0x1e0 /home/alastair/pftf-rpi4/edk2/ArmPkg/Library/GccLto/liblto-aarch64.a
 .rela.rodata.GtPlatformTimerHeaderParser
                0x00000000000ecef0       0x78 /home/alastair/pftf-rpi4/edk2/ArmPkg/Library/GccLto/liblto-aarch64.a
 .rela.rodata.GtdtParser
                0x00000000000ecf68      0x588 /home/alastair/pftf-rpi4/edk2/ArmPkg/Library/GccLto/liblto-aarch64.a
 .rela.rodata.HmatParser
                0x00000000000ed4f0      0x2a0 /home/alastair/pftf-rpi4/edk2/ArmPkg/Library/GccLto/liblto-aarch64.a
 .rela.rodata.HmatStructureHeaderParser
                0x00000000000ed790       0x78 /home/alastair/pftf-rpi4/edk2/ArmPkg/Library/GccLto/liblto-aarch64.a
 .rela.rodata.IdStructureParser
                0x00000000000ed808      0x1b0 /home/alastair/pftf-rpi4/edk2/ArmPkg/Library/GccLto/liblto-aarch64.a
 .rela.rodata.InterruptArrayParser
                0x00000000000ed9b8       0x60 /home/alastair/pftf-rpi4/edk2/ArmPkg/Library/GccLto/liblto-aarch64.a
 .rela.rodata.IortNodeHeaderParser
                0x00000000000eda18      0x180 /home/alastair/pftf-rpi4/edk2/ArmPkg/Library/GccLto/liblto-aarch64.a
 .rela.rodata.IortNodeIdMappingParser
                0x00000000000edb98       0xf0 /home/alastair/pftf-rpi4/edk2/ArmPkg/Library/GccLto/liblto-aarch64.a
 .rela.rodata.IortNodeItsParser
                0x00000000000edc88      0x1f8 /home/alastair/pftf-rpi4/edk2/ArmPkg/Library/GccLto/liblto-aarch64.a
 .rela.rodata.IortNodeNamedComponentParser
                0x00000000000ede80      0x210 /home/alastair/pftf-rpi4/edk2/ArmPkg/Library/GccLto/liblto-aarch64.a
 .rela.rodata.IortNodePmcgParser
                0x00000000000ee090      0x258 /home/alastair/pftf-rpi4/edk2/ArmPkg/Library/GccLto/liblto-aarch64.a
 .rela.rodata.IortNodeRootComplexParser
                0x00000000000ee2e8      0x288 /home/alastair/pftf-rpi4/edk2/ArmPkg/Library/GccLto/liblto-aarch64.a
 .rela.rodata.IortNodeSmmuV1V2Parser
                0x00000000000ee570      0x450 /home/alastair/pftf-rpi4/edk2/ArmPkg/Library/GccLto/liblto-aarch64.a
 .rela.rodata.IortNodeSmmuV3Parser
                0x00000000000ee9c0      0x390 /home/alastair/pftf-rpi4/edk2/ArmPkg/Library/GccLto/liblto-aarch64.a
 .rela.rodata.IortParser
                0x00000000000eed50      0x348 /home/alastair/pftf-rpi4/edk2/ArmPkg/Library/GccLto/liblto-aarch64.a
 .rela.rodata.ItsIdParser
                0x00000000000ef098       0x30 /home/alastair/pftf-rpi4/edk2/ArmPkg/Library/GccLto/liblto-aarch64.a
 .rela.rodata.MadtInterruptControllerHeaderParser
                0x00000000000ef0c8       0x60 /home/alastair/pftf-rpi4/edk2/ArmPkg/Library/GccLto/liblto-aarch64.a
 .rela.rodata.MadtParser
                0x00000000000ef128      0x2e8 /home/alastair/pftf-rpi4/edk2/ArmPkg/Library/GccLto/liblto-aarch64.a
 .rela.rodata.McfgParser
                0x00000000000ef410      0x2b8 /home/alastair/pftf-rpi4/edk2/ArmPkg/Library/GccLto/liblto-aarch64.a
 .rela.rodata.MemProximityDomainAttributeParser
                0x00000000000ef6c8      0x1e0 /home/alastair/pftf-rpi4/edk2/ArmPkg/Library/GccLto/liblto-aarch64.a
 .rela.rodata.MemSideCacheInfoParser
                0x00000000000ef8a8      0x1e0 /home/alastair/pftf-rpi4/edk2/ArmPkg/Library/GccLto/liblto-aarch64.a
 .rela.rodata.ParamList
                0x00000000000efa88       0xc0 /home/alastair/pftf-rpi4/edk2/ArmPkg/Library/GccLto/liblto-aarch64.a
 .rela.rodata.PccSubspaceHeaderParser
                0x00000000000efb48       0x90 /home/alastair/pftf-rpi4/edk2/ArmPkg/Library/GccLto/liblto-aarch64.a
 .rela.rodata.PccSubspaceType0Parser
                0x00000000000efbd8      0x288 /home/alastair/pftf-rpi4/edk2/ArmPkg/Library/GccLto/liblto-aarch64.a
 .rela.rodata.PccSubspaceType1Parser
                0x00000000000efe60      0x2d0 /home/alastair/pftf-rpi4/edk2/ArmPkg/Library/GccLto/liblto-aarch64.a
 .rela.rodata.PccSubspaceType2Parser
                0x00000000000f0130      0x378 /home/alastair/pftf-rpi4/edk2/ArmPkg/Library/GccLto/liblto-aarch64.a
 .rela.rodata.PccSubspaceType3Parser
                0x00000000000f04a8      0x570 /home/alastair/pftf-rpi4/edk2/ArmPkg/Library/GccLto/liblto-aarch64.a
 .rela.rodata.PcctParser
                0x00000000000f0a18      0x2d0 /home/alastair/pftf-rpi4/edk2/ArmPkg/Library/GccLto/liblto-aarch64.a
 .rela.rodata.PciCfgSpaceBaseAddrParser
                0x00000000000f0ce8       0xf0 /home/alastair/pftf-rpi4/edk2/ArmPkg/Library/GccLto/liblto-aarch64.a
 .rela.rodata.PpttParser
                0x00000000000f0dd8      0x288 /home/alastair/pftf-rpi4/edk2/ArmPkg/Library/GccLto/liblto-aarch64.a
 .rela.rodata.ProcessorHierarchyNodeStructureParser
                0x00000000000f1060      0x168 /home/alastair/pftf-rpi4/edk2/ArmPkg/Library/GccLto/liblto-aarch64.a
 .rela.rodata.ProcessorTopologyStructureHeaderParser
                0x00000000000f11c8       0x78 /home/alastair/pftf-rpi4/edk2/ArmPkg/Library/GccLto/liblto-aarch64.a
 .rela.rodata.RsdpParser
                0x00000000000f1240      0x210 /home/alastair/pftf-rpi4/edk2/ArmPkg/Library/GccLto/liblto-aarch64.a
 .rela.rodata.SBSAGenericWatchdogParser
                0x00000000000f1450      0x150 /home/alastair/pftf-rpi4/edk2/ArmPkg/Library/GccLto/liblto-aarch64.a
 .rela.rodata.SlitParser
                0x00000000000f15a0      0x2d0 /home/alastair/pftf-rpi4/edk2/ArmPkg/Library/GccLto/liblto-aarch64.a
 .rela.rodata.SllbiNames
                0x00000000000f1870       0x90 /home/alastair/pftf-rpi4/edk2/ArmPkg/Library/GccLto/liblto-aarch64.a
 .rela.rodata.SllbiParser
                0x00000000000f1900      0x240 /home/alastair/pftf-rpi4/edk2/ArmPkg/Library/GccLto/liblto-aarch64.a
 .rela.rodata.SpcrParser
                0x00000000000f1b40      0x690 /home/alastair/pftf-rpi4/edk2/ArmPkg/Library/GccLto/liblto-aarch64.a
 .rela.rodata.SratApciSapicAffinityParser
                0x00000000000f21d0      0x198 /home/alastair/pftf-rpi4/edk2/ArmPkg/Library/GccLto/liblto-aarch64.a
 .rela.rodata.SratDeviceHandleAcpiParser
                0x00000000000f2368       0x90 /home/alastair/pftf-rpi4/edk2/ArmPkg/Library/GccLto/liblto-aarch64.a
 .rela.rodata.SratDeviceHandlePciParser
                0x00000000000f23f8       0xa8 /home/alastair/pftf-rpi4/edk2/ArmPkg/Library/GccLto/liblto-aarch64.a
 .rela.rodata.SratGenericInitiatorAffinityParser
                0x00000000000f24a0      0x1c8 /home/alastair/pftf-rpi4/edk2/ArmPkg/Library/GccLto/liblto-aarch64.a
 .rela.rodata.SratGicCAffinityParser
                0x00000000000f2668      0x120 /home/alastair/pftf-rpi4/edk2/ArmPkg/Library/GccLto/liblto-aarch64.a
 .rela.rodata.SratGicITSAffinityParser
                0x00000000000f2788       0xf0 /home/alastair/pftf-rpi4/edk2/ArmPkg/Library/GccLto/liblto-aarch64.a
 .rela.rodata.SratMemAffinityParser
                0x00000000000f2878      0x210 /home/alastair/pftf-rpi4/edk2/ArmPkg/Library/GccLto/liblto-aarch64.a
 .rela.rodata.SratParser
                0x00000000000f2a88      0x300 /home/alastair/pftf-rpi4/edk2/ArmPkg/Library/GccLto/liblto-aarch64.a
 .rela.rodata.SratResourceAllocationParser
                0x00000000000f2d88       0x60 /home/alastair/pftf-rpi4/edk2/ArmPkg/Library/GccLto/liblto-aarch64.a
 .rela.rodata.SratX2ApciAffinityParser
                0x00000000000f2de8      0x180 /home/alastair/pftf-rpi4/edk2/ArmPkg/Library/GccLto/liblto-aarch64.a
 .rela.rodata.XsdtParser
                0x00000000000f2f68      0x288 /home/alastair/pftf-rpi4/edk2/ArmPkg/Library/GccLto/liblto-aarch64.a
 .rela.rodata.mBmLoadOptionName
                0x00000000000f31f0       0x60 /home/alastair/pftf-rpi4/edk2/ArmPkg/Library/GccLto/liblto-aarch64.a
 .rela.data.McErrorCorrectCapabilityTable
                0x00000000000f3250       0x90 /home/alastair/pftf-rpi4/edk2/ArmPkg/Library/GccLto/liblto-aarch64.a
 .rela.data.McInterleaveSupportTable
                0x00000000000f32e0       0xa8 /home/alastair/pftf-rpi4/edk2/ArmPkg/Library/GccLto/liblto-aarch64.a
 .rela.data.MemoryErrorGranularityTable
                0x00000000000f3388       0x60 /home/alastair/pftf-rpi4/edk2/ArmPkg/Library/GccLto/liblto-aarch64.a
 .rela.data.MemoryErrorOperationTable
                0x00000000000f33e8       0x78 /home/alastair/pftf-rpi4/edk2/ArmPkg/Library/GccLto/liblto-aarch64.a
 .rela.data.MemoryErrorTypeTable
                0x00000000000f3460      0x150 /home/alastair/pftf-rpi4/edk2/ArmPkg/Library/GccLto/liblto-aarch64.a
 .rela.data.MmMemoryTypeTable
                0x00000000000f35b0      0x108 /home/alastair/pftf-rpi4/edk2/ArmPkg/Library/GccLto/liblto-aarch64.a
 .rela.data.OnboardDeviceTypesTable
                0x00000000000f36b8       0xf0 /home/alastair/pftf-rpi4/edk2/ArmPkg/Library/GccLto/liblto-aarch64.a
 .rela.data.PortConnectorTypeTable
                0x00000000000f37a8      0x3f0 /home/alastair/pftf-rpi4/edk2/ArmPkg/Library/GccLto/liblto-aarch64.a
 .rela.data.SELTypesTable
                0x00000000000f3b98      0x288 /home/alastair/pftf-rpi4/edk2/ArmPkg/Library/GccLto/liblto-aarch64.a
 .rela.data.SELVarDataFormatTypeTable
                0x00000000000f3e20       0xd8 /home/alastair/pftf-rpi4/edk2/ArmPkg/Library/GccLto/liblto-aarch64.a
 .rela.data.SystemEnclosureStatusTable
                0x00000000000f3ef8       0x90 /home/alastair/pftf-rpi4/edk2/ArmPkg/Library/GccLto/liblto-aarch64.a
 .rela.data.SystemEnclosureTypeTable
                0x00000000000f3f88      0x360 /home/alastair/pftf-rpi4/edk2/ArmPkg/Library/GccLto/liblto-aarch64.a
 .rela.data.SystemSlotTypeTable
                0x00000000000f42e8      0x618 /home/alastair/pftf-rpi4/edk2/ArmPkg/Library/GccLto/liblto-aarch64.a
 .rela.data.mIfConfigCheckList
                0x00000000000f4900       0x78 /home/alastair/pftf-rpi4/edk2/ArmPkg/Library/GccLto/liblto-aarch64.a
 .rela.data.mSetCheckList
                0x00000000000f4978       0x48 /home/alastair/pftf-rpi4/edk2/ArmPkg/Library/GccLto/liblto-aarch64.a
 .rela.rodata.AestGicStructure
                0x00000000000f49c0       0x78 /home/alastair/pftf-rpi4/edk2/ArmPkg/Library/GccLto/liblto-aarch64.a
 .rela.rodata.AestMemoryControllerStructure
                0x00000000000f4a38       0x30 /home/alastair/pftf-rpi4/edk2/ArmPkg/Library/GccLto/liblto-aarch64.a
 .rela.rodata.AestNodeHeaderParser
                0x00000000000f4a68      0x270 /home/alastair/pftf-rpi4/edk2/ArmPkg/Library/GccLto/liblto-aarch64.a
 .rela.rodata.AestNodeInterface
                0x00000000000f4cd8      0x1e0 /home/alastair/pftf-rpi4/edk2/ArmPkg/Library/GccLto/liblto-aarch64.a
 .rela.rodata.AestNodeInterrupt
                0x00000000000f4eb8      0x168 /home/alastair/pftf-rpi4/edk2/ArmPkg/Library/GccLto/liblto-aarch64.a
 .rela.rodata.AestParser
                0x00000000000f5020      0x288 /home/alastair/pftf-rpi4/edk2/ArmPkg/Library/GccLto/liblto-aarch64.a
 .rela.rodata.AestProcessorCacheResourceSubstructure
                0x00000000000f52a8       0x60 /home/alastair/pftf-rpi4/edk2/ArmPkg/Library/GccLto/liblto-aarch64.a
 .rela.rodata.AestProcessorGenericResourceSubstructure
                0x00000000000f5308       0x30 /home/alastair/pftf-rpi4/edk2/ArmPkg/Library/GccLto/liblto-aarch64.a
 .rela.rodata.AestProcessorStructure
                0x00000000000f5338      0x180 /home/alastair/pftf-rpi4/edk2/ArmPkg/Library/GccLto/liblto-aarch64.a
 .rela.rodata.AestProcessorTlbResourceSubstructure
                0x00000000000f54b8       0x60 /home/alastair/pftf-rpi4/edk2/ArmPkg/Library/GccLto/liblto-aarch64.a
 .rela.rodata.AestSmmuStructure
                0x00000000000f5518       0x60 /home/alastair/pftf-rpi4/edk2/ArmPkg/Library/GccLto/liblto-aarch64.a
 .rela.rodata.AestVendorDefinedStructure
                0x00000000000f5578       0x90 /home/alastair/pftf-rpi4/edk2/ArmPkg/Library/GccLto/liblto-aarch64.a
 .rela.rodata.ArmSbbrReqs
                0x00000000000f5608       0x48 /home/alastair/pftf-rpi4/edk2/ArmPkg/Library/GccLto/liblto-aarch64.a
 .rela.rodata.ArmSbbrVersions
                0x00000000000f5650       0x48 /home/alastair/pftf-rpi4/edk2/ArmPkg/Library/GccLto/liblto-aarch64.a
 .rela.rodata.BgrtParser
                0x00000000000f5698      0x3a8 /home/alastair/pftf-rpi4/edk2/ArmPkg/Library/GccLto/liblto-aarch64.a
 .rela.rodata.Dbg2Parser
                0x00000000000f5a40      0x318 /home/alastair/pftf-rpi4/edk2/ArmPkg/Library/GccLto/liblto-aarch64.a
 .rela.rodata.DbgDevInfoHeaderParser
                0x00000000000f5d58       0x78 /home/alastair/pftf-rpi4/edk2/ArmPkg/Library/GccLto/liblto-aarch64.a
 .rela.rodata.DbgDevInfoParser
                0x00000000000f5dd0      0x300 /home/alastair/pftf-rpi4/edk2/ArmPkg/Library/GccLto/liblto-aarch64.a
 .rela.rodata.FacsParser
                0x00000000000f60d0      0x2e8 /home/alastair/pftf-rpi4/edk2/ArmPkg/Library/GccLto/liblto-aarch64.a
 .rela.rodata.PingParamList
                0x00000000000f63b8       0x78 /home/alastair/pftf-rpi4/edk2/ArmPkg/Library/GccLto/liblto-aarch64.a
 .rela.data.BaseBoardBoardTypeTable
                0x00000000000f6430      0x138 /home/alastair/pftf-rpi4/edk2/ArmPkg/Library/GccLto/liblto-aarch64.a
 .rela.data.BaseBoardFeatureFlagsTable
                0x00000000000f6568       0x78 /home/alastair/pftf-rpi4/edk2/ArmPkg/Library/GccLto/liblto-aarch64.a
 .rela.data.CacheAssociativityTable
                0x00000000000f65e0      0x150 /home/alastair/pftf-rpi4/edk2/ArmPkg/Library/GccLto/liblto-aarch64.a
 .rela.data.CacheErrCorrectingTypeTable
                0x00000000000f6730       0x90 /home/alastair/pftf-rpi4/edk2/ArmPkg/Library/GccLto/liblto-aarch64.a
 .rela.data.CacheSRAMTypeTable
                0x00000000000f67c0       0xa8 /home/alastair/pftf-rpi4/edk2/ArmPkg/Library/GccLto/liblto-aarch64.a
 .rela.data.CacheSystemCacheTypeTable
                0x00000000000f6868       0x78 /home/alastair/pftf-rpi4/edk2/ArmPkg/Library/GccLto/liblto-aarch64.a
 .rela.data.CoolingDeviceStatusTable
                0x00000000000f68e0       0x90 /home/alastair/pftf-rpi4/edk2/ArmPkg/Library/GccLto/liblto-aarch64.a
 .rela.data.CoolingDeviceTypeTable
                0x00000000000f6970      0x108 /home/alastair/pftf-rpi4/edk2/ArmPkg/Library/GccLto/liblto-aarch64.a
 .rela.data.ECPLocTable
                0x00000000000f6a78      0x108 /home/alastair/pftf-rpi4/edk2/ArmPkg/Library/GccLto/liblto-aarch64.a
 .rela.data.ECPStatusTable
                0x00000000000f6b80       0x90 /home/alastair/pftf-rpi4/edk2/ArmPkg/Library/GccLto/liblto-aarch64.a
 .rela.data.IPMIDIBMCInterfaceTypeTable
                0x00000000000f6c10       0x90 /home/alastair/pftf-rpi4/edk2/ArmPkg/Library/GccLto/liblto-aarch64.a
 .rela.data.MCHostInterfaceTypeTable
                0x00000000000f6ca0       0x48 /home/alastair/pftf-rpi4/edk2/ArmPkg/Library/GccLto/liblto-aarch64.a
 .rela.data.MDAddressTypeTable
                0x00000000000f6ce8       0x78 /home/alastair/pftf-rpi4/edk2/ArmPkg/Library/GccLto/liblto-aarch64.a
 .rela.data.MDTypeTable
                0x00000000000f6d60      0x138 /home/alastair/pftf-rpi4/edk2/ArmPkg/Library/GccLto/liblto-aarch64.a
 .rela.data.McErrorDetectMethodTable
                0x00000000000f6e98       0xc0 /home/alastair/pftf-rpi4/edk2/ArmPkg/Library/GccLto/liblto-aarch64.a
 .rela.data.McMemorySpeedsTable
                0x00000000000f6f58       0x78 /home/alastair/pftf-rpi4/edk2/ArmPkg/Library/GccLto/liblto-aarch64.a
 .rela.data.MemoryChannelTypeTable
                0x00000000000f6fd0       0x60 /home/alastair/pftf-rpi4/edk2/ArmPkg/Library/GccLto/liblto-aarch64.a
 .rela.data.MemoryDeviceFormFactorTable
                0x00000000000f7030      0x180 /home/alastair/pftf-rpi4/edk2/ArmPkg/Library/GccLto/liblto-aarch64.a
 .rela.data.MemoryDeviceMemoryOperatingModeCapabilityTable
                0x00000000000f71b0       0x78 /home/alastair/pftf-rpi4/edk2/ArmPkg/Library/GccLto/liblto-aarch64.a
 .rela.data.MemoryDeviceMemoryTechnologyTable
                0x00000000000f7228       0xa8 /home/alastair/pftf-rpi4/edk2/ArmPkg/Library/GccLto/liblto-aarch64.a
 .rela.data.MemoryDeviceTypeDetailTable
                0x00000000000f72d0      0x150 /home/alastair/pftf-rpi4/edk2/ArmPkg/Library/GccLto/liblto-aarch64.a
 .rela.data.MemoryDeviceTypeTable
                0x00000000000f7420      0x300 /home/alastair/pftf-rpi4/edk2/ArmPkg/Library/GccLto/liblto-aarch64.a
 .rela.data.MemoryModuleVoltageTable
                0x00000000000f7720       0x48 /home/alastair/pftf-rpi4/edk2/ArmPkg/Library/GccLto/liblto-aarch64.a
 .rela.data.MmErrorStatusTable
                0x00000000000f7768       0x48 /home/alastair/pftf-rpi4/edk2/ArmPkg/Library/GccLto/liblto-aarch64.a
 .rela.data.PBDeviceChemistryTable
                0x00000000000f77b0       0xc0 /home/alastair/pftf-rpi4/edk2/ArmPkg/Library/GccLto/liblto-aarch64.a
 .rela.data.PMAErrorCorrectionTypesTable
                0x00000000000f7870       0xa8 /home/alastair/pftf-rpi4/edk2/ArmPkg/Library/GccLto/liblto-aarch64.a
 .rela.data.PMALocationTable
                0x00000000000f7918      0x168 /home/alastair/pftf-rpi4/edk2/ArmPkg/Library/GccLto/liblto-aarch64.a
 .rela.data.PMAUseTable
                0x00000000000f7a80       0xa8 /home/alastair/pftf-rpi4/edk2/ArmPkg/Library/GccLto/liblto-aarch64.a
 .rela.data.PointingDeviceInterfaceTable
                0x00000000000f7b28      0x108 /home/alastair/pftf-rpi4/edk2/ArmPkg/Library/GccLto/liblto-aarch64.a
 .rela.data.PointingDeviceTypeTable
                0x00000000000f7c30       0xa8 /home/alastair/pftf-rpi4/edk2/ArmPkg/Library/GccLto/liblto-aarch64.a
 .rela.data.PortTypeTable
                0x00000000000f7cd8      0x3a8 /home/alastair/pftf-rpi4/edk2/ArmPkg/Library/GccLto/liblto-aarch64.a
 .rela.data.PostResultsBitmapDw1Table
                0x00000000000f8080      0x300 /home/alastair/pftf-rpi4/edk2/ArmPkg/Library/GccLto/liblto-aarch64.a
 .rela.data.PostResultsBitmapDw2Table
                0x00000000000f8380      0x300 /home/alastair/pftf-rpi4/edk2/ArmPkg/Library/GccLto/liblto-aarch64.a
 .rela.data.ProcessorArchitectureTypesTable
                0x00000000000f8680       0xd8 /home/alastair/pftf-rpi4/edk2/ArmPkg/Library/GccLto/liblto-aarch64.a
 .rela.data.ProcessorCharacteristicsTable
                0x00000000000f8758       0xd8 /home/alastair/pftf-rpi4/edk2/ArmPkg/Library/GccLto/liblto-aarch64.a
 .rela.data.ProcessorTypeTable
                0x00000000000f8830       0x90 /home/alastair/pftf-rpi4/edk2/ArmPkg/Library/GccLto/liblto-aarch64.a
 .rela.data.ProcessorUpgradeTable
                0x00000000000f88c0      0x5a0 /home/alastair/pftf-rpi4/edk2/ArmPkg/Library/GccLto/liblto-aarch64.a
 .rela.data.SESecurityStatusTable
                0x00000000000f8e60       0x78 /home/alastair/pftf-rpi4/edk2/ArmPkg/Library/GccLto/liblto-aarch64.a
 .rela.data.SlotCharacteristics1Table
                0x00000000000f8ed8       0xc0 /home/alastair/pftf-rpi4/edk2/ArmPkg/Library/GccLto/liblto-aarch64.a
 .rela.data.SlotCharacteristics2Table
                0x00000000000f8f98       0x60 /home/alastair/pftf-rpi4/edk2/ArmPkg/Library/GccLto/liblto-aarch64.a
 .rela.data.StructureTypeInfoTable
                0x00000000000f8ff8      0x468 /home/alastair/pftf-rpi4/edk2/ArmPkg/Library/GccLto/liblto-aarch64.a
 .rela.data.SystemSlotCurrentUsageTable
                0x00000000000f9460       0x78 /home/alastair/pftf-rpi4/edk2/ArmPkg/Library/GccLto/liblto-aarch64.a
 .rela.data.SystemSlotDataBusWidthTable
                0x00000000000f94d8      0x150 /home/alastair/pftf-rpi4/edk2/ArmPkg/Library/GccLto/liblto-aarch64.a
 .rela.data.SystemSlotLengthTable
                0x00000000000f9628       0x60 /home/alastair/pftf-rpi4/edk2/ArmPkg/Library/GccLto/liblto-aarch64.a
 .rela.data.SystemWakeupTypeTable
                0x00000000000f9688       0xc0 /home/alastair/pftf-rpi4/edk2/ArmPkg/Library/GccLto/liblto-aarch64.a
 .rela.data.TemperatureProbeLocTable
                0x00000000000f9748      0x108 /home/alastair/pftf-rpi4/edk2/ArmPkg/Library/GccLto/liblto-aarch64.a
 .rela.data.TemperatureProbeStatusTable
                0x00000000000f9850       0x90 /home/alastair/pftf-rpi4/edk2/ArmPkg/Library/GccLto/liblto-aarch64.a
 .rela.data.VPLocationTable
                0x00000000000f98e0       0x90 /home/alastair/pftf-rpi4/edk2/ArmPkg/Library/GccLto/liblto-aarch64.a
 .rela.data.VPStatusTable
                0x00000000000f9970      0x108 /home/alastair/pftf-rpi4/edk2/ArmPkg/Library/GccLto/liblto-aarch64.a
 .rela.rodata.ASPMCtrlStrTable
                0x00000000000f9a78       0x60 /home/alastair/pftf-rpi4/edk2/ArmPkg/Library/GccLto/liblto-aarch64.a
 .rela.rodata.CSWTCH.173
                0x00000000000f9ad8       0x78 /home/alastair/pftf-rpi4/edk2/ArmPkg/Library/GccLto/liblto-aarch64.a
 .rela.rodata.CSWTCH.358
                0x00000000000f9b50       0x78 /home/alastair/pftf-rpi4/edk2/ArmPkg/Library/GccLto/liblto-aarch64.a
 .rela.rodata.CSWTCH.359
                0x00000000000f9bc8       0x60 /home/alastair/pftf-rpi4/edk2/ArmPkg/Library/GccLto/liblto-aarch64.a
 .rela.rodata.DevicePortTypeTable
                0x00000000000f9c28      0x108 /home/alastair/pftf-rpi4/edk2/ArmPkg/Library/GccLto/liblto-aarch64.a
 .rela.rodata.IndicatorTable
                0x00000000000f9d30       0x60 /home/alastair/pftf-rpi4/edk2/ArmPkg/Library/GccLto/liblto-aarch64.a
 .rela.rodata.L0sLatencyStrTable
                0x00000000000f9d90       0xc0 /home/alastair/pftf-rpi4/edk2/ArmPkg/Library/GccLto/liblto-aarch64.a
 .rela.rodata.L1LatencyStrTable
                0x00000000000f9e50       0xc0 /home/alastair/pftf-rpi4/edk2/ArmPkg/Library/GccLto/liblto-aarch64.a
 .rela.rodata.ParamList.lto_priv.0
                0x00000000000f9f10       0x90 /home/alastair/pftf-rpi4/edk2/ArmPkg/Library/GccLto/liblto-aarch64.a
 .rela.rodata.ParamList.lto_priv.1
                0x00000000000f9fa0       0x60 /home/alastair/pftf-rpi4/edk2/ArmPkg/Library/GccLto/liblto-aarch64.a
 .rela.rodata.SlotPwrLmtScaleTable
                0x00000000000fa000       0x60 /home/alastair/pftf-rpi4/edk2/ArmPkg/Library/GccLto/liblto-aarch64.a
 .rela.data.PCIBlankEntry
                0x00000000000fa060       0x30 /home/alastair/pftf-rpi4/edk2/ArmPkg/Library/GccLto/liblto-aarch64.a
 .rela.data.PCIPIFClass_0100
                0x00000000000fa090       0xf0 /home/alastair/pftf-rpi4/edk2/ArmPkg/Library/GccLto/liblto-aarch64.a
 .rela.data.PCIPIFClass_0101
                0x00000000000fa180      0x600 /home/alastair/pftf-rpi4/edk2/ArmPkg/Library/GccLto/liblto-aarch64.a
 .rela.data.PCIPIFClass_0105
                0x00000000000fa780       0x60 /home/alastair/pftf-rpi4/edk2/ArmPkg/Library/GccLto/liblto-aarch64.a
 .rela.data.PCIPIFClass_0106
                0x00000000000fa7e0       0x90 /home/alastair/pftf-rpi4/edk2/ArmPkg/Library/GccLto/liblto-aarch64.a
 .rela.data.PCIPIFClass_0107
                0x00000000000fa870       0x60 /home/alastair/pftf-rpi4/edk2/ArmPkg/Library/GccLto/liblto-aarch64.a
 .rela.data.PCIPIFClass_0108
                0x00000000000fa8d0       0x90 /home/alastair/pftf-rpi4/edk2/ArmPkg/Library/GccLto/liblto-aarch64.a
 .rela.data.PCIPIFClass_0109
                0x00000000000fa960       0x60 /home/alastair/pftf-rpi4/edk2/ArmPkg/Library/GccLto/liblto-aarch64.a
 .rela.data.PCIPIFClass_0300
                0x00000000000fa9c0       0x60 /home/alastair/pftf-rpi4/edk2/ArmPkg/Library/GccLto/liblto-aarch64.a
 .rela.data.PCIPIFClass_0604
                0x00000000000faa20       0x60 /home/alastair/pftf-rpi4/edk2/ArmPkg/Library/GccLto/liblto-aarch64.a
 .rela.data.PCIPIFClass_0609
                0x00000000000faa80       0x60 /home/alastair/pftf-rpi4/edk2/ArmPkg/Library/GccLto/liblto-aarch64.a
 .rela.data.PCIPIFClass_060b
                0x00000000000faae0       0x60 /home/alastair/pftf-rpi4/edk2/ArmPkg/Library/GccLto/liblto-aarch64.a
 .rela.data.PCIPIFClass_0700
                0x00000000000fab40      0x150 /home/alastair/pftf-rpi4/edk2/ArmPkg/Library/GccLto/liblto-aarch64.a
 .rela.data.PCIPIFClass_0701
                0x00000000000fac90       0xf0 /home/alastair/pftf-rpi4/edk2/ArmPkg/Library/GccLto/liblto-aarch64.a
 .rela.data.PCIPIFClass_0703
                0x00000000000fad80       0xf0 /home/alastair/pftf-rpi4/edk2/ArmPkg/Library/GccLto/liblto-aarch64.a
 .rela.data.PCIPIFClass_0800
                0x00000000000fae70       0xf0 /home/alastair/pftf-rpi4/edk2/ArmPkg/Library/GccLto/liblto-aarch64.a
 .rela.data.PCIPIFClass_0801
                0x00000000000faf60       0x90 /home/alastair/pftf-rpi4/edk2/ArmPkg/Library/GccLto/liblto-aarch64.a
 .rela.data.PCIPIFClass_0802
                0x00000000000faff0       0x90 /home/alastair/pftf-rpi4/edk2/ArmPkg/Library/GccLto/liblto-aarch64.a
 .rela.data.PCIPIFClass_0803
                0x00000000000fb080       0x90 /home/alastair/pftf-rpi4/edk2/ArmPkg/Library/GccLto/liblto-aarch64.a
 .rela.data.PCIPIFClass_0904
                0x00000000000fb110       0x60 /home/alastair/pftf-rpi4/edk2/ArmPkg/Library/GccLto/liblto-aarch64.a
 .rela.data.PCIPIFClass_0c00
                0x00000000000fb170       0x60 /home/alastair/pftf-rpi4/edk2/ArmPkg/Library/GccLto/liblto-aarch64.a
 .rela.data.PCIPIFClass_0c03
                0x00000000000fb1d0      0x120 /home/alastair/pftf-rpi4/edk2/ArmPkg/Library/GccLto/liblto-aarch64.a
 .rela.data.PCIPIFClass_0c07
                0x00000000000fb2f0       0x90 /home/alastair/pftf-rpi4/edk2/ArmPkg/Library/GccLto/liblto-aarch64.a
 .rela.data.PCIPIFClass_0d01
                0x00000000000fb380       0x60 /home/alastair/pftf-rpi4/edk2/ArmPkg/Library/GccLto/liblto-aarch64.a
 .rela.data.PCIPIFClass_0e00
                0x00000000000fb3e0       0x60 /home/alastair/pftf-rpi4/edk2/ArmPkg/Library/GccLto/liblto-aarch64.a
 .rela.data.PCISubClass_00
                0x00000000000fb440       0x60 /home/alastair/pftf-rpi4/edk2/ArmPkg/Library/GccLto/liblto-aarch64.a
 .rela.data.PCISubClass_01
                0x00000000000fb4a0      0x210 /home/alastair/pftf-rpi4/edk2/ArmPkg/Library/GccLto/liblto-aarch64.a
 .rela.data.PCISubClass_02
                0x00000000000fb6b0      0x1b0 /home/alastair/pftf-rpi4/edk2/ArmPkg/Library/GccLto/liblto-aarch64.a
 .rela.data.PCISubClass_03
                0x00000000000fb860       0xd8 /home/alastair/pftf-rpi4/edk2/ArmPkg/Library/GccLto/liblto-aarch64.a
 .rela.data.PCISubClass_04
                0x00000000000fb938       0xf0 /home/alastair/pftf-rpi4/edk2/ArmPkg/Library/GccLto/liblto-aarch64.a
 .rela.data.PCISubClass_05
                0x00000000000fba28       0x90 /home/alastair/pftf-rpi4/edk2/ArmPkg/Library/GccLto/liblto-aarch64.a
 .rela.data.PCISubClass_06
                0x00000000000fbab8      0x270 /home/alastair/pftf-rpi4/edk2/ArmPkg/Library/GccLto/liblto-aarch64.a
 .rela.data.PCISubClass_07
                0x00000000000fbd28      0x150 /home/alastair/pftf-rpi4/edk2/ArmPkg/Library/GccLto/liblto-aarch64.a
 .rela.data.PCISubClass_08
                0x00000000000fbe78      0x1b0 /home/alastair/pftf-rpi4/edk2/ArmPkg/Library/GccLto/liblto-aarch64.a
 .rela.data.PCISubClass_09
                0x00000000000fc028      0x120 /home/alastair/pftf-rpi4/edk2/ArmPkg/Library/GccLto/liblto-aarch64.a
 .rela.data.PCISubClass_0a
                0x00000000000fc148       0x60 /home/alastair/pftf-rpi4/edk2/ArmPkg/Library/GccLto/liblto-aarch64.a
 .rela.data.PCISubClass_0b
                0x00000000000fc1a8      0x180 /home/alastair/pftf-rpi4/edk2/ArmPkg/Library/GccLto/liblto-aarch64.a
 .rela.data.PCISubClass_0c
                0x00000000000fc328      0x210 /home/alastair/pftf-rpi4/edk2/ArmPkg/Library/GccLto/liblto-aarch64.a
 .rela.data.PCISubClass_0d
                0x00000000000fc538      0x180 /home/alastair/pftf-rpi4/edk2/ArmPkg/Library/GccLto/liblto-aarch64.a
 .rela.data.PCISubClass_0e
                0x00000000000fc6b8       0x30 /home/alastair/pftf-rpi4/edk2/ArmPkg/Library/GccLto/liblto-aarch64.a
 .rela.data.PCISubClass_0f
                0x00000000000fc6e8       0xf0 /home/alastair/pftf-rpi4/edk2/ArmPkg/Library/GccLto/liblto-aarch64.a
 .rela.data.PCISubClass_10
                0x00000000000fc7d8       0x90 /home/alastair/pftf-rpi4/edk2/ArmPkg/Library/GccLto/liblto-aarch64.a
 .rela.data.PCISubClass_11
                0x00000000000fc868       0xf0 /home/alastair/pftf-rpi4/edk2/ArmPkg/Library/GccLto/liblto-aarch64.a
 .rela.data.PCISubClass_12
                0x00000000000fc958       0x30 /home/alastair/pftf-rpi4/edk2/ArmPkg/Library/GccLto/liblto-aarch64.a
 .rela.data.PCISubClass_13
                0x00000000000fc988       0x30 /home/alastair/pftf-rpi4/edk2/ArmPkg/Library/GccLto/liblto-aarch64.a
 .rela.data.SfoParamList
                0x00000000000fc9b8       0x18 /home/alastair/pftf-rpi4/edk2/ArmPkg/Library/GccLto/liblto-aarch64.a
 .rela.data.gClassStringList
                0x00000000000fc9d0      0x3f0 /home/alastair/pftf-rpi4/edk2/ArmPkg/Library/GccLto/liblto-aarch64.a
 .rela.rodata.CSWTCH.69
                0x00000000000fcdc0       0x60 /home/alastair/pftf-rpi4/edk2/ArmPkg/Library/GccLto/liblto-aarch64.a
 .rela.rodata.ParamList.lto_priv.2
                0x00000000000fce20       0x30 /home/alastair/pftf-rpi4/edk2/ArmPkg/Library/GccLto/liblto-aarch64.a
 .rela.rodata.ParamList.lto_priv.3
                0x00000000000fce50       0x18 /home/alastair/pftf-rpi4/edk2/ArmPkg/Library/GccLto/liblto-aarch64.a
 .rela.rodata.ParamList.lto_priv.4
                0x00000000000fce68       0x18 /home/alastair/pftf-rpi4/edk2/ArmPkg/Library/GccLto/liblto-aarch64.a
 .rela.rodata.ParamList.lto_priv.5
                0x00000000000fce80       0xa8 /home/alastair/pftf-rpi4/edk2/ArmPkg/Library/GccLto/liblto-aarch64.a
 .rela.rodata.ParamList.lto_priv.6
                0x00000000000fcf28       0x60 /home/alastair/pftf-rpi4/edk2/ArmPkg/Library/GccLto/liblto-aarch64.a
 .rela.rodata.ParamList.lto_priv.7
                0x00000000000fcf88       0x48 /home/alastair/pftf-rpi4/edk2/ArmPkg/Library/GccLto/liblto-aarch64.a
 .rela.rodata.PcieExplainList
                0x00000000000fcfd0      0x138 /home/alastair/pftf-rpi4/edk2/ArmPkg/Library/GccLto/liblto-aarch64.a
 .rela.rodata.mUefiDevicePathLibDevPathFromTextTable
                0x00000000000fd108     0x1020 /home/alastair/pftf-rpi4/edk2/ArmPkg/Library/GccLto/liblto-aarch64.a
 .rela.data.CfgGuidList
                0x00000000000fe128       0x30 /home/alastair/pftf-rpi4/edk2/ArmPkg/Library/GccLto/liblto-aarch64.a
 .rela.data.HMainEditorConst
                0x00000000000fe158       0x18 /home/alastair/pftf-rpi4/edk2/ArmPkg/Library/GccLto/liblto-aarch64.a
 .rela.data.HexMainControlBasedMenuFunctions
                0x00000000000fe170      0x108 /home/alastair/pftf-rpi4/edk2/ArmPkg/Library/GccLto/liblto-aarch64.a
 .rela.data.MainControlBasedMenuFunctions
                0x00000000000fe278       0xf0 /home/alastair/pftf-rpi4/edk2/ArmPkg/Library/GccLto/liblto-aarch64.a
 .rela.data.MainEditorConst
                0x00000000000fe368       0x18 /home/alastair/pftf-rpi4/edk2/ArmPkg/Library/GccLto/liblto-aarch64.a
 .rela.data.MainMenuItems
                0x00000000000fe380       0xf0 /home/alastair/pftf-rpi4/edk2/ArmPkg/Library/GccLto/liblto-aarch64.a
 .rela.rodata.HexEditorMenuItems
                0x00000000000fe470       0xf0 /home/alastair/pftf-rpi4/edk2/ArmPkg/Library/GccLto/liblto-aarch64.a
 .rela.rodata.ParamList.lto_priv.10
                0x00000000000fe560       0x30 /home/alastair/pftf-rpi4/edk2/ArmPkg/Library/GccLto/liblto-aarch64.a
 .rela.rodata.ParamList.lto_priv.11
                0x00000000000fe590       0x48 /home/alastair/pftf-rpi4/edk2/ArmPkg/Library/GccLto/liblto-aarch64.a
 .rela.rodata.ParamList.lto_priv.8
                0x00000000000fe5d8       0x90 /home/alastair/pftf-rpi4/edk2/ArmPkg/Library/GccLto/liblto-aarch64.a
 .rela.rodata.ParamList.lto_priv.9
                0x00000000000fe668       0x30 /home/alastair/pftf-rpi4/edk2/ArmPkg/Library/GccLto/liblto-aarch64.a
 .rela.rodata.ParamListHii
                0x00000000000fe698       0x78 /home/alastair/pftf-rpi4/edk2/ArmPkg/Library/GccLto/liblto-aarch64.a
 .rela.rodata.ParamListPreHii
                0x00000000000fe710       0x78 /home/alastair/pftf-rpi4/edk2/ArmPkg/Library/GccLto/liblto-aarch64.a
 .rela.data.DiagGuidList
                0x00000000000fe788       0x30 /home/alastair/pftf-rpi4/edk2/ArmPkg/Library/GccLto/liblto-aarch64.a
 .rela.rodata.CSWTCH.37
                0x00000000000fe7b8      0x480 /home/alastair/pftf-rpi4/edk2/ArmPkg/Library/GccLto/liblto-aarch64.a
 .rela.rodata.ParamList.lto_priv.12
                0x00000000000fec38       0x18 /home/alastair/pftf-rpi4/edk2/ArmPkg/Library/GccLto/liblto-aarch64.a
 .rela.rodata.ParamList.lto_priv.13
                0x00000000000fec50       0x30 /home/alastair/pftf-rpi4/edk2/ArmPkg/Library/GccLto/liblto-aarch64.a
 .rela.rodata.ParamList.lto_priv.14
                0x00000000000fec80       0x30 /home/alastair/pftf-rpi4/edk2/ArmPkg/Library/GccLto/liblto-aarch64.a
 .rela.rodata.ParamList.lto_priv.15
                0x00000000000fecb0       0x18 /home/alastair/pftf-rpi4/edk2/ArmPkg/Library/GccLto/liblto-aarch64.a
 .rela.rodata.ParamList.lto_priv.16
                0x00000000000fecc8       0x60 /home/alastair/pftf-rpi4/edk2/ArmPkg/Library/GccLto/liblto-aarch64.a
 .rela.rodata.ParamList.lto_priv.17
                0x00000000000fed28       0x30 /home/alastair/pftf-rpi4/edk2/ArmPkg/Library/GccLto/liblto-aarch64.a
 .rela.rodata.ParamList.lto_priv.18
                0x00000000000fed58       0x18 /home/alastair/pftf-rpi4/edk2/ArmPkg/Library/GccLto/liblto-aarch64.a
 .rela.rodata.ParamList.lto_priv.19
                0x00000000000fed70       0x60 /home/alastair/pftf-rpi4/edk2/ArmPkg/Library/GccLto/liblto-aarch64.a
 .rela.rodata.ParamList.lto_priv.20
                0x00000000000fedd0       0x30 /home/alastair/pftf-rpi4/edk2/ArmPkg/Library/GccLto/liblto-aarch64.a
 .rela.rodata.ParamList.lto_priv.21
                0x00000000000fee00       0x30 /home/alastair/pftf-rpi4/edk2/ArmPkg/Library/GccLto/liblto-aarch64.a
 .rela.rodata.ParamList.lto_priv.22
                0x00000000000fee30       0x30 /home/alastair/pftf-rpi4/edk2/ArmPkg/Library/GccLto/liblto-aarch64.a
 .rela.rodata.ParamList.lto_priv.23
                0x00000000000fee60       0x18 /home/alastair/pftf-rpi4/edk2/ArmPkg/Library/GccLto/liblto-aarch64.a
 .rela.rodata.ParamList.lto_priv.24
                0x00000000000fee78       0x48 /home/alastair/pftf-rpi4/edk2/ArmPkg/Library/GccLto/liblto-aarch64.a
 .rela.rodata.ParamList.lto_priv.25
                0x00000000000feec0       0x78 /home/alastair/pftf-rpi4/edk2/ArmPkg/Library/GccLto/liblto-aarch64.a
 .rela.rodata.AttribParamList
                0x00000000000fef38       0xc0 /home/alastair/pftf-rpi4/edk2/ArmPkg/Library/GccLto/liblto-aarch64.a
 .rela.rodata.MapParamList
                0x00000000000feff8       0xc0 /home/alastair/pftf-rpi4/edk2/ArmPkg/Library/GccLto/liblto-aarch64.a
 .rela.rodata.ParamList.lto_priv.26
                0x00000000000ff0b8       0x30 /home/alastair/pftf-rpi4/edk2/ArmPkg/Library/GccLto/liblto-aarch64.a
 .rela.rodata.ParamList.lto_priv.27
                0x00000000000ff0e8       0x30 /home/alastair/pftf-rpi4/edk2/ArmPkg/Library/GccLto/liblto-aarch64.a
 .rela.rodata.ParamList.lto_priv.28
                0x00000000000ff118       0x18 /home/alastair/pftf-rpi4/edk2/ArmPkg/Library/GccLto/liblto-aarch64.a
 .rela.rodata.ParamList.lto_priv.29
                0x00000000000ff130       0x30 /home/alastair/pftf-rpi4/edk2/ArmPkg/Library/GccLto/liblto-aarch64.a
 .rela.rodata.ParamList.lto_priv.30
                0x00000000000ff160       0x18 /home/alastair/pftf-rpi4/edk2/ArmPkg/Library/GccLto/liblto-aarch64.a
 .rela.rodata.ResetParamList
                0x00000000000ff178       0x60 /home/alastair/pftf-rpi4/edk2/ArmPkg/Library/GccLto/liblto-aarch64.a
 .rela.rodata.SetParamList
                0x00000000000ff1d8       0x30 /home/alastair/pftf-rpi4/edk2/ArmPkg/Library/GccLto/liblto-aarch64.a
 .rela.rodata.DevPathConsistMappingTable
                0x00000000000ff208      0x3c0 /home/alastair/pftf-rpi4/edk2/ArmPkg/Library/GccLto/liblto-aarch64.a
 .rela.rodata.LoadParamList
                0x00000000000ff5c8       0x18 /home/alastair/pftf-rpi4/edk2/ArmPkg/Library/GccLto/liblto-aarch64.a
 .rela.rodata.LsParamList
                0x00000000000ff5e0       0x48 /home/alastair/pftf-rpi4/edk2/ArmPkg/Library/GccLto/liblto-aarch64.a
 .rela.rodata.TimeParamList3
                0x00000000000ff628       0x30 /home/alastair/pftf-rpi4/edk2/ArmPkg/Library/GccLto/liblto-aarch64.a
 .rela.rodata.TimeZoneParamList3
                0x00000000000ff658       0x48 /home/alastair/pftf-rpi4/edk2/ArmPkg/Library/GccLto/liblto-aarch64.a
 .rela.rodata.mGuidStringList
                0x00000000000ff6a0     0x1ba8 /home/alastair/pftf-rpi4/edk2/ArmPkg/Library/GccLto/liblto-aarch64.a
 .rela.rodata.mGuidStringListNT
                0x0000000000101248       0x48 /home/alastair/pftf-rpi4/edk2/ArmPkg/Library/GccLto/liblto-aarch64.a
 .rela.rodata.mMTDName
                0x0000000000101290       0x60 /home/alastair/pftf-rpi4/edk2/ArmPkg/Library/GccLto/liblto-aarch64.a
 .rela.rodata.CSWTCH.58
                0x00000000001012f0       0x90 /home/alastair/pftf-rpi4/edk2/ArmPkg/Library/GccLto/liblto-aarch64.a
 .rela.rodata.mUefiDevicePathLibToTextTable
                0x0000000000101380      0x498 /home/alastair/pftf-rpi4/edk2/ArmPkg/Library/GccLto/liblto-aarch64.a
 .rela.rodata.mUefiDevicePathLibToTextTableGeneric
                0x0000000000101818       0x78 /home/alastair/pftf-rpi4/edk2/ArmPkg/Library/GccLto/liblto-aarch64.a
 .rela.data.FileInterfaceNulFile
                0x0000000000101890       0xf0 /home/alastair/pftf-rpi4/edk2/ArmPkg/Library/GccLto/liblto-aarch64.a
 .rela.data.FileInterfaceStdErr
                0x0000000000101980       0xf0 /home/alastair/pftf-rpi4/edk2/ArmPkg/Library/GccLto/liblto-aarch64.a
 .rela.data.FileInterfaceStdOut
                0x0000000000101a70       0xf0 /home/alastair/pftf-rpi4/edk2/ArmPkg/Library/GccLto/liblto-aarch64.a
 .rela.data.FileInterfaceStdIn
                0x0000000000101b60       0xf0 /home/alastair/pftf-rpi4/edk2/ArmPkg/Library/GccLto/liblto-aarch64.a
 .rela.data.mShellProtocol
                0x0000000000101c50      0x408 /home/alastair/pftf-rpi4/edk2/ArmPkg/Library/GccLto/liblto-aarch64.a
 .rela.rodata.ParserList
                0x0000000000102058      0x1c8 /home/alastair/pftf-rpi4/edk2/ArmPkg/Library/GccLto/liblto-aarch64.a

.hii
 *(.hii)

.build-id       0x0000000000102220       0x24
 *(.note.gnu.build-id)
 .note.gnu.build-id
                0x0000000000102220       0x24 /home/alastair/pftf-rpi4/edk2/ArmPkg/Library/GccLto/liblto-aarch64.a

/DISCARD/
 *(.note.GNU-stack)
 *(.gnu_debuglink)
 *(.interp)
 *(.dynsym)
 *(.dynstr)
 *(.dynamic)
 *(.hash .gnu.hash)
 *(.comment)
 *(COMMON)
                0x0000000000000228                PECOFF_HEADER_SIZE = 0x228
OUTPUT(/home/alastair/pftf-rpi4/Build/RPi4/RELEASE_GCC5/AARCH64/ShellPkg/Application/Shell/Shell/DEBUG/Shell.dll elf64-littleaarch64)
LOAD linker stubs

.debug_info     0x0000000000000000   0x219d9a
 .debug_info    0x0000000000000000     0xfc8a /tmp/Shell.dll.q6gkOU.ltrans0.ltrans.o
 .debug_info    0x000000000000fc8a     0x6a86 /tmp/Shell.dll.q6gkOU.ltrans1.ltrans.o
 .debug_info    0x0000000000016710     0xe7a7 /tmp/Shell.dll.q6gkOU.ltrans2.ltrans.o
 .debug_info    0x0000000000024eb7     0x9237 /tmp/Shell.dll.q6gkOU.ltrans3.ltrans.o
 .debug_info    0x000000000002e0ee     0x9932 /tmp/Shell.dll.q6gkOU.ltrans4.ltrans.o
 .debug_info    0x0000000000037a20     0x9246 /tmp/Shell.dll.q6gkOU.ltrans5.ltrans.o
 .debug_info    0x0000000000040c66     0x88cb /tmp/Shell.dll.q6gkOU.ltrans6.ltrans.o
 .debug_info    0x0000000000049531     0x9366 /tmp/Shell.dll.q6gkOU.ltrans7.ltrans.o
 .debug_info    0x0000000000052897     0xae7b /tmp/Shell.dll.q6gkOU.ltrans8.ltrans.o
 .debug_info    0x000000000005d712     0xf299 /tmp/Shell.dll.q6gkOU.ltrans9.ltrans.o
 .debug_info    0x000000000006c9ab     0xde8f /tmp/Shell.dll.q6gkOU.ltrans10.ltrans.o
 .debug_info    0x000000000007a83a     0x45d0 /tmp/Shell.dll.q6gkOU.ltrans11.ltrans.o
 .debug_info    0x000000000007ee0a     0x1929 /tmp/ccTejSGS.debug.temp.o
                0x000000000007ee0a                ApplicationEntryPoint.c.95515bc3
 .debug_info    0x0000000000080733      0x17b /tmp/ccAbj5PS.debug.temp.o
                0x0000000000080733                BaseStackCheckGcc.c.3fb9ce64
 .debug_info    0x00000000000808ae      0x1d7 /tmp/ccHzUtuU.debug.temp.o
                0x00000000000808ae                memcpy.c.79986cd0
 .debug_info    0x0000000000080a85      0x188 /tmp/cc3O2vWT.debug.temp.o
                0x0000000000080a85                memset.c.02de5c04
 .debug_info    0x0000000000080c0d     0x3623 /tmp/ccYK7LpW.debug.temp.o
                0x0000000000080c0d                AutoGen.c.2ddee146
 .debug_info    0x0000000000084230     0x61b8 /tmp/cclXgfzU.debug.temp.o
                0x0000000000084230                Shell.c.4ee108a7
 .debug_info    0x000000000008a3e8     0x54ed /tmp/ccpPQYMU.debug.temp.o
                0x000000000008a3e8                ShellParametersProtocol.c.3a8201c0
 .debug_info    0x000000000008f8d5     0x649c /tmp/ccR3uDOS.debug.temp.o
                0x000000000008f8d5                ShellProtocol.c.e79e6ffb
 .debug_info    0x0000000000095d71     0x5d02 /tmp/ccq0XrES.debug.temp.o
                0x0000000000095d71                FileHandleWrappers.c.f9e96d72
 .debug_info    0x000000000009ba73     0x5101 /tmp/ccG60d4T.debug.temp.o
                0x000000000009ba73                ShellEnvVar.c.b197f9ce
 .debug_info    0x00000000000a0b74     0x51ca /tmp/ccick9kU.debug.temp.o
                0x00000000000a0b74                ShellManParser.c.687cb0d4
 .debug_info    0x00000000000a5d3e     0x55fc /tmp/ccjtIUJW.debug.temp.o
                0x00000000000a5d3e                ConsoleLogger.c.921a3c32
 .debug_info    0x00000000000ab33a     0x51ad /tmp/cc7sXw0S.debug.temp.o
                0x00000000000ab33a                ConsoleWrappers.c.bbfb571e
 .debug_info    0x00000000000b04e7      0x21d /tmp/ccj8VxpT.debug.temp.o
                0x00000000000b04e7                MemLibGuid.c.89fba256
 .debug_info    0x00000000000b0704      0x16e /tmp/ccUYHy7V.debug.temp.o
                0x00000000000b0704                ZeroMemWrapper.c.da3b248e
 .debug_info    0x00000000000b0872      0x17a /tmp/ccYCe7BV.debug.temp.o
                0x00000000000b0872                SetMem16Wrapper.c.b8a3956a
 .debug_info    0x00000000000b09ec      0x1af /tmp/ccRjqpLT.debug.temp.o
                0x00000000000b09ec                SetMemWrapper.c.bdf1ad9c
 .debug_info    0x00000000000b0b9b      0x185 /tmp/ccZmdiaW.debug.temp.o
                0x00000000000b0b9b                CopyMemWrapper.c.4760c160
 .debug_info    0x00000000000b0d20      0x2ef /tmp/ccOX0oGW.debug.temp.o
                0x00000000000b0d20                DebugLib.c.be4a5591
 .debug_info    0x00000000000b100f      0x1d0 /tmp/ccFmniiV.debug.temp.o
                0x00000000000b100f                CpuDeadLoop.c.755e7c7b
 .debug_info    0x00000000000b11df      0x428 /tmp/cc0KvZ5S.debug.temp.o
                0x00000000000b11df                LinkedList.c.7e1d43c9
 .debug_info    0x00000000000b1607      0xdc8 /tmp/ccnTZERT.debug.temp.o
                0x00000000000b1607                SafeString.c.d93472dc
 .debug_info    0x00000000000b23cf      0x7f3 /tmp/ccZTiSsT.debug.temp.o
                0x00000000000b23cf                String.c.76785ee4
 .debug_info    0x00000000000b2bc2      0x216 /tmp/ccCpShDW.debug.temp.o
                0x00000000000b2bc2                FilePaths.c.99cf21ff
 .debug_info    0x00000000000b2dd8      0x1db /tmp/cc0CezIV.debug.temp.o
                0x00000000000b2dd8                SwapBytes32.c.be579274
 .debug_info    0x00000000000b2fb3      0x1c3 /tmp/ccGFjNtV.debug.temp.o
                0x00000000000b2fb3                SwapBytes16.c.d38f1a4a
 .debug_info    0x00000000000b3176      0x1db /tmp/cc5eNepV.debug.temp.o
                0x00000000000b3176                RShiftU64.c.b1baacba
 .debug_info    0x00000000000b3351      0x1db /tmp/cc2D4ZMV.debug.temp.o
                0x00000000000b3351                MultU64x32.c.37505239
 .debug_info    0x00000000000b352c      0x1db /tmp/ccUFMH4U.debug.temp.o
                0x00000000000b352c                LShiftU64.c.89142a4c
 .debug_info    0x00000000000b3707      0x1cf /tmp/ccsch6zU.debug.temp.o
                0x00000000000b3707                DivU64x32.c.1f026665
 .debug_info    0x00000000000b38d6      0x43c /tmp/ccJ2G06U.debug.temp.o
                0x00000000000b38d6                Math64.c.fba6cbb7
 .debug_info    0x00000000000b3d12     0x18e1 /tmp/ccamYGSS.debug.temp.o
                0x00000000000b3d12                UefiBootServicesTableLib.c.1b9b5282
 .debug_info    0x00000000000b55f3      0x683 /tmp/ccGhc5ZS.debug.temp.o
                0x00000000000b55f3                PrintLib.c.9d1836b5
 .debug_info    0x00000000000b5c76      0x79a /tmp/ccvhrsmV.debug.temp.o
                0x00000000000b5c76                PrintLibInternal.c.11bf8ed5
 .debug_info    0x00000000000b6410     0x1de0 /tmp/ccgSgrmV.debug.temp.o
                0x00000000000b6410                MemoryAllocationLib.c.7e75fabe
 .debug_info    0x00000000000b81f0     0x1d7d /tmp/ccKB3XSU.debug.temp.o
                0x00000000000b81f0                DevicePathUtilities.c.1a32a0df
 .debug_info    0x00000000000b9f6d     0x1953 /tmp/ccnd7M1T.debug.temp.o
                0x00000000000b9f6d                DevicePathUtilitiesDxeSmm.c.cb9de9d5
 .debug_info    0x00000000000bb8c0     0x1afe /tmp/ccrYO7XV.debug.temp.o
                0x00000000000bb8c0                UefiDevicePathLib.c.0e9646b4
 .debug_info    0x00000000000bd3be     0x3d60 /tmp/ccmMT7zS.debug.temp.o
                0x00000000000bd3be                DevicePathToText.c.b542a65c
 .debug_info    0x00000000000c111e     0x45d4 /tmp/ccORAesS.debug.temp.o
                0x00000000000c111e                DevicePathFromText.c.f1101dd3
 .debug_info    0x00000000000c56f2     0x18b2 /tmp/cceduEMU.debug.temp.o
                0x00000000000c56f2                UefiRuntimeServicesTableLib.c.76abd5a8
 .debug_info    0x00000000000c6fa4     0x294e /tmp/ccL90OWU.debug.temp.o
                0x00000000000c6fa4                UefiHiiServicesLib.c.793cbe6e
 .debug_info    0x00000000000c98f2     0x27ac /tmp/ccg9r7YU.debug.temp.o
                0x00000000000c98f2                UefiLib.c.c9f50ead
 .debug_info    0x00000000000cc09e     0x1bef /tmp/ccmGmvSS.debug.temp.o
                0x00000000000cc09e                UefiSortLib.c.4e72316f
 .debug_info    0x00000000000cdc8d     0x50c1 /tmp/ccbc2KbT.debug.temp.o
                0x00000000000cdc8d                HiiLib.c.4aac6cd1
 .debug_info    0x00000000000d2d4e     0x2b6a /tmp/ccKqkveW.debug.temp.o
                0x00000000000d2d4e                HiiString.c.65ac83c6
 .debug_info    0x00000000000d58b8     0x2a1b /tmp/ccjE6BkS.debug.temp.o
                0x00000000000d58b8                HiiLanguage.c.e626a2c6
 .debug_info    0x00000000000d82d3      0xddd /tmp/cc9LuEeU.debug.temp.o
                0x00000000000d82d3                UefiFileHandleLib.c.faa385c8
 .debug_info    0x00000000000d90b0     0x1e96 /tmp/cc6Zw3rW.debug.temp.o
                0x00000000000d90b0                DxeServicesTableLib.c.1d63086a
 .debug_info    0x00000000000daf46     0x22e6 /tmp/ccndybFV.debug.temp.o
                0x00000000000daf46                HobLib.c.d33bba12
 .debug_info    0x00000000000dd22c     0x4991 /tmp/cczPQ4oU.debug.temp.o
                0x00000000000dd22c                UefiShellLib.c.72445e53
 .debug_info    0x00000000000e1bbd     0x8753 /tmp/ccSvEj8R.debug.temp.o
                0x00000000000e1bbd                UefiHandleParsingLib.c.26e7ae1b
 .debug_info    0x00000000000ea310      0xeff /tmp/ccrFSWQT.debug.temp.o
                0x00000000000ea310                AutoGen.c.94f08a3c
 .debug_info    0x00000000000eb20f     0x3b4d /tmp/cc5aledT.debug.temp.o
                0x00000000000eb20f                UefiShellCommandLib.c.01f91d71
 .debug_info    0x00000000000eed5c     0x5249 /tmp/ccx6pmgV.debug.temp.o
                0x00000000000eed5c                ConsistMapping.c.e15b3eb0
 .debug_info    0x00000000000f3fa5     0x2984 /tmp/ccrEKq3V.debug.temp.o
                0x00000000000f3fa5                UefiShellLevel2CommandsLib.c.2a421910
 .debug_info    0x00000000000f6929     0x2c8e /tmp/cc6zBmsW.debug.temp.o
                0x00000000000f6929                TimeDate.c.0a78f8c9
 .debug_info    0x00000000000f95b7     0x2a6a /tmp/ccqyL4GW.debug.temp.o
                0x00000000000f95b7                Load.c.b8cd1ce9
 .debug_info    0x00000000000fc021     0x303b /tmp/ccUXW0xW.debug.temp.o
                0x00000000000fc021                Ls.c.ccd636d8
 .debug_info    0x00000000000ff05c     0x3154 /tmp/ccVY0SSS.debug.temp.o
                0x00000000000ff05c                Map.c.eb97bdca
 .debug_info    0x00000000001021b0     0x2928 /tmp/cck0f0YV.debug.temp.o
                0x00000000001021b0                Reset.c.a7910b79
 .debug_info    0x0000000000104ad8     0x2923 /tmp/cc59tWPV.debug.temp.o
                0x0000000000104ad8                Set.c.c96b81b6
 .debug_info    0x00000000001073fb     0x2904 /tmp/ccGzJgCV.debug.temp.o
                0x00000000001073fb                MkDir.c.590ee7d9
 .debug_info    0x0000000000109cff     0x29f7 /tmp/ccq9pbFU.debug.temp.o
                0x0000000000109cff                Cd.c.79bb6766
 .debug_info    0x000000000010c6f6     0x2fce /tmp/cc9ZXgdV.debug.temp.o
                0x000000000010c6f6                Cp.c.fe788cd7
 .debug_info    0x000000000010f6c4     0x2a9a /tmp/cceOSdsT.debug.temp.o
                0x000000000010f6c4                Parse.c.5cb5bb28
 .debug_info    0x000000000011215e     0x2b00 /tmp/ccOnX61U.debug.temp.o
                0x000000000011215e                Rm.c.468b0276
 .debug_info    0x0000000000114c5e     0x2d22 /tmp/ccLQLpeS.debug.temp.o
                0x0000000000114c5e                Mv.c.5cce48eb
 .debug_info    0x0000000000117980     0x2957 /tmp/ccza3XQS.debug.temp.o
                0x0000000000117980                Attrib.c.30b2737d
 .debug_info    0x000000000011a2d7     0x2d6a /tmp/ccbrAOqS.debug.temp.o
                0x000000000011a2d7                Vol.c.2af17c10
 .debug_info    0x000000000011d041      0x2bb /tmp/ccSwGxlT.debug.temp.o
                0x000000000011d041                AutoGen.c.13efc42a
 .debug_info    0x000000000011d2fc     0x2a6f /tmp/ccv2B5uU.debug.temp.o
                0x000000000011d2fc                UefiShellLevel1CommandsLib.c.101800be
 .debug_info    0x000000000011fd6b     0x28b7 /tmp/cc2jfg2U.debug.temp.o
                0x000000000011fd6b                Exit.c.1cb35423
 .debug_info    0x0000000000122622     0x2976 /tmp/ccP5UdXT.debug.temp.o
                0x0000000000122622                Goto.c.d5de2971
 .debug_info    0x0000000000124f98     0x2d66 /tmp/ccG06kxW.debug.temp.o
                0x0000000000124f98                If.c.7d213e31
 .debug_info    0x0000000000127cfe     0x2c03 /tmp/cc4UZfgW.debug.temp.o
                0x0000000000127cfe                For.c.5775e378
 .debug_info    0x000000000012a901     0x2946 /tmp/ccFxFe6T.debug.temp.o
                0x000000000012a901                Shift.c.a5b4f6fb
 .debug_info    0x000000000012d247     0x2885 /tmp/ccexHeKS.debug.temp.o
                0x000000000012d247                Stall.c.d496e7f4
 .debug_info    0x000000000012facc      0x256 /tmp/ccTWQY3V.debug.temp.o
                0x000000000012facc                AutoGen.c.df4a42f4
 .debug_info    0x000000000012fd22     0x283f /tmp/ccuuf6mT.debug.temp.o
                0x000000000012fd22                UefiShellLevel3CommandsLib.c.d5f67418
 .debug_info    0x0000000000132561     0x2908 /tmp/ccehXTqU.debug.temp.o
                0x0000000000132561                Cls.c.66fc6c3f
 .debug_info    0x0000000000134e69     0x29ef /tmp/ccbcAovU.debug.temp.o
                0x0000000000134e69                Alias.c.35e9f6ba
 .debug_info    0x0000000000137858     0x28fc /tmp/ccSHyr6T.debug.temp.o
                0x0000000000137858                Echo.c.46cd5735
 .debug_info    0x000000000013a154     0x2975 /tmp/ccpcdleU.debug.temp.o
                0x000000000013a154                Pause.c.8a97b416
 .debug_info    0x000000000013cac9     0x28be /tmp/cchlwOeS.debug.temp.o
                0x000000000013cac9                GetMtc.c.6f9b4f1a
 .debug_info    0x000000000013f387     0x2ba6 /tmp/ccgEF1ST.debug.temp.o
                0x000000000013f387                Help.c.7affe7d1
 .debug_info    0x0000000000141f2d      0x2a0 /tmp/ccygxt5T.debug.temp.o
                0x0000000000141f2d                AutoGen.c.9996ccac
 .debug_info    0x00000000001421cd     0x29b5 /tmp/ccGy6mdU.debug.temp.o
                0x00000000001421cd                Type.c.3405f1c7
 .debug_info    0x0000000000144b82     0x29ad /tmp/ccNzzZoS.debug.temp.o
                0x0000000000144b82                Touch.c.8f773610
 .debug_info    0x000000000014752f     0x28e4 /tmp/cc593jWT.debug.temp.o
                0x000000000014752f                Ver.c.c5b75e18
 .debug_info    0x0000000000149e13     0x28d3 /tmp/ccHIOBOT.debug.temp.o
                0x0000000000149e13                UefiShellDriver1CommandsLib.c.24c5ba03
 .debug_info    0x000000000014c6e6      0x2aa /tmp/ccLOU67R.debug.temp.o
                0x000000000014c6e6                AutoGen.c.33b29a5e
 .debug_info    0x000000000014c990     0x30df /tmp/cc4lJsIS.debug.temp.o
                0x000000000014c990                Connect.c.124e0e35
 .debug_info    0x000000000014fa6f     0x2aa4 /tmp/ccgLMoNT.debug.temp.o
                0x000000000014fa6f                Devices.c.dadbc9a2
 .debug_info    0x0000000000152513     0x2a89 /tmp/cceBWVvS.debug.temp.o
                0x0000000000152513                OpenInfo.c.1744597d
 .debug_info    0x0000000000154f9c     0x2a11 /tmp/cckWitxT.debug.temp.o
                0x0000000000154f9c                Disconnect.c.5082fd11
 .debug_info    0x00000000001579ad     0x2970 /tmp/ccfwDiEV.debug.temp.o
                0x00000000001579ad                Reconnect.c.d76527b0
 .debug_info    0x000000000015a31d     0x2a4a /tmp/ccyYCCKU.debug.temp.o
                0x000000000015a31d                Unload.c.9442ee01
 .debug_info    0x000000000015cd67     0x2ceb /tmp/cc1Y0vhV.debug.temp.o
                0x000000000015cd67                DrvDiag.c.eae558cd
 .debug_info    0x000000000015fa52     0x3299 /tmp/ccZaEOqT.debug.temp.o
                0x000000000015fa52                Dh.c.02b07e63
 .debug_info    0x0000000000162ceb     0x3088 /tmp/ccFRe90V.debug.temp.o
                0x0000000000162ceb                Drivers.c.6f6e7136
 .debug_info    0x0000000000165d73     0x2a8f /tmp/cc2LD5pW.debug.temp.o
                0x0000000000165d73                DevTree.c.5184ec93
 .debug_info    0x0000000000168802     0x34c3 /tmp/ccZV4SfW.debug.temp.o
                0x0000000000168802                DrvCfg.c.25cc3d62
 .debug_info    0x000000000016bcc5     0x2ac3 /tmp/ccGachAW.debug.temp.o
                0x000000000016bcc5                UefiShellDebug1CommandsLib.c.7953d848
 .debug_info    0x000000000016e788     0x2fe3 /tmp/ccQ4wFIS.debug.temp.o
                0x000000000016e788                Edit.c.95caeb34
 .debug_info    0x000000000017176b     0x3cac /tmp/ccZfSe4U.debug.temp.o
                0x000000000017176b                FileBuffer.c.aa921599
 .debug_info    0x0000000000175417     0x33f6 /tmp/ccN0KhqW.debug.temp.o
                0x0000000000175417                MainTextEditor.c.569af3e0
 .debug_info    0x000000000017880d     0x2eeb /tmp/ccJkBFyS.debug.temp.o
                0x000000000017880d                Misc.c.1e9b4e37
 .debug_info    0x000000000017b6f8     0x31c3 /tmp/ccKwI5AV.debug.temp.o
                0x000000000017b6f8                HexEdit.c.219e5036
 .debug_info    0x000000000017e8bb     0x36a7 /tmp/cceQSqPU.debug.temp.o
                0x000000000017e8bb                MainHexEditor.c.8f86bbac
 .debug_info    0x0000000000181f62     0x31e3 /tmp/cceLk0mU.debug.temp.o
                0x0000000000181f62                Misc.c.25a497d8
 .debug_info    0x0000000000185145      0x2e0 /tmp/ccqf3D6U.debug.temp.o
                0x0000000000185145                AutoGen.c.8e60162b
 .debug_info    0x0000000000185425     0x29ad /tmp/ccjqwkhW.debug.temp.o
                0x0000000000185425                SetSize.c.eb9f7fd3
 .debug_info    0x0000000000187dd2     0x2c32 /tmp/ccyZJ9JS.debug.temp.o
                0x0000000000187dd2                Comp.c.18f625d6
 .debug_info    0x000000000018aa04     0x29d1 /tmp/cc4jUYQS.debug.temp.o
                0x000000000018aa04                Mode.c.dca188e5
 .debug_info    0x000000000018d3d5     0x2e20 /tmp/ccO9LfBV.debug.temp.o
                0x000000000018d3d5                MemMap.c.719b8fee
 .debug_info    0x00000000001901f5     0x2a01 /tmp/ccWHDk6R.debug.temp.o
                0x00000000001901f5                EfiCompress.c.fb27da29
 .debug_info    0x0000000000192bf6     0x2adf /tmp/ccG7D0FT.debug.temp.o
                0x0000000000192bf6                EfiDecompress.c.9137c6d1
 .debug_info    0x00000000001956d5     0x2e8a /tmp/ccjGV8BU.debug.temp.o
                0x00000000001956d5                Dmem.c.d6284a0f
 .debug_info    0x000000000019855f     0x2da5 /tmp/cck4ryKV.debug.temp.o
                0x000000000019855f                LoadPciRom.c.dbed81b7
 .debug_info    0x000000000019b304     0x32ef /tmp/cc5f006S.debug.temp.o
                0x000000000019b304                Mm.c.55a08a41
 .debug_info    0x000000000019e5f3     0x2bbb /tmp/ccuWDdDU.debug.temp.o
                0x000000000019e5f3                SetVar.c.cdaa6096
 .debug_info    0x00000000001a11ae     0x2d2d /tmp/ccBVW9bS.debug.temp.o
                0x00000000001a11ae                SerMode.c.693ebfca
 .debug_info    0x00000000001a3edb     0x6133 /tmp/ccLvQ4jU.debug.temp.o
                0x00000000001a3edb                Pci.c.53e73521
 .debug_info    0x00000000001aa00e     0x31a3 /tmp/cc4j6r8V.debug.temp.o
                0x00000000001aa00e                DmpStore.c.7300564b
 .debug_info    0x00000000001ad1b1     0x2c13 /tmp/ccUHx8zS.debug.temp.o
                0x00000000001ad1b1                Dblk.c.0fb773fd
 .debug_info    0x00000000001afdc4     0x5d80 /tmp/ccihIkSS.debug.temp.o
                0x00000000001afdc4                SmbiosView.c.014f3b05
 .debug_info    0x00000000001b5b44     0x5a09 /tmp/cc1IxZGU.debug.temp.o
                0x00000000001b5b44                LibSmbiosView.c.21dcde0a
 .debug_info    0x00000000001bb54d     0x2a03 /tmp/ccNosJwU.debug.temp.o
                0x00000000001bb54d                EditTitleBar.c.7c2678bd
 .debug_info    0x00000000001bdf50     0x2c51 /tmp/ccwu5PpV.debug.temp.o
                0x00000000001bdf50                EditInputBar.c.53eff8c9
 .debug_info    0x00000000001c0ba1     0x29cd /tmp/ccJ1O7nU.debug.temp.o
                0x00000000001c0ba1                EditStatusBar.c.6332112a
 .debug_info    0x00000000001c356e     0x2abe /tmp/cc2RbltU.debug.temp.o
                0x00000000001c356e                EditMenuBar.c.cc41acd9
 .debug_info    0x00000000001c602c     0x3c4a /tmp/ccKkVH5R.debug.temp.o
                0x00000000001c602c                BufferImage.c.b6361a68
 .debug_info    0x00000000001c9c76     0x310d /tmp/ccC7WILS.debug.temp.o
                0x00000000001c9c76                Clipboard.c.e6ca3df3
 .debug_info    0x00000000001ccd83     0x3428 /tmp/cc2N0zRV.debug.temp.o
                0x00000000001ccd83                DiskImage.c.f5809011
 .debug_info    0x00000000001d01ab     0x31f9 /tmp/ccJqMPkT.debug.temp.o
                0x00000000001d01ab                FileImage.c.74ef1218
 .debug_info    0x00000000001d33a4     0x31af /tmp/ccuYT6cW.debug.temp.o
                0x00000000001d33a4                MemImage.c.48c67d49
 .debug_info    0x00000000001d6553     0x18f6 /tmp/ccUgEfNV.debug.temp.o
                0x00000000001d6553                Compress.c.e1c6b7d3
 .debug_info    0x00000000001d7e49     0x628f /tmp/cce7NVUS.debug.temp.o
                0x00000000001d7e49                PrintInfo.c.146a999a
 .debug_info    0x00000000001de0d8     0x422b /tmp/cc3vUqeW.debug.temp.o
                0x00000000001de0d8                QueryTable.c.091c324a
 .debug_info    0x00000000001e2303     0x2b6c /tmp/ccc3WViW.debug.temp.o
                0x00000000001e2303                EventLogInfo.c.c42314de
 .debug_info    0x00000000001e4e6f     0x18f8 /tmp/ccJSNvtT.debug.temp.o
                0x00000000001e4e6f                UefiShellInstall1CommandsLib.c.6948febb
 .debug_info    0x00000000001e6767     0x2918 /tmp/ccpinTBW.debug.temp.o
                0x00000000001e6767                UefiShellNetwork1CommandsLib.c.32c4843f
 .debug_info    0x00000000001e907f     0x481a /tmp/cc6gqZbU.debug.temp.o
                0x00000000001e907f                Ping.c.1b9a165a
 .debug_info    0x00000000001ed899     0x3338 /tmp/ccVxYtqW.debug.temp.o
                0x00000000001ed899                Ifconfig.c.c7589afb
 .debug_info    0x00000000001f0bd1      0x2b6 /tmp/ccOf6hlS.debug.temp.o
                0x00000000001f0bd1                AutoGen.c.9bc082c2
 .debug_info    0x00000000001f0e87     0x2ab8 /tmp/ccl4OfHT.debug.temp.o
                0x00000000001f0e87                UefiShellAcpiViewCommandLib.c.35c3b38f
 .debug_info    0x00000000001f393f      0x262 /tmp/cceMWzuS.debug.temp.o
                0x00000000001f393f                AutoGen.c.11eae807
 .debug_info    0x00000000001f3ba1      0x4a6 /tmp/ccKCHhgT.debug.temp.o
                0x00000000001f3ba1                AcpiTableParser.c.7f4bc3af
 .debug_info    0x00000000001f4047     0x2753 /tmp/cc6cOpUU.debug.temp.o
                0x00000000001f4047                AcpiView.c.ae4167ae
 .debug_info    0x00000000001f679a      0x48b /tmp/cc0a232T.debug.temp.o
                0x00000000001f679a                AcpiViewConfig.c.ced9d267
 .debug_info    0x00000000001f6c25      0x940 /tmp/ccusTJfS.debug.temp.o
                0x00000000001f6c25                AestParser.c.d940698e
 .debug_info    0x00000000001f7565      0x4da /tmp/cctc7w5R.debug.temp.o
                0x00000000001f7565                BgrtParser.c.6a0080a4
 .debug_info    0x00000000001f7a3f      0x636 /tmp/ccCfu85V.debug.temp.o
                0x00000000001f7a3f                Dbg2Parser.c.5efada6b
 .debug_info    0x00000000001f8075      0x313 /tmp/cc9vReiS.debug.temp.o
                0x00000000001f8075                DsdtParser.c.91d2a5b7
 .debug_info    0x00000000001f8388      0x428 /tmp/cc0vkHkV.debug.temp.o
                0x00000000001f8388                FacsParser.c.19267292
 .debug_info    0x00000000001f87b0      0x66a /tmp/ccy6tbsU.debug.temp.o
                0x00000000001f87b0                FadtParser.c.db0abb91
 .debug_info    0x00000000001f8e1a      0x6b2 /tmp/ccZNqVIV.debug.temp.o
                0x00000000001f8e1a                GtdtParser.c.79075c93
 .debug_info    0x00000000001f94cc      0x83c /tmp/cct51r4V.debug.temp.o
                0x00000000001f94cc                HmatParser.c.8115a38d
 .debug_info    0x00000000001f9d08      0x9b8 /tmp/ccTY4DyV.debug.temp.o
                0x00000000001f9d08                IortParser.c.b4d308fe
 .debug_info    0x00000000001fa6c0      0x623 /tmp/ccQ9esST.debug.temp.o
                0x00000000001fa6c0                MadtParser.c.a4322636
 .debug_info    0x00000000001face3      0x51f /tmp/cckAfQaS.debug.temp.o
                0x00000000001face3                McfgParser.c.a1bfab38
 .debug_info    0x00000000001fb202      0x7c7 /tmp/ccamRyTT.debug.temp.o
                0x00000000001fb202                PcctParser.c.0d90ad50
 .debug_info    0x00000000001fb9c9      0x70c /tmp/ccxjpVlU.debug.temp.o
                0x00000000001fb9c9                PpttParser.c.ede1e263
 .debug_info    0x00000000001fc0d5      0x4ad /tmp/cc6ztGOV.debug.temp.o
                0x00000000001fc0d5                RsdpParser.c.0adaf0a9
 .debug_info    0x00000000001fc582      0x549 /tmp/ccsgbSUT.debug.temp.o
                0x00000000001fc582                SlitParser.c.a0140e1a
 .debug_info    0x00000000001fcacb      0x53c /tmp/ccurI9YV.debug.temp.o
                0x00000000001fcacb                SpcrParser.c.b706e267
 .debug_info    0x00000000001fd007      0x755 /tmp/ccMiMJVV.debug.temp.o
                0x00000000001fd007                SratParser.c.2a36055a
 .debug_info    0x00000000001fd75c      0x313 /tmp/ccHlb5gT.debug.temp.o
                0x00000000001fd75c                SsdtParser.c.6e1193ab
 .debug_info    0x00000000001fda6f      0x592 /tmp/cc5bPMAU.debug.temp.o
                0x00000000001fda6f                XsdtParser.c.48a2e3b8
 .debug_info    0x00000000001fe001      0x508 /tmp/ccw4q06V.debug.temp.o
                0x00000000001fe001                SbbrValidator.c.69f4ba4f
 .debug_info    0x00000000001fe509     0x1f82 /tmp/ccJeZkHV.debug.temp.o
                0x00000000001fe509                AcpiParser.c.7d1b5aff
 .debug_info    0x000000000020048b      0x19b /tmp/ccMuYDVU.debug.temp.o
                0x000000000020048b                CompareMemWrapper.c.df2c23b5
 .debug_info    0x0000000000200626      0x183 /tmp/cc9x6YgS.debug.temp.o
                0x0000000000200626                IsZeroBufferWrapper.c.8097e63f
 .debug_info    0x00000000002007a9      0x28a /tmp/ccekHVSV.debug.temp.o
                0x00000000002007a9                ScanMemGeneric.c.cccc6a3e
 .debug_info    0x0000000000200a33      0x1c3 /tmp/ccWdGw1U.debug.temp.o
                0x0000000000200a33                SwapBytes64.c.9a6fd401
 .debug_info    0x0000000000200bf6      0x1db /tmp/ccWuIJRV.debug.temp.o
                0x0000000000200bf6                MultU64x64.c.6d92a6aa
 .debug_info    0x0000000000200dd1      0x1cf /tmp/ccJRHRyW.debug.temp.o
                0x0000000000200dd1                ModU64x32.c.d7016021
 .debug_info    0x0000000000200fa0      0x1e5 /tmp/ccTC1cFV.debug.temp.o
                0x0000000000200fa0                DivU64x64Remainder.c.2beafaef
 .debug_info    0x0000000000201185      0x1e5 /tmp/ccenqtnW.debug.temp.o
                0x0000000000201185                DivU64x32Remainder.c.f5241791
 .debug_info    0x000000000020136a      0x33d /tmp/ccLVqUvU.debug.temp.o
                0x000000000020136a                Unaligned.c.b480fc72
 .debug_info    0x00000000002016a7     0x2762 /tmp/ccMZTzhV.debug.temp.o
                0x00000000002016a7                UefiLibPrint.c.d33c8baa
 .debug_info    0x0000000000203e09     0x1c06 /tmp/cciYOBoT.debug.temp.o
                0x0000000000203e09                UefiNotTiano.c.249077ca
 .debug_info    0x0000000000205a0f      0xa9b /tmp/ccyYEadT.debug.temp.o
                0x0000000000205a0f                PeCoffGetEntryPoint.c.269b98f9
 .debug_info    0x00000000002064aa      0x73c /tmp/ccTJdHpV.debug.temp.o
                0x00000000002064aa                BaseOrderedCollectionRedBlackTreeLib.c.4ec3aa2a
 .debug_info    0x0000000000206be6      0x4f7 /tmp/ccU00YcS.debug.temp.o
                0x0000000000206be6                IoLibNoIo.c.df99a900
 .debug_info    0x00000000002070dd     0x3506 /tmp/ccWvX2uU.debug.temp.o
                0x00000000002070dd                UefiShellBcfgCommandLib.c.474128f2
 .debug_info    0x000000000020a5e3      0x239 /tmp/cczlbICW.debug.temp.o
                0x000000000020a5e3                AutoGen.c.b1884db0
 .debug_info    0x000000000020a81c     0x7175 /tmp/ccN6o9dU.debug.temp.o
                0x000000000020a81c                DxeNetLib.c.711fcd1b
 .debug_info    0x0000000000211991     0x2b4a /tmp/ccPdnS8R.debug.temp.o
                0x0000000000211991                NetBuffer.c.82ca9a5d
 .debug_info    0x00000000002144db     0x3384 /tmp/ccDN8t7T.debug.temp.o
                0x00000000002144db                BmLoadOption.c.38866d25
 .debug_info    0x000000000021785f     0x253b /tmp/ccDHaE7R.debug.temp.o
                0x000000000021785f                BmMisc.c.a6cc3cfe

.debug_abbrev   0x0000000000000000    0x1841a
 .debug_abbrev  0x0000000000000000      0x382 /tmp/Shell.dll.q6gkOU.ltrans0.ltrans.o
 .debug_abbrev  0x0000000000000382      0x2d9 /tmp/Shell.dll.q6gkOU.ltrans1.ltrans.o
 .debug_abbrev  0x000000000000065b      0x153 /tmp/Shell.dll.q6gkOU.ltrans2.ltrans.o
 .debug_abbrev  0x00000000000007ae      0x233 /tmp/Shell.dll.q6gkOU.ltrans3.ltrans.o
 .debug_abbrev  0x00000000000009e1      0x23f /tmp/Shell.dll.q6gkOU.ltrans4.ltrans.o
 .debug_abbrev  0x0000000000000c20      0x295 /tmp/Shell.dll.q6gkOU.ltrans5.ltrans.o
 .debug_abbrev  0x0000000000000eb5      0x1eb /tmp/Shell.dll.q6gkOU.ltrans6.ltrans.o
 .debug_abbrev  0x00000000000010a0      0x1f3 /tmp/Shell.dll.q6gkOU.ltrans7.ltrans.o
 .debug_abbrev  0x0000000000001293      0x241 /tmp/Shell.dll.q6gkOU.ltrans8.ltrans.o
 .debug_abbrev  0x00000000000014d4      0x241 /tmp/Shell.dll.q6gkOU.ltrans9.ltrans.o
 .debug_abbrev  0x0000000000001715      0x2ef /tmp/Shell.dll.q6gkOU.ltrans10.ltrans.o
 .debug_abbrev  0x0000000000001a04      0x223 /tmp/Shell.dll.q6gkOU.ltrans11.ltrans.o
 .debug_abbrev  0x0000000000001c27      0x1fc /tmp/ccTejSGS.debug.temp.o
 .debug_abbrev  0x0000000000001e23       0xc7 /tmp/ccAbj5PS.debug.temp.o
 .debug_abbrev  0x0000000000001eea       0xee /tmp/ccHzUtuU.debug.temp.o
 .debug_abbrev  0x0000000000001fd8       0xc0 /tmp/cc3O2vWT.debug.temp.o
 .debug_abbrev  0x0000000000002098      0x225 /tmp/ccYK7LpW.debug.temp.o
 .debug_abbrev  0x00000000000022bd      0x2da /tmp/cclXgfzU.debug.temp.o
 .debug_abbrev  0x0000000000002597      0x2ed /tmp/ccpPQYMU.debug.temp.o
 .debug_abbrev  0x0000000000002884      0x332 /tmp/ccR3uDOS.debug.temp.o
 .debug_abbrev  0x0000000000002bb6      0x2c6 /tmp/ccq0XrES.debug.temp.o
 .debug_abbrev  0x0000000000002e7c      0x2d2 /tmp/ccG60d4T.debug.temp.o
 .debug_abbrev  0x000000000000314e      0x2b0 /tmp/ccick9kU.debug.temp.o
 .debug_abbrev  0x00000000000033fe      0x2a9 /tmp/ccjtIUJW.debug.temp.o
 .debug_abbrev  0x00000000000036a7      0x2ae /tmp/cc7sXw0S.debug.temp.o
 .debug_abbrev  0x0000000000003955       0xce /tmp/ccj8VxpT.debug.temp.o
 .debug_abbrev  0x0000000000003a23       0xb1 /tmp/ccUYHy7V.debug.temp.o
 .debug_abbrev  0x0000000000003ad4       0xb1 /tmp/ccYCe7BV.debug.temp.o
 .debug_abbrev  0x0000000000003b85       0xc6 /tmp/ccRjqpLT.debug.temp.o
 .debug_abbrev  0x0000000000003c4b       0xb8 /tmp/ccZmdiaW.debug.temp.o
 .debug_abbrev  0x0000000000003d03      0x121 /tmp/ccOX0oGW.debug.temp.o
 .debug_abbrev  0x0000000000003e24       0xb6 /tmp/ccFmniiV.debug.temp.o
 .debug_abbrev  0x0000000000003eda      0x139 /tmp/cc0KvZ5S.debug.temp.o
 .debug_abbrev  0x0000000000004013      0x12d /tmp/ccnTZERT.debug.temp.o
 .debug_abbrev  0x0000000000004140      0x126 /tmp/ccZTiSsT.debug.temp.o
 .debug_abbrev  0x0000000000004266       0xd5 /tmp/ccCpShDW.debug.temp.o
 .debug_abbrev  0x000000000000433b       0xc0 /tmp/cc0CezIV.debug.temp.o
 .debug_abbrev  0x00000000000043fb       0xb1 /tmp/ccGFjNtV.debug.temp.o
 .debug_abbrev  0x00000000000044ac       0xb1 /tmp/cc5eNepV.debug.temp.o
 .debug_abbrev  0x000000000000455d       0xc0 /tmp/cc2D4ZMV.debug.temp.o
 .debug_abbrev  0x000000000000461d       0xb1 /tmp/ccUFMH4U.debug.temp.o
 .debug_abbrev  0x00000000000046ce       0xb1 /tmp/ccsch6zU.debug.temp.o
 .debug_abbrev  0x000000000000477f       0xf9 /tmp/ccJ2G06U.debug.temp.o
 .debug_abbrev  0x0000000000004878      0x1dd /tmp/ccamYGSS.debug.temp.o
 .debug_abbrev  0x0000000000004a55      0x150 /tmp/ccGhc5ZS.debug.temp.o
 .debug_abbrev  0x0000000000004ba5      0x161 /tmp/ccvhrsmV.debug.temp.o
 .debug_abbrev  0x0000000000004d06      0x242 /tmp/ccgSgrmV.debug.temp.o
 .debug_abbrev  0x0000000000004f48      0x240 /tmp/ccKB3XSU.debug.temp.o
 .debug_abbrev  0x0000000000005188      0x1d4 /tmp/ccnd7M1T.debug.temp.o
 .debug_abbrev  0x000000000000535c      0x1fe /tmp/ccrYO7XV.debug.temp.o
 .debug_abbrev  0x000000000000555a      0x2ca /tmp/ccmMT7zS.debug.temp.o
 .debug_abbrev  0x0000000000005824      0x2b0 /tmp/ccORAesS.debug.temp.o
 .debug_abbrev  0x0000000000005ad4      0x1c3 /tmp/cceduEMU.debug.temp.o
 .debug_abbrev  0x0000000000005c97      0x216 /tmp/ccL90OWU.debug.temp.o
 .debug_abbrev  0x0000000000005ead      0x267 /tmp/ccg9r7YU.debug.temp.o
 .debug_abbrev  0x0000000000006114      0x22d /tmp/ccmGmvSS.debug.temp.o
 .debug_abbrev  0x0000000000006341      0x315 /tmp/ccbc2KbT.debug.temp.o
 .debug_abbrev  0x0000000000006656      0x249 /tmp/ccKqkveW.debug.temp.o
 .debug_abbrev  0x000000000000689f      0x209 /tmp/ccjE6BkS.debug.temp.o
 .debug_abbrev  0x0000000000006aa8      0x1c2 /tmp/cc9LuEeU.debug.temp.o
 .debug_abbrev  0x0000000000006c6a      0x1ea /tmp/cc6Zw3rW.debug.temp.o
 .debug_abbrev  0x0000000000006e54      0x25a /tmp/ccndybFV.debug.temp.o
 .debug_abbrev  0x00000000000070ae      0x2bb /tmp/cczPQ4oU.debug.temp.o
 .debug_abbrev  0x0000000000007369      0x33a /tmp/ccSvEj8R.debug.temp.o
 .debug_abbrev  0x00000000000076a3       0xaf /tmp/ccrFSWQT.debug.temp.o
 .debug_abbrev  0x0000000000007752      0x2d6 /tmp/cc5aledT.debug.temp.o
 .debug_abbrev  0x0000000000007a28      0x309 /tmp/ccx6pmgV.debug.temp.o
 .debug_abbrev  0x0000000000007d31      0x24f /tmp/ccrEKq3V.debug.temp.o
 .debug_abbrev  0x0000000000007f80      0x26a /tmp/cc6zBmsW.debug.temp.o
 .debug_abbrev  0x00000000000081ea      0x20a /tmp/ccqyL4GW.debug.temp.o
 .debug_abbrev  0x00000000000083f4      0x27f /tmp/ccUXW0xW.debug.temp.o
 .debug_abbrev  0x0000000000008673      0x290 /tmp/ccVY0SSS.debug.temp.o
 .debug_abbrev  0x0000000000008903      0x207 /tmp/cck0f0YV.debug.temp.o
 .debug_abbrev  0x0000000000008b0a      0x20a /tmp/cc59tWPV.debug.temp.o
 .debug_abbrev  0x0000000000008d14      0x1f5 /tmp/ccGzJgCV.debug.temp.o
 .debug_abbrev  0x0000000000008f09      0x228 /tmp/ccq9pbFU.debug.temp.o
 .debug_abbrev  0x0000000000009131      0x239 /tmp/cc9ZXgdV.debug.temp.o
 .debug_abbrev  0x000000000000936a      0x20a /tmp/cceOSdsT.debug.temp.o
 .debug_abbrev  0x0000000000009574      0x23d /tmp/ccOnX61U.debug.temp.o
 .debug_abbrev  0x00000000000097b1      0x26a /tmp/ccLQLpeS.debug.temp.o
 .debug_abbrev  0x0000000000009a1b      0x1f5 /tmp/ccza3XQS.debug.temp.o
 .debug_abbrev  0x0000000000009c10      0x1f7 /tmp/ccbrAOqS.debug.temp.o
 .debug_abbrev  0x0000000000009e07       0xaf /tmp/ccSwGxlT.debug.temp.o
 .debug_abbrev  0x0000000000009eb6      0x217 /tmp/ccv2B5uU.debug.temp.o
 .debug_abbrev  0x000000000000a0cd      0x1f5 /tmp/cc2jfg2U.debug.temp.o
 .debug_abbrev  0x000000000000a2c2      0x1f7 /tmp/ccP5UdXT.debug.temp.o
 .debug_abbrev  0x000000000000a4b9      0x23d /tmp/ccG06kxW.debug.temp.o
 .debug_abbrev  0x000000000000a6f6      0x23d /tmp/cc4UZfgW.debug.temp.o
 .debug_abbrev  0x000000000000a933      0x1f7 /tmp/ccFxFe6T.debug.temp.o
 .debug_abbrev  0x000000000000ab2a      0x1f5 /tmp/ccexHeKS.debug.temp.o
 .debug_abbrev  0x000000000000ad1f       0xaf /tmp/ccTWQY3V.debug.temp.o
 .debug_abbrev  0x000000000000adce      0x219 /tmp/ccuuf6mT.debug.temp.o
 .debug_abbrev  0x000000000000afe7      0x1f5 /tmp/ccehXTqU.debug.temp.o
 .debug_abbrev  0x000000000000b1dc      0x20a /tmp/ccbcAovU.debug.temp.o
 .debug_abbrev  0x000000000000b3e6      0x1f5 /tmp/ccSHyr6T.debug.temp.o
 .debug_abbrev  0x000000000000b5db      0x1f7 /tmp/ccpcdleU.debug.temp.o
 .debug_abbrev  0x000000000000b7d2      0x204 /tmp/cchlwOeS.debug.temp.o
 .debug_abbrev  0x000000000000b9d6      0x250 /tmp/ccgEF1ST.debug.temp.o
 .debug_abbrev  0x000000000000bc26       0xaf /tmp/ccygxt5T.debug.temp.o
 .debug_abbrev  0x000000000000bcd5      0x20a /tmp/ccGy6mdU.debug.temp.o
 .debug_abbrev  0x000000000000bedf      0x219 /tmp/ccNzzZoS.debug.temp.o
 .debug_abbrev  0x000000000000c0f8      0x1f5 /tmp/cc593jWT.debug.temp.o
 .debug_abbrev  0x000000000000c2ed      0x217 /tmp/ccHIOBOT.debug.temp.o
 .debug_abbrev  0x000000000000c504       0xaf /tmp/ccLOU67R.debug.temp.o
 .debug_abbrev  0x000000000000c5b3      0x24c /tmp/cc4lJsIS.debug.temp.o
 .debug_abbrev  0x000000000000c7ff      0x215 /tmp/ccgLMoNT.debug.temp.o
 .debug_abbrev  0x000000000000ca14      0x20a /tmp/cceBWVvS.debug.temp.o
 .debug_abbrev  0x000000000000cc1e      0x20a /tmp/cckWitxT.debug.temp.o
 .debug_abbrev  0x000000000000ce28      0x208 /tmp/ccfwDiEV.debug.temp.o
 .debug_abbrev  0x000000000000d030      0x20a /tmp/ccyYCCKU.debug.temp.o
 .debug_abbrev  0x000000000000d23a      0x22a /tmp/cc1Y0vhV.debug.temp.o
 .debug_abbrev  0x000000000000d464      0x270 /tmp/ccZaEOqT.debug.temp.o
 .debug_abbrev  0x000000000000d6d4      0x228 /tmp/ccFRe90V.debug.temp.o
 .debug_abbrev  0x000000000000d8fc      0x1f7 /tmp/cc2LD5pW.debug.temp.o
 .debug_abbrev  0x000000000000daf3      0x270 /tmp/ccZV4SfW.debug.temp.o
 .debug_abbrev  0x000000000000dd63      0x27b /tmp/ccGachAW.debug.temp.o
 .debug_abbrev  0x000000000000dfde      0x239 /tmp/ccQ4wFIS.debug.temp.o
 .debug_abbrev  0x000000000000e217      0x2e5 /tmp/ccZfSe4U.debug.temp.o
 .debug_abbrev  0x000000000000e4fc      0x2a1 /tmp/ccN0KhqW.debug.temp.o
 .debug_abbrev  0x000000000000e79d      0x23d /tmp/ccJkBFyS.debug.temp.o
 .debug_abbrev  0x000000000000e9da      0x22a /tmp/ccKwI5AV.debug.temp.o
 .debug_abbrev  0x000000000000ec04      0x2b2 /tmp/cceQSqPU.debug.temp.o
 .debug_abbrev  0x000000000000eeb6      0x25b /tmp/cceLk0mU.debug.temp.o
 .debug_abbrev  0x000000000000f111       0xaf /tmp/ccqf3D6U.debug.temp.o
 .debug_abbrev  0x000000000000f1c0      0x1f5 /tmp/ccjqwkhW.debug.temp.o
 .debug_abbrev  0x000000000000f3b5      0x22c /tmp/ccyZJ9JS.debug.temp.o
 .debug_abbrev  0x000000000000f5e1      0x204 /tmp/cc4jUYQS.debug.temp.o
 .debug_abbrev  0x000000000000f7e5      0x217 /tmp/ccO9LfBV.debug.temp.o
 .debug_abbrev  0x000000000000f9fc      0x1f5 /tmp/ccWHDk6R.debug.temp.o
 .debug_abbrev  0x000000000000fbf1      0x1f5 /tmp/ccG7D0FT.debug.temp.o
 .debug_abbrev  0x000000000000fde6      0x20a /tmp/ccjGV8BU.debug.temp.o
 .debug_abbrev  0x000000000000fff0      0x237 /tmp/cck4ryKV.debug.temp.o
 .debug_abbrev  0x0000000000010227      0x284 /tmp/cc5f006S.debug.temp.o
 .debug_abbrev  0x00000000000104ab      0x24c /tmp/ccuWDdDU.debug.temp.o
 .debug_abbrev  0x00000000000106f7      0x217 /tmp/ccBVW9bS.debug.temp.o
 .debug_abbrev  0x000000000001090e      0x2d0 /tmp/ccLvQ4jU.debug.temp.o
 .debug_abbrev  0x0000000000010bde      0x24c /tmp/cc4j6r8V.debug.temp.o
 .debug_abbrev  0x0000000000010e2a      0x228 /tmp/ccUHx8zS.debug.temp.o
 .debug_abbrev  0x0000000000011052      0x2e9 /tmp/ccihIkSS.debug.temp.o
 .debug_abbrev  0x000000000001133b      0x2f1 /tmp/cc1IxZGU.debug.temp.o
 .debug_abbrev  0x000000000001162c      0x270 /tmp/ccNosJwU.debug.temp.o
 .debug_abbrev  0x000000000001189c      0x2c7 /tmp/ccwu5PpV.debug.temp.o
 .debug_abbrev  0x0000000000011b63      0x27f /tmp/ccJ1O7nU.debug.temp.o
 .debug_abbrev  0x0000000000011de2      0x237 /tmp/cc2RbltU.debug.temp.o
 .debug_abbrev  0x0000000000012019      0x2f8 /tmp/ccKkVH5R.debug.temp.o
 .debug_abbrev  0x0000000000012311      0x241 /tmp/ccC7WILS.debug.temp.o
 .debug_abbrev  0x0000000000012552      0x2a1 /tmp/cc2N0zRV.debug.temp.o
 .debug_abbrev  0x00000000000127f3      0x27d /tmp/ccJqMPkT.debug.temp.o
 .debug_abbrev  0x0000000000012a70      0x272 /tmp/ccuYT6cW.debug.temp.o
 .debug_abbrev  0x0000000000012ce2      0x260 /tmp/ccUgEfNV.debug.temp.o
 .debug_abbrev  0x0000000000012f42      0x2e8 /tmp/cce7NVUS.debug.temp.o
 .debug_abbrev  0x000000000001322a      0x24d /tmp/cc3vUqeW.debug.temp.o
 .debug_abbrev  0x0000000000013477      0x255 /tmp/ccc3WViW.debug.temp.o
 .debug_abbrev  0x00000000000136cc      0x1c7 /tmp/ccJSNvtT.debug.temp.o
 .debug_abbrev  0x0000000000013893      0x219 /tmp/ccpinTBW.debug.temp.o
 .debug_abbrev  0x0000000000013aac      0x338 /tmp/cc6gqZbU.debug.temp.o
 .debug_abbrev  0x0000000000013de4      0x293 /tmp/ccVxYtqW.debug.temp.o
 .debug_abbrev  0x0000000000014077       0xaf /tmp/ccOf6hlS.debug.temp.o
 .debug_abbrev  0x0000000000014126      0x271 /tmp/ccl4OfHT.debug.temp.o
 .debug_abbrev  0x0000000000014397       0xaf /tmp/cceMWzuS.debug.temp.o
 .debug_abbrev  0x0000000000014446      0x13a /tmp/ccKCHhgT.debug.temp.o
 .debug_abbrev  0x0000000000014580      0x22f /tmp/cc6cOpUU.debug.temp.o
 .debug_abbrev  0x00000000000147af      0x155 /tmp/cc0a232T.debug.temp.o
 .debug_abbrev  0x0000000000014904      0x19b /tmp/ccusTJfS.debug.temp.o
 .debug_abbrev  0x0000000000014a9f      0x128 /tmp/cctc7w5R.debug.temp.o
 .debug_abbrev  0x0000000000014bc7      0x14a /tmp/ccCfu85V.debug.temp.o
 .debug_abbrev  0x0000000000014d11       0xd1 /tmp/cc9vReiS.debug.temp.o
 .debug_abbrev  0x0000000000014de2      0x128 /tmp/cc0vkHkV.debug.temp.o
 .debug_abbrev  0x0000000000014f0a      0x14a /tmp/ccy6tbsU.debug.temp.o
 .debug_abbrev  0x0000000000015054      0x177 /tmp/ccZNqVIV.debug.temp.o
 .debug_abbrev  0x00000000000151cb      0x1ae /tmp/cct51r4V.debug.temp.o
 .debug_abbrev  0x0000000000015379      0x188 /tmp/ccTY4DyV.debug.temp.o
 .debug_abbrev  0x0000000000015501      0x14a /tmp/ccQ9esST.debug.temp.o
 .debug_abbrev  0x000000000001564b      0x128 /tmp/cckAfQaS.debug.temp.o
 .debug_abbrev  0x0000000000015773      0x188 /tmp/ccamRyTT.debug.temp.o
 .debug_abbrev  0x00000000000158fb      0x188 /tmp/ccxjpVlU.debug.temp.o
 .debug_abbrev  0x0000000000015a83      0x14a /tmp/cc6ztGOV.debug.temp.o
 .debug_abbrev  0x0000000000015bcd      0x131 /tmp/ccsgbSUT.debug.temp.o
 .debug_abbrev  0x0000000000015cfe      0x159 /tmp/ccurI9YV.debug.temp.o
 .debug_abbrev  0x0000000000015e57      0x177 /tmp/ccMiMJVV.debug.temp.o
 .debug_abbrev  0x0000000000015fce       0xd1 /tmp/ccHlb5gT.debug.temp.o
 .debug_abbrev  0x000000000001609f      0x142 /tmp/cc5bPMAU.debug.temp.o
 .debug_abbrev  0x00000000000161e1      0x122 /tmp/ccw4q06V.debug.temp.o
 .debug_abbrev  0x0000000000016303      0x280 /tmp/ccJeZkHV.debug.temp.o
 .debug_abbrev  0x0000000000016583       0xb1 /tmp/ccMuYDVU.debug.temp.o
 .debug_abbrev  0x0000000000016634       0xb1 /tmp/cc9x6YgS.debug.temp.o
 .debug_abbrev  0x00000000000166e5       0xc7 /tmp/ccekHVSV.debug.temp.o
 .debug_abbrev  0x00000000000167ac       0xb1 /tmp/ccWdGw1U.debug.temp.o
 .debug_abbrev  0x000000000001685d       0xc0 /tmp/ccWuIJRV.debug.temp.o
 .debug_abbrev  0x000000000001691d       0xb1 /tmp/ccJRHRyW.debug.temp.o
 .debug_abbrev  0x00000000000169ce       0xb3 /tmp/ccTC1cFV.debug.temp.o
 .debug_abbrev  0x0000000000016a81       0xb3 /tmp/ccenqtnW.debug.temp.o
 .debug_abbrev  0x0000000000016b34       0xc9 /tmp/ccLVqUvU.debug.temp.o
 .debug_abbrev  0x0000000000016bfd      0x283 /tmp/ccMZTzhV.debug.temp.o
 .debug_abbrev  0x0000000000016e80      0x233 /tmp/cciYOBoT.debug.temp.o
 .debug_abbrev  0x00000000000170b3      0x1a3 /tmp/ccyYEadT.debug.temp.o
 .debug_abbrev  0x0000000000017256      0x1b0 /tmp/ccTJdHpV.debug.temp.o
 .debug_abbrev  0x0000000000017406      0x11f /tmp/ccU00YcS.debug.temp.o
 .debug_abbrev  0x0000000000017525      0x2d2 /tmp/ccWvX2uU.debug.temp.o
 .debug_abbrev  0x00000000000177f7       0xa8 /tmp/cczlbICW.debug.temp.o
 .debug_abbrev  0x000000000001789f      0x37e /tmp/ccN6o9dU.debug.temp.o
 .debug_abbrev  0x0000000000017c1d      0x2ec /tmp/ccPdnS8R.debug.temp.o
 .debug_abbrev  0x0000000000017f09      0x2b7 /tmp/ccDN8t7T.debug.temp.o
 .debug_abbrev  0x00000000000181c0      0x25a /tmp/ccDHaE7R.debug.temp.o

.debug_loc      0x0000000000000000    0xa3f52
 .debug_loc     0x0000000000000000    0x18e8b /tmp/Shell.dll.q6gkOU.ltrans0.ltrans.o
 .debug_loc     0x0000000000018e8b     0x8810 /tmp/Shell.dll.q6gkOU.ltrans1.ltrans.o
 .debug_loc     0x000000000002169b     0x579d /tmp/Shell.dll.q6gkOU.ltrans2.ltrans.o
 .debug_loc     0x0000000000026e38     0xc84b /tmp/Shell.dll.q6gkOU.ltrans3.ltrans.o
 .debug_loc     0x0000000000033683     0xe37d /tmp/Shell.dll.q6gkOU.ltrans4.ltrans.o
 .debug_loc     0x0000000000041a00     0xd9f9 /tmp/Shell.dll.q6gkOU.ltrans5.ltrans.o
 .debug_loc     0x000000000004f3f9     0x9aa1 /tmp/Shell.dll.q6gkOU.ltrans6.ltrans.o
 .debug_loc     0x0000000000058e9a     0xb410 /tmp/Shell.dll.q6gkOU.ltrans7.ltrans.o
 .debug_loc     0x00000000000642aa     0xf64a /tmp/Shell.dll.q6gkOU.ltrans8.ltrans.o
 .debug_loc     0x00000000000738f4    0x16d8b /tmp/Shell.dll.q6gkOU.ltrans9.ltrans.o
 .debug_loc     0x000000000008a67f    0x171ea /tmp/Shell.dll.q6gkOU.ltrans10.ltrans.o
 .debug_loc     0x00000000000a1869     0x26e9 /tmp/Shell.dll.q6gkOU.ltrans11.ltrans.o

.debug_aranges  0x0000000000000000     0x3c60
 .debug_aranges
                0x0000000000000000      0x990 /tmp/Shell.dll.q6gkOU.ltrans0.ltrans.o
 .debug_aranges
                0x0000000000000990      0x2f0 /tmp/Shell.dll.q6gkOU.ltrans1.ltrans.o
 .debug_aranges
                0x0000000000000c80       0x30 /tmp/Shell.dll.q6gkOU.ltrans2.ltrans.o
 .debug_aranges
                0x0000000000000cb0      0x4d0 /tmp/Shell.dll.q6gkOU.ltrans3.ltrans.o
 .debug_aranges
                0x0000000000001180      0x240 /tmp/Shell.dll.q6gkOU.ltrans4.ltrans.o
 .debug_aranges
                0x00000000000013c0      0x300 /tmp/Shell.dll.q6gkOU.ltrans5.ltrans.o
 .debug_aranges
                0x00000000000016c0      0x290 /tmp/Shell.dll.q6gkOU.ltrans6.ltrans.o
 .debug_aranges
                0x0000000000001950      0x1a0 /tmp/Shell.dll.q6gkOU.ltrans7.ltrans.o
 .debug_aranges
                0x0000000000001af0      0x620 /tmp/Shell.dll.q6gkOU.ltrans8.ltrans.o
 .debug_aranges
                0x0000000000002110      0xef0 /tmp/Shell.dll.q6gkOU.ltrans9.ltrans.o
 .debug_aranges
                0x0000000000003000      0xbf0 /tmp/Shell.dll.q6gkOU.ltrans10.ltrans.o
 .debug_aranges
                0x0000000000003bf0       0x70 /tmp/Shell.dll.q6gkOU.ltrans11.ltrans.o

.debug_ranges   0x0000000000000000    0x16620
 .debug_ranges  0x0000000000000000     0x3790 /tmp/Shell.dll.q6gkOU.ltrans0.ltrans.o
 .debug_ranges  0x0000000000003790     0x1d80 /tmp/Shell.dll.q6gkOU.ltrans1.ltrans.o
 .debug_ranges  0x0000000000005510     0x3300 /tmp/Shell.dll.q6gkOU.ltrans2.ltrans.o
 .debug_ranges  0x0000000000008810     0x1960 /tmp/Shell.dll.q6gkOU.ltrans3.ltrans.o
 .debug_ranges  0x000000000000a170     0x1130 /tmp/Shell.dll.q6gkOU.ltrans4.ltrans.o
 .debug_ranges  0x000000000000b2a0     0x2010 /tmp/Shell.dll.q6gkOU.ltrans5.ltrans.o
 .debug_ranges  0x000000000000d2b0     0x1100 /tmp/Shell.dll.q6gkOU.ltrans6.ltrans.o
 .debug_ranges  0x000000000000e3b0     0x13e0 /tmp/Shell.dll.q6gkOU.ltrans7.ltrans.o
 .debug_ranges  0x000000000000f790     0x11f0 /tmp/Shell.dll.q6gkOU.ltrans8.ltrans.o
 .debug_ranges  0x0000000000010980     0x23c0 /tmp/Shell.dll.q6gkOU.ltrans9.ltrans.o
 .debug_ranges  0x0000000000012d40     0x2a00 /tmp/Shell.dll.q6gkOU.ltrans10.ltrans.o
 .debug_ranges  0x0000000000015740      0xee0 /tmp/Shell.dll.q6gkOU.ltrans11.ltrans.o

.debug_line     0x0000000000000000    0x7f8b0
 .debug_line    0x0000000000000000     0x89d3 /tmp/Shell.dll.q6gkOU.ltrans0.ltrans.o
 .debug_line    0x00000000000089d3     0x3db8 /tmp/Shell.dll.q6gkOU.ltrans1.ltrans.o
 .debug_line    0x000000000000c78b     0x3164 /tmp/Shell.dll.q6gkOU.ltrans2.ltrans.o
 .debug_line    0x000000000000f8ef     0x61ae /tmp/Shell.dll.q6gkOU.ltrans3.ltrans.o
 .debug_line    0x0000000000015a9d     0x5b88 /tmp/Shell.dll.q6gkOU.ltrans4.ltrans.o
 .debug_line    0x000000000001b625     0x6c2e /tmp/Shell.dll.q6gkOU.ltrans5.ltrans.o
 .debug_line    0x0000000000022253     0x48a8 /tmp/Shell.dll.q6gkOU.ltrans6.ltrans.o
 .debug_line    0x0000000000026afb     0x5215 /tmp/Shell.dll.q6gkOU.ltrans7.ltrans.o
 .debug_line    0x000000000002bd10     0x6f82 /tmp/Shell.dll.q6gkOU.ltrans8.ltrans.o
 .debug_line    0x0000000000032c92     0x7f2c /tmp/Shell.dll.q6gkOU.ltrans9.ltrans.o
 .debug_line    0x000000000003abbe     0x9bf1 /tmp/Shell.dll.q6gkOU.ltrans10.ltrans.o
 .debug_line    0x00000000000447af     0x21f4 /tmp/Shell.dll.q6gkOU.ltrans11.ltrans.o
 .debug_line    0x00000000000469a3      0x351 /tmp/ccTejSGS.debug.temp.o
 .debug_line    0x0000000000046cf4      0x172 /tmp/ccAbj5PS.debug.temp.o
 .debug_line    0x0000000000046e66      0x173 /tmp/ccHzUtuU.debug.temp.o
 .debug_line    0x0000000000046fd9      0x173 /tmp/cc3O2vWT.debug.temp.o
 .debug_line    0x000000000004714c      0x2ec /tmp/ccYK7LpW.debug.temp.o
 .debug_line    0x0000000000047438      0x56f /tmp/cclXgfzU.debug.temp.o
 .debug_line    0x00000000000479a7      0x581 /tmp/ccpPQYMU.debug.temp.o
 .debug_line    0x0000000000047f28      0x58b /tmp/ccR3uDOS.debug.temp.o
 .debug_line    0x00000000000484b3      0x54e /tmp/ccq0XrES.debug.temp.o
 .debug_line    0x0000000000048a01      0x547 /tmp/ccG60d4T.debug.temp.o
 .debug_line    0x0000000000048f48      0x54a /tmp/ccick9kU.debug.temp.o
 .debug_line    0x0000000000049492      0x549 /tmp/ccjtIUJW.debug.temp.o
 .debug_line    0x00000000000499db      0x54b /tmp/cc7sXw0S.debug.temp.o
 .debug_line    0x0000000000049f26      0x175 /tmp/ccj8VxpT.debug.temp.o
 .debug_line    0x000000000004a09b      0x175 /tmp/ccUYHy7V.debug.temp.o
 .debug_line    0x000000000004a210      0x176 /tmp/ccYCe7BV.debug.temp.o
 .debug_line    0x000000000004a386      0x174 /tmp/ccRjqpLT.debug.temp.o
 .debug_line    0x000000000004a4fa      0x175 /tmp/ccZmdiaW.debug.temp.o
 .debug_line    0x000000000004a66f      0x174 /tmp/ccOX0oGW.debug.temp.o
 .debug_line    0x000000000004a7e3      0x14e /tmp/ccFmniiV.debug.temp.o
 .debug_line    0x000000000004a931      0x14d /tmp/cc0KvZ5S.debug.temp.o
 .debug_line    0x000000000004aa7e      0x14d /tmp/ccnTZERT.debug.temp.o
 .debug_line    0x000000000004abcb      0x149 /tmp/ccZTiSsT.debug.temp.o
 .debug_line    0x000000000004ad14      0x14c /tmp/ccCpShDW.debug.temp.o
 .debug_line    0x000000000004ae60      0x14e /tmp/cc0CezIV.debug.temp.o
 .debug_line    0x000000000004afae      0x14e /tmp/ccGFjNtV.debug.temp.o
 .debug_line    0x000000000004b0fc      0x14c /tmp/cc5eNepV.debug.temp.o
 .debug_line    0x000000000004b248      0x14d /tmp/cc2D4ZMV.debug.temp.o
 .debug_line    0x000000000004b395      0x14c /tmp/ccUFMH4U.debug.temp.o
 .debug_line    0x000000000004b4e1      0x14c /tmp/ccsch6zU.debug.temp.o
 .debug_line    0x000000000004b62d      0x149 /tmp/ccJ2G06U.debug.temp.o
 .debug_line    0x000000000004b776      0x332 /tmp/ccamYGSS.debug.temp.o
 .debug_line    0x000000000004baa8      0x168 /tmp/ccGhc5ZS.debug.temp.o
 .debug_line    0x000000000004bc10      0x186 /tmp/ccvhrsmV.debug.temp.o
 .debug_line    0x000000000004bd96      0x32a /tmp/ccgSgrmV.debug.temp.o
 .debug_line    0x000000000004c0c0      0x36e /tmp/ccKB3XSU.debug.temp.o
 .debug_line    0x000000000004c42e      0x374 /tmp/ccnd7M1T.debug.temp.o
 .debug_line    0x000000000004c7a2      0x36c /tmp/ccrYO7XV.debug.temp.o
 .debug_line    0x000000000004cb0e      0x3dd /tmp/ccmMT7zS.debug.temp.o
 .debug_line    0x000000000004ceeb      0x3d1 /tmp/ccORAesS.debug.temp.o
 .debug_line    0x000000000004d2bc      0x2eb /tmp/cceduEMU.debug.temp.o
 .debug_line    0x000000000004d5a7      0x402 /tmp/ccL90OWU.debug.temp.o
 .debug_line    0x000000000004d9a9      0x36f /tmp/ccg9r7YU.debug.temp.o
 .debug_line    0x000000000004dd18      0x368 /tmp/ccmGmvSS.debug.temp.o
 .debug_line    0x000000000004e080      0x517 /tmp/ccbc2KbT.debug.temp.o
 .debug_line    0x000000000004e597      0x4fa /tmp/ccKqkveW.debug.temp.o
 .debug_line    0x000000000004ea91      0x4fc /tmp/ccjE6BkS.debug.temp.o
 .debug_line    0x000000000004ef8d      0x331 /tmp/cc9LuEeU.debug.temp.o
 .debug_line    0x000000000004f2be      0x42f /tmp/cc6Zw3rW.debug.temp.o
 .debug_line    0x000000000004f6ed      0x3c3 /tmp/ccndybFV.debug.temp.o
 .debug_line    0x000000000004fab0      0x526 /tmp/cczPQ4oU.debug.temp.o
 .debug_line    0x000000000004ffd6      0x796 /tmp/ccSvEj8R.debug.temp.o
 .debug_line    0x000000000005076c      0x281 /tmp/ccrFSWQT.debug.temp.o
 .debug_line    0x00000000000509ed      0x591 /tmp/cc5aledT.debug.temp.o
 .debug_line    0x0000000000050f7e      0x58b /tmp/ccx6pmgV.debug.temp.o
 .debug_line    0x0000000000051509      0x602 /tmp/ccrEKq3V.debug.temp.o
 .debug_line    0x0000000000051b0b      0x5f0 /tmp/cc6zBmsW.debug.temp.o
 .debug_line    0x00000000000520fb      0x5ec /tmp/ccqyL4GW.debug.temp.o
 .debug_line    0x00000000000526e7      0x614 /tmp/ccUXW0xW.debug.temp.o
 .debug_line    0x0000000000052cfb      0x5f8 /tmp/ccVY0SSS.debug.temp.o
 .debug_line    0x00000000000532f3      0x5ed /tmp/cck0f0YV.debug.temp.o
 .debug_line    0x00000000000538e0      0x5eb /tmp/cc59tWPV.debug.temp.o
 .debug_line    0x0000000000053ecb      0x5ed /tmp/ccGzJgCV.debug.temp.o
 .debug_line    0x00000000000544b8      0x5ea /tmp/ccq9pbFU.debug.temp.o
 .debug_line    0x0000000000054aa2      0x633 /tmp/cc9ZXgdV.debug.temp.o
 .debug_line    0x00000000000550d5      0x5ed /tmp/cceOSdsT.debug.temp.o
 .debug_line    0x00000000000556c2      0x5ea /tmp/ccOnX61U.debug.temp.o
 .debug_line    0x0000000000055cac      0x5ea /tmp/ccLQLpeS.debug.temp.o
 .debug_line    0x0000000000056296      0x5ee /tmp/ccza3XQS.debug.temp.o
 .debug_line    0x0000000000056884      0x634 /tmp/ccbrAOqS.debug.temp.o
 .debug_line    0x0000000000056eb8      0x293 /tmp/ccSwGxlT.debug.temp.o
 .debug_line    0x000000000005714b      0x604 /tmp/ccv2B5uU.debug.temp.o
 .debug_line    0x000000000005774f      0x5ee /tmp/cc2jfg2U.debug.temp.o
 .debug_line    0x0000000000057d3d      0x5ee /tmp/ccP5UdXT.debug.temp.o
 .debug_line    0x000000000005832b      0x5ec /tmp/ccG06kxW.debug.temp.o
 .debug_line    0x0000000000058917      0x5ed /tmp/cc4UZfgW.debug.temp.o
 .debug_line    0x0000000000058f04      0x5ef /tmp/ccFxFe6T.debug.temp.o
 .debug_line    0x00000000000594f3      0x5ef /tmp/ccexHeKS.debug.temp.o
 .debug_line    0x0000000000059ae2      0x293 /tmp/ccTWQY3V.debug.temp.o
 .debug_line    0x0000000000059d75      0x604 /tmp/ccuuf6mT.debug.temp.o
 .debug_line    0x000000000005a379      0x5ed /tmp/ccehXTqU.debug.temp.o
 .debug_line    0x000000000005a966      0x5ef /tmp/ccbcAovU.debug.temp.o
 .debug_line    0x000000000005af55      0x5ee /tmp/ccSHyr6T.debug.temp.o
 .debug_line    0x000000000005b543      0x5ef /tmp/ccpcdleU.debug.temp.o
 .debug_line    0x000000000005bb32      0x5f0 /tmp/cchlwOeS.debug.temp.o
 .debug_line    0x000000000005c122      0x607 /tmp/ccgEF1ST.debug.temp.o
 .debug_line    0x000000000005c729      0x293 /tmp/ccygxt5T.debug.temp.o
 .debug_line    0x000000000005c9bc      0x5ee /tmp/ccGy6mdU.debug.temp.o
 .debug_line    0x000000000005cfaa      0x5ef /tmp/ccNzzZoS.debug.temp.o
 .debug_line    0x000000000005d599      0x5ed /tmp/cc593jWT.debug.temp.o
 .debug_line    0x000000000005db86      0x6bc /tmp/ccHIOBOT.debug.temp.o
 .debug_line    0x000000000005e242      0x296 /tmp/ccLOU67R.debug.temp.o
 .debug_line    0x000000000005e4d8      0x6a8 /tmp/cc4lJsIS.debug.temp.o
 .debug_line    0x000000000005eb80      0x6a8 /tmp/ccgLMoNT.debug.temp.o
 .debug_line    0x000000000005f228      0x6a9 /tmp/cceBWVvS.debug.temp.o
 .debug_line    0x000000000005f8d1      0x6ab /tmp/cckWitxT.debug.temp.o
 .debug_line    0x000000000005ff7c      0x6aa /tmp/ccfwDiEV.debug.temp.o
 .debug_line    0x0000000000060626      0x6a7 /tmp/ccyYCCKU.debug.temp.o
 .debug_line    0x0000000000060ccd      0x6a8 /tmp/cc1Y0vhV.debug.temp.o
 .debug_line    0x0000000000061375      0x6a3 /tmp/ccZaEOqT.debug.temp.o
 .debug_line    0x0000000000061a18      0x702 /tmp/ccFRe90V.debug.temp.o
 .debug_line    0x000000000006211a      0x6a8 /tmp/cc2LD5pW.debug.temp.o
 .debug_line    0x00000000000627c2      0x6e7 /tmp/ccZV4SfW.debug.temp.o
 .debug_line    0x0000000000062ea9      0x724 /tmp/ccGachAW.debug.temp.o
 .debug_line    0x00000000000635cd      0x7a7 /tmp/ccQ4wFIS.debug.temp.o
 .debug_line    0x0000000000063d74      0x7ad /tmp/ccZfSe4U.debug.temp.o
 .debug_line    0x0000000000064521      0x7c2 /tmp/ccN0KhqW.debug.temp.o
 .debug_line    0x0000000000064ce3      0x7a7 /tmp/ccJkBFyS.debug.temp.o
 .debug_line    0x000000000006548a      0x7b7 /tmp/ccKwI5AV.debug.temp.o
 .debug_line    0x0000000000065c41      0x7ce /tmp/cceQSqPU.debug.temp.o
 .debug_line    0x000000000006640f      0x7b4 /tmp/cceLk0mU.debug.temp.o
 .debug_line    0x0000000000066bc3      0x293 /tmp/ccqf3D6U.debug.temp.o
 .debug_line    0x0000000000066e56      0x711 /tmp/ccjqwkhW.debug.temp.o
 .debug_line    0x0000000000067567      0x70e /tmp/ccyZJ9JS.debug.temp.o
 .debug_line    0x0000000000067c75      0x70e /tmp/cc4jUYQS.debug.temp.o
 .debug_line    0x0000000000068383      0x710 /tmp/ccO9LfBV.debug.temp.o
 .debug_line    0x0000000000068a93      0x715 /tmp/ccWHDk6R.debug.temp.o
 .debug_line    0x00000000000691a8      0x727 /tmp/ccG7D0FT.debug.temp.o
 .debug_line    0x00000000000698cf      0x72d /tmp/ccjGV8BU.debug.temp.o
 .debug_line    0x0000000000069ffc      0x76d /tmp/cck4ryKV.debug.temp.o
 .debug_line    0x000000000006a769      0x785 /tmp/cc5f006S.debug.temp.o
 .debug_line    0x000000000006aeee      0x710 /tmp/ccuWDdDU.debug.temp.o
 .debug_line    0x000000000006b5fe      0x71f /tmp/ccBVW9bS.debug.temp.o
 .debug_line    0x000000000006bd1d      0x7a4 /tmp/ccLvQ4jU.debug.temp.o
 .debug_line    0x000000000006c4c1      0x712 /tmp/cc4j6r8V.debug.temp.o
 .debug_line    0x000000000006cbd3      0x71b /tmp/ccUHx8zS.debug.temp.o
 .debug_line    0x000000000006d2ee      0x7d2 /tmp/ccihIkSS.debug.temp.o
 .debug_line    0x000000000006dac0      0x7c6 /tmp/cc1IxZGU.debug.temp.o
 .debug_line    0x000000000006e286      0x728 /tmp/ccNosJwU.debug.temp.o
 .debug_line    0x000000000006e9ae      0x716 /tmp/ccwu5PpV.debug.temp.o
 .debug_line    0x000000000006f0c4      0x717 /tmp/ccJ1O7nU.debug.temp.o
 .debug_line    0x000000000006f7db      0x726 /tmp/cc2RbltU.debug.temp.o
 .debug_line    0x000000000006ff01      0x7bb /tmp/ccKkVH5R.debug.temp.o
 .debug_line    0x00000000000706bc      0x7b9 /tmp/ccC7WILS.debug.temp.o
 .debug_line    0x0000000000070e75      0x7c6 /tmp/cc2N0zRV.debug.temp.o
 .debug_line    0x000000000007163b      0x7b9 /tmp/ccJqMPkT.debug.temp.o
 .debug_line    0x0000000000071df4      0x7b8 /tmp/ccuYT6cW.debug.temp.o
 .debug_line    0x00000000000725ac      0x3e1 /tmp/ccUgEfNV.debug.temp.o
 .debug_line    0x000000000007298d      0x7c1 /tmp/cce7NVUS.debug.temp.o
 .debug_line    0x000000000007314e      0x7d2 /tmp/cc3vUqeW.debug.temp.o
 .debug_line    0x0000000000073920      0x78c /tmp/ccc3WViW.debug.temp.o
 .debug_line    0x00000000000740ac      0x2f3 /tmp/ccJSNvtT.debug.temp.o
 .debug_line    0x000000000007439f      0x684 /tmp/ccpinTBW.debug.temp.o
 .debug_line    0x0000000000074a23      0x6b1 /tmp/cc6gqZbU.debug.temp.o
 .debug_line    0x00000000000750d4      0x689 /tmp/ccVxYtqW.debug.temp.o
 .debug_line    0x000000000007575d      0x299 /tmp/ccOf6hlS.debug.temp.o
 .debug_line    0x00000000000759f6      0x5de /tmp/ccl4OfHT.debug.temp.o
 .debug_line    0x0000000000075fd4      0x296 /tmp/cceMWzuS.debug.temp.o
 .debug_line    0x000000000007626a      0x3c4 /tmp/ccKCHhgT.debug.temp.o
 .debug_line    0x000000000007662e      0x595 /tmp/cc6cOpUU.debug.temp.o
 .debug_line    0x0000000000076bc3      0x2fc /tmp/cc0a232T.debug.temp.o
 .debug_line    0x0000000000076ebf      0x412 /tmp/ccusTJfS.debug.temp.o
 .debug_line    0x00000000000772d1      0x412 /tmp/cctc7w5R.debug.temp.o
 .debug_line    0x00000000000776e3      0x412 /tmp/ccCfu85V.debug.temp.o
 .debug_line    0x0000000000077af5      0x3b7 /tmp/cc9vReiS.debug.temp.o
 .debug_line    0x0000000000077eac      0x412 /tmp/cc0vkHkV.debug.temp.o
 .debug_line    0x00000000000782be      0x427 /tmp/ccy6tbsU.debug.temp.o
 .debug_line    0x00000000000786e5      0x412 /tmp/ccZNqVIV.debug.temp.o
 .debug_line    0x0000000000078af7      0x45c /tmp/cct51r4V.debug.temp.o
 .debug_line    0x0000000000078f53      0x412 /tmp/ccTY4DyV.debug.temp.o
 .debug_line    0x0000000000079365      0x412 /tmp/ccQ9esST.debug.temp.o
 .debug_line    0x0000000000079777      0x412 /tmp/cckAfQaS.debug.temp.o
 .debug_line    0x0000000000079b89      0x412 /tmp/ccamRyTT.debug.temp.o
 .debug_line    0x0000000000079f9b      0x412 /tmp/ccxjpVlU.debug.temp.o
 .debug_line    0x000000000007a3ad      0x412 /tmp/cc6ztGOV.debug.temp.o
 .debug_line    0x000000000007a7bf      0x412 /tmp/ccsgbSUT.debug.temp.o
 .debug_line    0x000000000007abd1      0x412 /tmp/ccurI9YV.debug.temp.o
 .debug_line    0x000000000007afe3      0x412 /tmp/ccMiMJVV.debug.temp.o
 .debug_line    0x000000000007b3f5      0x3b7 /tmp/ccHlb5gT.debug.temp.o
 .debug_line    0x000000000007b7ac      0x412 /tmp/cc5bPMAU.debug.temp.o
 .debug_line    0x000000000007bbbe      0x3c4 /tmp/ccw4q06V.debug.temp.o
 .debug_line    0x000000000007bf82      0x42f /tmp/ccJeZkHV.debug.temp.o
 .debug_line    0x000000000007c3b1      0x178 /tmp/ccMuYDVU.debug.temp.o
 .debug_line    0x000000000007c529      0x17a /tmp/cc9x6YgS.debug.temp.o
 .debug_line    0x000000000007c6a3      0x179 /tmp/ccekHVSV.debug.temp.o
 .debug_line    0x000000000007c81c      0x14e /tmp/ccWdGw1U.debug.temp.o
 .debug_line    0x000000000007c96a      0x14d /tmp/ccWuIJRV.debug.temp.o
 .debug_line    0x000000000007cab7      0x14c /tmp/ccJRHRyW.debug.temp.o
 .debug_line    0x000000000007cc03      0x155 /tmp/ccTC1cFV.debug.temp.o
 .debug_line    0x000000000007cd58      0x155 /tmp/ccenqtnW.debug.temp.o
 .debug_line    0x000000000007cead      0x150 /tmp/ccLVqUvU.debug.temp.o
 .debug_line    0x000000000007cffd      0x3a3 /tmp/ccMZTzhV.debug.temp.o
 .debug_line    0x000000000007d3a0      0x343 /tmp/cciYOBoT.debug.temp.o
 .debug_line    0x000000000007d6e3      0x1da /tmp/ccyYEadT.debug.temp.o
 .debug_line    0x000000000007d8bd      0x20d /tmp/ccTJdHpV.debug.temp.o
 .debug_line    0x000000000007daca      0x16d /tmp/ccU00YcS.debug.temp.o
 .debug_line    0x000000000007dc37      0x64e /tmp/ccWvX2uU.debug.temp.o
 .debug_line    0x000000000007e285      0x28a /tmp/cczlbICW.debug.temp.o
 .debug_line    0x000000000007e50f      0x509 /tmp/ccN6o9dU.debug.temp.o
 .debug_line    0x000000000007ea18      0x35e /tmp/ccPdnS8R.debug.temp.o
 .debug_line    0x000000000007ed76      0x5ca /tmp/ccDN8t7T.debug.temp.o
 .debug_line    0x000000000007f340      0x570 /tmp/ccDHaE7R.debug.temp.o

.debug_str      0x0000000000000000    0x28b0f
 .debug_str     0x0000000000000000      0x80e /tmp/Shell.dll.q6gkOU.ltrans0.ltrans.o
                                        0x815 (size before relaxing)
 .debug_str     0x000000000000080e       0x72 /tmp/Shell.dll.q6gkOU.ltrans1.ltrans.o
                                        0x2fc (size before relaxing)
 .debug_str     0x0000000000000880      0x23c /tmp/Shell.dll.q6gkOU.ltrans2.ltrans.o
 .debug_str     0x0000000000000880       0x3a /tmp/Shell.dll.q6gkOU.ltrans3.ltrans.o
                                        0x288 (size before relaxing)
 .debug_str     0x00000000000008ba       0xb0 /tmp/Shell.dll.q6gkOU.ltrans4.ltrans.o
                                        0x3f8 (size before relaxing)
 .debug_str     0x000000000000096a       0x34 /tmp/Shell.dll.q6gkOU.ltrans5.ltrans.o
                                        0x2b4 (size before relaxing)
 .debug_str     0x000000000000099e       0x42 /tmp/Shell.dll.q6gkOU.ltrans6.ltrans.o
                                        0x2c6 (size before relaxing)
 .debug_str     0x00000000000009e0       0x1b /tmp/Shell.dll.q6gkOU.ltrans7.ltrans.o
                                        0x2c0 (size before relaxing)
 .debug_str     0x00000000000009fb       0x85 /tmp/Shell.dll.q6gkOU.ltrans8.ltrans.o
                                        0x3d0 (size before relaxing)
 .debug_str     0x0000000000000a80       0x91 /tmp/Shell.dll.q6gkOU.ltrans9.ltrans.o
                                        0x36a (size before relaxing)
 .debug_str     0x0000000000000b11      0x120 /tmp/Shell.dll.q6gkOU.ltrans10.ltrans.o
                                        0x4ff (size before relaxing)
 .debug_str     0x0000000000000c31        0xe /tmp/Shell.dll.q6gkOU.ltrans11.ltrans.o
                                        0x288 (size before relaxing)
 .debug_str     0x0000000000000c3f     0x11ae /tmp/ccTejSGS.debug.temp.o
                                       0x1581 (size before relaxing)
 .debug_str     0x0000000000001ded      0x27c /tmp/ccAbj5PS.debug.temp.o
                                        0x3a9 (size before relaxing)
 .debug_str     0x0000000000002069       0xd5 /tmp/ccHzUtuU.debug.temp.o
                                        0x350 (size before relaxing)
 .debug_str     0x000000000000213e       0x55 /tmp/cc3O2vWT.debug.temp.o
                                        0x344 (size before relaxing)
 .debug_str     0x0000000000002193     0x2bdc /tmp/ccYK7LpW.debug.temp.o
                                       0x410e (size before relaxing)
 .debug_str     0x0000000000004d6f     0x22d6 /tmp/cclXgfzU.debug.temp.o
                                       0x6404 (size before relaxing)
 .debug_str     0x0000000000007045      0x32e /tmp/ccpPQYMU.debug.temp.o
                                       0x5b57 (size before relaxing)
 .debug_str     0x0000000000007373      0xa48 /tmp/ccR3uDOS.debug.temp.o
                                       0x6549 (size before relaxing)
 .debug_str     0x0000000000007dbb      0x748 /tmp/ccq0XrES.debug.temp.o
                                       0x5e36 (size before relaxing)
 .debug_str     0x0000000000008503      0x163 /tmp/ccG60d4T.debug.temp.o
                                       0x59d8 (size before relaxing)
 .debug_str     0x0000000000008666      0x269 /tmp/ccick9kU.debug.temp.o
                                       0x5929 (size before relaxing)
 .debug_str     0x00000000000088cf      0x3d6 /tmp/ccjtIUJW.debug.temp.o
                                       0x5d0a (size before relaxing)
 .debug_str     0x0000000000008ca5      0x327 /tmp/cc7sXw0S.debug.temp.o
                                       0x59dc (size before relaxing)
 .debug_str     0x0000000000008fcc      0x10e /tmp/ccj8VxpT.debug.temp.o
                                        0x3af (size before relaxing)
 .debug_str     0x00000000000090da       0x52 /tmp/ccUYHy7V.debug.temp.o
                                        0x352 (size before relaxing)
 .debug_str     0x000000000000912c       0x53 /tmp/ccYCe7BV.debug.temp.o
                                        0x35a (size before relaxing)
 .debug_str     0x000000000000917f       0x59 /tmp/ccRjqpLT.debug.temp.o
                                        0x35e (size before relaxing)
 .debug_str     0x00000000000091d8       0x71 /tmp/ccZmdiaW.debug.temp.o
                                        0x36a (size before relaxing)
 .debug_str     0x0000000000009249      0x1c9 /tmp/ccOX0oGW.debug.temp.o
                                        0x480 (size before relaxing)
 .debug_str     0x0000000000009412       0xa7 /tmp/ccFmniiV.debug.temp.o
                                        0x463 (size before relaxing)
 .debug_str     0x00000000000094b9      0x11a /tmp/cc0KvZ5S.debug.temp.o
                                        0x573 (size before relaxing)
 .debug_str     0x00000000000095d3      0x2a8 /tmp/ccnTZERT.debug.temp.o
                                        0x822 (size before relaxing)
 .debug_str     0x000000000000987b      0x2d5 /tmp/ccZTiSsT.debug.temp.o
                                        0x7e4 (size before relaxing)
 .debug_str     0x0000000000009b50       0x75 /tmp/ccCpShDW.debug.temp.o
                                        0x49b (size before relaxing)
 .debug_str     0x0000000000009bc5       0x66 /tmp/cc0CezIV.debug.temp.o
                                        0x474 (size before relaxing)
 .debug_str     0x0000000000009c2b       0x4f /tmp/ccGFjNtV.debug.temp.o
                                        0x45d (size before relaxing)
 .debug_str     0x0000000000009c7a       0x49 /tmp/cc5eNepV.debug.temp.o
                                        0x467 (size before relaxing)
 .debug_str     0x0000000000009cc3       0x4f /tmp/cc2D4ZMV.debug.temp.o
                                        0x474 (size before relaxing)
 .debug_str     0x0000000000009d12       0x41 /tmp/ccUFMH4U.debug.temp.o
                                        0x467 (size before relaxing)
 .debug_str     0x0000000000009d53       0x52 /tmp/ccsch6zU.debug.temp.o
                                        0x464 (size before relaxing)
 .debug_str     0x0000000000009da5      0x170 /tmp/ccJ2G06U.debug.temp.o
                                        0x5e1 (size before relaxing)
 .debug_str     0x0000000000009f15       0xff /tmp/ccamYGSS.debug.temp.o
                                       0x156f (size before relaxing)
 .debug_str     0x000000000000a014      0x20c /tmp/ccGhc5ZS.debug.temp.o
                                        0x59c (size before relaxing)
 .debug_str     0x000000000000a220      0x222 /tmp/ccvhrsmV.debug.temp.o
                                        0x70e (size before relaxing)
 .debug_str     0x000000000000a442      0x2f0 /tmp/ccgSgrmV.debug.temp.o
                                       0x17db (size before relaxing)
 .debug_str     0x000000000000a732      0x355 /tmp/ccKB3XSU.debug.temp.o
                                       0x1976 (size before relaxing)
 .debug_str     0x000000000000aa87       0x70 /tmp/ccnd7M1T.debug.temp.o
                                       0x165a (size before relaxing)
 .debug_str     0x000000000000aaf7       0x8c /tmp/ccrYO7XV.debug.temp.o
                                       0x17da (size before relaxing)
 .debug_str     0x000000000000ab83      0xd50 /tmp/ccmMT7zS.debug.temp.o
                                       0x25ee (size before relaxing)
 .debug_str     0x000000000000b8d3      0xed5 /tmp/ccORAesS.debug.temp.o
                                       0x2f13 (size before relaxing)
 .debug_str     0x000000000000c7a8      0x10e /tmp/cceduEMU.debug.temp.o
                                       0x1571 (size before relaxing)
 .debug_str     0x000000000000c8b6       0xed /tmp/ccL90OWU.debug.temp.o
                                       0x21d2 (size before relaxing)
 .debug_str     0x000000000000c9a3      0x520 /tmp/ccg9r7YU.debug.temp.o
                                       0x20b3 (size before relaxing)
 .debug_str     0x000000000000cec3      0x183 /tmp/ccmGmvSS.debug.temp.o
                                       0x17ac (size before relaxing)
 .debug_str     0x000000000000d046      0xf0d /tmp/ccbc2KbT.debug.temp.o
                                       0x35eb (size before relaxing)
 .debug_str     0x000000000000df53       0xbb /tmp/ccKqkveW.debug.temp.o
                                       0x2452 (size before relaxing)
 .debug_str     0x000000000000e00e       0x89 /tmp/ccjE6BkS.debug.temp.o
                                       0x23c4 (size before relaxing)
 .debug_str     0x000000000000e097      0x297 /tmp/cc9LuEeU.debug.temp.o
                                        0xb39 (size before relaxing)
 .debug_str     0x000000000000e32e      0x62f /tmp/cc6Zw3rW.debug.temp.o
                                       0x1c2b (size before relaxing)
 .debug_str     0x000000000000e95d      0x5a9 /tmp/ccndybFV.debug.temp.o
                                       0x1c0a (size before relaxing)
 .debug_str     0x000000000000ef06      0xf4e /tmp/cczPQ4oU.debug.temp.o
                                       0x3883 (size before relaxing)
 .debug_str     0x000000000000fe54     0x2fbe /tmp/ccSvEj8R.debug.temp.o
                                       0x7ac4 (size before relaxing)
 .debug_str     0x0000000000012e12       0x84 /tmp/ccrFSWQT.debug.temp.o
                                       0x23ec (size before relaxing)
 .debug_str     0x0000000000012e96      0x911 /tmp/cc5aledT.debug.temp.o
                                       0x31f6 (size before relaxing)
 .debug_str     0x00000000000137a7      0x54b /tmp/ccx6pmgV.debug.temp.o
                                       0x3b84 (size before relaxing)
 .debug_str     0x0000000000013cf2      0x1fa /tmp/ccrEKq3V.debug.temp.o
                                       0x2590 (size before relaxing)
 .debug_str     0x0000000000013eec      0x1b8 /tmp/cc6zBmsW.debug.temp.o
                                       0x27b7 (size before relaxing)
 .debug_str     0x00000000000140a4       0xbc /tmp/ccqyL4GW.debug.temp.o
                                       0x272a (size before relaxing)
 .debug_str     0x0000000000014160      0x246 /tmp/ccUXW0xW.debug.temp.o
                                       0x2aa4 (size before relaxing)
 .debug_str     0x00000000000143a6      0x25f /tmp/ccVY0SSS.debug.temp.o
                                       0x2a91 (size before relaxing)
 .debug_str     0x0000000000014605       0x84 /tmp/cck0f0YV.debug.temp.o
                                       0x2659 (size before relaxing)
 .debug_str     0x0000000000014689       0x9e /tmp/cc59tWPV.debug.temp.o
                                       0x264d (size before relaxing)
 .debug_str     0x0000000000014727       0xa8 /tmp/ccGzJgCV.debug.temp.o
                                       0x265c (size before relaxing)
 .debug_str     0x00000000000147cf       0xc5 /tmp/ccq9pbFU.debug.temp.o
                                       0x26a5 (size before relaxing)
 .debug_str     0x0000000000014894      0x164 /tmp/cc9ZXgdV.debug.temp.o
                                       0x2b6b (size before relaxing)
 .debug_str     0x00000000000149f8      0x142 /tmp/cceOSdsT.debug.temp.o
                                       0x2765 (size before relaxing)
 .debug_str     0x0000000000014b3a       0x9a /tmp/ccOnX61U.debug.temp.o
                                       0x28a0 (size before relaxing)
 .debug_str     0x0000000000014bd4      0x1b3 /tmp/ccLQLpeS.debug.temp.o
                                       0x29d5 (size before relaxing)
 .debug_str     0x0000000000014d87       0xd3 /tmp/ccza3XQS.debug.temp.o
                                       0x2685 (size before relaxing)
 .debug_str     0x0000000000014e5a       0x78 /tmp/ccbrAOqS.debug.temp.o
                                       0x28aa (size before relaxing)
 .debug_str     0x0000000000014ed2       0x90 /tmp/ccSwGxlT.debug.temp.o
                                        0x646 (size before relaxing)
 .debug_str     0x0000000000014f62      0x218 /tmp/ccv2B5uU.debug.temp.o
                                       0x2563 (size before relaxing)
 .debug_str     0x000000000001517a       0x65 /tmp/cc2jfg2U.debug.temp.o
                                       0x25c1 (size before relaxing)
 .debug_str     0x00000000000151df       0x73 /tmp/ccP5UdXT.debug.temp.o
                                       0x2623 (size before relaxing)
 .debug_str     0x0000000000015252      0x347 /tmp/ccG06kxW.debug.temp.o
                                       0x2986 (size before relaxing)
 .debug_str     0x0000000000015599      0x13d /tmp/cc4UZfgW.debug.temp.o
                                       0x276d (size before relaxing)
 .debug_str     0x00000000000156d6       0x67 /tmp/ccFxFe6T.debug.temp.o
                                       0x25fe (size before relaxing)
 .debug_str     0x000000000001573d       0x74 /tmp/ccexHeKS.debug.temp.o
                                       0x25b8 (size before relaxing)
 .debug_str     0x00000000000157b1       0x90 /tmp/ccTWQY3V.debug.temp.o
                                        0x55c (size before relaxing)
 .debug_str     0x0000000000015841      0x198 /tmp/ccuuf6mT.debug.temp.o
                                       0x24ad (size before relaxing)
 .debug_str     0x00000000000159d9       0x93 /tmp/ccehXTqU.debug.temp.o
                                       0x2656 (size before relaxing)
 .debug_str     0x0000000000015a6c       0xfd /tmp/ccbcAovU.debug.temp.o
                                       0x26f4 (size before relaxing)
 .debug_str     0x0000000000015b69       0x71 /tmp/ccSHyr6T.debug.temp.o
                                       0x263f (size before relaxing)
 .debug_str     0x0000000000015bda       0x67 /tmp/ccpcdleU.debug.temp.o
                                       0x27fe (size before relaxing)
 .debug_str     0x0000000000015c41       0x69 /tmp/cchlwOeS.debug.temp.o
                                       0x2622 (size before relaxing)
 .debug_str     0x0000000000015caa      0x133 /tmp/ccgEF1ST.debug.temp.o
                                       0x2848 (size before relaxing)
 .debug_str     0x0000000000015ddd       0x90 /tmp/ccygxt5T.debug.temp.o
                                        0x5e2 (size before relaxing)
 .debug_str     0x0000000000015e6d       0xbd /tmp/ccGy6mdU.debug.temp.o
                                       0x26bd (size before relaxing)
 .debug_str     0x0000000000015f2a       0x89 /tmp/ccNzzZoS.debug.temp.o
                                       0x2684 (size before relaxing)
 .debug_str     0x0000000000015fb3       0x63 /tmp/cc593jWT.debug.temp.o
                                       0x262c (size before relaxing)
 .debug_str     0x0000000000016016      0x1a1 /tmp/ccHIOBOT.debug.temp.o
                                       0x2638 (size before relaxing)
 .debug_str     0x00000000000161b7       0x92 /tmp/ccLOU67R.debug.temp.o
                                        0x627 (size before relaxing)
 .debug_str     0x0000000000016249      0x1d0 /tmp/cc4lJsIS.debug.temp.o
                                       0x2ee0 (size before relaxing)
 .debug_str     0x0000000000016419       0xa1 /tmp/ccgLMoNT.debug.temp.o
                                       0x2839 (size before relaxing)
 .debug_str     0x00000000000164ba      0x116 /tmp/cceBWVvS.debug.temp.o
                                       0x28dd (size before relaxing)
 .debug_str     0x00000000000165d0       0xaa /tmp/cckWitxT.debug.temp.o
                                       0x2848 (size before relaxing)
 .debug_str     0x000000000001667a       0x83 /tmp/ccfwDiEV.debug.temp.o
                                       0x27cf (size before relaxing)
 .debug_str     0x00000000000166fd       0x86 /tmp/ccyYCCKU.debug.temp.o
                                       0x29c7 (size before relaxing)
 .debug_str     0x0000000000016783      0x374 /tmp/cc1Y0vhV.debug.temp.o
                                       0x2b92 (size before relaxing)
 .debug_str     0x0000000000016af7      0x2db /tmp/ccZaEOqT.debug.temp.o
                                       0x2d96 (size before relaxing)
 .debug_str     0x0000000000016dd2      0x12c /tmp/ccFRe90V.debug.temp.o
                                       0x2c98 (size before relaxing)
 .debug_str     0x0000000000016efe       0xb3 /tmp/cc2LD5pW.debug.temp.o
                                       0x2887 (size before relaxing)
 .debug_str     0x0000000000016fb1      0x44c /tmp/ccZV4SfW.debug.temp.o
                                       0x3210 (size before relaxing)
 .debug_str     0x00000000000173fd      0x21b /tmp/ccGachAW.debug.temp.o
                                       0x279a (size before relaxing)
 .debug_str     0x0000000000017618      0x36b /tmp/ccQ4wFIS.debug.temp.o
                                       0x2de8 (size before relaxing)
 .debug_str     0x0000000000017983      0x565 /tmp/ccZfSe4U.debug.temp.o
                                       0x31fb (size before relaxing)
 .debug_str     0x0000000000017ee8      0x192 /tmp/ccN0KhqW.debug.temp.o
                                       0x2f5f (size before relaxing)
 .debug_str     0x000000000001807a       0x5e /tmp/ccJkBFyS.debug.temp.o
                                       0x2bd7 (size before relaxing)
 .debug_str     0x00000000000180d8      0x32b /tmp/ccKwI5AV.debug.temp.o
                                       0x2f82 (size before relaxing)
 .debug_str     0x0000000000018403      0x36e /tmp/cceQSqPU.debug.temp.o
                                       0x3185 (size before relaxing)
 .debug_str     0x0000000000018771       0xb7 /tmp/cceLk0mU.debug.temp.o
                                       0x2de0 (size before relaxing)
 .debug_str     0x0000000000018828       0x90 /tmp/ccqf3D6U.debug.temp.o
                                        0x66e (size before relaxing)
 .debug_str     0x00000000000188b8       0x71 /tmp/ccjqwkhW.debug.temp.o
                                       0x283e (size before relaxing)
 .debug_str     0x0000000000018929      0x204 /tmp/ccyZJ9JS.debug.temp.o
                                       0x2a4c (size before relaxing)
 .debug_str     0x0000000000018b2d       0x73 /tmp/cc4jUYQS.debug.temp.o
                                       0x2837 (size before relaxing)
 .debug_str     0x0000000000018ba0      0x4f5 /tmp/ccO9LfBV.debug.temp.o
                                       0x2cf9 (size before relaxing)
 .debug_str     0x0000000000019095       0xc1 /tmp/ccWHDk6R.debug.temp.o
                                       0x289e (size before relaxing)
 .debug_str     0x0000000000019156      0x10d /tmp/ccG7D0FT.debug.temp.o
                                       0x2948 (size before relaxing)
 .debug_str     0x0000000000019263       0xf0 /tmp/ccjGV8BU.debug.temp.o
                                       0x2dce (size before relaxing)
 .debug_str     0x0000000000019353      0x1f1 /tmp/cck4ryKV.debug.temp.o
                                       0x2b1d (size before relaxing)
 .debug_str     0x0000000000019544      0x1b9 /tmp/cc5f006S.debug.temp.o
                                       0x323d (size before relaxing)
 .debug_str     0x00000000000196fd      0x149 /tmp/ccuWDdDU.debug.temp.o
                                       0x2989 (size before relaxing)
 .debug_str     0x0000000000019846      0x219 /tmp/ccBVW9bS.debug.temp.o
                                       0x2aa3 (size before relaxing)
 .debug_str     0x0000000000019a5f     0x269b /tmp/ccLvQ4jU.debug.temp.o
                                       0x573e (size before relaxing)
 .debug_str     0x000000000001c0fa      0x1b7 /tmp/cc4j6r8V.debug.temp.o
                                       0x2bcc (size before relaxing)
 .debug_str     0x000000000001c2b1       0xb4 /tmp/ccUHx8zS.debug.temp.o
                                       0x29fe (size before relaxing)
 .debug_str     0x000000000001c365     0x222b /tmp/ccihIkSS.debug.temp.o
                                       0x4fa2 (size before relaxing)
 .debug_str     0x000000000001e590      0x1b2 /tmp/cc1IxZGU.debug.temp.o
                                       0x4c9c (size before relaxing)
 .debug_str     0x000000000001e742       0xcf /tmp/ccNosJwU.debug.temp.o
                                       0x2761 (size before relaxing)
 .debug_str     0x000000000001e811      0x14e /tmp/ccwu5PpV.debug.temp.o
                                       0x28e8 (size before relaxing)
 .debug_str     0x000000000001e95f      0x13a /tmp/ccJ1O7nU.debug.temp.o
                                       0x2753 (size before relaxing)
 .debug_str     0x000000000001ea99      0x100 /tmp/cc2RbltU.debug.temp.o
                                       0x27d9 (size before relaxing)
 .debug_str     0x000000000001eb99      0x52d /tmp/ccKkVH5R.debug.temp.o
                                       0x33b0 (size before relaxing)
 .debug_str     0x000000000001f0c6       0xcc /tmp/ccC7WILS.debug.temp.o
                                       0x2dbc (size before relaxing)
 .debug_str     0x000000000001f192      0x107 /tmp/cc2N0zRV.debug.temp.o
                                       0x2ffd (size before relaxing)
 .debug_str     0x000000000001f299       0xd4 /tmp/ccJqMPkT.debug.temp.o
                                       0x2e99 (size before relaxing)
 .debug_str     0x000000000001f36d       0xc0 /tmp/ccuYT6cW.debug.temp.o
                                       0x2e4f (size before relaxing)
 .debug_str     0x000000000001f42d      0x396 /tmp/ccUgEfNV.debug.temp.o
                                       0x14a1 (size before relaxing)
 .debug_str     0x000000000001f7c3      0x320 /tmp/cce7NVUS.debug.temp.o
                                       0x4e97 (size before relaxing)
 .debug_str     0x000000000001fae3     0x1842 /tmp/cc3vUqeW.debug.temp.o
                                       0x3ef0 (size before relaxing)
 .debug_str     0x0000000000021325      0x1cc /tmp/ccc3WViW.debug.temp.o
                                       0x27fa (size before relaxing)
 .debug_str     0x00000000000214f1      0x136 /tmp/ccJSNvtT.debug.temp.o
                                       0x15f1 (size before relaxing)
 .debug_str     0x0000000000021627      0x1cf /tmp/ccpinTBW.debug.temp.o
                                       0x2611 (size before relaxing)
 .debug_str     0x00000000000217f6     0x114c /tmp/cc6gqZbU.debug.temp.o
                                       0x3b24 (size before relaxing)
 .debug_str     0x0000000000022942      0x415 /tmp/ccVxYtqW.debug.temp.o
                                       0x2ec1 (size before relaxing)
 .debug_str     0x0000000000022d57       0x94 /tmp/ccOf6hlS.debug.temp.o
                                        0x63a (size before relaxing)
 .debug_str     0x0000000000022deb      0x2c2 /tmp/ccl4OfHT.debug.temp.o
                                       0x27ad (size before relaxing)
 .debug_str     0x00000000000230ad       0x92 /tmp/cceMWzuS.debug.temp.o
                                        0x574 (size before relaxing)
 .debug_str     0x000000000002313f       0xf1 /tmp/ccKCHhgT.debug.temp.o
                                        0x78f (size before relaxing)
 .debug_str     0x0000000000023230      0x1a2 /tmp/cc6cOpUU.debug.temp.o
                                       0x22b9 (size before relaxing)
 .debug_str     0x00000000000233d2      0x206 /tmp/cc0a232T.debug.temp.o
                                        0x7c4 (size before relaxing)
 .debug_str     0x00000000000235d8      0x433 /tmp/ccusTJfS.debug.temp.o
                                        0xb4a (size before relaxing)
 .debug_str     0x0000000000023a0b       0x7e /tmp/cctc7w5R.debug.temp.o
                                        0x7e4 (size before relaxing)
 .debug_str     0x0000000000023a89      0x178 /tmp/ccCfu85V.debug.temp.o
                                        0x8f4 (size before relaxing)
 .debug_str     0x0000000000023c01       0x73 /tmp/cc9vReiS.debug.temp.o
                                        0x6ae (size before relaxing)
 .debug_str     0x0000000000023c74       0x7e /tmp/cc0vkHkV.debug.temp.o
                                        0x74e (size before relaxing)
 .debug_str     0x0000000000023cf2      0x133 /tmp/ccy6tbsU.debug.temp.o
                                        0x8ff (size before relaxing)
 .debug_str     0x0000000000023e25      0x194 /tmp/ccZNqVIV.debug.temp.o
                                        0x92e (size before relaxing)
 .debug_str     0x0000000000023fb9      0x344 /tmp/cct51r4V.debug.temp.o
                                        0xaec (size before relaxing)
 .debug_str     0x00000000000242fd      0x2f3 /tmp/ccTY4DyV.debug.temp.o
                                        0xa89 (size before relaxing)
 .debug_str     0x00000000000245f0      0x176 /tmp/ccQ9esST.debug.temp.o
                                        0x8f1 (size before relaxing)
 .debug_str     0x0000000000024766       0xb4 /tmp/cckAfQaS.debug.temp.o
                                        0x81a (size before relaxing)
 .debug_str     0x000000000002481a      0x272 /tmp/ccamRyTT.debug.temp.o
                                        0x9de (size before relaxing)
 .debug_str     0x0000000000024a8c      0x203 /tmp/ccxjpVlU.debug.temp.o
                                        0x9bd (size before relaxing)
 .debug_str     0x0000000000024c8f       0xb8 /tmp/cc6ztGOV.debug.temp.o
                                        0x79a (size before relaxing)
 .debug_str     0x0000000000024d47       0xa2 /tmp/ccsgbSUT.debug.temp.o
                                        0x829 (size before relaxing)
 .debug_str     0x0000000000024de9       0x8a /tmp/ccurI9YV.debug.temp.o
                                        0x814 (size before relaxing)
 .debug_str     0x0000000000024e73      0x287 /tmp/ccMiMJVV.debug.temp.o
                                        0xa2a (size before relaxing)
 .debug_str     0x00000000000250fa       0x73 /tmp/ccHlb5gT.debug.temp.o
                                        0x6ae (size before relaxing)
 .debug_str     0x000000000002516d       0xac /tmp/cc5bPMAU.debug.temp.o
                                        0x838 (size before relaxing)
 .debug_str     0x0000000000025219      0x174 /tmp/ccw4q06V.debug.temp.o
                                        0x83e (size before relaxing)
 .debug_str     0x000000000002538d      0x212 /tmp/ccJeZkHV.debug.temp.o
                                       0x1a02 (size before relaxing)
 .debug_str     0x000000000002559f       0x55 /tmp/ccMuYDVU.debug.temp.o
                                        0x37b (size before relaxing)
 .debug_str     0x00000000000255f4       0x57 /tmp/cc9x6YgS.debug.temp.o
                                        0x364 (size before relaxing)
 .debug_str     0x000000000002564b       0xb8 /tmp/ccekHVSV.debug.temp.o
                                        0x3cc (size before relaxing)
 .debug_str     0x0000000000025703       0x43 /tmp/ccWdGw1U.debug.temp.o
                                        0x45d (size before relaxing)
 .debug_str     0x0000000000025746       0x42 /tmp/ccWuIJRV.debug.temp.o
                                        0x474 (size before relaxing)
 .debug_str     0x0000000000025788       0x41 /tmp/ccJRHRyW.debug.temp.o
                                        0x464 (size before relaxing)
 .debug_str     0x00000000000257c9       0x5d /tmp/ccTC1cFV.debug.temp.o
                                        0x480 (size before relaxing)
 .debug_str     0x0000000000025826       0x5d /tmp/ccenqtnW.debug.temp.o
                                        0x480 (size before relaxing)
 .debug_str     0x0000000000025883       0xde /tmp/ccLVqUvU.debug.temp.o
                                        0x50a (size before relaxing)
 .debug_str     0x0000000000025961      0x270 /tmp/ccMZTzhV.debug.temp.o
                                       0x2176 (size before relaxing)
 .debug_str     0x0000000000025bd1      0x16f /tmp/cciYOBoT.debug.temp.o
                                       0x1a71 (size before relaxing)
 .debug_str     0x0000000000025d40      0x5e7 /tmp/ccyYEadT.debug.temp.o
                                        0x924 (size before relaxing)
 .debug_str     0x0000000000026327      0x456 /tmp/ccTJdHpV.debug.temp.o
                                        0x7cc (size before relaxing)
 .debug_str     0x000000000002677d      0x1ad /tmp/ccU00YcS.debug.temp.o
                                        0x447 (size before relaxing)
 .debug_str     0x000000000002692a      0x693 /tmp/ccWvX2uU.debug.temp.o
                                       0x2d98 (size before relaxing)
 .debug_str     0x0000000000026fbd       0x8a /tmp/cczlbICW.debug.temp.o
                                        0x508 (size before relaxing)
 .debug_str     0x0000000000027047      0xe8c /tmp/ccN6o9dU.debug.temp.o
                                       0x57b2 (size before relaxing)
 .debug_str     0x0000000000027ed3      0x446 /tmp/ccPdnS8R.debug.temp.o
                                       0x1ce7 (size before relaxing)
 .debug_str     0x0000000000028319      0x5a2 /tmp/ccDN8t7T.debug.temp.o
                                       0x2d46 (size before relaxing)
 .debug_str     0x00000000000288bb      0x254 /tmp/ccDHaE7R.debug.temp.o
                                       0x251f (size before relaxing)

.debug_frame    0x0000000000000000     0xb548
 .debug_frame   0x0000000000000000     0x1bc8 /tmp/Shell.dll.q6gkOU.ltrans0.ltrans.o
 .debug_frame   0x0000000000001bc8      0x8d8 /tmp/Shell.dll.q6gkOU.ltrans1.ltrans.o
 .debug_frame   0x00000000000024a0       0x60 /tmp/Shell.dll.q6gkOU.ltrans2.ltrans.o
 .debug_frame   0x0000000000002500      0xee8 /tmp/Shell.dll.q6gkOU.ltrans3.ltrans.o
 .debug_frame   0x00000000000033e8      0x868 /tmp/Shell.dll.q6gkOU.ltrans4.ltrans.o
 .debug_frame   0x0000000000003c50      0xa78 /tmp/Shell.dll.q6gkOU.ltrans5.ltrans.o
 .debug_frame   0x00000000000046c8      0x910 /tmp/Shell.dll.q6gkOU.ltrans6.ltrans.o
 .debug_frame   0x0000000000004fd8      0x628 /tmp/Shell.dll.q6gkOU.ltrans7.ltrans.o
 .debug_frame   0x0000000000005600     0x1428 /tmp/Shell.dll.q6gkOU.ltrans8.ltrans.o
 .debug_frame   0x0000000000006a28     0x29b0 /tmp/Shell.dll.q6gkOU.ltrans9.ltrans.o
 .debug_frame   0x00000000000093d8     0x2060 /tmp/Shell.dll.q6gkOU.ltrans10.ltrans.o
 .debug_frame   0x000000000000b438      0x110 /tmp/Shell.dll.q6gkOU.ltrans11.ltrans.o
