Archive member included to satisfy reference by file (symbol)

/home/alastair/pftf-rpi4/Build/RPi4/DEBUG_GCC5/AARCH64/MdePkg/Library/UefiApplicationEntryPoint/UefiApplicationEntryPoint/OUTPUT/UefiApplicationEntryPoint.lib(ApplicationEntryPoint.obj)
                              (_ModuleEntryPoint)
/home/alastair/pftf-rpi4/Build/RPi4/DEBUG_GCC5/AARCH64/MdePkg/Library/BaseStackCheckLib/BaseStackCheckLib/OUTPUT/BaseStackCheckLib.lib(BaseStackCheckGcc.obj)
                              /home/alastair/pftf-rpi4/edk2/ArmPkg/Library/GccLto/liblto-aarch64.a (__stack_chk_fail)
/home/alastair/pftf-rpi4/Build/RPi4/DEBUG_GCC5/AARCH64/ArmPkg/Library/CompilerIntrinsicsLib/CompilerIntrinsicsLib/OUTPUT/CompilerIntrinsicsLib.lib(memcpy.obj)
                              /home/alastair/pftf-rpi4/edk2/ArmPkg/Library/GccLto/liblto-aarch64.a (memcpy)
/home/alastair/pftf-rpi4/Build/RPi4/DEBUG_GCC5/AARCH64/ArmPkg/Library/CompilerIntrinsicsLib/CompilerIntrinsicsLib/OUTPUT/CompilerIntrinsicsLib.lib(memset.obj)
                              /home/alastair/pftf-rpi4/edk2/ArmPkg/Library/GccLto/liblto-aarch64.a (memset)
/home/alastair/pftf-rpi4/Build/RPi4/DEBUG_GCC5/AARCH64/ShellPkg/Application/Shell/Shell/OUTPUT/Shell.lib(AutoGen.obj)
                              ApplicationEntryPoint.obj (symbol from plugin) (ProcessLibraryConstructorList)
/home/alastair/pftf-rpi4/Build/RPi4/DEBUG_GCC5/AARCH64/ShellPkg/Application/Shell/Shell/OUTPUT/Shell.lib(Shell.obj)
                              AutoGen.obj (symbol from plugin) (UefiMain)
/home/alastair/pftf-rpi4/Build/RPi4/DEBUG_GCC5/AARCH64/ShellPkg/Application/Shell/Shell/OUTPUT/Shell.lib(ShellParametersProtocol.obj)
                              Shell.obj (symbol from plugin) (GetNextParameter)
/home/alastair/pftf-rpi4/Build/RPi4/DEBUG_GCC5/AARCH64/ShellPkg/Application/Shell/Shell/OUTPUT/Shell.lib(ShellProtocol.obj)
                              Shell.obj (symbol from plugin) (EfiShellGetEnv)
/home/alastair/pftf-rpi4/Build/RPi4/DEBUG_GCC5/AARCH64/ShellPkg/Application/Shell/Shell/OUTPUT/Shell.lib(FileHandleWrappers.obj)
                              ShellParametersProtocol.obj (symbol from plugin) (CreateFileInterfaceEnv)
/home/alastair/pftf-rpi4/Build/RPi4/DEBUG_GCC5/AARCH64/ShellPkg/Application/Shell/Shell/OUTPUT/Shell.lib(ShellEnvVar.obj)
                              ShellProtocol.obj (symbol from plugin) (gShellEnvVarList)
/home/alastair/pftf-rpi4/Build/RPi4/DEBUG_GCC5/AARCH64/ShellPkg/Application/Shell/Shell/OUTPUT/Shell.lib(ShellManParser.obj)
                              ShellProtocol.obj (symbol from plugin) (ProcessManFile)
/home/alastair/pftf-rpi4/Build/RPi4/DEBUG_GCC5/AARCH64/ShellPkg/Application/Shell/Shell/OUTPUT/Shell.lib(ConsoleLogger.obj)
                              Shell.obj (symbol from plugin) (ConsoleLoggerUninstall)
/home/alastair/pftf-rpi4/Build/RPi4/DEBUG_GCC5/AARCH64/ShellPkg/Application/Shell/Shell/OUTPUT/Shell.lib(ConsoleWrappers.obj)
                              Shell.obj (symbol from plugin) (CreateSimpleTextInOnFile)
/home/alastair/pftf-rpi4/Build/RPi4/DEBUG_GCC5/AARCH64/MdePkg/Library/BaseMemoryLibOptDxe/BaseMemoryLibOptDxe/OUTPUT/BaseMemoryLibOptDxe.lib(MemLibGuid.obj)
                              ShellProtocol.obj (symbol from plugin) (CopyGuid)
/home/alastair/pftf-rpi4/Build/RPi4/DEBUG_GCC5/AARCH64/MdePkg/Library/BaseMemoryLibOptDxe/BaseMemoryLibOptDxe/OUTPUT/BaseMemoryLibOptDxe.lib(ZeroMemWrapper.obj)
                              ShellProtocol.obj (symbol from plugin) (ZeroMem)
/home/alastair/pftf-rpi4/Build/RPi4/DEBUG_GCC5/AARCH64/MdePkg/Library/BaseMemoryLibOptDxe/BaseMemoryLibOptDxe/OUTPUT/BaseMemoryLibOptDxe.lib(SetMem16Wrapper.obj)
                              ShellParametersProtocol.obj (symbol from plugin) (SetMem16)
/home/alastair/pftf-rpi4/Build/RPi4/DEBUG_GCC5/AARCH64/MdePkg/Library/BaseMemoryLibOptDxe/BaseMemoryLibOptDxe/OUTPUT/BaseMemoryLibOptDxe.lib(SetMemWrapper.obj)
                              FileHandleWrappers.obj (symbol from plugin) (SetMem)
/home/alastair/pftf-rpi4/Build/RPi4/DEBUG_GCC5/AARCH64/MdePkg/Library/BaseMemoryLibOptDxe/BaseMemoryLibOptDxe/OUTPUT/BaseMemoryLibOptDxe.lib(CopyMemWrapper.obj)
                              Shell.obj (symbol from plugin) (CopyMem)
/home/alastair/pftf-rpi4/Build/RPi4/DEBUG_GCC5/AARCH64/MdePkg/Library/BaseMemoryLibOptDxe/BaseMemoryLibOptDxe/OUTPUT/BaseMemoryLibOptDxe.lib(SetMem.obj)
                              SetMem16Wrapper.obj (symbol from plugin) (InternalMemSetMem16)
/home/alastair/pftf-rpi4/Build/RPi4/DEBUG_GCC5/AARCH64/MdePkg/Library/BaseMemoryLibOptDxe/BaseMemoryLibOptDxe/OUTPUT/BaseMemoryLibOptDxe.lib(CopyMem.obj)
                              MemLibGuid.obj (symbol from plugin) (InternalMemCopyMem)
/home/alastair/pftf-rpi4/Build/RPi4/DEBUG_GCC5/AARCH64/MdePkg/Library/BaseMemoryLibOptDxe/BaseMemoryLibOptDxe/OUTPUT/BaseMemoryLibOptDxe.lib(CompareGuid.obj)
                              MemLibGuid.obj (symbol from plugin) (InternalMemCompareGuid)
/home/alastair/pftf-rpi4/Build/RPi4/DEBUG_GCC5/AARCH64/MdePkg/Library/BaseMemoryLibOptDxe/BaseMemoryLibOptDxe/OUTPUT/BaseMemoryLibOptDxe.lib(SetMem64Wrapper.obj)
                              SetMemWrapper.obj (symbol from plugin) (SetMem64)
/home/alastair/pftf-rpi4/Build/RPi4/DEBUG_GCC5/AARCH64/MdePkg/Library/BaseLib/BaseLib/OUTPUT/BaseLib.lib(CpuDeadLoop.obj)
                              BaseStackCheckGcc.obj (symbol from plugin) (CpuDeadLoop)
/home/alastair/pftf-rpi4/Build/RPi4/DEBUG_GCC5/AARCH64/MdePkg/Library/BaseLib/BaseLib/OUTPUT/BaseLib.lib(LinkedList.obj)
                              Shell.obj (symbol from plugin) (InitializeListHead)
/home/alastair/pftf-rpi4/Build/RPi4/DEBUG_GCC5/AARCH64/MdePkg/Library/BaseLib/BaseLib/OUTPUT/BaseLib.lib(SafeString.obj)
                              Shell.obj (symbol from plugin) (StrCpyS)
/home/alastair/pftf-rpi4/Build/RPi4/DEBUG_GCC5/AARCH64/MdePkg/Library/BaseLib/BaseLib/OUTPUT/BaseLib.lib(String.obj)
                              Shell.obj (symbol from plugin) (StrLen)
/home/alastair/pftf-rpi4/Build/RPi4/DEBUG_GCC5/AARCH64/MdePkg/Library/BaseLib/BaseLib/OUTPUT/BaseLib.lib(FilePaths.obj)
                              Shell.obj (symbol from plugin) (PathRemoveLastItem)
/home/alastair/pftf-rpi4/Build/RPi4/DEBUG_GCC5/AARCH64/MdePkg/Library/BaseLib/BaseLib/OUTPUT/BaseLib.lib(CpuBreakpoint.obj)
                              BaseStackCheckGcc.obj (symbol from plugin) (CpuBreakpoint)
/home/alastair/pftf-rpi4/Build/RPi4/DEBUG_GCC5/AARCH64/MdePkg/Library/BaseLib/BaseLib/OUTPUT/BaseLib.lib(SwapBytes32.obj)
                              SafeString.obj (symbol from plugin) (SwapBytes32)
/home/alastair/pftf-rpi4/Build/RPi4/DEBUG_GCC5/AARCH64/MdePkg/Library/BaseLib/BaseLib/OUTPUT/BaseLib.lib(SwapBytes16.obj)
                              SafeString.obj (symbol from plugin) (SwapBytes16)
/home/alastair/pftf-rpi4/Build/RPi4/DEBUG_GCC5/AARCH64/MdePkg/Library/BaseLib/BaseLib/OUTPUT/BaseLib.lib(RShiftU64.obj)
                              SafeString.obj (symbol from plugin) (RShiftU64)
/home/alastair/pftf-rpi4/Build/RPi4/DEBUG_GCC5/AARCH64/MdePkg/Library/BaseLib/BaseLib/OUTPUT/BaseLib.lib(MultU64x32.obj)
                              SafeString.obj (symbol from plugin) (MultU64x32)
/home/alastair/pftf-rpi4/Build/RPi4/DEBUG_GCC5/AARCH64/MdePkg/Library/BaseLib/BaseLib/OUTPUT/BaseLib.lib(LShiftU64.obj)
                              SafeString.obj (symbol from plugin) (LShiftU64)
/home/alastair/pftf-rpi4/Build/RPi4/DEBUG_GCC5/AARCH64/MdePkg/Library/BaseLib/BaseLib/OUTPUT/BaseLib.lib(DivU64x32.obj)
                              SafeString.obj (symbol from plugin) (DivU64x32)
/home/alastair/pftf-rpi4/Build/RPi4/DEBUG_GCC5/AARCH64/MdePkg/Library/BaseLib/BaseLib/OUTPUT/BaseLib.lib(Math64.obj)
                              LShiftU64.obj (symbol from plugin) (InternalMathLShiftU64)
/home/alastair/pftf-rpi4/Build/RPi4/DEBUG_GCC5/AARCH64/MdePkg/Library/BasePrintLib/BasePrintLib/OUTPUT/BasePrintLib.lib(PrintLib.obj)
                              Shell.obj (symbol from plugin) (UnicodeSPrint)
/home/alastair/pftf-rpi4/Build/RPi4/DEBUG_GCC5/AARCH64/MdePkg/Library/BasePrintLib/BasePrintLib/OUTPUT/BasePrintLib.lib(PrintLibInternal.obj)
                              PrintLib.obj (symbol from plugin) (BasePrintLibConvertValueToStringS)
/home/alastair/pftf-rpi4/Build/RPi4/DEBUG_GCC5/AARCH64/MdePkg/Library/BaseDebugLibSerialPort/BaseDebugLibSerialPort/OUTPUT/BaseDebugLibSerialPort.lib(DebugLib.obj)
                              AutoGen.obj (symbol from plugin) (BaseDebugLibSerialPortConstructor)
/home/alastair/pftf-rpi4/Build/RPi4/DEBUG_GCC5/AARCH64/MdePkg/Library/UefiBootServicesTableLib/UefiBootServicesTableLib/OUTPUT/UefiBootServicesTableLib.lib(UefiBootServicesTableLib.obj)
                              AutoGen.obj (symbol from plugin) (UefiBootServicesTableLibConstructor)
/home/alastair/pftf-rpi4/Build/RPi4/DEBUG_GCC5/AARCH64/MdePkg/Library/UefiMemoryAllocationLib/UefiMemoryAllocationLib/OUTPUT/UefiMemoryAllocationLib.lib(MemoryAllocationLib.obj)
                              ShellProtocol.obj (symbol from plugin) (AllocatePool)
/home/alastair/pftf-rpi4/Build/RPi4/DEBUG_GCC5/AARCH64/MdePkg/Library/UefiDevicePathLib/UefiDevicePathLib/OUTPUT/UefiDevicePathLib.lib(DevicePathUtilities.obj)
                              ShellProtocol.obj (symbol from plugin) (DevicePathType)
/home/alastair/pftf-rpi4/Build/RPi4/DEBUG_GCC5/AARCH64/MdePkg/Library/UefiDevicePathLib/UefiDevicePathLib/OUTPUT/UefiDevicePathLib.lib(DevicePathUtilitiesDxeSmm.obj)
                              DevicePathUtilities.obj (symbol from plugin) (DevicePathFromHandle)
/home/alastair/pftf-rpi4/Build/RPi4/DEBUG_GCC5/AARCH64/MdePkg/Library/UefiDevicePathLib/UefiDevicePathLib/OUTPUT/UefiDevicePathLib.lib(UefiDevicePathLib.obj)
                              DevicePathUtilities.obj (symbol from plugin) (GetDevicePathSize)
/home/alastair/pftf-rpi4/Build/RPi4/DEBUG_GCC5/AARCH64/MdePkg/Library/UefiDevicePathLib/UefiDevicePathLib/OUTPUT/UefiDevicePathLib.lib(DevicePathToText.obj)
                              UefiDevicePathLib.obj (symbol from plugin) (UefiDevicePathLibConvertDeviceNodeToText)
/home/alastair/pftf-rpi4/Build/RPi4/DEBUG_GCC5/AARCH64/MdePkg/Library/UefiDevicePathLib/UefiDevicePathLib/OUTPUT/UefiDevicePathLib.lib(DevicePathFromText.obj)
                              UefiDevicePathLib.obj (symbol from plugin) (UefiDevicePathLibConvertTextToDeviceNode)
/home/alastair/pftf-rpi4/Build/RPi4/DEBUG_GCC5/AARCH64/MdePkg/Library/UefiRuntimeServicesTableLib/UefiRuntimeServicesTableLib/OUTPUT/UefiRuntimeServicesTableLib.lib(UefiRuntimeServicesTableLib.obj)
                              AutoGen.obj (symbol from plugin) (UefiRuntimeServicesTableLibConstructor)
/home/alastair/pftf-rpi4/Build/RPi4/DEBUG_GCC5/AARCH64/MdeModulePkg/Library/UefiHiiServicesLib/UefiHiiServicesLib/OUTPUT/UefiHiiServicesLib.lib(UefiHiiServicesLib.obj)
                              AutoGen.obj (symbol from plugin) (UefiHiiServicesLibConstructor)
/home/alastair/pftf-rpi4/Build/RPi4/DEBUG_GCC5/AARCH64/MdePkg/Library/UefiLib/UefiLib/OUTPUT/UefiLib.lib(UefiLib.obj)
                              AutoGen.obj (symbol from plugin) (UefiLibConstructor)
/home/alastair/pftf-rpi4/Build/RPi4/DEBUG_GCC5/AARCH64/MdeModulePkg/Library/UefiSortLib/UefiSortLib/OUTPUT/UefiSortLib.lib(UefiSortLib.obj)
                              ShellProtocol.obj (symbol from plugin) (DevicePathCompare)
/home/alastair/pftf-rpi4/Build/RPi4/DEBUG_GCC5/AARCH64/MdeModulePkg/Library/UefiHiiLib/UefiHiiLib/OUTPUT/UefiHiiLib.lib(HiiLib.obj)
                              Shell.obj (symbol from plugin) (HiiAddPackages)
/home/alastair/pftf-rpi4/Build/RPi4/DEBUG_GCC5/AARCH64/MdeModulePkg/Library/UefiHiiLib/UefiHiiLib/OUTPUT/UefiHiiLib.lib(HiiString.obj)
                              ShellManParser.obj (symbol from plugin) (HiiGetString)
/home/alastair/pftf-rpi4/Build/RPi4/DEBUG_GCC5/AARCH64/MdeModulePkg/Library/UefiHiiLib/UefiHiiLib/OUTPUT/UefiHiiLib.lib(HiiLanguage.obj)
                              HiiString.obj (symbol from plugin) (HiiGetSupportedLanguages)
/home/alastair/pftf-rpi4/Build/RPi4/DEBUG_GCC5/AARCH64/MdePkg/Library/UefiFileHandleLib/UefiFileHandleLib/OUTPUT/UefiFileHandleLib.lib(UefiFileHandleLib.obj)
                              ShellProtocol.obj (symbol from plugin) (FileHandleGetInfo)
/home/alastair/pftf-rpi4/Build/RPi4/DEBUG_GCC5/AARCH64/MdePkg/Library/DxeServicesTableLib/DxeServicesTableLib/OUTPUT/DxeServicesTableLib.lib(DxeServicesTableLib.obj)
                              AutoGen.obj (symbol from plugin) (DxeServicesTableLibConstructor)
/home/alastair/pftf-rpi4/Build/RPi4/DEBUG_GCC5/AARCH64/MdePkg/Library/DxeHobLib/DxeHobLib/OUTPUT/DxeHobLib.lib(HobLib.obj)
                              AutoGen.obj (symbol from plugin) (HobLibConstructor)
/home/alastair/pftf-rpi4/Build/RPi4/DEBUG_GCC5/AARCH64/ShellPkg/Library/UefiShellLib/UefiShellLib/OUTPUT/UefiShellLib.lib(UefiShellLib.obj)
                              Shell.obj (symbol from plugin) (gEfiShellProtocol)
/home/alastair/pftf-rpi4/Build/RPi4/DEBUG_GCC5/AARCH64/ShellPkg/Library/UefiHandleParsingLib/UefiHandleParsingLib/OUTPUT/UefiHandleParsingLib.lib(UefiHandleParsingLib.obj)
                              AutoGen.obj (symbol from plugin) (HandleParsingLibConstructor)
/home/alastair/pftf-rpi4/Build/RPi4/DEBUG_GCC5/AARCH64/ShellPkg/Library/UefiHandleParsingLib/UefiHandleParsingLib/OUTPUT/UefiHandleParsingLib.lib(AutoGen.obj)
                              UefiHandleParsingLib.obj (symbol from plugin) (UefiHandleParsingLibStrings)
/home/alastair/pftf-rpi4/Build/RPi4/DEBUG_GCC5/AARCH64/ShellPkg/Library/UefiShellCommandLib/UefiShellCommandLib/OUTPUT/UefiShellCommandLib.lib(UefiShellCommandLib.obj)
                              ShellParametersProtocol.obj (symbol from plugin) (gUnicodeCollation)
/home/alastair/pftf-rpi4/Build/RPi4/DEBUG_GCC5/AARCH64/ShellPkg/Library/UefiShellCommandLib/UefiShellCommandLib/OUTPUT/UefiShellCommandLib.lib(ConsistMapping.obj)
                              UefiShellCommandLib.obj (symbol from plugin) (ShellCommandConsistMappingInitialize)
/home/alastair/pftf-rpi4/Build/RPi4/DEBUG_GCC5/AARCH64/ShellPkg/Library/UefiShellLevel2CommandsLib/UefiShellLevel2CommandsLib/OUTPUT/UefiShellLevel2CommandsLib.lib(UefiShellLevel2CommandsLib.obj)
                              AutoGen.obj (symbol from plugin) (ShellLevel2CommandsLibConstructor)
/home/alastair/pftf-rpi4/Build/RPi4/DEBUG_GCC5/AARCH64/ShellPkg/Library/UefiShellLevel2CommandsLib/UefiShellLevel2CommandsLib/OUTPUT/UefiShellLevel2CommandsLib.lib(TimeDate.obj)
                              UefiShellLevel2CommandsLib.obj (symbol from plugin) (ShellCommandRunDate)
/home/alastair/pftf-rpi4/Build/RPi4/DEBUG_GCC5/AARCH64/ShellPkg/Library/UefiShellLevel2CommandsLib/UefiShellLevel2CommandsLib/OUTPUT/UefiShellLevel2CommandsLib.lib(Load.obj)
                              UefiShellLevel2CommandsLib.obj (symbol from plugin) (ShellCommandRunLoad)
/home/alastair/pftf-rpi4/Build/RPi4/DEBUG_GCC5/AARCH64/ShellPkg/Library/UefiShellLevel2CommandsLib/UefiShellLevel2CommandsLib/OUTPUT/UefiShellLevel2CommandsLib.lib(Ls.obj)
                              UefiShellLevel2CommandsLib.obj (symbol from plugin) (ShellCommandRunLs)
/home/alastair/pftf-rpi4/Build/RPi4/DEBUG_GCC5/AARCH64/ShellPkg/Library/UefiShellLevel2CommandsLib/UefiShellLevel2CommandsLib/OUTPUT/UefiShellLevel2CommandsLib.lib(Map.obj)
                              UefiShellLevel2CommandsLib.obj (symbol from plugin) (ShellCommandRunMap)
/home/alastair/pftf-rpi4/Build/RPi4/DEBUG_GCC5/AARCH64/ShellPkg/Library/UefiShellLevel2CommandsLib/UefiShellLevel2CommandsLib/OUTPUT/UefiShellLevel2CommandsLib.lib(Reset.obj)
                              UefiShellLevel2CommandsLib.obj (symbol from plugin) (ShellCommandRunReset)
/home/alastair/pftf-rpi4/Build/RPi4/DEBUG_GCC5/AARCH64/ShellPkg/Library/UefiShellLevel2CommandsLib/UefiShellLevel2CommandsLib/OUTPUT/UefiShellLevel2CommandsLib.lib(Set.obj)
                              UefiShellLevel2CommandsLib.obj (symbol from plugin) (ShellCommandRunSet)
/home/alastair/pftf-rpi4/Build/RPi4/DEBUG_GCC5/AARCH64/ShellPkg/Library/UefiShellLevel2CommandsLib/UefiShellLevel2CommandsLib/OUTPUT/UefiShellLevel2CommandsLib.lib(MkDir.obj)
                              UefiShellLevel2CommandsLib.obj (symbol from plugin) (ShellCommandRunMkDir)
/home/alastair/pftf-rpi4/Build/RPi4/DEBUG_GCC5/AARCH64/ShellPkg/Library/UefiShellLevel2CommandsLib/UefiShellLevel2CommandsLib/OUTPUT/UefiShellLevel2CommandsLib.lib(Cd.obj)
                              UefiShellLevel2CommandsLib.obj (symbol from plugin) (ShellCommandRunCd)
/home/alastair/pftf-rpi4/Build/RPi4/DEBUG_GCC5/AARCH64/ShellPkg/Library/UefiShellLevel2CommandsLib/UefiShellLevel2CommandsLib/OUTPUT/UefiShellLevel2CommandsLib.lib(Cp.obj)
                              UefiShellLevel2CommandsLib.obj (symbol from plugin) (ShellCommandRunCp)
/home/alastair/pftf-rpi4/Build/RPi4/DEBUG_GCC5/AARCH64/ShellPkg/Library/UefiShellLevel2CommandsLib/UefiShellLevel2CommandsLib/OUTPUT/UefiShellLevel2CommandsLib.lib(Parse.obj)
                              UefiShellLevel2CommandsLib.obj (symbol from plugin) (ShellCommandRunParse)
/home/alastair/pftf-rpi4/Build/RPi4/DEBUG_GCC5/AARCH64/ShellPkg/Library/UefiShellLevel2CommandsLib/UefiShellLevel2CommandsLib/OUTPUT/UefiShellLevel2CommandsLib.lib(Rm.obj)
                              UefiShellLevel2CommandsLib.obj (symbol from plugin) (ShellCommandRunRm)
/home/alastair/pftf-rpi4/Build/RPi4/DEBUG_GCC5/AARCH64/ShellPkg/Library/UefiShellLevel2CommandsLib/UefiShellLevel2CommandsLib/OUTPUT/UefiShellLevel2CommandsLib.lib(Mv.obj)
                              UefiShellLevel2CommandsLib.obj (symbol from plugin) (ShellCommandRunMv)
/home/alastair/pftf-rpi4/Build/RPi4/DEBUG_GCC5/AARCH64/ShellPkg/Library/UefiShellLevel2CommandsLib/UefiShellLevel2CommandsLib/OUTPUT/UefiShellLevel2CommandsLib.lib(Attrib.obj)
                              UefiShellLevel2CommandsLib.obj (symbol from plugin) (ShellCommandRunAttrib)
/home/alastair/pftf-rpi4/Build/RPi4/DEBUG_GCC5/AARCH64/ShellPkg/Library/UefiShellLevel2CommandsLib/UefiShellLevel2CommandsLib/OUTPUT/UefiShellLevel2CommandsLib.lib(Vol.obj)
                              UefiShellLevel2CommandsLib.obj (symbol from plugin) (ShellCommandRunVol)
/home/alastair/pftf-rpi4/Build/RPi4/DEBUG_GCC5/AARCH64/ShellPkg/Library/UefiShellLevel2CommandsLib/UefiShellLevel2CommandsLib/OUTPUT/UefiShellLevel2CommandsLib.lib(AutoGen.obj)
                              UefiShellLevel2CommandsLib.obj (symbol from plugin) (UefiShellLevel2CommandsLibStrings)
/home/alastair/pftf-rpi4/Build/RPi4/DEBUG_GCC5/AARCH64/ShellPkg/Library/UefiShellLevel1CommandsLib/UefiShellLevel1CommandsLib/OUTPUT/UefiShellLevel1CommandsLib.lib(UefiShellLevel1CommandsLib.obj)
                              AutoGen.obj (symbol from plugin) (ShellLevel1CommandsLibConstructor)
/home/alastair/pftf-rpi4/Build/RPi4/DEBUG_GCC5/AARCH64/ShellPkg/Library/UefiShellLevel1CommandsLib/UefiShellLevel1CommandsLib/OUTPUT/UefiShellLevel1CommandsLib.lib(Exit.obj)
                              UefiShellLevel1CommandsLib.obj (symbol from plugin) (ShellCommandRunExit)
/home/alastair/pftf-rpi4/Build/RPi4/DEBUG_GCC5/AARCH64/ShellPkg/Library/UefiShellLevel1CommandsLib/UefiShellLevel1CommandsLib/OUTPUT/UefiShellLevel1CommandsLib.lib(Goto.obj)
                              UefiShellLevel1CommandsLib.obj (symbol from plugin) (ShellCommandRunGoto)
/home/alastair/pftf-rpi4/Build/RPi4/DEBUG_GCC5/AARCH64/ShellPkg/Library/UefiShellLevel1CommandsLib/UefiShellLevel1CommandsLib/OUTPUT/UefiShellLevel1CommandsLib.lib(If.obj)
                              UefiShellLevel1CommandsLib.obj (symbol from plugin) (ShellCommandRunIf)
/home/alastair/pftf-rpi4/Build/RPi4/DEBUG_GCC5/AARCH64/ShellPkg/Library/UefiShellLevel1CommandsLib/UefiShellLevel1CommandsLib/OUTPUT/UefiShellLevel1CommandsLib.lib(For.obj)
                              UefiShellLevel1CommandsLib.obj (symbol from plugin) (ShellCommandRunEndFor)
/home/alastair/pftf-rpi4/Build/RPi4/DEBUG_GCC5/AARCH64/ShellPkg/Library/UefiShellLevel1CommandsLib/UefiShellLevel1CommandsLib/OUTPUT/UefiShellLevel1CommandsLib.lib(Shift.obj)
                              UefiShellLevel1CommandsLib.obj (symbol from plugin) (ShellCommandRunShift)
/home/alastair/pftf-rpi4/Build/RPi4/DEBUG_GCC5/AARCH64/ShellPkg/Library/UefiShellLevel1CommandsLib/UefiShellLevel1CommandsLib/OUTPUT/UefiShellLevel1CommandsLib.lib(Stall.obj)
                              UefiShellLevel1CommandsLib.obj (symbol from plugin) (ShellCommandRunStall)
/home/alastair/pftf-rpi4/Build/RPi4/DEBUG_GCC5/AARCH64/ShellPkg/Library/UefiShellLevel1CommandsLib/UefiShellLevel1CommandsLib/OUTPUT/UefiShellLevel1CommandsLib.lib(AutoGen.obj)
                              UefiShellLevel1CommandsLib.obj (symbol from plugin) (UefiShellLevel1CommandsLibStrings)
/home/alastair/pftf-rpi4/Build/RPi4/DEBUG_GCC5/AARCH64/ShellPkg/Library/UefiShellLevel3CommandsLib/UefiShellLevel3CommandsLib/OUTPUT/UefiShellLevel3CommandsLib.lib(UefiShellLevel3CommandsLib.obj)
                              AutoGen.obj (symbol from plugin) (ShellLevel3CommandsLibConstructor)
/home/alastair/pftf-rpi4/Build/RPi4/DEBUG_GCC5/AARCH64/ShellPkg/Library/UefiShellLevel3CommandsLib/UefiShellLevel3CommandsLib/OUTPUT/UefiShellLevel3CommandsLib.lib(Cls.obj)
                              UefiShellLevel3CommandsLib.obj (symbol from plugin) (ShellCommandRunCls)
/home/alastair/pftf-rpi4/Build/RPi4/DEBUG_GCC5/AARCH64/ShellPkg/Library/UefiShellLevel3CommandsLib/UefiShellLevel3CommandsLib/OUTPUT/UefiShellLevel3CommandsLib.lib(Alias.obj)
                              UefiShellLevel3CommandsLib.obj (symbol from plugin) (ShellCommandRunAlias)
/home/alastair/pftf-rpi4/Build/RPi4/DEBUG_GCC5/AARCH64/ShellPkg/Library/UefiShellLevel3CommandsLib/UefiShellLevel3CommandsLib/OUTPUT/UefiShellLevel3CommandsLib.lib(Echo.obj)
                              UefiShellLevel3CommandsLib.obj (symbol from plugin) (ShellCommandRunEcho)
/home/alastair/pftf-rpi4/Build/RPi4/DEBUG_GCC5/AARCH64/ShellPkg/Library/UefiShellLevel3CommandsLib/UefiShellLevel3CommandsLib/OUTPUT/UefiShellLevel3CommandsLib.lib(Pause.obj)
                              UefiShellLevel3CommandsLib.obj (symbol from plugin) (ShellCommandRunPause)
/home/alastair/pftf-rpi4/Build/RPi4/DEBUG_GCC5/AARCH64/ShellPkg/Library/UefiShellLevel3CommandsLib/UefiShellLevel3CommandsLib/OUTPUT/UefiShellLevel3CommandsLib.lib(GetMtc.obj)
                              UefiShellLevel3CommandsLib.obj (symbol from plugin) (ShellCommandRunGetMtc)
/home/alastair/pftf-rpi4/Build/RPi4/DEBUG_GCC5/AARCH64/ShellPkg/Library/UefiShellLevel3CommandsLib/UefiShellLevel3CommandsLib/OUTPUT/UefiShellLevel3CommandsLib.lib(Help.obj)
                              UefiShellLevel3CommandsLib.obj (symbol from plugin) (ShellCommandRunHelp)
/home/alastair/pftf-rpi4/Build/RPi4/DEBUG_GCC5/AARCH64/ShellPkg/Library/UefiShellLevel3CommandsLib/UefiShellLevel3CommandsLib/OUTPUT/UefiShellLevel3CommandsLib.lib(AutoGen.obj)
                              UefiShellLevel3CommandsLib.obj (symbol from plugin) (UefiShellLevel3CommandsLibStrings)
/home/alastair/pftf-rpi4/Build/RPi4/DEBUG_GCC5/AARCH64/ShellPkg/Library/UefiShellLevel3CommandsLib/UefiShellLevel3CommandsLib/OUTPUT/UefiShellLevel3CommandsLib.lib(Type.obj)
                              UefiShellLevel3CommandsLib.obj (symbol from plugin) (ShellCommandRunType)
/home/alastair/pftf-rpi4/Build/RPi4/DEBUG_GCC5/AARCH64/ShellPkg/Library/UefiShellLevel3CommandsLib/UefiShellLevel3CommandsLib/OUTPUT/UefiShellLevel3CommandsLib.lib(Touch.obj)
                              UefiShellLevel3CommandsLib.obj (symbol from plugin) (ShellCommandRunTouch)
/home/alastair/pftf-rpi4/Build/RPi4/DEBUG_GCC5/AARCH64/ShellPkg/Library/UefiShellLevel3CommandsLib/UefiShellLevel3CommandsLib/OUTPUT/UefiShellLevel3CommandsLib.lib(Ver.obj)
                              UefiShellLevel3CommandsLib.obj (symbol from plugin) (ShellCommandRunVer)
/home/alastair/pftf-rpi4/Build/RPi4/DEBUG_GCC5/AARCH64/ShellPkg/Library/UefiShellDriver1CommandsLib/UefiShellDriver1CommandsLib/OUTPUT/UefiShellDriver1CommandsLib.lib(UefiShellDriver1CommandsLib.obj)
                              AutoGen.obj (symbol from plugin) (UefiShellDriver1CommandsLibConstructor)
/home/alastair/pftf-rpi4/Build/RPi4/DEBUG_GCC5/AARCH64/ShellPkg/Library/UefiShellDriver1CommandsLib/UefiShellDriver1CommandsLib/OUTPUT/UefiShellDriver1CommandsLib.lib(AutoGen.obj)
                              UefiShellDriver1CommandsLib.obj (symbol from plugin) (UefiShellDriver1CommandsLibStrings)
/home/alastair/pftf-rpi4/Build/RPi4/DEBUG_GCC5/AARCH64/ShellPkg/Library/UefiShellDriver1CommandsLib/UefiShellDriver1CommandsLib/OUTPUT/UefiShellDriver1CommandsLib.lib(Connect.obj)
                              UefiShellDriver1CommandsLib.obj (symbol from plugin) (ShellCommandRunConnect)
/home/alastair/pftf-rpi4/Build/RPi4/DEBUG_GCC5/AARCH64/ShellPkg/Library/UefiShellDriver1CommandsLib/UefiShellDriver1CommandsLib/OUTPUT/UefiShellDriver1CommandsLib.lib(Devices.obj)
                              UefiShellDriver1CommandsLib.obj (symbol from plugin) (ShellCommandRunDevices)
/home/alastair/pftf-rpi4/Build/RPi4/DEBUG_GCC5/AARCH64/ShellPkg/Library/UefiShellDriver1CommandsLib/UefiShellDriver1CommandsLib/OUTPUT/UefiShellDriver1CommandsLib.lib(OpenInfo.obj)
                              UefiShellDriver1CommandsLib.obj (symbol from plugin) (ShellCommandRunOpenInfo)
/home/alastair/pftf-rpi4/Build/RPi4/DEBUG_GCC5/AARCH64/ShellPkg/Library/UefiShellDriver1CommandsLib/UefiShellDriver1CommandsLib/OUTPUT/UefiShellDriver1CommandsLib.lib(Disconnect.obj)
                              UefiShellDriver1CommandsLib.obj (symbol from plugin) (ShellCommandRunDisconnect)
/home/alastair/pftf-rpi4/Build/RPi4/DEBUG_GCC5/AARCH64/ShellPkg/Library/UefiShellDriver1CommandsLib/UefiShellDriver1CommandsLib/OUTPUT/UefiShellDriver1CommandsLib.lib(Reconnect.obj)
                              UefiShellDriver1CommandsLib.obj (symbol from plugin) (ShellCommandRunReconnect)
/home/alastair/pftf-rpi4/Build/RPi4/DEBUG_GCC5/AARCH64/ShellPkg/Library/UefiShellDriver1CommandsLib/UefiShellDriver1CommandsLib/OUTPUT/UefiShellDriver1CommandsLib.lib(Unload.obj)
                              UefiShellDriver1CommandsLib.obj (symbol from plugin) (ShellCommandRunUnload)
/home/alastair/pftf-rpi4/Build/RPi4/DEBUG_GCC5/AARCH64/ShellPkg/Library/UefiShellDriver1CommandsLib/UefiShellDriver1CommandsLib/OUTPUT/UefiShellDriver1CommandsLib.lib(DrvDiag.obj)
                              UefiShellDriver1CommandsLib.obj (symbol from plugin) (ShellCommandRunDrvDiag)
/home/alastair/pftf-rpi4/Build/RPi4/DEBUG_GCC5/AARCH64/ShellPkg/Library/UefiShellDriver1CommandsLib/UefiShellDriver1CommandsLib/OUTPUT/UefiShellDriver1CommandsLib.lib(Dh.obj)
                              UefiShellDriver1CommandsLib.obj (symbol from plugin) (ShellCommandRunDh)
/home/alastair/pftf-rpi4/Build/RPi4/DEBUG_GCC5/AARCH64/ShellPkg/Library/UefiShellDriver1CommandsLib/UefiShellDriver1CommandsLib/OUTPUT/UefiShellDriver1CommandsLib.lib(Drivers.obj)
                              UefiShellDriver1CommandsLib.obj (symbol from plugin) (ShellCommandRunDrivers)
/home/alastair/pftf-rpi4/Build/RPi4/DEBUG_GCC5/AARCH64/ShellPkg/Library/UefiShellDriver1CommandsLib/UefiShellDriver1CommandsLib/OUTPUT/UefiShellDriver1CommandsLib.lib(DevTree.obj)
                              UefiShellDriver1CommandsLib.obj (symbol from plugin) (ShellCommandRunDevTree)
/home/alastair/pftf-rpi4/Build/RPi4/DEBUG_GCC5/AARCH64/ShellPkg/Library/UefiShellDriver1CommandsLib/UefiShellDriver1CommandsLib/OUTPUT/UefiShellDriver1CommandsLib.lib(DrvCfg.obj)
                              UefiShellDriver1CommandsLib.obj (symbol from plugin) (ShellCommandRunDrvCfg)
/home/alastair/pftf-rpi4/Build/RPi4/DEBUG_GCC5/AARCH64/ShellPkg/Library/UefiShellDebug1CommandsLib/UefiShellDebug1CommandsLib/OUTPUT/UefiShellDebug1CommandsLib.lib(UefiShellDebug1CommandsLib.obj)
                              AutoGen.obj (symbol from plugin) (UefiShellDebug1CommandsLibConstructor)
/home/alastair/pftf-rpi4/Build/RPi4/DEBUG_GCC5/AARCH64/ShellPkg/Library/UefiShellDebug1CommandsLib/UefiShellDebug1CommandsLib/OUTPUT/UefiShellDebug1CommandsLib.lib(Edit.obj)
                              UefiShellDebug1CommandsLib.obj (symbol from plugin) (ShellCommandRunEdit)
/home/alastair/pftf-rpi4/Build/RPi4/DEBUG_GCC5/AARCH64/ShellPkg/Library/UefiShellDebug1CommandsLib/UefiShellDebug1CommandsLib/OUTPUT/UefiShellDebug1CommandsLib.lib(FileBuffer.obj)
                              Edit.obj (symbol from plugin) (FileBufferSetFileName)
/home/alastair/pftf-rpi4/Build/RPi4/DEBUG_GCC5/AARCH64/ShellPkg/Library/UefiShellDebug1CommandsLib/UefiShellDebug1CommandsLib/OUTPUT/UefiShellDebug1CommandsLib.lib(MainTextEditor.obj)
                              Edit.obj (symbol from plugin) (MainEditor)
/home/alastair/pftf-rpi4/Build/RPi4/DEBUG_GCC5/AARCH64/ShellPkg/Library/UefiShellDebug1CommandsLib/UefiShellDebug1CommandsLib/OUTPUT/UefiShellDebug1CommandsLib.lib(Misc.obj)
                              FileBuffer.obj (symbol from plugin) (LineDup)
/home/alastair/pftf-rpi4/Build/RPi4/DEBUG_GCC5/AARCH64/ShellPkg/Library/UefiShellDebug1CommandsLib/UefiShellDebug1CommandsLib/OUTPUT/UefiShellDebug1CommandsLib.lib(HexEdit.obj)
                              UefiShellDebug1CommandsLib.obj (symbol from plugin) (ShellCommandRunHexEdit)
/home/alastair/pftf-rpi4/Build/RPi4/DEBUG_GCC5/AARCH64/ShellPkg/Library/UefiShellDebug1CommandsLib/UefiShellDebug1CommandsLib/OUTPUT/UefiShellDebug1CommandsLib.lib(MainHexEditor.obj)
                              HexEdit.obj (symbol from plugin) (HMainEditorInit)
/home/alastair/pftf-rpi4/Build/RPi4/DEBUG_GCC5/AARCH64/ShellPkg/Library/UefiShellDebug1CommandsLib/UefiShellDebug1CommandsLib/OUTPUT/UefiShellDebug1CommandsLib.lib(Misc.obj)
                              MainHexEditor.obj (symbol from plugin) (HGetTextX)
/home/alastair/pftf-rpi4/Build/RPi4/DEBUG_GCC5/AARCH64/ShellPkg/Library/UefiShellDebug1CommandsLib/UefiShellDebug1CommandsLib/OUTPUT/UefiShellDebug1CommandsLib.lib(AutoGen.obj)
                              UefiShellDebug1CommandsLib.obj (symbol from plugin) (UefiShellDebug1CommandsLibStrings)
/home/alastair/pftf-rpi4/Build/RPi4/DEBUG_GCC5/AARCH64/ShellPkg/Library/UefiShellDebug1CommandsLib/UefiShellDebug1CommandsLib/OUTPUT/UefiShellDebug1CommandsLib.lib(SetSize.obj)
                              UefiShellDebug1CommandsLib.obj (symbol from plugin) (ShellCommandRunSetSize)
/home/alastair/pftf-rpi4/Build/RPi4/DEBUG_GCC5/AARCH64/ShellPkg/Library/UefiShellDebug1CommandsLib/UefiShellDebug1CommandsLib/OUTPUT/UefiShellDebug1CommandsLib.lib(Comp.obj)
                              UefiShellDebug1CommandsLib.obj (symbol from plugin) (ShellCommandRunComp)
/home/alastair/pftf-rpi4/Build/RPi4/DEBUG_GCC5/AARCH64/ShellPkg/Library/UefiShellDebug1CommandsLib/UefiShellDebug1CommandsLib/OUTPUT/UefiShellDebug1CommandsLib.lib(Mode.obj)
                              UefiShellDebug1CommandsLib.obj (symbol from plugin) (ShellCommandRunMode)
/home/alastair/pftf-rpi4/Build/RPi4/DEBUG_GCC5/AARCH64/ShellPkg/Library/UefiShellDebug1CommandsLib/UefiShellDebug1CommandsLib/OUTPUT/UefiShellDebug1CommandsLib.lib(MemMap.obj)
                              UefiShellDebug1CommandsLib.obj (symbol from plugin) (ShellCommandRunMemMap)
/home/alastair/pftf-rpi4/Build/RPi4/DEBUG_GCC5/AARCH64/ShellPkg/Library/UefiShellDebug1CommandsLib/UefiShellDebug1CommandsLib/OUTPUT/UefiShellDebug1CommandsLib.lib(EfiCompress.obj)
                              UefiShellDebug1CommandsLib.obj (symbol from plugin) (ShellCommandRunEfiCompress)
/home/alastair/pftf-rpi4/Build/RPi4/DEBUG_GCC5/AARCH64/ShellPkg/Library/UefiShellDebug1CommandsLib/UefiShellDebug1CommandsLib/OUTPUT/UefiShellDebug1CommandsLib.lib(EfiDecompress.obj)
                              UefiShellDebug1CommandsLib.obj (symbol from plugin) (ShellCommandRunEfiDecompress)
/home/alastair/pftf-rpi4/Build/RPi4/DEBUG_GCC5/AARCH64/ShellPkg/Library/UefiShellDebug1CommandsLib/UefiShellDebug1CommandsLib/OUTPUT/UefiShellDebug1CommandsLib.lib(Dmem.obj)
                              UefiShellDebug1CommandsLib.obj (symbol from plugin) (ShellCommandRunDmem)
/home/alastair/pftf-rpi4/Build/RPi4/DEBUG_GCC5/AARCH64/ShellPkg/Library/UefiShellDebug1CommandsLib/UefiShellDebug1CommandsLib/OUTPUT/UefiShellDebug1CommandsLib.lib(LoadPciRom.obj)
                              UefiShellDebug1CommandsLib.obj (symbol from plugin) (ShellCommandRunLoadPciRom)
/home/alastair/pftf-rpi4/Build/RPi4/DEBUG_GCC5/AARCH64/ShellPkg/Library/UefiShellDebug1CommandsLib/UefiShellDebug1CommandsLib/OUTPUT/UefiShellDebug1CommandsLib.lib(Mm.obj)
                              UefiShellDebug1CommandsLib.obj (symbol from plugin) (ShellCommandRunMm)
/home/alastair/pftf-rpi4/Build/RPi4/DEBUG_GCC5/AARCH64/ShellPkg/Library/UefiShellDebug1CommandsLib/UefiShellDebug1CommandsLib/OUTPUT/UefiShellDebug1CommandsLib.lib(SetVar.obj)
                              UefiShellDebug1CommandsLib.obj (symbol from plugin) (ShellCommandRunSetVar)
/home/alastair/pftf-rpi4/Build/RPi4/DEBUG_GCC5/AARCH64/ShellPkg/Library/UefiShellDebug1CommandsLib/UefiShellDebug1CommandsLib/OUTPUT/UefiShellDebug1CommandsLib.lib(SerMode.obj)
                              UefiShellDebug1CommandsLib.obj (symbol from plugin) (ShellCommandRunSerMode)
/home/alastair/pftf-rpi4/Build/RPi4/DEBUG_GCC5/AARCH64/ShellPkg/Library/UefiShellDebug1CommandsLib/UefiShellDebug1CommandsLib/OUTPUT/UefiShellDebug1CommandsLib.lib(Pci.obj)
                              UefiShellDebug1CommandsLib.obj (symbol from plugin) (ShellCommandRunPci)
/home/alastair/pftf-rpi4/Build/RPi4/DEBUG_GCC5/AARCH64/ShellPkg/Library/UefiShellDebug1CommandsLib/UefiShellDebug1CommandsLib/OUTPUT/UefiShellDebug1CommandsLib.lib(DmpStore.obj)
                              UefiShellDebug1CommandsLib.obj (symbol from plugin) (ShellCommandRunDmpStore)
/home/alastair/pftf-rpi4/Build/RPi4/DEBUG_GCC5/AARCH64/ShellPkg/Library/UefiShellDebug1CommandsLib/UefiShellDebug1CommandsLib/OUTPUT/UefiShellDebug1CommandsLib.lib(Dblk.obj)
                              UefiShellDebug1CommandsLib.obj (symbol from plugin) (ShellCommandRunDblk)
/home/alastair/pftf-rpi4/Build/RPi4/DEBUG_GCC5/AARCH64/ShellPkg/Library/UefiShellDebug1CommandsLib/UefiShellDebug1CommandsLib/OUTPUT/UefiShellDebug1CommandsLib.lib(SmbiosView.obj)
                              UefiShellDebug1CommandsLib.obj (symbol from plugin) (ShellCommandRunSmbiosView)
/home/alastair/pftf-rpi4/Build/RPi4/DEBUG_GCC5/AARCH64/ShellPkg/Library/UefiShellDebug1CommandsLib/UefiShellDebug1CommandsLib/OUTPUT/UefiShellDebug1CommandsLib.lib(LibSmbiosView.obj)
                              SmbiosView.obj (symbol from plugin) (LibSmbiosInit)
/home/alastair/pftf-rpi4/Build/RPi4/DEBUG_GCC5/AARCH64/ShellPkg/Library/UefiShellDebug1CommandsLib/UefiShellDebug1CommandsLib/OUTPUT/UefiShellDebug1CommandsLib.lib(EditTitleBar.obj)
                              MainTextEditor.obj (symbol from plugin) (MainTitleBarInit)
/home/alastair/pftf-rpi4/Build/RPi4/DEBUG_GCC5/AARCH64/ShellPkg/Library/UefiShellDebug1CommandsLib/UefiShellDebug1CommandsLib/OUTPUT/UefiShellDebug1CommandsLib.lib(EditInputBar.obj)
                              MainTextEditor.obj (symbol from plugin) (InputBarInit)
/home/alastair/pftf-rpi4/Build/RPi4/DEBUG_GCC5/AARCH64/ShellPkg/Library/UefiShellDebug1CommandsLib/UefiShellDebug1CommandsLib/OUTPUT/UefiShellDebug1CommandsLib.lib(EditStatusBar.obj)
                              MainTextEditor.obj (symbol from plugin) (StatusBarCleanup)
/home/alastair/pftf-rpi4/Build/RPi4/DEBUG_GCC5/AARCH64/ShellPkg/Library/UefiShellDebug1CommandsLib/UefiShellDebug1CommandsLib/OUTPUT/UefiShellDebug1CommandsLib.lib(EditMenuBar.obj)
                              MainTextEditor.obj (symbol from plugin) (MenuBarCleanup)
/home/alastair/pftf-rpi4/Build/RPi4/DEBUG_GCC5/AARCH64/ShellPkg/Library/UefiShellDebug1CommandsLib/UefiShellDebug1CommandsLib/OUTPUT/UefiShellDebug1CommandsLib.lib(BufferImage.obj)
                              MainHexEditor.obj (symbol from plugin) (HBufferImage)
/home/alastair/pftf-rpi4/Build/RPi4/DEBUG_GCC5/AARCH64/ShellPkg/Library/UefiShellDebug1CommandsLib/UefiShellDebug1CommandsLib/OUTPUT/UefiShellDebug1CommandsLib.lib(Clipboard.obj)
                              MainHexEditor.obj (symbol from plugin) (HClipBoardInit)
/home/alastair/pftf-rpi4/Build/RPi4/DEBUG_GCC5/AARCH64/ShellPkg/Library/UefiShellDebug1CommandsLib/UefiShellDebug1CommandsLib/OUTPUT/UefiShellDebug1CommandsLib.lib(DiskImage.obj)
                              BufferImage.obj (symbol from plugin) (HDiskImageInit)
/home/alastair/pftf-rpi4/Build/RPi4/DEBUG_GCC5/AARCH64/ShellPkg/Library/UefiShellDebug1CommandsLib/UefiShellDebug1CommandsLib/OUTPUT/UefiShellDebug1CommandsLib.lib(FileImage.obj)
                              BufferImage.obj (symbol from plugin) (HFileImageInit)
/home/alastair/pftf-rpi4/Build/RPi4/DEBUG_GCC5/AARCH64/ShellPkg/Library/UefiShellDebug1CommandsLib/UefiShellDebug1CommandsLib/OUTPUT/UefiShellDebug1CommandsLib.lib(MemImage.obj)
                              BufferImage.obj (symbol from plugin) (HMemImage)
/home/alastair/pftf-rpi4/Build/RPi4/DEBUG_GCC5/AARCH64/ShellPkg/Library/UefiShellDebug1CommandsLib/UefiShellDebug1CommandsLib/OUTPUT/UefiShellDebug1CommandsLib.lib(Compress.obj)
                              EfiCompress.obj (symbol from plugin) (Compress)
/home/alastair/pftf-rpi4/Build/RPi4/DEBUG_GCC5/AARCH64/ShellPkg/Library/UefiShellDebug1CommandsLib/UefiShellDebug1CommandsLib/OUTPUT/UefiShellDebug1CommandsLib.lib(PrintInfo.obj)
                              SmbiosView.obj (symbol from plugin) (SmbiosPrintEPSInfo)
/home/alastair/pftf-rpi4/Build/RPi4/DEBUG_GCC5/AARCH64/ShellPkg/Library/UefiShellDebug1CommandsLib/UefiShellDebug1CommandsLib/OUTPUT/UefiShellDebug1CommandsLib.lib(QueryTable.obj)
                              PrintInfo.obj (symbol from plugin) (DisplaySystemWakeupType)
/home/alastair/pftf-rpi4/Build/RPi4/DEBUG_GCC5/AARCH64/ShellPkg/Library/UefiShellDebug1CommandsLib/UefiShellDebug1CommandsLib/OUTPUT/UefiShellDebug1CommandsLib.lib(EventLogInfo.obj)
                              PrintInfo.obj (symbol from plugin) (DisplaySELAccessMethod)
/home/alastair/pftf-rpi4/Build/RPi4/DEBUG_GCC5/AARCH64/ShellPkg/Library/UefiShellInstall1CommandsLib/UefiShellInstall1CommandsLib/OUTPUT/UefiShellInstall1CommandsLib.lib(UefiShellInstall1CommandsLib.obj)
                              AutoGen.obj (symbol from plugin) (ShellInstall1CommandsLibConstructor)
/home/alastair/pftf-rpi4/Build/RPi4/DEBUG_GCC5/AARCH64/ShellPkg/Library/UefiShellNetwork1CommandsLib/UefiShellNetwork1CommandsLib/OUTPUT/UefiShellNetwork1CommandsLib.lib(UefiShellNetwork1CommandsLib.obj)
                              AutoGen.obj (symbol from plugin) (ShellNetwork1CommandsLibConstructor)
/home/alastair/pftf-rpi4/Build/RPi4/DEBUG_GCC5/AARCH64/ShellPkg/Library/UefiShellNetwork1CommandsLib/UefiShellNetwork1CommandsLib/OUTPUT/UefiShellNetwork1CommandsLib.lib(Ping.obj)
                              UefiShellNetwork1CommandsLib.obj (symbol from plugin) (ShellCommandRunPing)
/home/alastair/pftf-rpi4/Build/RPi4/DEBUG_GCC5/AARCH64/ShellPkg/Library/UefiShellNetwork1CommandsLib/UefiShellNetwork1CommandsLib/OUTPUT/UefiShellNetwork1CommandsLib.lib(Ifconfig.obj)
                              UefiShellNetwork1CommandsLib.obj (symbol from plugin) (ShellCommandRunIfconfig)
/home/alastair/pftf-rpi4/Build/RPi4/DEBUG_GCC5/AARCH64/ShellPkg/Library/UefiShellNetwork1CommandsLib/UefiShellNetwork1CommandsLib/OUTPUT/UefiShellNetwork1CommandsLib.lib(AutoGen.obj)
                              UefiShellNetwork1CommandsLib.obj (symbol from plugin) (UefiShellNetwork1CommandsLibStrings)
/home/alastair/pftf-rpi4/Build/RPi4/DEBUG_GCC5/AARCH64/ShellPkg/Library/UefiShellAcpiViewCommandLib/UefiShellAcpiViewCommandLib/OUTPUT/UefiShellAcpiViewCommandLib.lib(UefiShellAcpiViewCommandLib.obj)
                              AutoGen.obj (symbol from plugin) (UefiShellAcpiViewCommandLibConstructor)
/home/alastair/pftf-rpi4/Build/RPi4/DEBUG_GCC5/AARCH64/ShellPkg/Library/UefiShellAcpiViewCommandLib/UefiShellAcpiViewCommandLib/OUTPUT/UefiShellAcpiViewCommandLib.lib(AutoGen.obj)
                              UefiShellAcpiViewCommandLib.obj (symbol from plugin) (UefiShellAcpiViewCommandLibStrings)
/home/alastair/pftf-rpi4/Build/RPi4/DEBUG_GCC5/AARCH64/ShellPkg/Library/UefiShellAcpiViewCommandLib/UefiShellAcpiViewCommandLib/OUTPUT/UefiShellAcpiViewCommandLib.lib(AcpiTableParser.obj)
                              UefiShellAcpiViewCommandLib.obj (symbol from plugin) (RegisterParser)
/home/alastair/pftf-rpi4/Build/RPi4/DEBUG_GCC5/AARCH64/ShellPkg/Library/UefiShellAcpiViewCommandLib/UefiShellAcpiViewCommandLib/OUTPUT/UefiShellAcpiViewCommandLib.lib(AcpiView.obj)
                              AcpiTableParser.obj (symbol from plugin) (ProcessTableReportOptions)
/home/alastair/pftf-rpi4/Build/RPi4/DEBUG_GCC5/AARCH64/ShellPkg/Library/UefiShellAcpiViewCommandLib/UefiShellAcpiViewCommandLib/OUTPUT/UefiShellAcpiViewCommandLib.lib(AcpiViewConfig.obj)
                              UefiShellAcpiViewCommandLib.obj (symbol from plugin) (AcpiConfigSetDefaults)
/home/alastair/pftf-rpi4/Build/RPi4/DEBUG_GCC5/AARCH64/ShellPkg/Library/UefiShellAcpiViewCommandLib/UefiShellAcpiViewCommandLib/OUTPUT/UefiShellAcpiViewCommandLib.lib(AestParser.obj)
                              UefiShellAcpiViewCommandLib.obj (symbol from plugin) (ParseAcpiAest)
/home/alastair/pftf-rpi4/Build/RPi4/DEBUG_GCC5/AARCH64/ShellPkg/Library/UefiShellAcpiViewCommandLib/UefiShellAcpiViewCommandLib/OUTPUT/UefiShellAcpiViewCommandLib.lib(BgrtParser.obj)
                              UefiShellAcpiViewCommandLib.obj (symbol from plugin) (ParseAcpiBgrt)
/home/alastair/pftf-rpi4/Build/RPi4/DEBUG_GCC5/AARCH64/ShellPkg/Library/UefiShellAcpiViewCommandLib/UefiShellAcpiViewCommandLib/OUTPUT/UefiShellAcpiViewCommandLib.lib(Dbg2Parser.obj)
                              UefiShellAcpiViewCommandLib.obj (symbol from plugin) (ParseAcpiDbg2)
/home/alastair/pftf-rpi4/Build/RPi4/DEBUG_GCC5/AARCH64/ShellPkg/Library/UefiShellAcpiViewCommandLib/UefiShellAcpiViewCommandLib/OUTPUT/UefiShellAcpiViewCommandLib.lib(DsdtParser.obj)
                              UefiShellAcpiViewCommandLib.obj (symbol from plugin) (ParseAcpiDsdt)
/home/alastair/pftf-rpi4/Build/RPi4/DEBUG_GCC5/AARCH64/ShellPkg/Library/UefiShellAcpiViewCommandLib/UefiShellAcpiViewCommandLib/OUTPUT/UefiShellAcpiViewCommandLib.lib(FacsParser.obj)
                              UefiShellAcpiViewCommandLib.obj (symbol from plugin) (ParseAcpiFacs)
/home/alastair/pftf-rpi4/Build/RPi4/DEBUG_GCC5/AARCH64/ShellPkg/Library/UefiShellAcpiViewCommandLib/UefiShellAcpiViewCommandLib/OUTPUT/UefiShellAcpiViewCommandLib.lib(FadtParser.obj)
                              UefiShellAcpiViewCommandLib.obj (symbol from plugin) (ParseAcpiFadt)
/home/alastair/pftf-rpi4/Build/RPi4/DEBUG_GCC5/AARCH64/ShellPkg/Library/UefiShellAcpiViewCommandLib/UefiShellAcpiViewCommandLib/OUTPUT/UefiShellAcpiViewCommandLib.lib(GtdtParser.obj)
                              UefiShellAcpiViewCommandLib.obj (symbol from plugin) (ParseAcpiGtdt)
/home/alastair/pftf-rpi4/Build/RPi4/DEBUG_GCC5/AARCH64/ShellPkg/Library/UefiShellAcpiViewCommandLib/UefiShellAcpiViewCommandLib/OUTPUT/UefiShellAcpiViewCommandLib.lib(HmatParser.obj)
                              UefiShellAcpiViewCommandLib.obj (symbol from plugin) (ParseAcpiHmat)
/home/alastair/pftf-rpi4/Build/RPi4/DEBUG_GCC5/AARCH64/ShellPkg/Library/UefiShellAcpiViewCommandLib/UefiShellAcpiViewCommandLib/OUTPUT/UefiShellAcpiViewCommandLib.lib(IortParser.obj)
                              UefiShellAcpiViewCommandLib.obj (symbol from plugin) (ParseAcpiIort)
/home/alastair/pftf-rpi4/Build/RPi4/DEBUG_GCC5/AARCH64/ShellPkg/Library/UefiShellAcpiViewCommandLib/UefiShellAcpiViewCommandLib/OUTPUT/UefiShellAcpiViewCommandLib.lib(MadtParser.obj)
                              UefiShellAcpiViewCommandLib.obj (symbol from plugin) (ParseAcpiMadt)
/home/alastair/pftf-rpi4/Build/RPi4/DEBUG_GCC5/AARCH64/ShellPkg/Library/UefiShellAcpiViewCommandLib/UefiShellAcpiViewCommandLib/OUTPUT/UefiShellAcpiViewCommandLib.lib(McfgParser.obj)
                              UefiShellAcpiViewCommandLib.obj (symbol from plugin) (ParseAcpiMcfg)
/home/alastair/pftf-rpi4/Build/RPi4/DEBUG_GCC5/AARCH64/ShellPkg/Library/UefiShellAcpiViewCommandLib/UefiShellAcpiViewCommandLib/OUTPUT/UefiShellAcpiViewCommandLib.lib(PcctParser.obj)
                              UefiShellAcpiViewCommandLib.obj (symbol from plugin) (ParseAcpiPcct)
/home/alastair/pftf-rpi4/Build/RPi4/DEBUG_GCC5/AARCH64/ShellPkg/Library/UefiShellAcpiViewCommandLib/UefiShellAcpiViewCommandLib/OUTPUT/UefiShellAcpiViewCommandLib.lib(PpttParser.obj)
                              UefiShellAcpiViewCommandLib.obj (symbol from plugin) (ParseAcpiPptt)
/home/alastair/pftf-rpi4/Build/RPi4/DEBUG_GCC5/AARCH64/ShellPkg/Library/UefiShellAcpiViewCommandLib/UefiShellAcpiViewCommandLib/OUTPUT/UefiShellAcpiViewCommandLib.lib(RsdpParser.obj)
                              UefiShellAcpiViewCommandLib.obj (symbol from plugin) (ParseAcpiRsdp)
/home/alastair/pftf-rpi4/Build/RPi4/DEBUG_GCC5/AARCH64/ShellPkg/Library/UefiShellAcpiViewCommandLib/UefiShellAcpiViewCommandLib/OUTPUT/UefiShellAcpiViewCommandLib.lib(SlitParser.obj)
                              UefiShellAcpiViewCommandLib.obj (symbol from plugin) (ParseAcpiSlit)
/home/alastair/pftf-rpi4/Build/RPi4/DEBUG_GCC5/AARCH64/ShellPkg/Library/UefiShellAcpiViewCommandLib/UefiShellAcpiViewCommandLib/OUTPUT/UefiShellAcpiViewCommandLib.lib(SpcrParser.obj)
                              UefiShellAcpiViewCommandLib.obj (symbol from plugin) (ParseAcpiSpcr)
/home/alastair/pftf-rpi4/Build/RPi4/DEBUG_GCC5/AARCH64/ShellPkg/Library/UefiShellAcpiViewCommandLib/UefiShellAcpiViewCommandLib/OUTPUT/UefiShellAcpiViewCommandLib.lib(SratParser.obj)
                              UefiShellAcpiViewCommandLib.obj (symbol from plugin) (ParseAcpiSrat)
/home/alastair/pftf-rpi4/Build/RPi4/DEBUG_GCC5/AARCH64/ShellPkg/Library/UefiShellAcpiViewCommandLib/UefiShellAcpiViewCommandLib/OUTPUT/UefiShellAcpiViewCommandLib.lib(SsdtParser.obj)
                              UefiShellAcpiViewCommandLib.obj (symbol from plugin) (ParseAcpiSsdt)
/home/alastair/pftf-rpi4/Build/RPi4/DEBUG_GCC5/AARCH64/ShellPkg/Library/UefiShellAcpiViewCommandLib/UefiShellAcpiViewCommandLib/OUTPUT/UefiShellAcpiViewCommandLib.lib(XsdtParser.obj)
                              FadtParser.obj (symbol from plugin) (GetAcpiXsdtHeaderInfo)
/home/alastair/pftf-rpi4/Build/RPi4/DEBUG_GCC5/AARCH64/ShellPkg/Library/UefiShellAcpiViewCommandLib/UefiShellAcpiViewCommandLib/OUTPUT/UefiShellAcpiViewCommandLib.lib(SbbrValidator.obj)
                              AcpiView.obj (symbol from plugin) (ArmSbbrResetTableCounts)
/home/alastair/pftf-rpi4/Build/RPi4/DEBUG_GCC5/AARCH64/ShellPkg/Library/UefiShellAcpiViewCommandLib/UefiShellAcpiViewCommandLib/OUTPUT/UefiShellAcpiViewCommandLib.lib(AcpiParser.obj)
                              AestParser.obj (symbol from plugin) (Dump4Chars)
/home/alastair/pftf-rpi4/Build/RPi4/DEBUG_GCC5/AARCH64/MdePkg/Library/BaseMemoryLibOptDxe/BaseMemoryLibOptDxe/OUTPUT/BaseMemoryLibOptDxe.lib(CompareMemWrapper.obj)
                              HiiLib.obj (symbol from plugin) (CompareMem)
/home/alastair/pftf-rpi4/Build/RPi4/DEBUG_GCC5/AARCH64/MdePkg/Library/BaseMemoryLibOptDxe/BaseMemoryLibOptDxe/OUTPUT/BaseMemoryLibOptDxe.lib(IsZeroBufferWrapper.obj)
                              PcctParser.obj (symbol from plugin) (IsZeroBuffer)
/home/alastair/pftf-rpi4/Build/RPi4/DEBUG_GCC5/AARCH64/MdePkg/Library/BaseMemoryLibOptDxe/BaseMemoryLibOptDxe/OUTPUT/BaseMemoryLibOptDxe.lib(CompareMem.obj)
                              CompareMemWrapper.obj (symbol from plugin) (InternalMemCompareMem)
/home/alastair/pftf-rpi4/Build/RPi4/DEBUG_GCC5/AARCH64/MdePkg/Library/BaseMemoryLibOptDxe/BaseMemoryLibOptDxe/OUTPUT/BaseMemoryLibOptDxe.lib(ScanMemGeneric.obj)
                              IsZeroBufferWrapper.obj (symbol from plugin) (InternalMemIsZeroBuffer)
/home/alastair/pftf-rpi4/Build/RPi4/DEBUG_GCC5/AARCH64/MdePkg/Library/BaseLib/BaseLib/OUTPUT/BaseLib.lib(SwapBytes64.obj)
                              DevicePathFromText.obj (symbol from plugin) (SwapBytes64)
/home/alastair/pftf-rpi4/Build/RPi4/DEBUG_GCC5/AARCH64/MdePkg/Library/BaseLib/BaseLib/OUTPUT/BaseLib.lib(MultU64x64.obj)
                              MemMap.obj (symbol from plugin) (MultU64x64)
/home/alastair/pftf-rpi4/Build/RPi4/DEBUG_GCC5/AARCH64/MdePkg/Library/BaseLib/BaseLib/OUTPUT/BaseLib.lib(ModU64x32.obj)
                              MainHexEditor.obj (symbol from plugin) (ModU64x32)
/home/alastair/pftf-rpi4/Build/RPi4/DEBUG_GCC5/AARCH64/MdePkg/Library/BaseLib/BaseLib/OUTPUT/BaseLib.lib(DivU64x64Remainder.obj)
                              Ping.obj (symbol from plugin) (DivU64x64Remainder)
/home/alastair/pftf-rpi4/Build/RPi4/DEBUG_GCC5/AARCH64/MdePkg/Library/BaseLib/BaseLib/OUTPUT/BaseLib.lib(DivU64x32Remainder.obj)
                              PrintLibInternal.obj (symbol from plugin) (DivU64x32Remainder)
/home/alastair/pftf-rpi4/Build/RPi4/DEBUG_GCC5/AARCH64/MdePkg/Library/BaseLib/BaseLib/OUTPUT/BaseLib.lib(BitField.obj)
                              HiiLib.obj (symbol from plugin) (BitFieldRead32)
/home/alastair/pftf-rpi4/Build/RPi4/DEBUG_GCC5/AARCH64/MdePkg/Library/BaseLib/BaseLib/OUTPUT/BaseLib.lib(Unaligned.obj)
                              PrintLibInternal.obj (symbol from plugin) (ReadUnaligned16)
/home/alastair/pftf-rpi4/Build/RPi4/DEBUG_GCC5/AARCH64/MdePkg/Library/BaseIoLibIntrinsic/BaseIoLibIntrinsic/OUTPUT/BaseIoLibIntrinsic.lib(IoLibNoIo.obj)
                              Mm.obj (symbol from plugin) (IoRead8)
/home/alastair/pftf-rpi4/Build/RPi4/DEBUG_GCC5/AARCH64/MdePkg/Library/BaseDebugPrintErrorLevelLib/BaseDebugPrintErrorLevelLib/OUTPUT/BaseDebugPrintErrorLevelLib.lib(BaseDebugPrintErrorLevelLib.obj)
                              DebugLib.obj (symbol from plugin) (GetDebugPrintErrorLevel)
/home/alastair/pftf-rpi4/Build/RPi4/DEBUG_GCC5/AARCH64/Platform/RaspberryPi/Library/DualSerialPortLib/DebugDualSerialPortLib/OUTPUT/DebugDualSerialPortLib.lib(DebugDualSerialPortLib.obj)
                              DebugLib.obj (symbol from plugin) (SerialPortInitialize)
/home/alastair/pftf-rpi4/Build/RPi4/DEBUG_GCC5/AARCH64/Platform/RaspberryPi/Library/DualSerialPortLib/DebugDualSerialPortLib/OUTPUT/DebugDualSerialPortLib.lib(DualSerialPortLibCommon.obj)
                              DebugLib.obj (symbol from plugin) (SerialPortWrite)
/home/alastair/pftf-rpi4/Build/RPi4/DEBUG_GCC5/AARCH64/MdePkg/Library/UefiLib/UefiLib/OUTPUT/UefiLib.lib(UefiLibPrint.obj)
                              DrvCfg.obj (symbol from plugin) (Print)
/home/alastair/pftf-rpi4/Build/RPi4/DEBUG_GCC5/AARCH64/MdePkg/Library/UefiLib/UefiLib/OUTPUT/UefiLib.lib(UefiNotTiano.obj)
                              UefiHandleParsingLib.obj (symbol from plugin) (EfiGetNameGuidFromFwVolDevicePathNode)
/home/alastair/pftf-rpi4/Build/RPi4/DEBUG_GCC5/AARCH64/MdePkg/Library/BasePeCoffGetEntryPointLib/BasePeCoffGetEntryPointLib/OUTPUT/BasePeCoffGetEntryPointLib.lib(PeCoffGetEntryPoint.obj)
                              UefiHandleParsingLib.obj (symbol from plugin) (PeCoffLoaderGetPdbPointer)
/home/alastair/pftf-rpi4/Build/RPi4/DEBUG_GCC5/AARCH64/MdePkg/Library/BaseOrderedCollectionRedBlackTreeLib/BaseOrderedCollectionRedBlackTreeLib/OUTPUT/BaseOrderedCollectionRedBlackTreeLib.lib(BaseOrderedCollectionRedBlackTreeLib.obj)
                              UefiShellCommandLib.obj (symbol from plugin) (OrderedCollectionUserStruct)
/home/alastair/pftf-rpi4/Build/RPi4/DEBUG_GCC5/AARCH64/ShellPkg/Library/UefiShellBcfgCommandLib/UefiShellBcfgCommandLib/OUTPUT/UefiShellBcfgCommandLib.lib(UefiShellBcfgCommandLib.obj)
                              UefiShellDebug1CommandsLib.obj (symbol from plugin) (BcfgLibraryRegisterBcfgCommand)
/home/alastair/pftf-rpi4/Build/RPi4/DEBUG_GCC5/AARCH64/ShellPkg/Library/UefiShellBcfgCommandLib/UefiShellBcfgCommandLib/OUTPUT/UefiShellBcfgCommandLib.lib(AutoGen.obj)
                              UefiShellBcfgCommandLib.obj (symbol from plugin) (UefiShellBcfgCommandLibStrings)
/home/alastair/pftf-rpi4/Build/RPi4/DEBUG_GCC5/AARCH64/NetworkPkg/Library/DxeNetLib/DxeNetLib/OUTPUT/DxeNetLib.lib(DxeNetLib.obj)
                              Ifconfig.obj (symbol from plugin) (NetIp4IsUnicast)
/home/alastair/pftf-rpi4/Build/RPi4/DEBUG_GCC5/AARCH64/NetworkPkg/Library/DxeNetLib/DxeNetLib/OUTPUT/DxeNetLib.lib(NetBuffer.obj)
                              DxeNetLib.obj (symbol from plugin) (NetblockChecksum)
/home/alastair/pftf-rpi4/Build/RPi4/DEBUG_GCC5/AARCH64/ArmPlatformPkg/Library/PL011UartLib/PL011UartLib/OUTPUT/PL011UartLib.lib(PL011UartLib.obj)
                              DualSerialPortLibCommon.obj (symbol from plugin) (PL011UartWrite)
/home/alastair/pftf-rpi4/Build/RPi4/DEBUG_GCC5/AARCH64/MdeModulePkg/Library/UefiBootManagerLib/UefiBootManagerLib/OUTPUT/UefiBootManagerLib.lib(BmLoadOption.obj)
                              UefiShellBcfgCommandLib.obj (symbol from plugin) (EfiBootManagerLoadOptionToVariable)
/home/alastair/pftf-rpi4/Build/RPi4/DEBUG_GCC5/AARCH64/MdeModulePkg/Library/UefiBootManagerLib/UefiBootManagerLib/OUTPUT/UefiBootManagerLib.lib(BmConnect.obj)
                              BmLoadOption.obj (symbol from plugin) (EfiBootManagerConnectDevicePath)
/home/alastair/pftf-rpi4/Build/RPi4/DEBUG_GCC5/AARCH64/MdeModulePkg/Library/UefiBootManagerLib/UefiBootManagerLib/OUTPUT/UefiBootManagerLib.lib(BmMisc.obj)
                              BmLoadOption.obj (symbol from plugin) (BmPrintDp)
/home/alastair/pftf-rpi4/Build/RPi4/DEBUG_GCC5/AARCH64/MdeModulePkg/Library/UefiBootManagerLib/UefiBootManagerLib/OUTPUT/UefiBootManagerLib.lib(BmConsole.obj)
                              BmConnect.obj (symbol from plugin) (EfiBootManagerConnectAllDefaultConsoles)
/home/alastair/pftf-rpi4/Build/RPi4/DEBUG_GCC5/AARCH64/MdeModulePkg/Library/UefiBootManagerLib/UefiBootManagerLib/OUTPUT/UefiBootManagerLib.lib(BmBoot.obj)
                              BmLoadOption.obj (symbol from plugin) (BmGetRamDiskDevicePath)
/home/alastair/pftf-rpi4/Build/RPi4/DEBUG_GCC5/AARCH64/MdeModulePkg/Library/UefiBootManagerLib/UefiBootManagerLib/OUTPUT/UefiBootManagerLib.lib(BmBootDescription.obj)
                              BmBoot.obj (symbol from plugin) (BmGetBootDescription)
/home/alastair/pftf-rpi4/Build/RPi4/DEBUG_GCC5/AARCH64/MdeModulePkg/Library/UefiBootManagerLib/UefiBootManagerLib/OUTPUT/UefiBootManagerLib.lib(BmHotkey.obj)
                              BmBoot.obj (symbol from plugin) (BmStopHotkeyService)
/home/alastair/pftf-rpi4/Build/RPi4/DEBUG_GCC5/AARCH64/MdeModulePkg/Library/UefiBootManagerLib/UefiBootManagerLib/OUTPUT/UefiBootManagerLib.lib(BmDriverHealth.obj)
                              BmBoot.obj (symbol from plugin) (BmRepairAllControllers)
/home/alastair/pftf-rpi4/Build/RPi4/DEBUG_GCC5/AARCH64/MdePkg/Library/BaseLib/BaseLib/OUTPUT/BaseLib.lib(LowBitSet32.obj)
                              BmHotkey.obj (symbol from plugin) (LowBitSet32)
/home/alastair/pftf-rpi4/Build/RPi4/DEBUG_GCC5/AARCH64/MdePkg/Library/BaseReportStatusCodeLibNull/BaseReportStatusCodeLibNull/OUTPUT/BaseReportStatusCodeLibNull.lib(BaseReportStatusCodeLib.obj)
                              BmLoadOption.obj (symbol from plugin) (ReportStatusCode)
/home/alastair/pftf-rpi4/Build/RPi4/DEBUG_GCC5/AARCH64/MdePkg/Library/DxeServicesLib/DxeServicesLib/OUTPUT/DxeServicesLib.lib(DxeServicesLib.obj)
                              BmBoot.obj (symbol from plugin) (GetSectionFromFv)
/home/alastair/pftf-rpi4/Build/RPi4/DEBUG_GCC5/AARCH64/MdeModulePkg/Library/DxePerformanceLib/DxePerformanceLib/OUTPUT/DxePerformanceLib.lib(DxePerformanceLib.obj)
                              BmBoot.obj (symbol from plugin) (StartPerformanceMeasurementEx)

Discarded input sections

 .text          0x0000000000000000       0x10 /home/alastair/pftf-rpi4/edk2/ArmPkg/Library/GccLto/liblto-aarch64.a
 .data          0x0000000000000000        0x0 /home/alastair/pftf-rpi4/edk2/ArmPkg/Library/GccLto/liblto-aarch64.a
 .bss           0x0000000000000000        0x0 /home/alastair/pftf-rpi4/edk2/ArmPkg/Library/GccLto/liblto-aarch64.a
 .text          0x0000000000000000        0x0 /tmp/Shell.dll.y4Q2gW.ltrans0.ltrans.o
 .data          0x0000000000000000        0x0 /tmp/Shell.dll.y4Q2gW.ltrans0.ltrans.o
 .bss           0x0000000000000000        0x0 /tmp/Shell.dll.y4Q2gW.ltrans0.ltrans.o
 .text.OrderedCollectionPrev
                0x0000000000000000       0x38 /tmp/Shell.dll.y4Q2gW.ltrans0.ltrans.o
 .text.RedBlackTreeRecursiveCheck.part.0
                0x0000000000000000       0xf0 /tmp/Shell.dll.y4Q2gW.ltrans0.ltrans.o
 .rodata.RedBlackTreeValidate.str1.1
                0x0000000000000000       0xf3 /tmp/Shell.dll.y4Q2gW.ltrans0.ltrans.o
 .text.RedBlackTreeValidate
                0x0000000000000000      0x1e4 /tmp/Shell.dll.y4Q2gW.ltrans0.ltrans.o
 .rodata.__FUNCTION__.1481
                0x0000000000000000       0x15 /tmp/Shell.dll.y4Q2gW.ltrans0.ltrans.o
 .rodata._gPcd_FixedAtBuild_PcdFixedDebugPrintErrorLevel
                0x0000000000000000        0x4 /tmp/Shell.dll.y4Q2gW.ltrans0.ltrans.o
 .rodata._gPcd_FixedAtBuild_PcdMaximumUnicodeStringLength
                0x0000000000000000        0x4 /tmp/Shell.dll.y4Q2gW.ltrans0.ltrans.o
 .rodata._gPcd_FixedAtBuild_PcdShellDecodeIScsiMapNames
                0x0000000000000000        0x1 /tmp/Shell.dll.y4Q2gW.ltrans0.ltrans.o
 .rodata._gPcd_FixedAtBuild_PcdShellPrintBufferSize
                0x0000000000000000        0x2 /tmp/Shell.dll.y4Q2gW.ltrans0.ltrans.o
 .rodata._gPcd_FixedAtBuild_PcdShellProfileMask
                0x0000000000000000        0x1 /tmp/Shell.dll.y4Q2gW.ltrans0.ltrans.o
 .rodata._gUefiDriverRevision
                0x0000000000000000        0x4 /tmp/Shell.dll.y4Q2gW.ltrans0.ltrans.o
 .comment       0x0000000000000000       0x2b /tmp/Shell.dll.y4Q2gW.ltrans0.ltrans.o
 .note.GNU-stack
                0x0000000000000000        0x0 /tmp/Shell.dll.y4Q2gW.ltrans0.ltrans.o
 .text          0x0000000000000000        0x0 /tmp/Shell.dll.y4Q2gW.ltrans1.ltrans.o
 .data          0x0000000000000000        0x0 /tmp/Shell.dll.y4Q2gW.ltrans1.ltrans.o
 .bss           0x0000000000000000        0x0 /tmp/Shell.dll.y4Q2gW.ltrans1.ltrans.o
 .comment       0x0000000000000000       0x2b /tmp/Shell.dll.y4Q2gW.ltrans1.ltrans.o
 .note.GNU-stack
                0x0000000000000000        0x0 /tmp/Shell.dll.y4Q2gW.ltrans1.ltrans.o
 .text          0x0000000000000000        0x0 /tmp/Shell.dll.y4Q2gW.ltrans2.ltrans.o
 .data          0x0000000000000000        0x0 /tmp/Shell.dll.y4Q2gW.ltrans2.ltrans.o
 .bss           0x0000000000000000        0x0 /tmp/Shell.dll.y4Q2gW.ltrans2.ltrans.o
 .comment       0x0000000000000000       0x2b /tmp/Shell.dll.y4Q2gW.ltrans2.ltrans.o
 .note.GNU-stack
                0x0000000000000000        0x0 /tmp/Shell.dll.y4Q2gW.ltrans2.ltrans.o
 .text          0x0000000000000000        0x0 /tmp/Shell.dll.y4Q2gW.ltrans3.ltrans.o
 .data          0x0000000000000000        0x0 /tmp/Shell.dll.y4Q2gW.ltrans3.ltrans.o
 .bss           0x0000000000000000        0x0 /tmp/Shell.dll.y4Q2gW.ltrans3.ltrans.o
 .comment       0x0000000000000000       0x2b /tmp/Shell.dll.y4Q2gW.ltrans3.ltrans.o
 .note.GNU-stack
                0x0000000000000000        0x0 /tmp/Shell.dll.y4Q2gW.ltrans3.ltrans.o
 .text          0x0000000000000000        0x0 /tmp/Shell.dll.y4Q2gW.ltrans4.ltrans.o
 .data          0x0000000000000000        0x0 /tmp/Shell.dll.y4Q2gW.ltrans4.ltrans.o
 .bss           0x0000000000000000        0x0 /tmp/Shell.dll.y4Q2gW.ltrans4.ltrans.o
 .rodata._gPcd_FixedAtBuild_PcdShellFileOperationSize
                0x0000000000000000        0x4 /tmp/Shell.dll.y4Q2gW.ltrans4.ltrans.o
 .comment       0x0000000000000000       0x2b /tmp/Shell.dll.y4Q2gW.ltrans4.ltrans.o
 .note.GNU-stack
                0x0000000000000000        0x0 /tmp/Shell.dll.y4Q2gW.ltrans4.ltrans.o
 .text          0x0000000000000000        0x0 /tmp/Shell.dll.y4Q2gW.ltrans5.ltrans.o
 .data          0x0000000000000000        0x0 /tmp/Shell.dll.y4Q2gW.ltrans5.ltrans.o
 .bss           0x0000000000000000        0x0 /tmp/Shell.dll.y4Q2gW.ltrans5.ltrans.o
 .comment       0x0000000000000000       0x2b /tmp/Shell.dll.y4Q2gW.ltrans5.ltrans.o
 .note.GNU-stack
                0x0000000000000000        0x0 /tmp/Shell.dll.y4Q2gW.ltrans5.ltrans.o
 .text          0x0000000000000000        0x0 /tmp/Shell.dll.y4Q2gW.ltrans6.ltrans.o
 .data          0x0000000000000000        0x0 /tmp/Shell.dll.y4Q2gW.ltrans6.ltrans.o
 .bss           0x0000000000000000        0x0 /tmp/Shell.dll.y4Q2gW.ltrans6.ltrans.o
 .rodata.str2.2
                0x0000000000000000       0x30 /tmp/Shell.dll.y4Q2gW.ltrans6.ltrans.o
 .rodata.SupportLevel
                0x0000000000000000       0x20 /tmp/Shell.dll.y4Q2gW.ltrans6.ltrans.o
 .rodata._gPcd_FixedAtBuild_PcdShellScreenLogCount
                0x0000000000000000        0x1 /tmp/Shell.dll.y4Q2gW.ltrans6.ltrans.o
 .comment       0x0000000000000000       0x2b /tmp/Shell.dll.y4Q2gW.ltrans6.ltrans.o
 .note.GNU-stack
                0x0000000000000000        0x0 /tmp/Shell.dll.y4Q2gW.ltrans6.ltrans.o
 .text          0x0000000000000000        0x0 /tmp/Shell.dll.y4Q2gW.ltrans7.ltrans.o
 .data          0x0000000000000000        0x0 /tmp/Shell.dll.y4Q2gW.ltrans7.ltrans.o
 .bss           0x0000000000000000        0x0 /tmp/Shell.dll.y4Q2gW.ltrans7.ltrans.o
 .comment       0x0000000000000000       0x2b /tmp/Shell.dll.y4Q2gW.ltrans7.ltrans.o
 .note.GNU-stack
                0x0000000000000000        0x0 /tmp/Shell.dll.y4Q2gW.ltrans7.ltrans.o
 .text          0x0000000000000000        0x0 /tmp/Shell.dll.y4Q2gW.ltrans8.ltrans.o
 .data          0x0000000000000000        0x0 /tmp/Shell.dll.y4Q2gW.ltrans8.ltrans.o
 .bss           0x0000000000000000        0x0 /tmp/Shell.dll.y4Q2gW.ltrans8.ltrans.o
 .rodata._gPcd_FixedAtBuild_PcdUsbExtendedDecode
                0x0000000000000000        0x1 /tmp/Shell.dll.y4Q2gW.ltrans8.ltrans.o
 .comment       0x0000000000000000       0x2b /tmp/Shell.dll.y4Q2gW.ltrans8.ltrans.o
 .note.GNU-stack
                0x0000000000000000        0x0 /tmp/Shell.dll.y4Q2gW.ltrans8.ltrans.o
 .text          0x0000000000000000        0x0 /tmp/Shell.dll.y4Q2gW.ltrans9.ltrans.o
 .data          0x0000000000000000        0x0 /tmp/Shell.dll.y4Q2gW.ltrans9.ltrans.o
 .bss           0x0000000000000000        0x0 /tmp/Shell.dll.y4Q2gW.ltrans9.ltrans.o
 .comment       0x0000000000000000       0x2b /tmp/Shell.dll.y4Q2gW.ltrans9.ltrans.o
 .note.GNU-stack
                0x0000000000000000        0x0 /tmp/Shell.dll.y4Q2gW.ltrans9.ltrans.o
 .text          0x0000000000000000        0x0 /tmp/Shell.dll.y4Q2gW.ltrans10.ltrans.o
 .data          0x0000000000000000        0x0 /tmp/Shell.dll.y4Q2gW.ltrans10.ltrans.o
 .bss           0x0000000000000000        0x0 /tmp/Shell.dll.y4Q2gW.ltrans10.ltrans.o
 .text.IsNodeInList
                0x0000000000000000       0xa0 /tmp/Shell.dll.y4Q2gW.ltrans10.ltrans.o
 .comment       0x0000000000000000       0x2b /tmp/Shell.dll.y4Q2gW.ltrans10.ltrans.o
 .note.GNU-stack
                0x0000000000000000        0x0 /tmp/Shell.dll.y4Q2gW.ltrans10.ltrans.o
 .text          0x0000000000000000        0x0 /tmp/Shell.dll.y4Q2gW.ltrans11.ltrans.o
 .data          0x0000000000000000        0x0 /tmp/Shell.dll.y4Q2gW.ltrans11.ltrans.o
 .bss           0x0000000000000000        0x0 /tmp/Shell.dll.y4Q2gW.ltrans11.ltrans.o
 .comment       0x0000000000000000       0x2b /tmp/Shell.dll.y4Q2gW.ltrans11.ltrans.o
 .note.GNU-stack
                0x0000000000000000        0x0 /tmp/Shell.dll.y4Q2gW.ltrans11.ltrans.o
 .text          0x0000000000000000        0x0 /tmp/Shell.dll.y4Q2gW.ltrans12.ltrans.o
 .data          0x0000000000000000        0x0 /tmp/Shell.dll.y4Q2gW.ltrans12.ltrans.o
 .bss           0x0000000000000000        0x0 /tmp/Shell.dll.y4Q2gW.ltrans12.ltrans.o
 .text.__memset
                0x0000000000000000       0x1c /tmp/Shell.dll.y4Q2gW.ltrans12.ltrans.o
 .comment       0x0000000000000000       0x2b /tmp/Shell.dll.y4Q2gW.ltrans12.ltrans.o
 .note.GNU-stack
                0x0000000000000000        0x0 /tmp/Shell.dll.y4Q2gW.ltrans12.ltrans.o
 .comment       0x0000000000000000       0x2b /tmp/cc7pi0HV.debug.temp.o
 .note.GNU-stack
                0x0000000000000000        0x0 /tmp/cc7pi0HV.debug.temp.o
 .comment       0x0000000000000000       0x2b /tmp/cc7WKLeT.debug.temp.o
 .note.GNU-stack
                0x0000000000000000        0x0 /tmp/cc7WKLeT.debug.temp.o
 .comment       0x0000000000000000       0x2b /tmp/ccMLC2CU.debug.temp.o
 .note.GNU-stack
                0x0000000000000000        0x0 /tmp/ccMLC2CU.debug.temp.o
 .comment       0x0000000000000000       0x2b /tmp/cciWvgCV.debug.temp.o
 .note.GNU-stack
                0x0000000000000000        0x0 /tmp/cciWvgCV.debug.temp.o
 .comment       0x0000000000000000       0x2b /tmp/cceaCk0T.debug.temp.o
 .note.GNU-stack
                0x0000000000000000        0x0 /tmp/cceaCk0T.debug.temp.o
 .comment       0x0000000000000000       0x2b /tmp/ccHCQrUV.debug.temp.o
 .note.GNU-stack
                0x0000000000000000        0x0 /tmp/ccHCQrUV.debug.temp.o
 .comment       0x0000000000000000       0x2b /tmp/ccgVca7V.debug.temp.o
 .note.GNU-stack
                0x0000000000000000        0x0 /tmp/ccgVca7V.debug.temp.o
 .comment       0x0000000000000000       0x2b /tmp/ccSoANcW.debug.temp.o
 .note.GNU-stack
                0x0000000000000000        0x0 /tmp/ccSoANcW.debug.temp.o
 .comment       0x0000000000000000       0x2b /tmp/cckZCEWS.debug.temp.o
 .note.GNU-stack
                0x0000000000000000        0x0 /tmp/cckZCEWS.debug.temp.o
 .comment       0x0000000000000000       0x2b /tmp/cc1oUDJW.debug.temp.o
 .note.GNU-stack
                0x0000000000000000        0x0 /tmp/cc1oUDJW.debug.temp.o
 .comment       0x0000000000000000       0x2b /tmp/ccSrSZ7S.debug.temp.o
 .note.GNU-stack
                0x0000000000000000        0x0 /tmp/ccSrSZ7S.debug.temp.o
 .comment       0x0000000000000000       0x2b /tmp/cctymDnS.debug.temp.o
 .note.GNU-stack
                0x0000000000000000        0x0 /tmp/cctymDnS.debug.temp.o
 .comment       0x0000000000000000       0x2b /tmp/cc6UF2TW.debug.temp.o
 .note.GNU-stack
                0x0000000000000000        0x0 /tmp/cc6UF2TW.debug.temp.o
 .comment       0x0000000000000000       0x2b /tmp/ccVMJQJW.debug.temp.o
 .note.GNU-stack
                0x0000000000000000        0x0 /tmp/ccVMJQJW.debug.temp.o
 .comment       0x0000000000000000       0x2b /tmp/cc2N3bmU.debug.temp.o
 .note.GNU-stack
                0x0000000000000000        0x0 /tmp/cc2N3bmU.debug.temp.o
 .comment       0x0000000000000000       0x2b /tmp/ccaPKC5U.debug.temp.o
 .note.GNU-stack
                0x0000000000000000        0x0 /tmp/ccaPKC5U.debug.temp.o
 .comment       0x0000000000000000       0x2b /tmp/ccV3HmTU.debug.temp.o
 .note.GNU-stack
                0x0000000000000000        0x0 /tmp/ccV3HmTU.debug.temp.o
 .comment       0x0000000000000000       0x2b /tmp/ccg2LlnW.debug.temp.o
 .note.GNU-stack
                0x0000000000000000        0x0 /tmp/ccg2LlnW.debug.temp.o
 .debug_info    0x0000000000000000      0x186 /tmp/ccRwUbDW.debug.temp.o
 .debug_abbrev  0x0000000000000000       0xb1 /tmp/ccRwUbDW.debug.temp.o
 .debug_line    0x0000000000000000      0x174 /tmp/ccRwUbDW.debug.temp.o
 .debug_str     0x0000000000000000      0x360 /tmp/ccRwUbDW.debug.temp.o
 .comment       0x0000000000000000       0x2b /tmp/ccRwUbDW.debug.temp.o
 .note.GNU-stack
                0x0000000000000000        0x0 /tmp/ccRwUbDW.debug.temp.o
 .comment       0x0000000000000000       0x2b /tmp/ccpSR5GS.debug.temp.o
 .note.GNU-stack
                0x0000000000000000        0x0 /tmp/ccpSR5GS.debug.temp.o
 .comment       0x0000000000000000       0x2b /tmp/ccpwISAW.debug.temp.o
 .note.GNU-stack
                0x0000000000000000        0x0 /tmp/ccpwISAW.debug.temp.o
 .comment       0x0000000000000000       0x2b /tmp/ccovLV6U.debug.temp.o
 .note.GNU-stack
                0x0000000000000000        0x0 /tmp/ccovLV6U.debug.temp.o
 .comment       0x0000000000000000       0x2b /tmp/ccAZTmyT.debug.temp.o
 .note.GNU-stack
                0x0000000000000000        0x0 /tmp/ccAZTmyT.debug.temp.o
 .comment       0x0000000000000000       0x2b /tmp/ccqaOkGT.debug.temp.o
 .note.GNU-stack
                0x0000000000000000        0x0 /tmp/ccqaOkGT.debug.temp.o
 .comment       0x0000000000000000       0x2b /tmp/cc5PXCZV.debug.temp.o
 .note.GNU-stack
                0x0000000000000000        0x0 /tmp/cc5PXCZV.debug.temp.o
 .comment       0x0000000000000000       0x2b /tmp/ccSgv2mV.debug.temp.o
 .note.GNU-stack
                0x0000000000000000        0x0 /tmp/ccSgv2mV.debug.temp.o
 .comment       0x0000000000000000       0x2b /tmp/ccl5HjXV.debug.temp.o
 .note.GNU-stack
                0x0000000000000000        0x0 /tmp/ccl5HjXV.debug.temp.o
 .comment       0x0000000000000000       0x2b /tmp/ccW4bUiW.debug.temp.o
 .note.GNU-stack
                0x0000000000000000        0x0 /tmp/ccW4bUiW.debug.temp.o
 .comment       0x0000000000000000       0x2b /tmp/ccF5S6TT.debug.temp.o
 .note.GNU-stack
                0x0000000000000000        0x0 /tmp/ccF5S6TT.debug.temp.o
 .comment       0x0000000000000000       0x2b /tmp/ccDT2ekU.debug.temp.o
 .note.GNU-stack
                0x0000000000000000        0x0 /tmp/ccDT2ekU.debug.temp.o
 .comment       0x0000000000000000       0x2b /tmp/cc6ovEsV.debug.temp.o
 .note.GNU-stack
                0x0000000000000000        0x0 /tmp/cc6ovEsV.debug.temp.o
 .comment       0x0000000000000000       0x2b /tmp/ccnxzAxW.debug.temp.o
 .note.GNU-stack
                0x0000000000000000        0x0 /tmp/ccnxzAxW.debug.temp.o
 .comment       0x0000000000000000       0x2b /tmp/ccZAJdkU.debug.temp.o
 .note.GNU-stack
                0x0000000000000000        0x0 /tmp/ccZAJdkU.debug.temp.o
 .comment       0x0000000000000000       0x2b /tmp/ccF0pR8V.debug.temp.o
 .note.GNU-stack
                0x0000000000000000        0x0 /tmp/ccF0pR8V.debug.temp.o
 .comment       0x0000000000000000       0x2b /tmp/cctaQZIT.debug.temp.o
 .note.GNU-stack
                0x0000000000000000        0x0 /tmp/cctaQZIT.debug.temp.o
 .comment       0x0000000000000000       0x2b /tmp/cc61M7GU.debug.temp.o
 .note.GNU-stack
                0x0000000000000000        0x0 /tmp/cc61M7GU.debug.temp.o
 .comment       0x0000000000000000       0x2b /tmp/ccpfxNYT.debug.temp.o
 .note.GNU-stack
                0x0000000000000000        0x0 /tmp/ccpfxNYT.debug.temp.o
 .comment       0x0000000000000000       0x2b /tmp/ccrl5OEU.debug.temp.o
 .note.GNU-stack
                0x0000000000000000        0x0 /tmp/ccrl5OEU.debug.temp.o
 .comment       0x0000000000000000       0x2b /tmp/ccdt2FPT.debug.temp.o
 .note.GNU-stack
                0x0000000000000000        0x0 /tmp/ccdt2FPT.debug.temp.o
 .comment       0x0000000000000000       0x2b /tmp/cckyXCBS.debug.temp.o
 .note.GNU-stack
                0x0000000000000000        0x0 /tmp/cckyXCBS.debug.temp.o
 .comment       0x0000000000000000       0x2b /tmp/ccMh0lkW.debug.temp.o
 .note.GNU-stack
                0x0000000000000000        0x0 /tmp/ccMh0lkW.debug.temp.o
 .comment       0x0000000000000000       0x2b /tmp/ccE1kPmU.debug.temp.o
 .note.GNU-stack
                0x0000000000000000        0x0 /tmp/ccE1kPmU.debug.temp.o
 .comment       0x0000000000000000       0x2b /tmp/ccGQy2GW.debug.temp.o
 .note.GNU-stack
                0x0000000000000000        0x0 /tmp/ccGQy2GW.debug.temp.o
 .comment       0x0000000000000000       0x2b /tmp/cc83GjQU.debug.temp.o
 .note.GNU-stack
                0x0000000000000000        0x0 /tmp/cc83GjQU.debug.temp.o
 .comment       0x0000000000000000       0x2b /tmp/ccU2jZmS.debug.temp.o
 .note.GNU-stack
                0x0000000000000000        0x0 /tmp/ccU2jZmS.debug.temp.o
 .comment       0x0000000000000000       0x2b /tmp/ccBU07sT.debug.temp.o
 .note.GNU-stack
                0x0000000000000000        0x0 /tmp/ccBU07sT.debug.temp.o
 .comment       0x0000000000000000       0x2b /tmp/ccb2vIuW.debug.temp.o
 .note.GNU-stack
                0x0000000000000000        0x0 /tmp/ccb2vIuW.debug.temp.o
 .comment       0x0000000000000000       0x2b /tmp/cc6eEBbU.debug.temp.o
 .note.GNU-stack
                0x0000000000000000        0x0 /tmp/cc6eEBbU.debug.temp.o
 .comment       0x0000000000000000       0x2b /tmp/ccuYKzjU.debug.temp.o
 .note.GNU-stack
                0x0000000000000000        0x0 /tmp/ccuYKzjU.debug.temp.o
 .comment       0x0000000000000000       0x2b /tmp/ccPkEYZV.debug.temp.o
 .note.GNU-stack
                0x0000000000000000        0x0 /tmp/ccPkEYZV.debug.temp.o
 .comment       0x0000000000000000       0x2b /tmp/cchbue5U.debug.temp.o
 .note.GNU-stack
                0x0000000000000000        0x0 /tmp/cchbue5U.debug.temp.o
 .comment       0x0000000000000000       0x2b /tmp/ccG22RQV.debug.temp.o
 .note.GNU-stack
                0x0000000000000000        0x0 /tmp/ccG22RQV.debug.temp.o
 .comment       0x0000000000000000       0x2b /tmp/ccY77A3V.debug.temp.o
 .note.GNU-stack
                0x0000000000000000        0x0 /tmp/ccY77A3V.debug.temp.o
 .comment       0x0000000000000000       0x2b /tmp/ccgLjDQU.debug.temp.o
 .note.GNU-stack
                0x0000000000000000        0x0 /tmp/ccgLjDQU.debug.temp.o
 .comment       0x0000000000000000       0x2b /tmp/ccHmHuMV.debug.temp.o
 .note.GNU-stack
                0x0000000000000000        0x0 /tmp/ccHmHuMV.debug.temp.o
 .comment       0x0000000000000000       0x2b /tmp/cc9sTS7S.debug.temp.o
 .note.GNU-stack
                0x0000000000000000        0x0 /tmp/cc9sTS7S.debug.temp.o
 .comment       0x0000000000000000       0x2b /tmp/ccVXLOhV.debug.temp.o
 .note.GNU-stack
                0x0000000000000000        0x0 /tmp/ccVXLOhV.debug.temp.o
 .comment       0x0000000000000000       0x2b /tmp/ccrvbceU.debug.temp.o
 .note.GNU-stack
                0x0000000000000000        0x0 /tmp/ccrvbceU.debug.temp.o
 .comment       0x0000000000000000       0x2b /tmp/cc2iAP5S.debug.temp.o
 .note.GNU-stack
                0x0000000000000000        0x0 /tmp/cc2iAP5S.debug.temp.o
 .comment       0x0000000000000000       0x2b /tmp/ccAOzO2T.debug.temp.o
 .note.GNU-stack
                0x0000000000000000        0x0 /tmp/ccAOzO2T.debug.temp.o
 .comment       0x0000000000000000       0x2b /tmp/ccr8mYQS.debug.temp.o
 .note.GNU-stack
                0x0000000000000000        0x0 /tmp/ccr8mYQS.debug.temp.o
 .comment       0x0000000000000000       0x2b /tmp/cc5il6gT.debug.temp.o
 .note.GNU-stack
                0x0000000000000000        0x0 /tmp/cc5il6gT.debug.temp.o
 .comment       0x0000000000000000       0x2b /tmp/ccKYTeuS.debug.temp.o
 .note.GNU-stack
                0x0000000000000000        0x0 /tmp/ccKYTeuS.debug.temp.o
 .comment       0x0000000000000000       0x2b /tmp/ccNFEGzU.debug.temp.o
 .note.GNU-stack
                0x0000000000000000        0x0 /tmp/ccNFEGzU.debug.temp.o
 .comment       0x0000000000000000       0x2b /tmp/ccbu5WVV.debug.temp.o
 .note.GNU-stack
                0x0000000000000000        0x0 /tmp/ccbu5WVV.debug.temp.o
 .comment       0x0000000000000000       0x2b /tmp/ccEcRpTS.debug.temp.o
 .note.GNU-stack
                0x0000000000000000        0x0 /tmp/ccEcRpTS.debug.temp.o
 .comment       0x0000000000000000       0x2b /tmp/ccd7faHV.debug.temp.o
 .note.GNU-stack
                0x0000000000000000        0x0 /tmp/ccd7faHV.debug.temp.o
 .comment       0x0000000000000000       0x2b /tmp/ccsxpLqU.debug.temp.o
 .note.GNU-stack
                0x0000000000000000        0x0 /tmp/ccsxpLqU.debug.temp.o
 .comment       0x0000000000000000       0x2b /tmp/cciun3sU.debug.temp.o
 .note.GNU-stack
                0x0000000000000000        0x0 /tmp/cciun3sU.debug.temp.o
 .comment       0x0000000000000000       0x2b /tmp/ccAIHhKS.debug.temp.o
 .note.GNU-stack
                0x0000000000000000        0x0 /tmp/ccAIHhKS.debug.temp.o
 .comment       0x0000000000000000       0x2b /tmp/cc8CaEwU.debug.temp.o
 .note.GNU-stack
                0x0000000000000000        0x0 /tmp/cc8CaEwU.debug.temp.o
 .comment       0x0000000000000000       0x2b /tmp/ccVDyBiT.debug.temp.o
 .note.GNU-stack
                0x0000000000000000        0x0 /tmp/ccVDyBiT.debug.temp.o
 .comment       0x0000000000000000       0x2b /tmp/cclHUyYT.debug.temp.o
 .note.GNU-stack
                0x0000000000000000        0x0 /tmp/cclHUyYT.debug.temp.o
 .comment       0x0000000000000000       0x2b /tmp/ccBGw1YU.debug.temp.o
 .note.GNU-stack
                0x0000000000000000        0x0 /tmp/ccBGw1YU.debug.temp.o
 .comment       0x0000000000000000       0x2b /tmp/ccx2Y9bU.debug.temp.o
 .note.GNU-stack
                0x0000000000000000        0x0 /tmp/ccx2Y9bU.debug.temp.o
 .comment       0x0000000000000000       0x2b /tmp/ccGGYZwV.debug.temp.o
 .note.GNU-stack
                0x0000000000000000        0x0 /tmp/ccGGYZwV.debug.temp.o
 .comment       0x0000000000000000       0x2b /tmp/ccMbrcFT.debug.temp.o
 .note.GNU-stack
                0x0000000000000000        0x0 /tmp/ccMbrcFT.debug.temp.o
 .comment       0x0000000000000000       0x2b /tmp/cc23NhOV.debug.temp.o
 .note.GNU-stack
                0x0000000000000000        0x0 /tmp/cc23NhOV.debug.temp.o
 .comment       0x0000000000000000       0x2b /tmp/cc1WiBFW.debug.temp.o
 .note.GNU-stack
                0x0000000000000000        0x0 /tmp/cc1WiBFW.debug.temp.o
 .comment       0x0000000000000000       0x2b /tmp/ccTLFFEU.debug.temp.o
 .note.GNU-stack
                0x0000000000000000        0x0 /tmp/ccTLFFEU.debug.temp.o
 .comment       0x0000000000000000       0x2b /tmp/cc2iJ6aU.debug.temp.o
 .note.GNU-stack
                0x0000000000000000        0x0 /tmp/cc2iJ6aU.debug.temp.o
 .comment       0x0000000000000000       0x2b /tmp/ccH6a2bW.debug.temp.o
 .note.GNU-stack
                0x0000000000000000        0x0 /tmp/ccH6a2bW.debug.temp.o
 .comment       0x0000000000000000       0x2b /tmp/ccgDdtGV.debug.temp.o
 .note.GNU-stack
                0x0000000000000000        0x0 /tmp/ccgDdtGV.debug.temp.o
 .comment       0x0000000000000000       0x2b /tmp/ccubYqHS.debug.temp.o
 .note.GNU-stack
                0x0000000000000000        0x0 /tmp/ccubYqHS.debug.temp.o
 .comment       0x0000000000000000       0x2b /tmp/cczC5oAW.debug.temp.o
 .note.GNU-stack
                0x0000000000000000        0x0 /tmp/cczC5oAW.debug.temp.o
 .comment       0x0000000000000000       0x2b /tmp/ccaefLcU.debug.temp.o
 .note.GNU-stack
                0x0000000000000000        0x0 /tmp/ccaefLcU.debug.temp.o
 .comment       0x0000000000000000       0x2b /tmp/cczHwnOS.debug.temp.o
 .note.GNU-stack
                0x0000000000000000        0x0 /tmp/cczHwnOS.debug.temp.o
 .comment       0x0000000000000000       0x2b /tmp/cc8MinTV.debug.temp.o
 .note.GNU-stack
                0x0000000000000000        0x0 /tmp/cc8MinTV.debug.temp.o
 .comment       0x0000000000000000       0x2b /tmp/cc0helvS.debug.temp.o
 .note.GNU-stack
                0x0000000000000000        0x0 /tmp/cc0helvS.debug.temp.o
 .comment       0x0000000000000000       0x2b /tmp/ccUIL1YV.debug.temp.o
 .note.GNU-stack
                0x0000000000000000        0x0 /tmp/ccUIL1YV.debug.temp.o
 .comment       0x0000000000000000       0x2b /tmp/cctuIwxS.debug.temp.o
 .note.GNU-stack
                0x0000000000000000        0x0 /tmp/cctuIwxS.debug.temp.o
 .comment       0x0000000000000000       0x2b /tmp/ccxi2OfT.debug.temp.o
 .note.GNU-stack
                0x0000000000000000        0x0 /tmp/ccxi2OfT.debug.temp.o
 .comment       0x0000000000000000       0x2b /tmp/ccrWZQIS.debug.temp.o
 .note.GNU-stack
                0x0000000000000000        0x0 /tmp/ccrWZQIS.debug.temp.o
 .comment       0x0000000000000000       0x2b /tmp/cceawc4U.debug.temp.o
 .note.GNU-stack
                0x0000000000000000        0x0 /tmp/cceawc4U.debug.temp.o
 .comment       0x0000000000000000       0x2b /tmp/ccOegDwS.debug.temp.o
 .note.GNU-stack
                0x0000000000000000        0x0 /tmp/ccOegDwS.debug.temp.o
 .comment       0x0000000000000000       0x2b /tmp/ccORg2DW.debug.temp.o
 .note.GNU-stack
                0x0000000000000000        0x0 /tmp/ccORg2DW.debug.temp.o
 .comment       0x0000000000000000       0x2b /tmp/ccWydsnS.debug.temp.o
 .note.GNU-stack
                0x0000000000000000        0x0 /tmp/ccWydsnS.debug.temp.o
 .comment       0x0000000000000000       0x2b /tmp/ccCy8huS.debug.temp.o
 .note.GNU-stack
                0x0000000000000000        0x0 /tmp/ccCy8huS.debug.temp.o
 .comment       0x0000000000000000       0x2b /tmp/ccZpUuwS.debug.temp.o
 .note.GNU-stack
                0x0000000000000000        0x0 /tmp/ccZpUuwS.debug.temp.o
 .comment       0x0000000000000000       0x2b /tmp/ccBKlLcT.debug.temp.o
 .note.GNU-stack
                0x0000000000000000        0x0 /tmp/ccBKlLcT.debug.temp.o
 .comment       0x0000000000000000       0x2b /tmp/ccbHxufU.debug.temp.o
 .note.GNU-stack
                0x0000000000000000        0x0 /tmp/ccbHxufU.debug.temp.o
 .comment       0x0000000000000000       0x2b /tmp/ccDOYTkW.debug.temp.o
 .note.GNU-stack
                0x0000000000000000        0x0 /tmp/ccDOYTkW.debug.temp.o
 .comment       0x0000000000000000       0x2b /tmp/ccGr723T.debug.temp.o
 .note.GNU-stack
                0x0000000000000000        0x0 /tmp/ccGr723T.debug.temp.o
 .comment       0x0000000000000000       0x2b /tmp/cc1IqBQW.debug.temp.o
 .note.GNU-stack
                0x0000000000000000        0x0 /tmp/cc1IqBQW.debug.temp.o
 .comment       0x0000000000000000       0x2b /tmp/cctg2KMV.debug.temp.o
 .note.GNU-stack
                0x0000000000000000        0x0 /tmp/cctg2KMV.debug.temp.o
 .comment       0x0000000000000000       0x2b /tmp/cc8ovJqW.debug.temp.o
 .note.GNU-stack
                0x0000000000000000        0x0 /tmp/cc8ovJqW.debug.temp.o
 .comment       0x0000000000000000       0x2b /tmp/ccMhFcyV.debug.temp.o
 .note.GNU-stack
                0x0000000000000000        0x0 /tmp/ccMhFcyV.debug.temp.o
 .comment       0x0000000000000000       0x2b /tmp/ccL8UzpW.debug.temp.o
 .note.GNU-stack
                0x0000000000000000        0x0 /tmp/ccL8UzpW.debug.temp.o
 .comment       0x0000000000000000       0x2b /tmp/ccvioZdT.debug.temp.o
 .note.GNU-stack
                0x0000000000000000        0x0 /tmp/ccvioZdT.debug.temp.o
 .comment       0x0000000000000000       0x2b /tmp/ccT3soPT.debug.temp.o
 .note.GNU-stack
                0x0000000000000000        0x0 /tmp/ccT3soPT.debug.temp.o
 .comment       0x0000000000000000       0x2b /tmp/cc4nJkrV.debug.temp.o
 .note.GNU-stack
                0x0000000000000000        0x0 /tmp/cc4nJkrV.debug.temp.o
 .comment       0x0000000000000000       0x2b /tmp/cciynRtV.debug.temp.o
 .note.GNU-stack
                0x0000000000000000        0x0 /tmp/cciynRtV.debug.temp.o
 .comment       0x0000000000000000       0x2b /tmp/cchhOsEW.debug.temp.o
 .note.GNU-stack
                0x0000000000000000        0x0 /tmp/cchhOsEW.debug.temp.o
 .comment       0x0000000000000000       0x2b /tmp/ccqGEDgW.debug.temp.o
 .note.GNU-stack
                0x0000000000000000        0x0 /tmp/ccqGEDgW.debug.temp.o
 .comment       0x0000000000000000       0x2b /tmp/cc0GnkNT.debug.temp.o
 .note.GNU-stack
                0x0000000000000000        0x0 /tmp/cc0GnkNT.debug.temp.o
 .comment       0x0000000000000000       0x2b /tmp/ccDP1gtU.debug.temp.o
 .note.GNU-stack
                0x0000000000000000        0x0 /tmp/ccDP1gtU.debug.temp.o
 .comment       0x0000000000000000       0x2b /tmp/cciaPlAS.debug.temp.o
 .note.GNU-stack
                0x0000000000000000        0x0 /tmp/cciaPlAS.debug.temp.o
 .comment       0x0000000000000000       0x2b /tmp/ccifzqTW.debug.temp.o
 .note.GNU-stack
                0x0000000000000000        0x0 /tmp/ccifzqTW.debug.temp.o
 .comment       0x0000000000000000       0x2b /tmp/ccj1RO3U.debug.temp.o
 .note.GNU-stack
                0x0000000000000000        0x0 /tmp/ccj1RO3U.debug.temp.o
 .comment       0x0000000000000000       0x2b /tmp/cce8yOpW.debug.temp.o
 .note.GNU-stack
                0x0000000000000000        0x0 /tmp/cce8yOpW.debug.temp.o
 .comment       0x0000000000000000       0x2b /tmp/ccaVZetW.debug.temp.o
 .note.GNU-stack
                0x0000000000000000        0x0 /tmp/ccaVZetW.debug.temp.o
 .comment       0x0000000000000000       0x2b /tmp/ccUI50pU.debug.temp.o
 .note.GNU-stack
                0x0000000000000000        0x0 /tmp/ccUI50pU.debug.temp.o
 .comment       0x0000000000000000       0x2b /tmp/cc690maU.debug.temp.o
 .note.GNU-stack
                0x0000000000000000        0x0 /tmp/cc690maU.debug.temp.o
 .comment       0x0000000000000000       0x2b /tmp/ccpl0q2T.debug.temp.o
 .note.GNU-stack
                0x0000000000000000        0x0 /tmp/ccpl0q2T.debug.temp.o
 .comment       0x0000000000000000       0x2b /tmp/ccBcs4yW.debug.temp.o
 .note.GNU-stack
                0x0000000000000000        0x0 /tmp/ccBcs4yW.debug.temp.o
 .comment       0x0000000000000000       0x2b /tmp/ccb7z9CV.debug.temp.o
 .note.GNU-stack
                0x0000000000000000        0x0 /tmp/ccb7z9CV.debug.temp.o
 .comment       0x0000000000000000       0x2b /tmp/ccrZaAoT.debug.temp.o
 .note.GNU-stack
                0x0000000000000000        0x0 /tmp/ccrZaAoT.debug.temp.o
 .comment       0x0000000000000000       0x2b /tmp/ccPADlIU.debug.temp.o
 .note.GNU-stack
                0x0000000000000000        0x0 /tmp/ccPADlIU.debug.temp.o
 .comment       0x0000000000000000       0x2b /tmp/cc46JdRT.debug.temp.o
 .note.GNU-stack
                0x0000000000000000        0x0 /tmp/cc46JdRT.debug.temp.o
 .comment       0x0000000000000000       0x2b /tmp/ccJhsNtU.debug.temp.o
 .note.GNU-stack
                0x0000000000000000        0x0 /tmp/ccJhsNtU.debug.temp.o
 .comment       0x0000000000000000       0x2b /tmp/ccSMLCnT.debug.temp.o
 .note.GNU-stack
                0x0000000000000000        0x0 /tmp/ccSMLCnT.debug.temp.o
 .comment       0x0000000000000000       0x2b /tmp/ccjLMrfV.debug.temp.o
 .note.GNU-stack
                0x0000000000000000        0x0 /tmp/ccjLMrfV.debug.temp.o
 .comment       0x0000000000000000       0x2b /tmp/ccNbJpfV.debug.temp.o
 .note.GNU-stack
                0x0000000000000000        0x0 /tmp/ccNbJpfV.debug.temp.o
 .comment       0x0000000000000000       0x2b /tmp/ccNE2pkT.debug.temp.o
 .note.GNU-stack
                0x0000000000000000        0x0 /tmp/ccNE2pkT.debug.temp.o
 .comment       0x0000000000000000       0x2b /tmp/ccbOU45T.debug.temp.o
 .note.GNU-stack
                0x0000000000000000        0x0 /tmp/ccbOU45T.debug.temp.o
 .comment       0x0000000000000000       0x2b /tmp/ccO8zwbW.debug.temp.o
 .note.GNU-stack
                0x0000000000000000        0x0 /tmp/ccO8zwbW.debug.temp.o
 .comment       0x0000000000000000       0x2b /tmp/ccVZMaSV.debug.temp.o
 .note.GNU-stack
                0x0000000000000000        0x0 /tmp/ccVZMaSV.debug.temp.o
 .comment       0x0000000000000000       0x2b /tmp/ccOGT5tS.debug.temp.o
 .note.GNU-stack
                0x0000000000000000        0x0 /tmp/ccOGT5tS.debug.temp.o
 .comment       0x0000000000000000       0x2b /tmp/cc9zLPrS.debug.temp.o
 .note.GNU-stack
                0x0000000000000000        0x0 /tmp/cc9zLPrS.debug.temp.o
 .comment       0x0000000000000000       0x2b /tmp/ccLtp4DW.debug.temp.o
 .note.GNU-stack
                0x0000000000000000        0x0 /tmp/ccLtp4DW.debug.temp.o
 .comment       0x0000000000000000       0x2b /tmp/cceJWmIT.debug.temp.o
 .note.GNU-stack
                0x0000000000000000        0x0 /tmp/cceJWmIT.debug.temp.o
 .comment       0x0000000000000000       0x2b /tmp/cc9WN4lU.debug.temp.o
 .note.GNU-stack
                0x0000000000000000        0x0 /tmp/cc9WN4lU.debug.temp.o
 .comment       0x0000000000000000       0x2b /tmp/cc9GooRT.debug.temp.o
 .note.GNU-stack
                0x0000000000000000        0x0 /tmp/cc9GooRT.debug.temp.o
 .comment       0x0000000000000000       0x2b /tmp/ccUehd3U.debug.temp.o
 .note.GNU-stack
                0x0000000000000000        0x0 /tmp/ccUehd3U.debug.temp.o
 .comment       0x0000000000000000       0x2b /tmp/ccUta1jU.debug.temp.o
 .note.GNU-stack
                0x0000000000000000        0x0 /tmp/ccUta1jU.debug.temp.o
 .comment       0x0000000000000000       0x2b /tmp/ccoo6QiU.debug.temp.o
 .note.GNU-stack
                0x0000000000000000        0x0 /tmp/ccoo6QiU.debug.temp.o
 .comment       0x0000000000000000       0x2b /tmp/ccWzyLNS.debug.temp.o
 .note.GNU-stack
                0x0000000000000000        0x0 /tmp/ccWzyLNS.debug.temp.o
 .comment       0x0000000000000000       0x2b /tmp/ccI9JgtS.debug.temp.o
 .note.GNU-stack
                0x0000000000000000        0x0 /tmp/ccI9JgtS.debug.temp.o
 .comment       0x0000000000000000       0x2b /tmp/ccC7ZLbW.debug.temp.o
 .note.GNU-stack
                0x0000000000000000        0x0 /tmp/ccC7ZLbW.debug.temp.o
 .comment       0x0000000000000000       0x2b /tmp/ccJaZl3U.debug.temp.o
 .note.GNU-stack
                0x0000000000000000        0x0 /tmp/ccJaZl3U.debug.temp.o
 .comment       0x0000000000000000       0x2b /tmp/ccAtpCkV.debug.temp.o
 .note.GNU-stack
                0x0000000000000000        0x0 /tmp/ccAtpCkV.debug.temp.o
 .comment       0x0000000000000000       0x2b /tmp/ccsR9G7T.debug.temp.o
 .note.GNU-stack
                0x0000000000000000        0x0 /tmp/ccsR9G7T.debug.temp.o
 .comment       0x0000000000000000       0x2b /tmp/ccP4YuRV.debug.temp.o
 .note.GNU-stack
                0x0000000000000000        0x0 /tmp/ccP4YuRV.debug.temp.o
 .comment       0x0000000000000000       0x2b /tmp/ccEBohlU.debug.temp.o
 .note.GNU-stack
                0x0000000000000000        0x0 /tmp/ccEBohlU.debug.temp.o
 .comment       0x0000000000000000       0x2b /tmp/cck37OXU.debug.temp.o
 .note.GNU-stack
                0x0000000000000000        0x0 /tmp/cck37OXU.debug.temp.o
 .comment       0x0000000000000000       0x2b /tmp/ccmNQLJT.debug.temp.o
 .note.GNU-stack
                0x0000000000000000        0x0 /tmp/ccmNQLJT.debug.temp.o
 .comment       0x0000000000000000       0x2b /tmp/cc5lN8CW.debug.temp.o
 .note.GNU-stack
                0x0000000000000000        0x0 /tmp/cc5lN8CW.debug.temp.o
 .comment       0x0000000000000000       0x2b /tmp/ccY8wbZU.debug.temp.o
 .note.GNU-stack
                0x0000000000000000        0x0 /tmp/ccY8wbZU.debug.temp.o
 .comment       0x0000000000000000       0x2b /tmp/ccUVVXsT.debug.temp.o
 .note.GNU-stack
                0x0000000000000000        0x0 /tmp/ccUVVXsT.debug.temp.o
 .comment       0x0000000000000000       0x2b /tmp/cca5uoFT.debug.temp.o
 .note.GNU-stack
                0x0000000000000000        0x0 /tmp/cca5uoFT.debug.temp.o
 .comment       0x0000000000000000       0x2b /tmp/ccOBtIJV.debug.temp.o
 .note.GNU-stack
                0x0000000000000000        0x0 /tmp/ccOBtIJV.debug.temp.o
 .comment       0x0000000000000000       0x2b /tmp/ccX1rlKU.debug.temp.o
 .note.GNU-stack
                0x0000000000000000        0x0 /tmp/ccX1rlKU.debug.temp.o
 .comment       0x0000000000000000       0x2b /tmp/ccCZpOKV.debug.temp.o
 .note.GNU-stack
                0x0000000000000000        0x0 /tmp/ccCZpOKV.debug.temp.o
 .comment       0x0000000000000000       0x2b /tmp/cc8PtiPV.debug.temp.o
 .note.GNU-stack
                0x0000000000000000        0x0 /tmp/cc8PtiPV.debug.temp.o
 .comment       0x0000000000000000       0x2b /tmp/ccfqZ9rW.debug.temp.o
 .note.GNU-stack
                0x0000000000000000        0x0 /tmp/ccfqZ9rW.debug.temp.o
 .comment       0x0000000000000000       0x2b /tmp/ccuXtMyT.debug.temp.o
 .note.GNU-stack
                0x0000000000000000        0x0 /tmp/ccuXtMyT.debug.temp.o
 .comment       0x0000000000000000       0x2b /tmp/ccDF7kRU.debug.temp.o
 .note.GNU-stack
                0x0000000000000000        0x0 /tmp/ccDF7kRU.debug.temp.o
 .comment       0x0000000000000000       0x2b /tmp/ccEhhcfV.debug.temp.o
 .note.GNU-stack
                0x0000000000000000        0x0 /tmp/ccEhhcfV.debug.temp.o
 .comment       0x0000000000000000       0x2b /tmp/ccodCLHT.debug.temp.o
 .note.GNU-stack
                0x0000000000000000        0x0 /tmp/ccodCLHT.debug.temp.o
 .comment       0x0000000000000000       0x2b /tmp/ccAmeYlV.debug.temp.o
 .note.GNU-stack
                0x0000000000000000        0x0 /tmp/ccAmeYlV.debug.temp.o
 .comment       0x0000000000000000       0x2b /tmp/ccBwjDDU.debug.temp.o
 .note.GNU-stack
                0x0000000000000000        0x0 /tmp/ccBwjDDU.debug.temp.o
 .comment       0x0000000000000000       0x2b /tmp/ccIjgDwT.debug.temp.o
 .note.GNU-stack
                0x0000000000000000        0x0 /tmp/ccIjgDwT.debug.temp.o
 .comment       0x0000000000000000       0x2b /tmp/cc3vxIWT.debug.temp.o
 .note.GNU-stack
                0x0000000000000000        0x0 /tmp/cc3vxIWT.debug.temp.o
 .comment       0x0000000000000000       0x2b /tmp/ccspgomT.debug.temp.o
 .note.GNU-stack
                0x0000000000000000        0x0 /tmp/ccspgomT.debug.temp.o
 .comment       0x0000000000000000       0x2b /tmp/ccZKQSRV.debug.temp.o
 .note.GNU-stack
                0x0000000000000000        0x0 /tmp/ccZKQSRV.debug.temp.o
 .comment       0x0000000000000000       0x2b /tmp/ccsGqqxV.debug.temp.o
 .note.GNU-stack
                0x0000000000000000        0x0 /tmp/ccsGqqxV.debug.temp.o
 .comment       0x0000000000000000       0x2b /tmp/ccmqBaKT.debug.temp.o
 .note.GNU-stack
                0x0000000000000000        0x0 /tmp/ccmqBaKT.debug.temp.o
 .comment       0x0000000000000000       0x2b /tmp/ccB83YLU.debug.temp.o
 .note.GNU-stack
                0x0000000000000000        0x0 /tmp/ccB83YLU.debug.temp.o
 .comment       0x0000000000000000       0x2b /tmp/ccp96oPU.debug.temp.o
 .note.GNU-stack
                0x0000000000000000        0x0 /tmp/ccp96oPU.debug.temp.o
 .comment       0x0000000000000000       0x2b /tmp/ccNva68V.debug.temp.o
 .note.GNU-stack
                0x0000000000000000        0x0 /tmp/ccNva68V.debug.temp.o
 .comment       0x0000000000000000       0x2b /tmp/ccQB7PFT.debug.temp.o
 .note.GNU-stack
                0x0000000000000000        0x0 /tmp/ccQB7PFT.debug.temp.o
 .debug_info    0x0000000000000000      0x89f /tmp/ccp72PxT.debug.temp.o
 .debug_abbrev  0x0000000000000000       0xf9 /tmp/ccp72PxT.debug.temp.o
 .debug_line    0x0000000000000000      0x149 /tmp/ccp72PxT.debug.temp.o
 .debug_str     0x0000000000000000      0x64e /tmp/ccp72PxT.debug.temp.o
 .comment       0x0000000000000000       0x2b /tmp/ccp72PxT.debug.temp.o
 .note.GNU-stack
                0x0000000000000000        0x0 /tmp/ccp72PxT.debug.temp.o
 .comment       0x0000000000000000       0x2b /tmp/ccwjP3xW.debug.temp.o
 .note.GNU-stack
                0x0000000000000000        0x0 /tmp/ccwjP3xW.debug.temp.o
 .comment       0x0000000000000000       0x2b /tmp/ccJDOhvV.debug.temp.o
 .note.GNU-stack
                0x0000000000000000        0x0 /tmp/ccJDOhvV.debug.temp.o
 .comment       0x0000000000000000       0x2b /tmp/cc2sr11S.debug.temp.o
 .note.GNU-stack
                0x0000000000000000        0x0 /tmp/cc2sr11S.debug.temp.o
 .comment       0x0000000000000000       0x2b /tmp/ccg62DaU.debug.temp.o
 .note.GNU-stack
                0x0000000000000000        0x0 /tmp/ccg62DaU.debug.temp.o
 .comment       0x0000000000000000       0x2b /tmp/cc6OPivS.debug.temp.o
 .note.GNU-stack
                0x0000000000000000        0x0 /tmp/cc6OPivS.debug.temp.o
 .comment       0x0000000000000000       0x2b /tmp/ccy42MRU.debug.temp.o
 .note.GNU-stack
                0x0000000000000000        0x0 /tmp/ccy42MRU.debug.temp.o
 .comment       0x0000000000000000       0x2b /tmp/ccCR9OVT.debug.temp.o
 .note.GNU-stack
                0x0000000000000000        0x0 /tmp/ccCR9OVT.debug.temp.o
 .comment       0x0000000000000000       0x2b /tmp/ccrbsjdV.debug.temp.o
 .note.GNU-stack
                0x0000000000000000        0x0 /tmp/ccrbsjdV.debug.temp.o
 .comment       0x0000000000000000       0x2b /tmp/ccRCyT6V.debug.temp.o
 .note.GNU-stack
                0x0000000000000000        0x0 /tmp/ccRCyT6V.debug.temp.o
 .comment       0x0000000000000000       0x2b /tmp/cciNAa2U.debug.temp.o
 .note.GNU-stack
                0x0000000000000000        0x0 /tmp/cciNAa2U.debug.temp.o
 .comment       0x0000000000000000       0x2b /tmp/ccs2uZuW.debug.temp.o
 .note.GNU-stack
                0x0000000000000000        0x0 /tmp/ccs2uZuW.debug.temp.o
 .comment       0x0000000000000000       0x2b /tmp/ccQ1gsgU.debug.temp.o
 .note.GNU-stack
                0x0000000000000000        0x0 /tmp/ccQ1gsgU.debug.temp.o
 .comment       0x0000000000000000       0x2b /tmp/cce72MmT.debug.temp.o
 .note.GNU-stack
                0x0000000000000000        0x0 /tmp/cce72MmT.debug.temp.o
 .comment       0x0000000000000000       0x2b /tmp/ccJs0AqU.debug.temp.o
 .note.GNU-stack
                0x0000000000000000        0x0 /tmp/ccJs0AqU.debug.temp.o
 .comment       0x0000000000000000       0x2b /tmp/ccXgmS3T.debug.temp.o
 .note.GNU-stack
                0x0000000000000000        0x0 /tmp/ccXgmS3T.debug.temp.o
 .debug_info    0x0000000000000000     0x272c /tmp/ccA9A3ZU.debug.temp.o
 .debug_abbrev  0x0000000000000000      0x214 /tmp/ccA9A3ZU.debug.temp.o
 .debug_line    0x0000000000000000      0x4d7 /tmp/ccA9A3ZU.debug.temp.o
 .debug_str     0x0000000000000000     0x2812 /tmp/ccA9A3ZU.debug.temp.o
 .comment       0x0000000000000000       0x2b /tmp/ccA9A3ZU.debug.temp.o
 .note.GNU-stack
                0x0000000000000000        0x0 /tmp/ccA9A3ZU.debug.temp.o
 .comment       0x0000000000000000       0x2b /tmp/ccBHQORW.debug.temp.o
 .note.GNU-stack
                0x0000000000000000        0x0 /tmp/ccBHQORW.debug.temp.o
 .debug_info    0x0000000000000000     0x2b62 /tmp/ccD94gIV.debug.temp.o
 .debug_abbrev  0x0000000000000000      0x258 /tmp/ccD94gIV.debug.temp.o
 .debug_line    0x0000000000000000      0x573 /tmp/ccD94gIV.debug.temp.o
 .debug_str     0x0000000000000000     0x2b95 /tmp/ccD94gIV.debug.temp.o
 .comment       0x0000000000000000       0x2b /tmp/ccD94gIV.debug.temp.o
 .note.GNU-stack
                0x0000000000000000        0x0 /tmp/ccD94gIV.debug.temp.o
 .debug_info    0x0000000000000000     0x3e41 /tmp/ccvIoGGU.debug.temp.o
 .debug_abbrev  0x0000000000000000      0x281 /tmp/ccvIoGGU.debug.temp.o
 .debug_line    0x0000000000000000      0x61f /tmp/ccvIoGGU.debug.temp.o
 .debug_str     0x0000000000000000     0x3656 /tmp/ccvIoGGU.debug.temp.o
 .comment       0x0000000000000000       0x2b /tmp/ccvIoGGU.debug.temp.o
 .note.GNU-stack
                0x0000000000000000        0x0 /tmp/ccvIoGGU.debug.temp.o
 .debug_info    0x0000000000000000     0x5375 /tmp/ccBtwrSV.debug.temp.o
 .debug_abbrev  0x0000000000000000      0x382 /tmp/ccBtwrSV.debug.temp.o
 .debug_line    0x0000000000000000      0x5f0 /tmp/ccBtwrSV.debug.temp.o
 .debug_str     0x0000000000000000     0x42eb /tmp/ccBtwrSV.debug.temp.o
 .comment       0x0000000000000000       0x2b /tmp/ccBtwrSV.debug.temp.o
 .note.GNU-stack
                0x0000000000000000        0x0 /tmp/ccBtwrSV.debug.temp.o
 .debug_info    0x0000000000000000     0x2e99 /tmp/cccYYSVS.debug.temp.o
 .debug_abbrev  0x0000000000000000      0x2e5 /tmp/cccYYSVS.debug.temp.o
 .debug_line    0x0000000000000000      0x539 /tmp/cccYYSVS.debug.temp.o
 .debug_str     0x0000000000000000     0x2a4b /tmp/cccYYSVS.debug.temp.o
 .comment       0x0000000000000000       0x2b /tmp/cccYYSVS.debug.temp.o
 .note.GNU-stack
                0x0000000000000000        0x0 /tmp/cccYYSVS.debug.temp.o
 .debug_info    0x0000000000000000     0x281e /tmp/ccfkaNxU.debug.temp.o
 .debug_abbrev  0x0000000000000000      0x26c /tmp/ccfkaNxU.debug.temp.o
 .debug_line    0x0000000000000000      0x56c /tmp/ccfkaNxU.debug.temp.o
 .debug_str     0x0000000000000000     0x27e8 /tmp/ccfkaNxU.debug.temp.o
 .comment       0x0000000000000000       0x2b /tmp/ccfkaNxU.debug.temp.o
 .note.GNU-stack
                0x0000000000000000        0x0 /tmp/ccfkaNxU.debug.temp.o
 .debug_info    0x0000000000000000      0x1e7 /tmp/ccbSMZJW.debug.temp.o
 .debug_abbrev  0x0000000000000000       0xc0 /tmp/ccbSMZJW.debug.temp.o
 .debug_line    0x0000000000000000      0x14c /tmp/ccbSMZJW.debug.temp.o
 .debug_str     0x0000000000000000      0x471 /tmp/ccbSMZJW.debug.temp.o
 .comment       0x0000000000000000       0x2b /tmp/ccbSMZJW.debug.temp.o
 .note.GNU-stack
                0x0000000000000000        0x0 /tmp/ccbSMZJW.debug.temp.o
 .debug_info    0x0000000000000000      0x502 /tmp/cc50h5tW.debug.temp.o
 .debug_abbrev  0x0000000000000000      0x124 /tmp/cc50h5tW.debug.temp.o
 .debug_line    0x0000000000000000      0x2b0 /tmp/cc50h5tW.debug.temp.o
 .debug_str     0x0000000000000000      0x6b3 /tmp/cc50h5tW.debug.temp.o
 .comment       0x0000000000000000       0x2b /tmp/cc50h5tW.debug.temp.o
 .note.GNU-stack
                0x0000000000000000        0x0 /tmp/cc50h5tW.debug.temp.o
 .debug_info    0x0000000000000000     0x2756 /tmp/ccnrdXiU.debug.temp.o
 .debug_abbrev  0x0000000000000000      0x225 /tmp/ccnrdXiU.debug.temp.o
 .debug_line    0x0000000000000000      0x48b /tmp/ccnrdXiU.debug.temp.o
 .debug_str     0x0000000000000000     0x1f13 /tmp/ccnrdXiU.debug.temp.o
 .comment       0x0000000000000000       0x2b /tmp/ccnrdXiU.debug.temp.o
 .note.GNU-stack
                0x0000000000000000        0x0 /tmp/ccnrdXiU.debug.temp.o
 .debug_info    0x0000000000000000     0x1c8c /tmp/cc4NutHT.debug.temp.o
 .debug_abbrev  0x0000000000000000      0x240 /tmp/cc4NutHT.debug.temp.o
 .debug_line    0x0000000000000000      0x386 /tmp/cc4NutHT.debug.temp.o
 .debug_str     0x0000000000000000     0x1885 /tmp/cc4NutHT.debug.temp.o
 .comment       0x0000000000000000       0x2b /tmp/cc4NutHT.debug.temp.o
 .note.GNU-stack
                0x0000000000000000        0x0 /tmp/cc4NutHT.debug.temp.o
 .data          0x0000000000000000        0x0 /home/alastair/pftf-rpi4/Build/RPi4/DEBUG_GCC5/AARCH64/MdePkg/Library/BaseMemoryLibOptDxe/BaseMemoryLibOptDxe/OUTPUT/BaseMemoryLibOptDxe.lib(SetMem.obj)
 .bss           0x0000000000000000        0x0 /home/alastair/pftf-rpi4/Build/RPi4/DEBUG_GCC5/AARCH64/MdePkg/Library/BaseMemoryLibOptDxe/BaseMemoryLibOptDxe/OUTPUT/BaseMemoryLibOptDxe.lib(SetMem.obj)
 .data          0x0000000000000000        0x0 /home/alastair/pftf-rpi4/Build/RPi4/DEBUG_GCC5/AARCH64/MdePkg/Library/BaseMemoryLibOptDxe/BaseMemoryLibOptDxe/OUTPUT/BaseMemoryLibOptDxe.lib(CopyMem.obj)
 .bss           0x0000000000000000        0x0 /home/alastair/pftf-rpi4/Build/RPi4/DEBUG_GCC5/AARCH64/MdePkg/Library/BaseMemoryLibOptDxe/BaseMemoryLibOptDxe/OUTPUT/BaseMemoryLibOptDxe.lib(CopyMem.obj)
 .data          0x0000000000000000        0x0 /home/alastair/pftf-rpi4/Build/RPi4/DEBUG_GCC5/AARCH64/MdePkg/Library/BaseMemoryLibOptDxe/BaseMemoryLibOptDxe/OUTPUT/BaseMemoryLibOptDxe.lib(CompareGuid.obj)
 .bss           0x0000000000000000        0x0 /home/alastair/pftf-rpi4/Build/RPi4/DEBUG_GCC5/AARCH64/MdePkg/Library/BaseMemoryLibOptDxe/BaseMemoryLibOptDxe/OUTPUT/BaseMemoryLibOptDxe.lib(CompareGuid.obj)
 .data          0x0000000000000000        0x0 /home/alastair/pftf-rpi4/Build/RPi4/DEBUG_GCC5/AARCH64/MdePkg/Library/BaseLib/BaseLib/OUTPUT/BaseLib.lib(CpuBreakpoint.obj)
 .bss           0x0000000000000000        0x0 /home/alastair/pftf-rpi4/Build/RPi4/DEBUG_GCC5/AARCH64/MdePkg/Library/BaseLib/BaseLib/OUTPUT/BaseLib.lib(CpuBreakpoint.obj)
 .data          0x0000000000000000        0x0 /home/alastair/pftf-rpi4/Build/RPi4/DEBUG_GCC5/AARCH64/MdePkg/Library/BaseMemoryLibOptDxe/BaseMemoryLibOptDxe/OUTPUT/BaseMemoryLibOptDxe.lib(CompareMem.obj)
 .bss           0x0000000000000000        0x0 /home/alastair/pftf-rpi4/Build/RPi4/DEBUG_GCC5/AARCH64/MdePkg/Library/BaseMemoryLibOptDxe/BaseMemoryLibOptDxe/OUTPUT/BaseMemoryLibOptDxe.lib(CompareMem.obj)

Memory Configuration

Name             Origin             Length             Attributes
*default*        0x0000000000000000 0xffffffffffffffff

Linker script and memory map

LOAD /home/alastair/pftf-rpi4/edk2/ArmPkg/Library/GccLto/liblto-aarch64.a
START GROUP
LOAD /tmp/Shell.dll.y4Q2gW.ltrans0.ltrans.o
LOAD /tmp/Shell.dll.y4Q2gW.ltrans1.ltrans.o
LOAD /tmp/Shell.dll.y4Q2gW.ltrans2.ltrans.o
LOAD /tmp/Shell.dll.y4Q2gW.ltrans3.ltrans.o
LOAD /tmp/Shell.dll.y4Q2gW.ltrans4.ltrans.o
LOAD /tmp/Shell.dll.y4Q2gW.ltrans5.ltrans.o
LOAD /tmp/Shell.dll.y4Q2gW.ltrans6.ltrans.o
LOAD /tmp/Shell.dll.y4Q2gW.ltrans7.ltrans.o
LOAD /tmp/Shell.dll.y4Q2gW.ltrans8.ltrans.o
LOAD /tmp/Shell.dll.y4Q2gW.ltrans9.ltrans.o
LOAD /tmp/Shell.dll.y4Q2gW.ltrans10.ltrans.o
LOAD /tmp/Shell.dll.y4Q2gW.ltrans11.ltrans.o
LOAD /tmp/Shell.dll.y4Q2gW.ltrans12.ltrans.o
LOAD /tmp/cc7pi0HV.debug.temp.o
LOAD /tmp/cc7WKLeT.debug.temp.o
LOAD /tmp/ccMLC2CU.debug.temp.o
LOAD /tmp/cciWvgCV.debug.temp.o
LOAD /tmp/cceaCk0T.debug.temp.o
LOAD /tmp/ccHCQrUV.debug.temp.o
LOAD /tmp/ccgVca7V.debug.temp.o
LOAD /tmp/ccSoANcW.debug.temp.o
LOAD /tmp/cckZCEWS.debug.temp.o
LOAD /tmp/cc1oUDJW.debug.temp.o
LOAD /tmp/ccSrSZ7S.debug.temp.o
LOAD /tmp/cctymDnS.debug.temp.o
LOAD /tmp/cc6UF2TW.debug.temp.o
LOAD /tmp/ccVMJQJW.debug.temp.o
LOAD /tmp/cc2N3bmU.debug.temp.o
LOAD /tmp/ccaPKC5U.debug.temp.o
LOAD /tmp/ccV3HmTU.debug.temp.o
LOAD /tmp/ccg2LlnW.debug.temp.o
LOAD /tmp/ccRwUbDW.debug.temp.o
LOAD /tmp/ccpSR5GS.debug.temp.o
LOAD /tmp/ccpwISAW.debug.temp.o
LOAD /tmp/ccovLV6U.debug.temp.o
LOAD /tmp/ccAZTmyT.debug.temp.o
LOAD /tmp/ccqaOkGT.debug.temp.o
LOAD /tmp/cc5PXCZV.debug.temp.o
LOAD /tmp/ccSgv2mV.debug.temp.o
LOAD /tmp/ccl5HjXV.debug.temp.o
LOAD /tmp/ccW4bUiW.debug.temp.o
LOAD /tmp/ccF5S6TT.debug.temp.o
LOAD /tmp/ccDT2ekU.debug.temp.o
LOAD /tmp/cc6ovEsV.debug.temp.o
LOAD /tmp/ccnxzAxW.debug.temp.o
LOAD /tmp/ccZAJdkU.debug.temp.o
LOAD /tmp/ccF0pR8V.debug.temp.o
LOAD /tmp/cctaQZIT.debug.temp.o
LOAD /tmp/cc61M7GU.debug.temp.o
LOAD /tmp/ccpfxNYT.debug.temp.o
LOAD /tmp/ccrl5OEU.debug.temp.o
LOAD /tmp/ccdt2FPT.debug.temp.o
LOAD /tmp/cckyXCBS.debug.temp.o
LOAD /tmp/ccMh0lkW.debug.temp.o
LOAD /tmp/ccE1kPmU.debug.temp.o
LOAD /tmp/ccGQy2GW.debug.temp.o
LOAD /tmp/cc83GjQU.debug.temp.o
LOAD /tmp/ccU2jZmS.debug.temp.o
LOAD /tmp/ccBU07sT.debug.temp.o
LOAD /tmp/ccb2vIuW.debug.temp.o
LOAD /tmp/cc6eEBbU.debug.temp.o
LOAD /tmp/ccuYKzjU.debug.temp.o
LOAD /tmp/ccPkEYZV.debug.temp.o
LOAD /tmp/cchbue5U.debug.temp.o
LOAD /tmp/ccG22RQV.debug.temp.o
LOAD /tmp/ccY77A3V.debug.temp.o
LOAD /tmp/ccgLjDQU.debug.temp.o
LOAD /tmp/ccHmHuMV.debug.temp.o
LOAD /tmp/cc9sTS7S.debug.temp.o
LOAD /tmp/ccVXLOhV.debug.temp.o
LOAD /tmp/ccrvbceU.debug.temp.o
LOAD /tmp/cc2iAP5S.debug.temp.o
LOAD /tmp/ccAOzO2T.debug.temp.o
LOAD /tmp/ccr8mYQS.debug.temp.o
LOAD /tmp/cc5il6gT.debug.temp.o
LOAD /tmp/ccKYTeuS.debug.temp.o
LOAD /tmp/ccNFEGzU.debug.temp.o
LOAD /tmp/ccbu5WVV.debug.temp.o
LOAD /tmp/ccEcRpTS.debug.temp.o
LOAD /tmp/ccd7faHV.debug.temp.o
LOAD /tmp/ccsxpLqU.debug.temp.o
LOAD /tmp/cciun3sU.debug.temp.o
LOAD /tmp/ccAIHhKS.debug.temp.o
LOAD /tmp/cc8CaEwU.debug.temp.o
LOAD /tmp/ccVDyBiT.debug.temp.o
LOAD /tmp/cclHUyYT.debug.temp.o
LOAD /tmp/ccBGw1YU.debug.temp.o
LOAD /tmp/ccx2Y9bU.debug.temp.o
LOAD /tmp/ccGGYZwV.debug.temp.o
LOAD /tmp/ccMbrcFT.debug.temp.o
LOAD /tmp/cc23NhOV.debug.temp.o
LOAD /tmp/cc1WiBFW.debug.temp.o
LOAD /tmp/ccTLFFEU.debug.temp.o
LOAD /tmp/cc2iJ6aU.debug.temp.o
LOAD /tmp/ccH6a2bW.debug.temp.o
LOAD /tmp/ccgDdtGV.debug.temp.o
LOAD /tmp/ccubYqHS.debug.temp.o
LOAD /tmp/cczC5oAW.debug.temp.o
LOAD /tmp/ccaefLcU.debug.temp.o
LOAD /tmp/cczHwnOS.debug.temp.o
LOAD /tmp/cc8MinTV.debug.temp.o
LOAD /tmp/cc0helvS.debug.temp.o
LOAD /tmp/ccUIL1YV.debug.temp.o
LOAD /tmp/cctuIwxS.debug.temp.o
LOAD /tmp/ccxi2OfT.debug.temp.o
LOAD /tmp/ccrWZQIS.debug.temp.o
LOAD /tmp/cceawc4U.debug.temp.o
LOAD /tmp/ccOegDwS.debug.temp.o
LOAD /tmp/ccORg2DW.debug.temp.o
LOAD /tmp/ccWydsnS.debug.temp.o
LOAD /tmp/ccCy8huS.debug.temp.o
LOAD /tmp/ccZpUuwS.debug.temp.o
LOAD /tmp/ccBKlLcT.debug.temp.o
LOAD /tmp/ccbHxufU.debug.temp.o
LOAD /tmp/ccDOYTkW.debug.temp.o
LOAD /tmp/ccGr723T.debug.temp.o
LOAD /tmp/cc1IqBQW.debug.temp.o
LOAD /tmp/cctg2KMV.debug.temp.o
LOAD /tmp/cc8ovJqW.debug.temp.o
LOAD /tmp/ccMhFcyV.debug.temp.o
LOAD /tmp/ccL8UzpW.debug.temp.o
LOAD /tmp/ccvioZdT.debug.temp.o
LOAD /tmp/ccT3soPT.debug.temp.o
LOAD /tmp/cc4nJkrV.debug.temp.o
LOAD /tmp/cciynRtV.debug.temp.o
LOAD /tmp/cchhOsEW.debug.temp.o
LOAD /tmp/ccqGEDgW.debug.temp.o
LOAD /tmp/cc0GnkNT.debug.temp.o
LOAD /tmp/ccDP1gtU.debug.temp.o
LOAD /tmp/cciaPlAS.debug.temp.o
LOAD /tmp/ccifzqTW.debug.temp.o
LOAD /tmp/ccj1RO3U.debug.temp.o
LOAD /tmp/cce8yOpW.debug.temp.o
LOAD /tmp/ccaVZetW.debug.temp.o
LOAD /tmp/ccUI50pU.debug.temp.o
LOAD /tmp/cc690maU.debug.temp.o
LOAD /tmp/ccpl0q2T.debug.temp.o
LOAD /tmp/ccBcs4yW.debug.temp.o
LOAD /tmp/ccb7z9CV.debug.temp.o
LOAD /tmp/ccrZaAoT.debug.temp.o
LOAD /tmp/ccPADlIU.debug.temp.o
LOAD /tmp/cc46JdRT.debug.temp.o
LOAD /tmp/ccJhsNtU.debug.temp.o
LOAD /tmp/ccSMLCnT.debug.temp.o
LOAD /tmp/ccjLMrfV.debug.temp.o
LOAD /tmp/ccNbJpfV.debug.temp.o
LOAD /tmp/ccNE2pkT.debug.temp.o
LOAD /tmp/ccbOU45T.debug.temp.o
LOAD /tmp/ccO8zwbW.debug.temp.o
LOAD /tmp/ccVZMaSV.debug.temp.o
LOAD /tmp/ccOGT5tS.debug.temp.o
LOAD /tmp/cc9zLPrS.debug.temp.o
LOAD /tmp/ccLtp4DW.debug.temp.o
LOAD /tmp/cceJWmIT.debug.temp.o
LOAD /tmp/cc9WN4lU.debug.temp.o
LOAD /tmp/cc9GooRT.debug.temp.o
LOAD /tmp/ccUehd3U.debug.temp.o
LOAD /tmp/ccUta1jU.debug.temp.o
LOAD /tmp/ccoo6QiU.debug.temp.o
LOAD /tmp/ccWzyLNS.debug.temp.o
LOAD /tmp/ccI9JgtS.debug.temp.o
LOAD /tmp/ccC7ZLbW.debug.temp.o
LOAD /tmp/ccJaZl3U.debug.temp.o
LOAD /tmp/ccAtpCkV.debug.temp.o
LOAD /tmp/ccsR9G7T.debug.temp.o
LOAD /tmp/ccP4YuRV.debug.temp.o
LOAD /tmp/ccEBohlU.debug.temp.o
LOAD /tmp/cck37OXU.debug.temp.o
LOAD /tmp/ccmNQLJT.debug.temp.o
LOAD /tmp/cc5lN8CW.debug.temp.o
LOAD /tmp/ccY8wbZU.debug.temp.o
LOAD /tmp/ccUVVXsT.debug.temp.o
LOAD /tmp/cca5uoFT.debug.temp.o
LOAD /tmp/ccOBtIJV.debug.temp.o
LOAD /tmp/ccX1rlKU.debug.temp.o
LOAD /tmp/ccCZpOKV.debug.temp.o
LOAD /tmp/cc8PtiPV.debug.temp.o
LOAD /tmp/ccfqZ9rW.debug.temp.o
LOAD /tmp/ccuXtMyT.debug.temp.o
LOAD /tmp/ccDF7kRU.debug.temp.o
LOAD /tmp/ccEhhcfV.debug.temp.o
LOAD /tmp/ccodCLHT.debug.temp.o
LOAD /tmp/ccAmeYlV.debug.temp.o
LOAD /tmp/ccBwjDDU.debug.temp.o
LOAD /tmp/ccIjgDwT.debug.temp.o
LOAD /tmp/cc3vxIWT.debug.temp.o
LOAD /tmp/ccspgomT.debug.temp.o
LOAD /tmp/ccZKQSRV.debug.temp.o
LOAD /tmp/ccsGqqxV.debug.temp.o
LOAD /tmp/ccmqBaKT.debug.temp.o
LOAD /tmp/ccB83YLU.debug.temp.o
LOAD /tmp/ccp96oPU.debug.temp.o
LOAD /tmp/ccNva68V.debug.temp.o
LOAD /tmp/ccQB7PFT.debug.temp.o
LOAD /tmp/ccp72PxT.debug.temp.o
LOAD /tmp/ccwjP3xW.debug.temp.o
LOAD /tmp/ccJDOhvV.debug.temp.o
LOAD /tmp/cc2sr11S.debug.temp.o
LOAD /tmp/ccg62DaU.debug.temp.o
LOAD /tmp/cc6OPivS.debug.temp.o
LOAD /tmp/ccy42MRU.debug.temp.o
LOAD /tmp/ccCR9OVT.debug.temp.o
LOAD /tmp/ccrbsjdV.debug.temp.o
LOAD /tmp/ccRCyT6V.debug.temp.o
LOAD /tmp/cciNAa2U.debug.temp.o
LOAD /tmp/ccs2uZuW.debug.temp.o
LOAD /tmp/ccQ1gsgU.debug.temp.o
LOAD /tmp/cce72MmT.debug.temp.o
LOAD /tmp/ccJs0AqU.debug.temp.o
LOAD /tmp/ccXgmS3T.debug.temp.o
LOAD /tmp/ccA9A3ZU.debug.temp.o
LOAD /tmp/ccBHQORW.debug.temp.o
LOAD /tmp/ccD94gIV.debug.temp.o
LOAD /tmp/ccvIoGGU.debug.temp.o
LOAD /tmp/ccBtwrSV.debug.temp.o
LOAD /tmp/cccYYSVS.debug.temp.o
LOAD /tmp/ccfkaNxU.debug.temp.o
LOAD /tmp/ccbSMZJW.debug.temp.o
LOAD /tmp/cc50h5tW.debug.temp.o
LOAD /tmp/ccnrdXiU.debug.temp.o
LOAD /tmp/cc4NutHT.debug.temp.o
LOAD /home/alastair/pftf-rpi4/Build/RPi4/DEBUG_GCC5/AARCH64/ShellPkg/Application/Shell/Shell/OUTPUT/Shell.lib
LOAD /home/alastair/pftf-rpi4/Build/RPi4/DEBUG_GCC5/AARCH64/MdePkg/Library/DxePcdLib/DxePcdLib/OUTPUT/DxePcdLib.lib
LOAD /home/alastair/pftf-rpi4/Build/RPi4/DEBUG_GCC5/AARCH64/MdePkg/Library/BaseMemoryLibOptDxe/BaseMemoryLibOptDxe/OUTPUT/BaseMemoryLibOptDxe.lib
LOAD /home/alastair/pftf-rpi4/Build/RPi4/DEBUG_GCC5/AARCH64/MdePkg/Library/BaseLib/BaseLib/OUTPUT/BaseLib.lib
LOAD /home/alastair/pftf-rpi4/Build/RPi4/DEBUG_GCC5/AARCH64/MdePkg/Library/BaseIoLibIntrinsic/BaseIoLibIntrinsic/OUTPUT/BaseIoLibIntrinsic.lib
LOAD /home/alastair/pftf-rpi4/Build/RPi4/DEBUG_GCC5/AARCH64/ArmPlatformPkg/Library/PL011UartLib/PL011UartLib/OUTPUT/PL011UartLib.lib
LOAD /home/alastair/pftf-rpi4/Build/RPi4/DEBUG_GCC5/AARCH64/MdePkg/Library/BaseDebugPrintErrorLevelLib/BaseDebugPrintErrorLevelLib/OUTPUT/BaseDebugPrintErrorLevelLib.lib
LOAD /home/alastair/pftf-rpi4/Build/RPi4/DEBUG_GCC5/AARCH64/Platform/RaspberryPi/Library/DualSerialPortLib/DebugDualSerialPortLib/OUTPUT/DebugDualSerialPortLib.lib
LOAD /home/alastair/pftf-rpi4/Build/RPi4/DEBUG_GCC5/AARCH64/MdePkg/Library/BasePrintLib/BasePrintLib/OUTPUT/BasePrintLib.lib
LOAD /home/alastair/pftf-rpi4/Build/RPi4/DEBUG_GCC5/AARCH64/MdePkg/Library/BaseDebugLibSerialPort/BaseDebugLibSerialPort/OUTPUT/BaseDebugLibSerialPort.lib
LOAD /home/alastair/pftf-rpi4/Build/RPi4/DEBUG_GCC5/AARCH64/MdePkg/Library/UefiBootServicesTableLib/UefiBootServicesTableLib/OUTPUT/UefiBootServicesTableLib.lib
LOAD /home/alastair/pftf-rpi4/Build/RPi4/DEBUG_GCC5/AARCH64/MdePkg/Library/UefiMemoryAllocationLib/UefiMemoryAllocationLib/OUTPUT/UefiMemoryAllocationLib.lib
LOAD /home/alastair/pftf-rpi4/Build/RPi4/DEBUG_GCC5/AARCH64/MdePkg/Library/UefiDevicePathLib/UefiDevicePathLib/OUTPUT/UefiDevicePathLib.lib
LOAD /home/alastair/pftf-rpi4/Build/RPi4/DEBUG_GCC5/AARCH64/MdePkg/Library/UefiRuntimeServicesTableLib/UefiRuntimeServicesTableLib/OUTPUT/UefiRuntimeServicesTableLib.lib
LOAD /home/alastair/pftf-rpi4/Build/RPi4/DEBUG_GCC5/AARCH64/MdeModulePkg/Library/UefiHiiServicesLib/UefiHiiServicesLib/OUTPUT/UefiHiiServicesLib.lib
LOAD /home/alastair/pftf-rpi4/Build/RPi4/DEBUG_GCC5/AARCH64/MdePkg/Library/UefiLib/UefiLib/OUTPUT/UefiLib.lib
LOAD /home/alastair/pftf-rpi4/Build/RPi4/DEBUG_GCC5/AARCH64/MdeModulePkg/Library/UefiSortLib/UefiSortLib/OUTPUT/UefiSortLib.lib
LOAD /home/alastair/pftf-rpi4/Build/RPi4/DEBUG_GCC5/AARCH64/MdeModulePkg/Library/UefiHiiLib/UefiHiiLib/OUTPUT/UefiHiiLib.lib
LOAD /home/alastair/pftf-rpi4/Build/RPi4/DEBUG_GCC5/AARCH64/MdePkg/Library/UefiFileHandleLib/UefiFileHandleLib/OUTPUT/UefiFileHandleLib.lib
LOAD /home/alastair/pftf-rpi4/Build/RPi4/DEBUG_GCC5/AARCH64/MdePkg/Library/BasePeCoffGetEntryPointLib/BasePeCoffGetEntryPointLib/OUTPUT/BasePeCoffGetEntryPointLib.lib
LOAD /home/alastair/pftf-rpi4/Build/RPi4/DEBUG_GCC5/AARCH64/MdePkg/Library/BaseReportStatusCodeLibNull/BaseReportStatusCodeLibNull/OUTPUT/BaseReportStatusCodeLibNull.lib
LOAD /home/alastair/pftf-rpi4/Build/RPi4/DEBUG_GCC5/AARCH64/MdePkg/Library/DxeServicesLib/DxeServicesLib/OUTPUT/DxeServicesLib.lib
LOAD /home/alastair/pftf-rpi4/Build/RPi4/DEBUG_GCC5/AARCH64/MdePkg/Library/DxeServicesTableLib/DxeServicesTableLib/OUTPUT/DxeServicesTableLib.lib
LOAD /home/alastair/pftf-rpi4/Build/RPi4/DEBUG_GCC5/AARCH64/MdeModulePkg/Library/DxePerformanceLib/DxePerformanceLib/OUTPUT/DxePerformanceLib.lib
LOAD /home/alastair/pftf-rpi4/Build/RPi4/DEBUG_GCC5/AARCH64/MdePkg/Library/DxeHobLib/DxeHobLib/OUTPUT/DxeHobLib.lib
LOAD /home/alastair/pftf-rpi4/Build/RPi4/DEBUG_GCC5/AARCH64/MdePkg/Library/BaseOrderedCollectionRedBlackTreeLib/BaseOrderedCollectionRedBlackTreeLib/OUTPUT/BaseOrderedCollectionRedBlackTreeLib.lib
LOAD /home/alastair/pftf-rpi4/Build/RPi4/DEBUG_GCC5/AARCH64/ShellPkg/Library/UefiShellLib/UefiShellLib/OUTPUT/UefiShellLib.lib
LOAD /home/alastair/pftf-rpi4/Build/RPi4/DEBUG_GCC5/AARCH64/ShellPkg/Library/UefiHandleParsingLib/UefiHandleParsingLib/OUTPUT/UefiHandleParsingLib.lib
LOAD /home/alastair/pftf-rpi4/Build/RPi4/DEBUG_GCC5/AARCH64/MdeModulePkg/Library/UefiBootManagerLib/UefiBootManagerLib/OUTPUT/UefiBootManagerLib.lib
LOAD /home/alastair/pftf-rpi4/Build/RPi4/DEBUG_GCC5/AARCH64/ShellPkg/Library/UefiShellCommandLib/UefiShellCommandLib/OUTPUT/UefiShellCommandLib.lib
LOAD /home/alastair/pftf-rpi4/Build/RPi4/DEBUG_GCC5/AARCH64/ShellPkg/Library/UefiShellBcfgCommandLib/UefiShellBcfgCommandLib/OUTPUT/UefiShellBcfgCommandLib.lib
LOAD /home/alastair/pftf-rpi4/Build/RPi4/DEBUG_GCC5/AARCH64/NetworkPkg/Library/DxeNetLib/DxeNetLib/OUTPUT/DxeNetLib.lib
LOAD /home/alastair/pftf-rpi4/Build/RPi4/DEBUG_GCC5/AARCH64/MdePkg/Library/UefiApplicationEntryPoint/UefiApplicationEntryPoint/OUTPUT/UefiApplicationEntryPoint.lib
LOAD /home/alastair/pftf-rpi4/Build/RPi4/DEBUG_GCC5/AARCH64/MdePkg/Library/BaseStackCheckLib/BaseStackCheckLib/OUTPUT/BaseStackCheckLib.lib
LOAD /home/alastair/pftf-rpi4/Build/RPi4/DEBUG_GCC5/AARCH64/ArmPkg/Library/CompilerIntrinsicsLib/CompilerIntrinsicsLib/OUTPUT/CompilerIntrinsicsLib.lib
LOAD /home/alastair/pftf-rpi4/Build/RPi4/DEBUG_GCC5/AARCH64/ShellPkg/Library/UefiShellLevel2CommandsLib/UefiShellLevel2CommandsLib/OUTPUT/UefiShellLevel2CommandsLib.lib
LOAD /home/alastair/pftf-rpi4/Build/RPi4/DEBUG_GCC5/AARCH64/ShellPkg/Library/UefiShellLevel1CommandsLib/UefiShellLevel1CommandsLib/OUTPUT/UefiShellLevel1CommandsLib.lib
LOAD /home/alastair/pftf-rpi4/Build/RPi4/DEBUG_GCC5/AARCH64/ShellPkg/Library/UefiShellLevel3CommandsLib/UefiShellLevel3CommandsLib/OUTPUT/UefiShellLevel3CommandsLib.lib
LOAD /home/alastair/pftf-rpi4/Build/RPi4/DEBUG_GCC5/AARCH64/ShellPkg/Library/UefiShellDriver1CommandsLib/UefiShellDriver1CommandsLib/OUTPUT/UefiShellDriver1CommandsLib.lib
LOAD /home/alastair/pftf-rpi4/Build/RPi4/DEBUG_GCC5/AARCH64/ShellPkg/Library/UefiShellDebug1CommandsLib/UefiShellDebug1CommandsLib/OUTPUT/UefiShellDebug1CommandsLib.lib
LOAD /home/alastair/pftf-rpi4/Build/RPi4/DEBUG_GCC5/AARCH64/ShellPkg/Library/UefiShellInstall1CommandsLib/UefiShellInstall1CommandsLib/OUTPUT/UefiShellInstall1CommandsLib.lib
LOAD /home/alastair/pftf-rpi4/Build/RPi4/DEBUG_GCC5/AARCH64/ShellPkg/Library/UefiShellNetwork1CommandsLib/UefiShellNetwork1CommandsLib/OUTPUT/UefiShellNetwork1CommandsLib.lib
LOAD /home/alastair/pftf-rpi4/Build/RPi4/DEBUG_GCC5/AARCH64/ShellPkg/Library/UefiShellAcpiViewCommandLib/UefiShellAcpiViewCommandLib/OUTPUT/UefiShellAcpiViewCommandLib.lib
END GROUP
                0x0000000000000228                . = PECOFF_HEADER_SIZE

.gnu.version_d  0x0000000000000228        0x0
 .gnu.version_d
                0x0000000000000228        0x0 /home/alastair/pftf-rpi4/edk2/ArmPkg/Library/GccLto/liblto-aarch64.a

.gnu.version    0x0000000000000228        0x0
 .gnu.version   0x0000000000000228        0x0 /home/alastair/pftf-rpi4/edk2/ArmPkg/Library/GccLto/liblto-aarch64.a

.gnu.version_r  0x0000000000000228        0x0
 .gnu.version_r
                0x0000000000000228        0x0 /home/alastair/pftf-rpi4/edk2/ArmPkg/Library/GccLto/liblto-aarch64.a

.text           0x0000000000001000    0x95b68
 *(.text .text.* .stub .gnu.linkonce.t.*)
 .text.SerialPortWritable.constprop.0
                0x0000000000001000        0x8 /tmp/Shell.dll.y4Q2gW.ltrans0.ltrans.o
 .text.ShellCommandGetManFileNameBcfg
                0x0000000000001008        0xc /tmp/Shell.dll.y4Q2gW.ltrans0.ltrans.o
 .text.NodeIsNullOrBlack
                0x0000000000001014       0x1c /tmp/Shell.dll.y4Q2gW.ltrans0.ltrans.o
 .text.RedBlackTreeRotateLeft
                0x0000000000001030       0x4c /tmp/Shell.dll.y4Q2gW.ltrans0.ltrans.o
 .text.RedBlackTreeRotateRight
                0x000000000000107c       0x48 /tmp/Shell.dll.y4Q2gW.ltrans0.ltrans.o
 .text.ManFileFindTitleSection.part.0.constprop.0
                0x00000000000010c4      0x2a0 /tmp/Shell.dll.y4Q2gW.ltrans0.ltrans.o
 .text.GetDevicePathForDriverHandle
                0x0000000000001364      0x12c /tmp/Shell.dll.y4Q2gW.ltrans0.ltrans.o
 .text.InternalCommandLineParse.part.0.constprop.0
                0x0000000000001490      0x47c /tmp/Shell.dll.y4Q2gW.ltrans0.ltrans.o
 .text.NetLibGetSnpHandle.constprop.0
                0x000000000000190c       0xf4 /tmp/Shell.dll.y4Q2gW.ltrans0.ltrans.o
 .text.NetLibDetectMedia.constprop.0
                0x0000000000001a00      0x240 /tmp/Shell.dll.y4Q2gW.ltrans0.ltrans.o
 .text.CatVSPrint
                0x0000000000001c40      0x138 /tmp/Shell.dll.y4Q2gW.ltrans0.ltrans.o
 .text.MmioRead8
                0x0000000000001d78        0x8 /tmp/Shell.dll.y4Q2gW.ltrans0.ltrans.o
                0x0000000000001d78                MmioRead8
 .text.ShellLibDestructor.constprop.0
                0x0000000000001d80      0x118 /tmp/Shell.dll.y4Q2gW.ltrans0.ltrans.o
                0x0000000000001d80                ShellLibDestructor.constprop.0
 .text.InternalAllocatePool.constprop.0
                0x0000000000001e98       0x6c /tmp/Shell.dll.y4Q2gW.ltrans0.ltrans.o
                0x0000000000001e98                InternalAllocatePool.constprop.0
 .text.ShellCopySearchAndReplace.constprop.0
                0x0000000000001f04      0x1bc /tmp/Shell.dll.y4Q2gW.ltrans0.ltrans.o
                0x0000000000001f04                ShellCopySearchAndReplace.constprop.0
 .text.FindNextInstance.constprop.0
                0x00000000000020c0       0x54 /tmp/Shell.dll.y4Q2gW.ltrans0.ltrans.o
                0x00000000000020c0                FindNextInstance.constprop.0
 .text.ShellFindFilePathEx.constprop.0
                0x0000000000002114      0x10c /tmp/Shell.dll.y4Q2gW.ltrans0.ltrans.o
                0x0000000000002114                ShellFindFilePathEx.constprop.0
 .text.CreateFileInterfaceFile.constprop.0
                0x0000000000002220       0xbc /tmp/Shell.dll.y4Q2gW.ltrans0.ltrans.o
                0x0000000000002220                CreateFileInterfaceFile.constprop.0
 .text.RunScriptFile.constprop.0
                0x00000000000022dc      0xca4 /tmp/Shell.dll.y4Q2gW.ltrans0.ltrans.o
                0x00000000000022dc                RunScriptFile.constprop.0
 .text.IsDevicePathValid.part.0.constprop.0
                0x0000000000002f80       0xbc /tmp/Shell.dll.y4Q2gW.ltrans0.ltrans.o
                0x0000000000002f80                IsDevicePathValid.part.0.constprop.0
 .text.ShellCommandAddMapItemAndUpdatePath.constprop.0
                0x000000000000303c      0x26c /tmp/Shell.dll.y4Q2gW.ltrans0.ltrans.o
                0x000000000000303c                ShellCommandAddMapItemAndUpdatePath.constprop.0
 .text.PerformQuickSort.constprop.0
                0x00000000000032a8       0x9c /tmp/Shell.dll.y4Q2gW.ltrans0.ltrans.o
                0x00000000000032a8                PerformQuickSort.constprop.0
 .text.ShellLibConstructorWorker.constprop.0
                0x0000000000003344      0x3ec /tmp/Shell.dll.y4Q2gW.ltrans0.ltrans.o
                0x0000000000003344                ShellLibConstructorWorker.constprop.0
 .text.GetBestLanguageForDriver.constprop.0
                0x0000000000003730       0xb8 /tmp/Shell.dll.y4Q2gW.ltrans0.ltrans.o
                0x0000000000003730                GetBestLanguageForDriver.constprop.0
 .text.ShellSetFilePosition.constprop.0
                0x00000000000037e8       0x14 /tmp/Shell.dll.y4Q2gW.ltrans0.ltrans.o
                0x00000000000037e8                ShellSetFilePosition.constprop.0
 .text.ProcessManFile.constprop.0
                0x00000000000037fc      0x7a0 /tmp/Shell.dll.y4Q2gW.ltrans0.ltrans.o
                0x00000000000037fc                ProcessManFile.constprop.0
 .text.CreateAndPopulateShellFileInfo.constprop.0
                0x0000000000003f9c      0x18c /tmp/Shell.dll.y4Q2gW.ltrans0.ltrans.o
                0x0000000000003f9c                CreateAndPopulateShellFileInfo.constprop.0
 .text.FileHandleFindFirstFile.constprop.0
                0x0000000000004128      0x130 /tmp/Shell.dll.y4Q2gW.ltrans0.ltrans.o
                0x0000000000004128                FileHandleFindFirstFile.constprop.0
 .text.StrnCatGrowLeft.constprop.0
                0x0000000000004258       0xf8 /tmp/Shell.dll.y4Q2gW.ltrans0.ltrans.o
                0x0000000000004258                StrnCatGrowLeft.constprop.0
 .text.ConsoleLoggerDisplayHistory.constprop.0
                0x0000000000004350       0xb8 /tmp/Shell.dll.y4Q2gW.ltrans0.ltrans.o
                0x0000000000004350                ConsoleLoggerDisplayHistory.constprop.0
 .text.StrHexToUint64S.constprop.0
                0x0000000000004408      0x1a0 /tmp/Shell.dll.y4Q2gW.ltrans0.ltrans.o
                0x0000000000004408                StrHexToUint64S.constprop.0
 .text.StrToIpv6Address.constprop.0
                0x00000000000045a8      0x2a0 /tmp/Shell.dll.y4Q2gW.ltrans0.ltrans.o
                0x00000000000045a8                StrToIpv6Address.constprop.0
 .text.StrToIpv4Address.constprop.0
                0x0000000000004848      0x1a0 /tmp/Shell.dll.y4Q2gW.ltrans0.ltrans.o
                0x0000000000004848                StrToIpv4Address.constprop.0
 .text.UnicodeStrToAsciiStrS.constprop.0
                0x00000000000049e8      0x1bc /tmp/Shell.dll.y4Q2gW.ltrans0.ltrans.o
                0x00000000000049e8                UnicodeStrToAsciiStrS.constprop.0
 .text.UnicodeValueToStringS.constprop.0
                0x0000000000004ba4      0x160 /tmp/Shell.dll.y4Q2gW.ltrans0.ltrans.o
                0x0000000000004ba4                UnicodeValueToStringS.constprop.0
 .text.ShellCommandLineParseEx.constprop.0
                0x0000000000004d04       0xc4 /tmp/Shell.dll.y4Q2gW.ltrans0.ltrans.o
                0x0000000000004d04                ShellCommandLineParseEx.constprop.0
 .text.ShellIsHexOrDecimalNumber.constprop.0
                0x0000000000004dc8       0x30 /tmp/Shell.dll.y4Q2gW.ltrans0.ltrans.o
                0x0000000000004dc8                ShellIsHexOrDecimalNumber.constprop.0
 .text.SearchList.constprop.0
                0x0000000000004df8      0x1e0 /tmp/Shell.dll.y4Q2gW.ltrans0.ltrans.o
                0x0000000000004df8                SearchList.constprop.0
 .text.ConvertHandleToHiiHandle.constprop.0
                0x0000000000004fd8       0xc4 /tmp/Shell.dll.y4Q2gW.ltrans0.ltrans.o
                0x0000000000004fd8                ConvertHandleToHiiHandle.constprop.0
 .text.StatusBarRefresh.constprop.0
                0x000000000000509c      0x18c /tmp/Shell.dll.y4Q2gW.ltrans0.ltrans.o
                0x000000000000509c                StatusBarRefresh.constprop.0
 .text.ModU64x32.constprop.0
                0x0000000000005228        0x8 /tmp/Shell.dll.y4Q2gW.ltrans0.ltrans.o
                0x0000000000005228                ModU64x32.constprop.0
 .text.MultU64x64.constprop.0
                0x0000000000005230        0x8 /tmp/Shell.dll.y4Q2gW.ltrans0.ltrans.o
                0x0000000000005230                MultU64x64.constprop.0
 .text.IoWrite64.constprop.0
                0x0000000000005238       0x2c /tmp/Shell.dll.y4Q2gW.ltrans0.ltrans.o
                0x0000000000005238                IoWrite64.constprop.0
 .text.IoRead64.constprop.0
                0x0000000000005264       0x2c /tmp/Shell.dll.y4Q2gW.ltrans0.ltrans.o
                0x0000000000005264                IoRead64.constprop.0
 .text.IoWrite32.constprop.0
                0x0000000000005290       0x38 /tmp/Shell.dll.y4Q2gW.ltrans0.ltrans.o
                0x0000000000005290                IoWrite32.constprop.0
 .text.IoRead32.constprop.0
                0x00000000000052c8       0x2c /tmp/Shell.dll.y4Q2gW.ltrans0.ltrans.o
                0x00000000000052c8                IoRead32.constprop.0
 .text.IoWrite16.constprop.0
                0x00000000000052f4       0x38 /tmp/Shell.dll.y4Q2gW.ltrans0.ltrans.o
                0x00000000000052f4                IoWrite16.constprop.0
 .text.IoRead16.constprop.0
                0x000000000000532c       0x2c /tmp/Shell.dll.y4Q2gW.ltrans0.ltrans.o
                0x000000000000532c                IoRead16.constprop.0
 .text.IoWrite8.constprop.0
                0x0000000000005358       0x38 /tmp/Shell.dll.y4Q2gW.ltrans0.ltrans.o
                0x0000000000005358                IoWrite8.constprop.0
 .text.IoRead8.constprop.0
                0x0000000000005390       0x2c /tmp/Shell.dll.y4Q2gW.ltrans0.ltrans.o
                0x0000000000005390                IoRead8.constprop.0
 .text.QueryTable.constprop.0
                0x00000000000053bc       0xb4 /tmp/Shell.dll.y4Q2gW.ltrans0.ltrans.o
                0x00000000000053bc                QueryTable.constprop.0
 .text.NetLibDetectMediaWaitTimeout.constprop.0
                0x0000000000005470      0x124 /tmp/Shell.dll.y4Q2gW.ltrans0.ltrans.o
                0x0000000000005470                NetLibDetectMediaWaitTimeout.constprop.0
 .text.DivU64x64Remainder.constprop.0
                0x0000000000005594       0x40 /tmp/Shell.dll.y4Q2gW.ltrans0.ltrans.o
                0x0000000000005594                DivU64x64Remainder.constprop.0
 .text.IsZeroBuffer.constprop.0
                0x00000000000055d4       0x74 /tmp/Shell.dll.y4Q2gW.ltrans0.ltrans.o
                0x00000000000055d4                IsZeroBuffer.constprop.0
 .text.NetLibStrToIp6
                0x0000000000005648       0x78 /tmp/Shell.dll.y4Q2gW.ltrans0.ltrans.o
                0x0000000000005648                NetLibStrToIp6
 .text.NetLibStrToIp4
                0x00000000000056c0       0x78 /tmp/Shell.dll.y4Q2gW.ltrans0.ltrans.o
                0x00000000000056c0                NetLibStrToIp4
 .text.NetIp6IsLinkLocalAddr
                0x0000000000005738       0x80 /tmp/Shell.dll.y4Q2gW.ltrans0.ltrans.o
                0x0000000000005738                NetIp6IsLinkLocalAddr
 .text.NetIp6IsUnspecifiedAddr
                0x00000000000057b8       0x68 /tmp/Shell.dll.y4Q2gW.ltrans0.ltrans.o
                0x00000000000057b8                NetIp6IsUnspecifiedAddr
 .text.BcfgLibraryRegisterBcfgCommand.part.0
                0x0000000000005820       0x84 /tmp/Shell.dll.y4Q2gW.ltrans0.ltrans.o
                0x0000000000005820                BcfgLibraryRegisterBcfgCommand.part.0
 .text.OrderedCollectionNext
                0x00000000000058a4       0x38 /tmp/Shell.dll.y4Q2gW.ltrans0.ltrans.o
                0x00000000000058a4                OrderedCollectionNext
 .text.OrderedCollectionMin
                0x00000000000058dc       0x1c /tmp/Shell.dll.y4Q2gW.ltrans0.ltrans.o
                0x00000000000058dc                OrderedCollectionMin
 .text.OrderedCollectionInsert.constprop.0
                0x00000000000058f8      0x254 /tmp/Shell.dll.y4Q2gW.ltrans0.ltrans.o
                0x00000000000058f8                OrderedCollectionInsert.constprop.0
 .text.OrderedCollectionInit.constprop.0
                0x0000000000005b4c       0x34 /tmp/Shell.dll.y4Q2gW.ltrans0.ltrans.o
                0x0000000000005b4c                OrderedCollectionInit.constprop.0
 .text.OrderedCollectionDelete
                0x0000000000005b80      0x43c /tmp/Shell.dll.y4Q2gW.ltrans0.ltrans.o
                0x0000000000005b80                OrderedCollectionDelete
 .text.OrderedCollectionFind
                0x0000000000005fbc       0x58 /tmp/Shell.dll.y4Q2gW.ltrans0.ltrans.o
                0x0000000000005fbc                OrderedCollectionFind
 .text.OrderedCollectionUninit
                0x0000000000006014       0x40 /tmp/Shell.dll.y4Q2gW.ltrans0.ltrans.o
                0x0000000000006014                OrderedCollectionUninit
 .text.OrderedCollectionUserStruct
                0x0000000000006054        0x8 /tmp/Shell.dll.y4Q2gW.ltrans0.ltrans.o
                0x0000000000006054                OrderedCollectionUserStruct
 .text.PeCoffLoaderGetPdbPointer
                0x000000000000605c      0x1ac /tmp/Shell.dll.y4Q2gW.ltrans0.ltrans.o
                0x000000000000605c                PeCoffLoaderGetPdbPointer
 .text.EfiGetNameGuidFromFwVolDevicePathNode
                0x0000000000006208       0x78 /tmp/Shell.dll.y4Q2gW.ltrans0.ltrans.o
                0x0000000000006208                EfiGetNameGuidFromFwVolDevicePathNode
 .text.CatSPrint
                0x0000000000006280       0xa8 /tmp/Shell.dll.y4Q2gW.ltrans0.ltrans.o
                0x0000000000006280                CatSPrint
 .text.CatSDumpHex.constprop.0
                0x0000000000006328      0x150 /tmp/Shell.dll.y4Q2gW.ltrans0.ltrans.o
                0x0000000000006328                CatSDumpHex.constprop.0
 .text.HBufferImageSave.constprop.0
                0x0000000000006478      0x498 /tmp/Shell.dll.y4Q2gW.ltrans0.ltrans.o
                0x0000000000006478                HBufferImageSave.constprop.0
 .text.Print    0x0000000000006910      0x1a0 /tmp/Shell.dll.y4Q2gW.ltrans0.ltrans.o
                0x0000000000006910                Print
 .text.DisplaySELSysManagementTypes.constprop.0
                0x0000000000006ab0       0xf4 /tmp/Shell.dll.y4Q2gW.ltrans0.ltrans.o
                0x0000000000006ab0                DisplaySELSysManagementTypes.constprop.0
 .text.Dump12Chars
                0x0000000000006ba4       0x6c /tmp/Shell.dll.y4Q2gW.ltrans0.ltrans.o
                0x0000000000006ba4                Dump12Chars
 .text.Dump8Chars
                0x0000000000006c10       0x4c /tmp/Shell.dll.y4Q2gW.ltrans0.ltrans.o
                0x0000000000006c10                Dump8Chars
 .text.Dump6Chars
                0x0000000000006c5c       0x28 /tmp/Shell.dll.y4Q2gW.ltrans0.ltrans.o
                0x0000000000006c5c                Dump6Chars
 .text.Dump4Chars
                0x0000000000006c84       0x20 /tmp/Shell.dll.y4Q2gW.ltrans0.ltrans.o
                0x0000000000006c84                Dump4Chars
 .text.Dump3Chars
                0x0000000000006ca4       0x1c /tmp/Shell.dll.y4Q2gW.ltrans0.ltrans.o
                0x0000000000006ca4                Dump3Chars
 .text.MmioWrite8
                0x0000000000006cc0       0x10 /tmp/Shell.dll.y4Q2gW.ltrans0.ltrans.o
                0x0000000000006cc0                MmioWrite8
 .text.MmioWrite64
                0x0000000000006cd0       0x48 /tmp/Shell.dll.y4Q2gW.ltrans0.ltrans.o
                0x0000000000006cd0                MmioWrite64
 .text.MmioRead64
                0x0000000000006d18       0x40 /tmp/Shell.dll.y4Q2gW.ltrans0.ltrans.o
                0x0000000000006d18                MmioRead64
 .text.MmioWrite32
                0x0000000000006d58       0x48 /tmp/Shell.dll.y4Q2gW.ltrans0.ltrans.o
                0x0000000000006d58                MmioWrite32
 .text.MmioRead32
                0x0000000000006da0       0x40 /tmp/Shell.dll.y4Q2gW.ltrans0.ltrans.o
                0x0000000000006da0                MmioRead32
 .text.SerialPortWrite
                0x0000000000006de0      0x138 /tmp/Shell.dll.y4Q2gW.ltrans0.ltrans.o
                0x0000000000006de0                SerialPortWrite
 .text.MmioWrite16
                0x0000000000006f18       0x44 /tmp/Shell.dll.y4Q2gW.ltrans0.ltrans.o
                0x0000000000006f18                MmioWrite16
 .text.MmioRead16
                0x0000000000006f5c       0x3c /tmp/Shell.dll.y4Q2gW.ltrans0.ltrans.o
                0x0000000000006f5c                MmioRead16
 .text.WriteUnaligned16
                0x0000000000006f98       0x50 /tmp/Shell.dll.y4Q2gW.ltrans0.ltrans.o
                0x0000000000006f98                WriteUnaligned16
 .text.WriteUnaligned32
                0x0000000000006fe8       0x58 /tmp/Shell.dll.y4Q2gW.ltrans0.ltrans.o
 .text.WriteUnaligned64
                0x0000000000007040       0x40 /tmp/Shell.dll.y4Q2gW.ltrans0.ltrans.o
                0x0000000000007040                WriteUnaligned64
 .text.ReadUnaligned16
                0x0000000000007080       0x5c /tmp/Shell.dll.y4Q2gW.ltrans0.ltrans.o
                0x0000000000007080                ReadUnaligned16
 .text.ReadUnaligned32
                0x00000000000070dc       0x50 /tmp/Shell.dll.y4Q2gW.ltrans0.ltrans.o
                0x00000000000070dc                ReadUnaligned32
 .text.BasePrintLibSPrintMarker.constprop.0
                0x000000000000712c     0x1004 /tmp/Shell.dll.y4Q2gW.ltrans0.ltrans.o
                0x000000000000712c                BasePrintLibSPrintMarker.constprop.0
 .text.BasePrintLibSPrint.constprop.0
                0x0000000000008130       0xa0 /tmp/Shell.dll.y4Q2gW.ltrans0.ltrans.o
 .text.BcfgMod  0x00000000000081d0      0x9c4 /tmp/Shell.dll.y4Q2gW.ltrans0.ltrans.o
 .text.ShellCommandRunBcfg
                0x0000000000008b94     0x2304 /tmp/Shell.dll.y4Q2gW.ltrans0.ltrans.o
 .text.ReadUnaligned64
                0x000000000000ae98       0x5c /tmp/Shell.dll.y4Q2gW.ltrans0.ltrans.o
                0x000000000000ae98                ReadUnaligned64
 .text.DivU64x32Remainder
                0x000000000000aef4       0x54 /tmp/Shell.dll.y4Q2gW.ltrans0.ltrans.o
                0x000000000000aef4                DivU64x32Remainder
 .text.SwapBytes64
                0x000000000000af48       0x34 /tmp/Shell.dll.y4Q2gW.ltrans0.ltrans.o
                0x000000000000af48                SwapBytes64
 .text.CompareMem
                0x000000000000af7c       0xd0 /tmp/Shell.dll.y4Q2gW.ltrans0.ltrans.o
                0x000000000000af7c                CompareMem
 .text.PrintFieldName
                0x000000000000b04c       0x2c /tmp/Shell.dll.y4Q2gW.ltrans0.ltrans.o
                0x000000000000b04c                PrintFieldName
 .text.DumpRaw  0x000000000000b078      0x174 /tmp/Shell.dll.y4Q2gW.ltrans0.ltrans.o
                0x000000000000b078                DumpRaw
 .text.IncrementErrorCount
                0x000000000000b1ec       0x14 /tmp/Shell.dll.y4Q2gW.ltrans0.ltrans.o
                0x000000000000b1ec                IncrementErrorCount
 .text.VerifyChecksum.constprop.0
                0x000000000000b200       0xdc /tmp/Shell.dll.y4Q2gW.ltrans0.ltrans.o
                0x000000000000b200                VerifyChecksum.constprop.0
 .text.ParseAcpi
                0x000000000000b2dc      0x264 /tmp/Shell.dll.y4Q2gW.ltrans0.ltrans.o
                0x000000000000b2dc                ParseAcpi
 .text.DumpAcpiHeader
                0x000000000000b540       0x28 /tmp/Shell.dll.y4Q2gW.ltrans0.ltrans.o
                0x000000000000b540                DumpAcpiHeader
 .text.ParseAcpiSsdt
                0x000000000000b568       0x14 /tmp/Shell.dll.y4Q2gW.ltrans0.ltrans.o
                0x000000000000b568                ParseAcpiSsdt
 .text.DumpGas  0x000000000000b57c       0x48 /tmp/Shell.dll.y4Q2gW.ltrans0.ltrans.o
                0x000000000000b57c                DumpGas
 .text.ParseAcpiXsdt
                0x000000000000b5c4      0x1b8 /tmp/Shell.dll.y4Q2gW.ltrans0.ltrans.o
                0x000000000000b5c4                ParseAcpiXsdt
 .text.ParseAcpiSrat
                0x000000000000b77c      0x3c0 /tmp/Shell.dll.y4Q2gW.ltrans0.ltrans.o
                0x000000000000b77c                ParseAcpiSrat
 .text.ShellCommandGetManFileNameAcpiView
                0x000000000000bb3c        0xc /tmp/Shell.dll.y4Q2gW.ltrans1.ltrans.o
                0x000000000000bb3c                ShellCommandGetManFileNameAcpiView
 .text.IfConfigManualAddressNotify
                0x000000000000bb48        0xc /tmp/Shell.dll.y4Q2gW.ltrans1.ltrans.o
 .text.RttTimerTickRoutine
                0x000000000000bb54       0x10 /tmp/Shell.dll.y4Q2gW.ltrans1.ltrans.o
 .text.Ping6OnEchoRequestSent
                0x000000000000bb64        0x4 /tmp/Shell.dll.y4Q2gW.ltrans1.ltrans.o
 .text.NetChecksum
                0x000000000000bb68       0x48 /tmp/Shell.dll.y4Q2gW.ltrans1.ltrans.o
 .text.ShellCommandGetManFileNameNetwork1
                0x000000000000bbb0        0xc /tmp/Shell.dll.y4Q2gW.ltrans1.ltrans.o
                0x000000000000bbb0                ShellCommandGetManFileNameNetwork1
 .text.DumpSratApicProximity.lto_priv.0
                0x000000000000bbbc       0x1c /tmp/Shell.dll.y4Q2gW.ltrans1.ltrans.o
                0x000000000000bbbc                DumpSratApicProximity.lto_priv.0
 .text.DumpVendorSpecificData
                0x000000000000bbd8       0x98 /tmp/Shell.dll.y4Q2gW.ltrans1.ltrans.o
 .text.ParseAcpiSpcr
                0x000000000000bc70       0x34 /tmp/Shell.dll.y4Q2gW.ltrans1.ltrans.o
                0x000000000000bc70                ParseAcpiSpcr
 .text.ParseAcpiMcfg
                0x000000000000bca4       0xb0 /tmp/Shell.dll.y4Q2gW.ltrans1.ltrans.o
                0x000000000000bca4                ParseAcpiMcfg
 .text.ParseAcpiFacs
                0x000000000000bd54       0x30 /tmp/Shell.dll.y4Q2gW.ltrans1.ltrans.o
                0x000000000000bd54                ParseAcpiFacs
 .text.ParseAcpiBgrt
                0x000000000000bd84       0x30 /tmp/Shell.dll.y4Q2gW.ltrans1.ltrans.o
                0x000000000000bd84                ParseAcpiBgrt
 .text.DumpSratDeviceHandle.lto_priv.0
                0x000000000000bdb4       0xac /tmp/Shell.dll.y4Q2gW.ltrans1.ltrans.o
                0x000000000000bdb4                DumpSratDeviceHandle.lto_priv.0
 .text.ValidateSratDeviceHandleType.lto_priv.0
                0x000000000000be60       0x44 /tmp/Shell.dll.y4Q2gW.ltrans1.ltrans.o
                0x000000000000be60                ValidateSratDeviceHandleType.lto_priv.0
 .text.ValidateSratReserved.lto_priv.0
                0x000000000000bea4       0x2c /tmp/Shell.dll.y4Q2gW.ltrans1.ltrans.o
                0x000000000000bea4                ValidateSratReserved.lto_priv.0
 .text.ValidateIrq
                0x000000000000bed0       0x3c /tmp/Shell.dll.y4Q2gW.ltrans1.ltrans.o
 .text.ValidateInterruptType.lto_priv.1
                0x000000000000bf0c       0x40 /tmp/Shell.dll.y4Q2gW.ltrans1.ltrans.o
 .text.ValidateXsdtAddress
                0x000000000000bf4c       0x2c /tmp/Shell.dll.y4Q2gW.ltrans1.ltrans.o
 .text.ValidateRsdtAddress
                0x000000000000bf78       0x3c /tmp/Shell.dll.y4Q2gW.ltrans1.ltrans.o
 .text.ValidateCacheAttributes.lto_priv.1
                0x000000000000bfb4       0x40 /tmp/Shell.dll.y4Q2gW.ltrans1.ltrans.o
 .text.ValidateCacheLineSize
                0x000000000000bff4       0x60 /tmp/Shell.dll.y4Q2gW.ltrans1.ltrans.o
 .text.ValidateCacheAssociativity
                0x000000000000c054       0x28 /tmp/Shell.dll.y4Q2gW.ltrans1.ltrans.o
 .text.ValidateCacheNumberOfSets
                0x000000000000c07c       0x88 /tmp/Shell.dll.y4Q2gW.ltrans1.ltrans.o
 .text.ParseAcpiPcct
                0x000000000000c104      0x26c /tmp/Shell.dll.y4Q2gW.ltrans1.ltrans.o
                0x000000000000c104                ParseAcpiPcct
 .text.ValidatePlatInterrupt
                0x000000000000c370       0x44 /tmp/Shell.dll.y4Q2gW.ltrans1.ltrans.o
 .text.ValidatePccGas
                0x000000000000c3b4       0x30 /tmp/Shell.dll.y4Q2gW.ltrans1.ltrans.o
 .text.ValidatePccErrStatusGas
                0x000000000000c3e4       0x1c /tmp/Shell.dll.y4Q2gW.ltrans1.ltrans.o
 .text.ValidatePccType0Gas
                0x000000000000c400       0x28 /tmp/Shell.dll.y4Q2gW.ltrans1.ltrans.o
 .text.ValidateRangeLength8
                0x000000000000c428       0x48 /tmp/Shell.dll.y4Q2gW.ltrans1.ltrans.o
 .text.ValidateRangeLength4
                0x000000000000c470       0x48 /tmp/Shell.dll.y4Q2gW.ltrans1.ltrans.o
 .text.ParseAcpiMadt
                0x000000000000c4b8      0x268 /tmp/Shell.dll.y4Q2gW.ltrans1.ltrans.o
                0x000000000000c4b8                ParseAcpiMadt
 .text.ValidateSpeOverflowInterrupt
                0x000000000000c720       0x9c /tmp/Shell.dll.y4Q2gW.ltrans1.ltrans.o
 .text.ValidateGICDSystemVectorBase
                0x000000000000c7bc       0x28 /tmp/Shell.dll.y4Q2gW.ltrans1.ltrans.o
 .text.ValidateItsIdArrayReference
                0x000000000000c7e4       0x28 /tmp/Shell.dll.y4Q2gW.ltrans1.ltrans.o
 .text.ValidatePmcgIdMappingCount
                0x000000000000c80c       0x2c /tmp/Shell.dll.y4Q2gW.ltrans1.ltrans.o
 .text.ValidateItsIdMappingCount
                0x000000000000c838       0x28 /tmp/Shell.dll.y4Q2gW.ltrans1.ltrans.o
 .text.ValidateCacheAttributes.lto_priv.0
                0x000000000000c860       0xc4 /tmp/Shell.dll.y4Q2gW.ltrans1.ltrans.o
 .text.ParseAcpiGtdt
                0x000000000000c924      0x2bc /tmp/Shell.dll.y4Q2gW.ltrans1.ltrans.o
                0x000000000000c924                ParseAcpiGtdt
 .text.ValidateGtFrameNumber
                0x000000000000cbe0       0x44 /tmp/Shell.dll.y4Q2gW.ltrans1.ltrans.o
 .text.ValidateGtBlockTimerCount
                0x000000000000cc24       0x44 /tmp/Shell.dll.y4Q2gW.ltrans1.ltrans.o
 .text.ValidateFlags
                0x000000000000cc68       0x28 /tmp/Shell.dll.y4Q2gW.ltrans1.ltrans.o
 .text.ValidateXFirmwareCtrl
                0x000000000000cc90       0x28 /tmp/Shell.dll.y4Q2gW.ltrans1.ltrans.o
 .text.ValidateFirmwareCtrl
                0x000000000000ccb8       0x28 /tmp/Shell.dll.y4Q2gW.ltrans1.ltrans.o
 .text.ValidateNameSpaceStrLen
                0x000000000000cce0       0x40 /tmp/Shell.dll.y4Q2gW.ltrans1.ltrans.o
 .text.ValidateInterruptFlags
                0x000000000000cd20       0x2c /tmp/Shell.dll.y4Q2gW.ltrans1.ltrans.o
 .text.ValidateInterruptType.lto_priv.0
                0x000000000000cd4c       0x2c /tmp/Shell.dll.y4Q2gW.ltrans1.ltrans.o
 .text.ValidateInterfaceType
                0x000000000000cd78       0x2c /tmp/Shell.dll.y4Q2gW.ltrans1.ltrans.o
 .text.ValidateGicInterfaceType
                0x000000000000cda4       0x40 /tmp/Shell.dll.y4Q2gW.ltrans1.ltrans.o
 .text.ValidateProcessorFlags
                0x000000000000cde4       0x3c /tmp/Shell.dll.y4Q2gW.ltrans1.ltrans.o
 .text.DumpCacheAttributes
                0x000000000000ce20       0xc8 /tmp/Shell.dll.y4Q2gW.ltrans1.ltrans.o
 .text.ParseAcpiDbg2
                0x000000000000cee8      0x49c /tmp/Shell.dll.y4Q2gW.ltrans1.ltrans.o
                0x000000000000cee8                ParseAcpiDbg2
 .text.DumpSratPciBdfNumber
                0x000000000000d384       0xf0 /tmp/Shell.dll.y4Q2gW.ltrans1.ltrans.o
 .text.ParseAcpiSlit
                0x000000000000d474      0x2bc /tmp/Shell.dll.y4Q2gW.ltrans1.ltrans.o
                0x000000000000d474                ParseAcpiSlit
 .text.ParseAcpiPptt
                0x000000000000d730      0x2f4 /tmp/Shell.dll.y4Q2gW.ltrans1.ltrans.o
                0x000000000000d730                ParseAcpiPptt
 .text.ValidatePccIntAckGas
                0x000000000000da24       0x64 /tmp/Shell.dll.y4Q2gW.ltrans1.ltrans.o
 .text.ValidatePccDoorbellGas
                0x000000000000da88       0x54 /tmp/Shell.dll.y4Q2gW.ltrans1.ltrans.o
 .text.DumpIortNodeIdMappings
                0x000000000000dadc       0xcc /tmp/Shell.dll.y4Q2gW.ltrans1.ltrans.o
 .text.ParseAcpiIort
                0x000000000000dba8      0x620 /tmp/Shell.dll.y4Q2gW.ltrans1.ltrans.o
                0x000000000000dba8                ParseAcpiIort
 .text.ParseAcpiAest
                0x000000000000e1c8      0x4cc /tmp/Shell.dll.y4Q2gW.ltrans1.ltrans.o
                0x000000000000e1c8                ParseAcpiAest
 .text.ParseAcpiHmat
                0x000000000000e694      0x6f8 /tmp/Shell.dll.y4Q2gW.ltrans1.ltrans.o
                0x000000000000e694                ParseAcpiHmat
 .text.ParseAcpiDsdt
                0x000000000000ed8c       0x14 /tmp/Shell.dll.y4Q2gW.ltrans1.ltrans.o
                0x000000000000ed8c                ParseAcpiDsdt
 .text.DumpAcpiTableToFile
                0x000000000000eda0      0x120 /tmp/Shell.dll.y4Q2gW.ltrans1.ltrans.o
 .text.ProcessTableReportOptions
                0x000000000000eec0      0x1ac /tmp/Shell.dll.y4Q2gW.ltrans1.ltrans.o
 .text.PingDestroyTxInfo
                0x000000000000f06c       0xec /tmp/Shell.dll.y4Q2gW.ltrans1.ltrans.o
 .text.ShellCommandRunAcpiView
                0x000000000000f158      0x7c4 /tmp/Shell.dll.y4Q2gW.ltrans1.ltrans.o
                0x000000000000f158                ShellCommandRunAcpiView
 .text.Ping6OnEchoReplyReceived
                0x000000000000f91c      0x288 /tmp/Shell.dll.y4Q2gW.ltrans1.ltrans.o
 .text.ShellCommandRunIfconfig
                0x000000000000fba4     0x11dc /tmp/Shell.dll.y4Q2gW.ltrans1.ltrans.o
                0x000000000000fba4                ShellCommandRunIfconfig
 .text.PingSendEchoRequest
                0x0000000000010d80      0x28c /tmp/Shell.dll.y4Q2gW.ltrans1.ltrans.o
 .text.Ping6OnTimerRoutine
                0x000000000001100c      0x170 /tmp/Shell.dll.y4Q2gW.ltrans1.ltrans.o
 .text.ShellCommandRunPing
                0x000000000001117c      0xdb4 /tmp/Shell.dll.y4Q2gW.ltrans1.ltrans.o
                0x000000000001117c                ShellCommandRunPing
 .text.ProcessAcpiTable
                0x0000000000011f30      0x1b0 /tmp/Shell.dll.y4Q2gW.ltrans1.ltrans.o
                0x0000000000011f30                ProcessAcpiTable
 .text.ParseAcpiRsdp
                0x00000000000120e0       0xc0 /tmp/Shell.dll.y4Q2gW.ltrans1.ltrans.o
                0x00000000000120e0                ParseAcpiRsdp
 .text.ParseAcpiFadt
                0x00000000000121a0      0x200 /tmp/Shell.dll.y4Q2gW.ltrans1.ltrans.o
                0x00000000000121a0                ParseAcpiFadt
 .text.DisplaySELTypes.part.0
                0x00000000000123a0       0x74 /tmp/Shell.dll.y4Q2gW.ltrans1.ltrans.o
                0x00000000000123a0                DisplaySELTypes.part.0
 .text.DisplayMemoryErrorOperation
                0x0000000000012414       0xbc /tmp/Shell.dll.y4Q2gW.ltrans1.ltrans.o
                0x0000000000012414                DisplayMemoryErrorOperation
 .text.DisplayMemoryErrorGranularity
                0x00000000000124d0       0xbc /tmp/Shell.dll.y4Q2gW.ltrans1.ltrans.o
                0x00000000000124d0                DisplayMemoryErrorGranularity
 .text.DisplayMemoryErrorType
                0x000000000001258c       0xbc /tmp/Shell.dll.y4Q2gW.ltrans1.ltrans.o
                0x000000000001258c                DisplayMemoryErrorType
 .text.DisplaySELVarDataFormatType
                0x0000000000012648       0xbc /tmp/Shell.dll.y4Q2gW.ltrans1.ltrans.o
                0x0000000000012648                DisplaySELVarDataFormatType
 .text.DisplayOnboardDeviceTypes
                0x0000000000012704       0xbc /tmp/Shell.dll.y4Q2gW.ltrans1.ltrans.o
                0x0000000000012704                DisplayOnboardDeviceTypes
 .text.DisplaySystemSlotType
                0x00000000000127c0       0xbc /tmp/Shell.dll.y4Q2gW.ltrans1.ltrans.o
                0x00000000000127c0                DisplaySystemSlotType
 .text.DisplayPortConnectorType
                0x000000000001287c       0xbc /tmp/Shell.dll.y4Q2gW.ltrans1.ltrans.o
                0x000000000001287c                DisplayPortConnectorType
 .text.DisplayMcInterleaveSupport
                0x0000000000012938       0xbc /tmp/Shell.dll.y4Q2gW.ltrans1.ltrans.o
                0x0000000000012938                DisplayMcInterleaveSupport
 .text.DisplaySystemEnclosureStatus
                0x00000000000129f4       0xbc /tmp/Shell.dll.y4Q2gW.ltrans1.ltrans.o
                0x00000000000129f4                DisplaySystemEnclosureStatus
 .text.DisplaySystemEnclosureType
                0x0000000000012ab0       0xd8 /tmp/Shell.dll.y4Q2gW.ltrans1.ltrans.o
                0x0000000000012ab0                DisplaySystemEnclosureType
 .text.PrintBitsInfo
                0x0000000000012b88       0xd0 /tmp/Shell.dll.y4Q2gW.ltrans1.ltrans.o
                0x0000000000012b88                PrintBitsInfo
 .text.DisplayMmMemoryType
                0x0000000000012c58       0x7c /tmp/Shell.dll.y4Q2gW.ltrans1.ltrans.o
                0x0000000000012c58                DisplayMmMemoryType
 .text.DisplayMcErrorCorrectCapability
                0x0000000000012cd4       0x7c /tmp/Shell.dll.y4Q2gW.ltrans1.ltrans.o
                0x0000000000012cd4                DisplayMcErrorCorrectCapability
 .text.SmbiosPrintStructure.part.0
                0x0000000000012d50     0x8338 /tmp/Shell.dll.y4Q2gW.ltrans2.ltrans.o
                0x0000000000012d50                SmbiosPrintStructure.part.0
 .text.MemToString
                0x000000000001b088       0x20 /tmp/Shell.dll.y4Q2gW.ltrans3.ltrans.o
 .text.PutBits  0x000000000001b0a8       0xc8 /tmp/Shell.dll.y4Q2gW.ltrans3.ltrans.o
 .text.WritePTLen
                0x000000000001b170       0xd8 /tmp/Shell.dll.y4Q2gW.ltrans3.ltrans.o
 .text.CountLen
                0x000000000001b248       0x90 /tmp/Shell.dll.y4Q2gW.ltrans3.ltrans.o
 .text.DownHeap
                0x000000000001b2d8       0x84 /tmp/Shell.dll.y4Q2gW.ltrans3.ltrans.o
 .text.MakeTree
                0x000000000001b35c      0x304 /tmp/Shell.dll.y4Q2gW.ltrans3.ltrans.o
 .text.FreadCrc
                0x000000000001b660       0xbc /tmp/Shell.dll.y4Q2gW.ltrans3.ltrans.o
 .text.MakeChild
                0x000000000001b71c       0x68 /tmp/Shell.dll.y4Q2gW.ltrans3.ltrans.o
 .text.Child    0x000000000001b784       0x44 /tmp/Shell.dll.y4Q2gW.ltrans3.ltrans.o
 .text.InsertNode
                0x000000000001b7c8      0x31c /tmp/Shell.dll.y4Q2gW.ltrans3.ltrans.o
 .text.PutDword
                0x000000000001bae4       0x7c /tmp/Shell.dll.y4Q2gW.ltrans3.ltrans.o
 .text.HBufferImageRestorePosition
                0x000000000001bb60       0x3c /tmp/Shell.dll.y4Q2gW.ltrans3.ltrans.o
 .text.HBufferImageIsInSelectedArea
                0x000000000001bb9c       0xac /tmp/Shell.dll.y4Q2gW.ltrans3.ltrans.o
 .text.Smbios64BitPrintEPSInfo
                0x000000000001bc48      0x1ac /tmp/Shell.dll.y4Q2gW.ltrans3.ltrans.o
 .text.SmbiosPrintEPSInfo
                0x000000000001bdf4      0x258 /tmp/Shell.dll.y4Q2gW.ltrans3.ltrans.o
 .text.SendBlock
                0x000000000001c04c      0x4b8 /tmp/Shell.dll.y4Q2gW.ltrans3.ltrans.o
 .text.CompressOutput
                0x000000000001c504      0x120 /tmp/Shell.dll.y4Q2gW.ltrans3.ltrans.o
 .text.FreeMemory
                0x000000000001c624       0xb8 /tmp/Shell.dll.y4Q2gW.ltrans3.ltrans.o
 .text.GetNextMatch
                0x000000000001c6dc      0x254 /tmp/Shell.dll.y4Q2gW.ltrans3.ltrans.o
 .text.HBufferImageCreateLine
                0x000000000001c930       0xb8 /tmp/Shell.dll.y4Q2gW.ltrans3.ltrans.o
 .text.HBufferImagePrintLine
                0x000000000001c9e8      0x404 /tmp/Shell.dll.y4Q2gW.ltrans3.ltrans.o
 .text.ExplainPcieRootStatus
                0x000000000001cdec       0x70 /tmp/Shell.dll.y4Q2gW.ltrans3.ltrans.o
                0x000000000001cdec                ExplainPcieRootStatus
 .text.ExplainPcieRootCap
                0x000000000001ce5c       0x30 /tmp/Shell.dll.y4Q2gW.ltrans3.ltrans.o
                0x000000000001ce5c                ExplainPcieRootCap
 .text.ExplainPcieRootControl
                0x000000000001ce8c       0xac /tmp/Shell.dll.y4Q2gW.ltrans3.ltrans.o
                0x000000000001ce8c                ExplainPcieRootControl
 .text.ExplainPcieSlotStatus
                0x000000000001cf38      0x17c /tmp/Shell.dll.y4Q2gW.ltrans3.ltrans.o
                0x000000000001cf38                ExplainPcieSlotStatus
 .text.ExplainPcieSlotControl
                0x000000000001d0b4      0x184 /tmp/Shell.dll.y4Q2gW.ltrans3.ltrans.o
                0x000000000001d0b4                ExplainPcieSlotControl
 .text.ExplainPcieSlotCap
                0x000000000001d238      0x184 /tmp/Shell.dll.y4Q2gW.ltrans3.ltrans.o
                0x000000000001d238                ExplainPcieSlotCap
 .text.ExplainPcieLinkStatus
                0x000000000001d3bc      0x110 /tmp/Shell.dll.y4Q2gW.ltrans3.ltrans.o
                0x000000000001d3bc                ExplainPcieLinkStatus
 .text.ExplainPcieLinkControl
                0x000000000001d4cc      0x168 /tmp/Shell.dll.y4Q2gW.ltrans3.ltrans.o
                0x000000000001d4cc                ExplainPcieLinkControl
 .text.ExplainPcieLinkCap
                0x000000000001d634      0x18c /tmp/Shell.dll.y4Q2gW.ltrans3.ltrans.o
                0x000000000001d634                ExplainPcieLinkCap
 .text.ExplainPcieDeviceStatus
                0x000000000001d7c0       0xc8 /tmp/Shell.dll.y4Q2gW.ltrans3.ltrans.o
                0x000000000001d7c0                ExplainPcieDeviceStatus
 .text.ExplainPcieDeviceControl
                0x000000000001d888      0x200 /tmp/Shell.dll.y4Q2gW.ltrans3.ltrans.o
                0x000000000001d888                ExplainPcieDeviceControl
 .text.ExplainPcieDeviceCap
                0x000000000001da88      0x250 /tmp/Shell.dll.y4Q2gW.ltrans3.ltrans.o
                0x000000000001da88                ExplainPcieDeviceCap
 .text.ExplainPcieCapReg
                0x000000000001dcd8       0xc4 /tmp/Shell.dll.y4Q2gW.ltrans3.ltrans.o
                0x000000000001dcd8                ExplainPcieCapReg
 .text.InputBarPrintInput
                0x000000000001dd9c      0x120 /tmp/Shell.dll.y4Q2gW.ltrans3.ltrans.o
 .text.ShellCommandRunDblk
                0x000000000001debc      0x5a0 /tmp/Shell.dll.y4Q2gW.ltrans3.ltrans.o
                0x000000000001debc                ShellCommandRunDblk
 .text.GetAttrType
                0x000000000001e45c      0x14c /tmp/Shell.dll.y4Q2gW.ltrans3.ltrans.o
 .text.CascadeProcessVariables
                0x000000000001e5a8      0x61c /tmp/Shell.dll.y4Q2gW.ltrans3.ltrans.o
 .text.ShellCommandRunDmpStore
                0x000000000001ebc4      0xc3c /tmp/Shell.dll.y4Q2gW.ltrans3.ltrans.o
                0x000000000001ebc4                ShellCommandRunDmpStore
 .text.DisplayBiosCharacteristics.part.0
                0x000000000001f800      0x3d0 /tmp/Shell.dll.y4Q2gW.ltrans3.ltrans.o
                0x000000000001f800                DisplayBiosCharacteristics.part.0
 .text.DisplayMmMemorySize
                0x000000000001fbd0      0x100 /tmp/Shell.dll.y4Q2gW.ltrans3.ltrans.o
                0x000000000001fbd0                DisplayMmMemorySize
 .text.Compress
                0x000000000001fcd0      0x450 /tmp/Shell.dll.y4Q2gW.ltrans3.ltrans.o
                0x000000000001fcd0                Compress
 .text.HFileImageSetFileName
                0x0000000000020120       0x60 /tmp/Shell.dll.y4Q2gW.ltrans3.ltrans.o
                0x0000000000020120                HFileImageSetFileName
 .text.HBufferImageListToBuffer
                0x0000000000020180       0xec /tmp/Shell.dll.y4Q2gW.ltrans3.ltrans.o
                0x0000000000020180                HBufferImageListToBuffer
 .text.HBufferImageBufferToList
                0x000000000002026c       0xa8 /tmp/Shell.dll.y4Q2gW.ltrans3.ltrans.o
                0x000000000002026c                HBufferImageBufferToList
 .text.HBufferImageGetTotalSize
                0x0000000000020314       0x90 /tmp/Shell.dll.y4Q2gW.ltrans3.ltrans.o
                0x0000000000020314                HBufferImageGetTotalSize
 .text.HBufferImageMovePosition
                0x00000000000203a4       0xe4 /tmp/Shell.dll.y4Q2gW.ltrans3.ltrans.o
                0x00000000000203a4                HBufferImageMovePosition
 .text.HBufferImageIsAtHighBits
                0x0000000000020488       0x50 /tmp/Shell.dll.y4Q2gW.ltrans3.ltrans.o
                0x0000000000020488                HBufferImageIsAtHighBits
 .text.HBufferImageRestoreMousePosition
                0x00000000000204d8      0x2d4 /tmp/Shell.dll.y4Q2gW.ltrans3.ltrans.o
 .text.HBufferImageRefresh
                0x00000000000207ac      0x2f4 /tmp/Shell.dll.y4Q2gW.ltrans3.ltrans.o
                0x00000000000207ac                HBufferImageRefresh
 .text.HBufferImageFreeLines
                0x0000000000020aa0       0xb0 /tmp/Shell.dll.y4Q2gW.ltrans3.ltrans.o
                0x0000000000020aa0                HBufferImageFreeLines
 .text.HBufferImageDeleteCharacterFromBuffer
                0x0000000000020b50      0x1cc /tmp/Shell.dll.y4Q2gW.ltrans3.ltrans.o
                0x0000000000020b50                HBufferImageDeleteCharacterFromBuffer
 .text.HBufferImageBackup
                0x0000000000020d1c      0x10c /tmp/Shell.dll.y4Q2gW.ltrans3.ltrans.o
                0x0000000000020d1c                HBufferImageBackup
 .text.MenuBarDispatchControlHotKey
                0x0000000000020e28       0x9c /tmp/Shell.dll.y4Q2gW.ltrans3.ltrans.o
                0x0000000000020e28                MenuBarDispatchControlHotKey
 .text.MenuBarInit
                0x0000000000020ec4       0x94 /tmp/Shell.dll.y4Q2gW.ltrans3.ltrans.o
                0x0000000000020ec4                MenuBarInit
 .text.MenuBarCleanup
                0x0000000000020f58       0x2c /tmp/Shell.dll.y4Q2gW.ltrans3.ltrans.o
                0x0000000000020f58                MenuBarCleanup
 .text.StatusBarSetStatusString
                0x0000000000020f84       0x64 /tmp/Shell.dll.y4Q2gW.ltrans3.ltrans.o
                0x0000000000020f84                StatusBarSetStatusString
 .text.HMemImageRead
                0x0000000000020fe8      0x1d8 /tmp/Shell.dll.y4Q2gW.ltrans3.ltrans.o
                0x0000000000020fe8                HMemImageRead
 .text.HFileImageRead
                0x00000000000211c0      0x2f0 /tmp/Shell.dll.y4Q2gW.ltrans3.ltrans.o
                0x00000000000211c0                HFileImageRead
 .text.HDiskImageRead
                0x00000000000214b0      0x32c /tmp/Shell.dll.y4Q2gW.ltrans3.ltrans.o
                0x00000000000214b0                HDiskImageRead
 .text.HBufferImageRead
                0x00000000000217dc       0x8c /tmp/Shell.dll.y4Q2gW.ltrans3.ltrans.o
                0x00000000000217dc                HBufferImageRead
 .text.HBufferImageHandleInput
                0x0000000000021868      0x538 /tmp/Shell.dll.y4Q2gW.ltrans3.ltrans.o
                0x0000000000021868                HBufferImageHandleInput
 .text.MenuBarDispatchFunctionKey
                0x0000000000021da0       0x58 /tmp/Shell.dll.y4Q2gW.ltrans3.ltrans.o
                0x0000000000021da0                MenuBarDispatchFunctionKey
 .text.StatusBarCleanup
                0x0000000000021df8       0x2c /tmp/Shell.dll.y4Q2gW.ltrans3.ltrans.o
                0x0000000000021df8                StatusBarCleanup
 .text.InputBarSetStringSize
                0x0000000000021e24       0x58 /tmp/Shell.dll.y4Q2gW.ltrans3.ltrans.o
                0x0000000000021e24                InputBarSetStringSize
 .text.InputBarSetPrompt
                0x0000000000021e7c       0x58 /tmp/Shell.dll.y4Q2gW.ltrans3.ltrans.o
                0x0000000000021e7c                InputBarSetPrompt
 .text.InputBarRefresh
                0x0000000000021ed4      0x288 /tmp/Shell.dll.y4Q2gW.ltrans3.ltrans.o
                0x0000000000021ed4                InputBarRefresh
 .text.InputBarCleanup
                0x000000000002215c       0x48 /tmp/Shell.dll.y4Q2gW.ltrans3.ltrans.o
                0x000000000002215c                InputBarCleanup
 .text.MainTitleBarRefresh
                0x00000000000221a4      0x240 /tmp/Shell.dll.y4Q2gW.ltrans3.ltrans.o
                0x00000000000221a4                MainTitleBarRefresh
 .text.MainTitleBarCleanup
                0x00000000000223e4       0x30 /tmp/Shell.dll.y4Q2gW.ltrans3.ltrans.o
                0x00000000000223e4                MainTitleBarCleanup
 .text.LibGetSmbiosString
                0x0000000000022414       0x58 /tmp/Shell.dll.y4Q2gW.ltrans3.ltrans.o
                0x0000000000022414                LibGetSmbiosString
 .text.LibGetSmbios64BitStructure
                0x000000000002246c      0x12c /tmp/Shell.dll.y4Q2gW.ltrans3.ltrans.o
 .text.LibGetSmbiosStructure
                0x0000000000022598      0x130 /tmp/Shell.dll.y4Q2gW.ltrans3.ltrans.o
 .text.ShellCommandRunSmbiosView
                0x00000000000226c8      0xfdc /tmp/Shell.dll.y4Q2gW.ltrans3.ltrans.o
                0x00000000000226c8                ShellCommandRunSmbiosView
 .text.PciGetProtocolAndResource
                0x00000000000236a4       0x64 /tmp/Shell.dll.y4Q2gW.ltrans3.ltrans.o
                0x00000000000236a4                PciGetProtocolAndResource
 .text.FileBufferReadByte
                0x0000000000023708       0xc8 /tmp/Shell.dll.y4Q2gW.ltrans4.ltrans.o
 .text.FileBufferUninit.isra.0
                0x00000000000237d0       0x2c /tmp/Shell.dll.y4Q2gW.ltrans4.ltrans.o
 .text.PciPrintClassCode
                0x00000000000237fc       0xe4 /tmp/Shell.dll.y4Q2gW.ltrans4.ltrans.o
 .text.PrintDifferentPoint
                0x00000000000238e0      0x124 /tmp/Shell.dll.y4Q2gW.ltrans4.ltrans.o
 .text.ShellCommandRunPci
                0x0000000000023a04     0x16c4 /tmp/Shell.dll.y4Q2gW.ltrans4.ltrans.o
                0x0000000000023a04                ShellCommandRunPci
 .text.DisplaySettings
                0x00000000000250c8      0x240 /tmp/Shell.dll.y4Q2gW.ltrans4.ltrans.o
 .text.ShellCommandRunSerMode
                0x0000000000025308      0x54c /tmp/Shell.dll.y4Q2gW.ltrans4.ltrans.o
                0x0000000000025308                ShellCommandRunSerMode
 .text.IsStringOfHexNibbles
                0x0000000000025854       0x3c /tmp/Shell.dll.y4Q2gW.ltrans4.ltrans.o
 .text.ParseParameterData
                0x0000000000025890      0x658 /tmp/Shell.dll.y4Q2gW.ltrans4.ltrans.o
 .text.ShellCommandRunSetVar
                0x0000000000025ee8      0x798 /tmp/Shell.dll.y4Q2gW.ltrans4.ltrans.o
                0x0000000000025ee8                ShellCommandRunSetVar
 .text.ShellMmAccess
                0x0000000000026680      0x4a0 /tmp/Shell.dll.y4Q2gW.ltrans4.ltrans.o
 .text.ShellCommandRunMm
                0x0000000000026b20      0x93c /tmp/Shell.dll.y4Q2gW.ltrans4.ltrans.o
                0x0000000000026b20                ShellCommandRunMm
 .text.LoadEfiDriversFromRomImage
                0x000000000002745c      0x3c8 /tmp/Shell.dll.y4Q2gW.ltrans4.ltrans.o
 .text.ShellCommandRunLoadPciRom
                0x0000000000027824      0x3dc /tmp/Shell.dll.y4Q2gW.ltrans4.ltrans.o
                0x0000000000027824                ShellCommandRunLoadPciRom
 .text.ShellCommandRunDmem
                0x0000000000027c00      0x5c8 /tmp/Shell.dll.y4Q2gW.ltrans4.ltrans.o
                0x0000000000027c00                ShellCommandRunDmem
 .text.ShellCommandRunMode
                0x00000000000281c8      0x450 /tmp/Shell.dll.y4Q2gW.ltrans4.ltrans.o
                0x00000000000281c8                ShellCommandRunMode
 .text.ShellCommandRunEfiDecompress
                0x0000000000028618      0x73c /tmp/Shell.dll.y4Q2gW.ltrans4.ltrans.o
                0x0000000000028618                ShellCommandRunEfiDecompress
 .text.ShellCommandRunEfiCompress
                0x0000000000028d54      0x628 /tmp/Shell.dll.y4Q2gW.ltrans4.ltrans.o
                0x0000000000028d54                ShellCommandRunEfiCompress
 .text.ShellCommandRunMemMap
                0x000000000002937c      0xcb8 /tmp/Shell.dll.y4Q2gW.ltrans4.ltrans.o
                0x000000000002937c                ShellCommandRunMemMap
 .text.ShellCommandRunComp
                0x000000000002a034      0xa8c /tmp/Shell.dll.y4Q2gW.ltrans4.ltrans.o
                0x000000000002a034                ShellCommandRunComp
 .text.ShellCommandRunSetSize
                0x000000000002aac0      0x3ec /tmp/Shell.dll.y4Q2gW.ltrans4.ltrans.o
                0x000000000002aac0                ShellCommandRunSetSize
 .text.HMainCommandOpenMemory
                0x000000000002aeac      0x2e0 /tmp/Shell.dll.y4Q2gW.ltrans4.ltrans.o
                0x000000000002aeac                HMainCommandOpenMemory
 .text.HLineRetreat
                0x000000000002b18c       0xc8 /tmp/Shell.dll.y4Q2gW.ltrans4.ltrans.o
                0x000000000002b18c                HLineRetreat
 .text.HLineAdvance
                0x000000000002b254       0xc8 /tmp/Shell.dll.y4Q2gW.ltrans4.ltrans.o
                0x000000000002b254                HLineAdvance
 .text.HMoveLine
                0x000000000002b31c       0x14 /tmp/Shell.dll.y4Q2gW.ltrans4.ltrans.o
                0x000000000002b31c                HMoveLine
 .text.HMainEditorRefresh
                0x000000000002b330      0x274 /tmp/Shell.dll.y4Q2gW.ltrans4.ltrans.o
                0x000000000002b330                HMainEditorRefresh
 .text.LineDeleteAt
                0x000000000002b5a4       0x34 /tmp/Shell.dll.y4Q2gW.ltrans5.ltrans.o
 .text.FileBufferRestorePosition
                0x000000000002b5d8       0x2c /tmp/Shell.dll.y4Q2gW.ltrans5.ltrans.o
 .text.ShellCommandGetManFileNameDebug1
                0x000000000002b604        0xc /tmp/Shell.dll.y4Q2gW.ltrans5.ltrans.o
                0x000000000002b604                ShellCommandGetManFileNameDebug1
 .text.IsValidFileName
                0x000000000002b610       0xc8 /tmp/Shell.dll.y4Q2gW.ltrans5.ltrans.o
 .text.HMainCommandExit
                0x000000000002b6d8       0xe8 /tmp/Shell.dll.y4Q2gW.ltrans5.ltrans.o
 .text.HMainCommandOpenDisk
                0x000000000002b7c0      0x314 /tmp/Shell.dll.y4Q2gW.ltrans5.ltrans.o
 .text.HMainCommandSelectEnd
                0x000000000002bad4       0x90 /tmp/Shell.dll.y4Q2gW.ltrans5.ltrans.o
 .text.HMainCommandSelectStart
                0x000000000002bb64       0x80 /tmp/Shell.dll.y4Q2gW.ltrans5.ltrans.o
 .text.MainCommandSwitchFileType
                0x000000000002bbe4       0x54 /tmp/Shell.dll.y4Q2gW.ltrans5.ltrans.o
 .text.HMainCommandOpenFile
                0x000000000002bc38      0x2d8 /tmp/Shell.dll.y4Q2gW.ltrans5.ltrans.o
 .text.InternalEditorMiscLineRetreat.part.0
                0x000000000002bf10       0xb8 /tmp/Shell.dll.y4Q2gW.ltrans5.ltrans.o
 .text.InternalEditorMiscLineAdvance.part.0
                0x000000000002bfc8       0xb4 /tmp/Shell.dll.y4Q2gW.ltrans5.ltrans.o
 .text.FileBufferMovePosition
                0x000000000002c07c      0x160 /tmp/Shell.dll.y4Q2gW.ltrans5.ltrans.o
 .text.FileBufferScrollRight
                0x000000000002c1dc       0x64 /tmp/Shell.dll.y4Q2gW.ltrans5.ltrans.o
 .text.MoveLine
                0x000000000002c240       0x44 /tmp/Shell.dll.y4Q2gW.ltrans5.ltrans.o
 .text.FileBufferScrollLeft
                0x000000000002c284       0xac /tmp/Shell.dll.y4Q2gW.ltrans5.ltrans.o
 .text.LineCat  0x000000000002c330       0x7c /tmp/Shell.dll.y4Q2gW.ltrans5.ltrans.o
 .text.FileBufferSetFileName
                0x000000000002c3ac       0x70 /tmp/Shell.dll.y4Q2gW.ltrans5.ltrans.o
 .text.FileBufferFreeLines
                0x000000000002c41c       0xd0 /tmp/Shell.dll.y4Q2gW.ltrans5.ltrans.o
 .text.MainCommandPasteLine
                0x000000000002c4ec      0x16c /tmp/Shell.dll.y4Q2gW.ltrans5.ltrans.o
 .text.HMainCommandPaste
                0x000000000002c658      0x230 /tmp/Shell.dll.y4Q2gW.ltrans5.ltrans.o
 .text.HMainCommandCut
                0x000000000002c888       0xd0 /tmp/Shell.dll.y4Q2gW.ltrans5.ltrans.o
 .text.HMainCommandSaveBuffer
                0x000000000002c958      0x368 /tmp/Shell.dll.y4Q2gW.ltrans5.ltrans.o
 .text.HMainCommandGoToOffset
                0x000000000002ccc0      0x12c /tmp/Shell.dll.y4Q2gW.ltrans5.ltrans.o
 .text.FileBufferRestoreMousePosition
                0x000000000002cdec      0x214 /tmp/Shell.dll.y4Q2gW.ltrans5.ltrans.o
 .text.HMainCommandDisplayHelp
                0x000000000002d000      0x14c /tmp/Shell.dll.y4Q2gW.ltrans5.ltrans.o
 .text.MainCommandGotoLine
                0x000000000002d14c       0xb0 /tmp/Shell.dll.y4Q2gW.ltrans5.ltrans.o
 .text.EditGetDefaultFileName
                0x000000000002d1fc       0x8c /tmp/Shell.dll.y4Q2gW.ltrans5.ltrans.o
 .text.ShellCommandRunHexEdit
                0x000000000002d288     0x132c /tmp/Shell.dll.y4Q2gW.ltrans5.ltrans.o
                0x000000000002d288                ShellCommandRunHexEdit
 .text.FileBufferSave
                0x000000000002e5b4      0x4e4 /tmp/Shell.dll.y4Q2gW.ltrans5.ltrans.o
 .text.MainCommandSaveFile
                0x000000000002ea98      0x2cc /tmp/Shell.dll.y4Q2gW.ltrans5.ltrans.o
 .text.MainCommandExit
                0x000000000002ed64       0xe8 /tmp/Shell.dll.y4Q2gW.ltrans5.ltrans.o
 .text.FileBufferCreateLine
                0x000000000002ee4c       0xdc /tmp/Shell.dll.y4Q2gW.ltrans5.ltrans.o
 .text.MainCommandCutLine
                0x000000000002ef28      0x18c /tmp/Shell.dll.y4Q2gW.ltrans5.ltrans.o
 .text.FileBufferRead
                0x000000000002f0b4      0x598 /tmp/Shell.dll.y4Q2gW.ltrans5.ltrans.o
 .text.MainCommandOpenFile
                0x000000000002f64c      0x1d8 /tmp/Shell.dll.y4Q2gW.ltrans5.ltrans.o
 .text.FileBufferPrintLine
                0x000000000002f824      0x118 /tmp/Shell.dll.y4Q2gW.ltrans5.ltrans.o
 .text.FileBufferBackup
                0x000000000002f93c       0x94 /tmp/Shell.dll.y4Q2gW.ltrans5.ltrans.o
 .text.ShellCmdDriverConfigurationProcessActionRequired
                0x000000000002f9d0      0x240 /tmp/Shell.dll.y4Q2gW.ltrans5.ltrans.o
 .text.PreHiiDrvCfg
                0x000000000002fc10      0x8d0 /tmp/Shell.dll.y4Q2gW.ltrans5.ltrans.o
 .text.ShellCommandRunDevTree
                0x00000000000304e0      0x3dc /tmp/Shell.dll.y4Q2gW.ltrans5.ltrans.o
                0x00000000000304e0                ShellCommandRunDevTree
 .text.EditorClearLine
                0x00000000000308bc       0xf8 /tmp/Shell.dll.y4Q2gW.ltrans5.ltrans.o
                0x00000000000308bc                EditorClearLine
 .text.FileBufferRefresh
                0x00000000000309b4      0x220 /tmp/Shell.dll.y4Q2gW.ltrans5.ltrans.o
 .text.MainEditorRefresh
                0x0000000000030bd4      0x138 /tmp/Shell.dll.y4Q2gW.ltrans5.ltrans.o
 .text.ShellCommandRunEdit
                0x0000000000030d0c     0x10c4 /tmp/Shell.dll.y4Q2gW.ltrans5.ltrans.o
                0x0000000000030d0c                ShellCommandRunEdit
 .text.MainCommandDisplayHelp
                0x0000000000031dd0      0x150 /tmp/Shell.dll.y4Q2gW.ltrans5.ltrans.o
 .text.FileBufferSearch
                0x0000000000031f20      0x13c /tmp/Shell.dll.y4Q2gW.ltrans5.ltrans.o
 .text.MainCommandSearchReplace
                0x000000000003205c      0x73c /tmp/Shell.dll.y4Q2gW.ltrans5.ltrans.o
 .text.MainCommandSearch
                0x0000000000032798      0x19c /tmp/Shell.dll.y4Q2gW.ltrans5.ltrans.o
 .text.GetSystemConfigurationTable
                0x0000000000032934       0xa0 /tmp/Shell.dll.y4Q2gW.ltrans5.ltrans.o
                0x0000000000032934                GetSystemConfigurationTable
 .text.FindHiiHandleViaDevPath
                0x00000000000329d4      0x2a4 /tmp/Shell.dll.y4Q2gW.ltrans5.ltrans.o
                0x00000000000329d4                FindHiiHandleViaDevPath
 .text.ShellCommandRunDrvCfg
                0x0000000000032c78      0xda0 /tmp/Shell.dll.y4Q2gW.ltrans5.ltrans.o
                0x0000000000032c78                ShellCommandRunDrvCfg
 .text.ShellCommandGetManFileNameDriver1
                0x0000000000033a18        0xc /tmp/Shell.dll.y4Q2gW.ltrans6.ltrans.o
                0x0000000000033a18                ShellCommandGetManFileNameDriver1
 .text.ShellCommandGetManFileNameLevel3
                0x0000000000033a24        0xc /tmp/Shell.dll.y4Q2gW.ltrans6.ltrans.o
                0x0000000000033a24                ShellCommandGetManFileNameLevel3
 .text.ShellLevel3CommandsLibSetAlias
                0x0000000000033a30       0xbc /tmp/Shell.dll.y4Q2gW.ltrans6.ltrans.o
 .text.GetDriverImageName
                0x0000000000033aec       0xa4 /tmp/Shell.dll.y4Q2gW.ltrans6.ltrans.o
 .text.ShellCommandRunDrivers
                0x0000000000033b90      0x8e8 /tmp/Shell.dll.y4Q2gW.ltrans6.ltrans.o
                0x0000000000033b90                ShellCommandRunDrivers
 .text.ShellCommandRunDevices
                0x0000000000034478      0x5d4 /tmp/Shell.dll.y4Q2gW.ltrans6.ltrans.o
                0x0000000000034478                ShellCommandRunDevices
 .text.ShellCommandRunVer
                0x0000000000034a4c      0x3cc /tmp/Shell.dll.y4Q2gW.ltrans6.ltrans.o
                0x0000000000034a4c                ShellCommandRunVer
 .text.ShellCommandRunGetMtc
                0x0000000000034e18      0x220 /tmp/Shell.dll.y4Q2gW.ltrans6.ltrans.o
                0x0000000000034e18                ShellCommandRunGetMtc
 .text.ShellCommandRunStall
                0x0000000000035038      0x2a4 /tmp/Shell.dll.y4Q2gW.ltrans6.ltrans.o
                0x0000000000035038                ShellCommandRunStall
 .text.ShellCommandRunOpenInfo
                0x00000000000352dc      0x534 /tmp/Shell.dll.y4Q2gW.ltrans6.ltrans.o
                0x00000000000352dc                ShellCommandRunOpenInfo
 .text.ShellCommandRunEcho
                0x0000000000035810      0x29c /tmp/Shell.dll.y4Q2gW.ltrans6.ltrans.o
                0x0000000000035810                ShellCommandRunEcho
 .text.GetProtocolInfoString
                0x0000000000035aac      0x31c /tmp/Shell.dll.y4Q2gW.ltrans6.ltrans.o
 .text.GetDriverName
                0x0000000000035dc8      0x124 /tmp/Shell.dll.y4Q2gW.ltrans6.ltrans.o
 .text.DoDhByHandle
                0x0000000000035eec      0xac8 /tmp/Shell.dll.y4Q2gW.ltrans6.ltrans.o
 .text.DoDhByProtocolGuid
                0x00000000000369b4      0x100 /tmp/Shell.dll.y4Q2gW.ltrans6.ltrans.o
 .text.ConvertStrToGuid
                0x0000000000036ab4      0x1a4 /tmp/Shell.dll.y4Q2gW.ltrans6.ltrans.o
 .text.ShellCommandRunDh
                0x0000000000036c58      0x664 /tmp/Shell.dll.y4Q2gW.ltrans6.ltrans.o
                0x0000000000036c58                ShellCommandRunDh
 .text.ShellCommandRunDrvDiag
                0x00000000000372bc      0xa90 /tmp/Shell.dll.y4Q2gW.ltrans6.ltrans.o
                0x00000000000372bc                ShellCommandRunDrvDiag
 .text.ShellCommandRunUnload
                0x0000000000037d4c      0x394 /tmp/Shell.dll.y4Q2gW.ltrans6.ltrans.o
                0x0000000000037d4c                ShellCommandRunUnload
 .text.ShellConnectFromDevPaths
                0x00000000000380e0      0x3f0 /tmp/Shell.dll.y4Q2gW.ltrans6.ltrans.o
 .text.ShellCommandRunDisconnect
                0x00000000000384d0      0x590 /tmp/Shell.dll.y4Q2gW.ltrans6.ltrans.o
                0x00000000000384d0                ShellCommandRunDisconnect
 .text.ShellCommandRunConnect
                0x0000000000038a60      0x6bc /tmp/Shell.dll.y4Q2gW.ltrans6.ltrans.o
                0x0000000000038a60                ShellCommandRunConnect
 .text.ShellCommandRunReconnect
                0x000000000003911c      0x22c /tmp/Shell.dll.y4Q2gW.ltrans6.ltrans.o
                0x000000000003911c                ShellCommandRunReconnect
 .text.DoTouchByHandle
                0x0000000000039348      0x2bc /tmp/Shell.dll.y4Q2gW.ltrans6.ltrans.o
 .text.ShellCommandRunTouch
                0x0000000000039604      0x420 /tmp/Shell.dll.y4Q2gW.ltrans6.ltrans.o
                0x0000000000039604                ShellCommandRunTouch
 .text.ShellCommandRunType
                0x0000000000039a24      0x79c /tmp/Shell.dll.y4Q2gW.ltrans6.ltrans.o
                0x0000000000039a24                ShellCommandRunType
 .text.ShellCommandRunCls
                0x000000000003a1c0      0x440 /tmp/Shell.dll.y4Q2gW.ltrans6.ltrans.o
                0x000000000003a1c0                ShellCommandRunCls
 .text.LexicalInsertIntoList
                0x000000000003a600      0x128 /tmp/Shell.dll.y4Q2gW.ltrans6.ltrans.o
 .text.ShellCommandRunHelp
                0x000000000003a728      0x8bc /tmp/Shell.dll.y4Q2gW.ltrans6.ltrans.o
                0x000000000003a728                ShellCommandRunHelp
 .text.ShellCommandRunPause
                0x000000000003afe4      0x2dc /tmp/Shell.dll.y4Q2gW.ltrans6.ltrans.o
                0x000000000003afe4                ShellCommandRunPause
 .text.PrintSingleShellAlias
                0x000000000003b2c0       0xe8 /tmp/Shell.dll.y4Q2gW.ltrans6.ltrans.o
 .text.ShellCommandRunAlias
                0x000000000003b3a8      0x424 /tmp/Shell.dll.y4Q2gW.ltrans6.ltrans.o
                0x000000000003b3a8                ShellCommandRunAlias
 .text.ShellCommandRunShift
                0x000000000003b7cc      0x16c /tmp/Shell.dll.y4Q2gW.ltrans6.ltrans.o
                0x000000000003b7cc                ShellCommandRunShift
 .text.DoDevTreeForHandle
                0x000000000003b938      0x250 /tmp/Shell.dll.y4Q2gW.ltrans6.ltrans.o
                0x000000000003b938                DoDevTreeForHandle
 .text.ShellCommandGetManFileNameLevel1
                0x000000000003bb88        0xc /tmp/Shell.dll.y4Q2gW.ltrans7.ltrans.o
                0x000000000003bb88                ShellCommandGetManFileNameLevel1
 .text.ShellIsValidForNumber
                0x000000000003bb94       0xb4 /tmp/Shell.dll.y4Q2gW.ltrans7.ltrans.o
 .text.IsNextFragment
                0x000000000003bc48      0x10c /tmp/Shell.dll.y4Q2gW.ltrans7.ltrans.o
 .text.TestNodeForMove
                0x000000000003bd54      0x19c /tmp/Shell.dll.y4Q2gW.ltrans7.ltrans.o
 .text.MoveToTag
                0x000000000003bef0      0x198 /tmp/Shell.dll.y4Q2gW.ltrans7.ltrans.o
 .text.PerformResultOperation
                0x000000000003c088      0x1cc /tmp/Shell.dll.y4Q2gW.ltrans7.ltrans.o
 .text.ShellCommandRunEndFor
                0x000000000003c254      0x188 /tmp/Shell.dll.y4Q2gW.ltrans7.ltrans.o
                0x000000000003c254                ShellCommandRunEndFor
 .text.ShellCommandRunEndIf
                0x000000000003c3dc      0x18c /tmp/Shell.dll.y4Q2gW.ltrans7.ltrans.o
                0x000000000003c3dc                ShellCommandRunEndIf
 .text.ShellCommandRunElse
                0x000000000003c568      0x234 /tmp/Shell.dll.y4Q2gW.ltrans7.ltrans.o
                0x000000000003c568                ShellCommandRunElse
 .text.ReturnUintn
                0x000000000003c79c       0x60 /tmp/Shell.dll.y4Q2gW.ltrans7.ltrans.o
 .text.InternalRemoveAliasFromList
                0x000000000003c7fc      0x110 /tmp/Shell.dll.y4Q2gW.ltrans7.ltrans.o
 .text.InternalIsAliasOnList
                0x000000000003c90c       0xf0 /tmp/Shell.dll.y4Q2gW.ltrans7.ltrans.o
 .text.InternalUpdateAliasOnList
                0x000000000003c9fc      0x1bc /tmp/Shell.dll.y4Q2gW.ltrans7.ltrans.o
 .text.ShellCommandRunFor
                0x000000000003cbb8      0xd70 /tmp/Shell.dll.y4Q2gW.ltrans7.ltrans.o
                0x000000000003cbb8                ShellCommandRunFor
 .text.ShellCommandRunIf
                0x000000000003d928     0x172c /tmp/Shell.dll.y4Q2gW.ltrans7.ltrans.o
                0x000000000003d928                ShellCommandRunIf
 .text.ShellCommandRunGoto
                0x000000000003f054      0x324 /tmp/Shell.dll.y4Q2gW.ltrans7.ltrans.o
                0x000000000003f054                ShellCommandRunGoto
 .text.ShellCommandRunExit
                0x000000000003f378      0x278 /tmp/Shell.dll.y4Q2gW.ltrans7.ltrans.o
                0x000000000003f378                ShellCommandRunExit
 .text.ShellCommandRunVol
                0x000000000003f5f0      0x848 /tmp/Shell.dll.y4Q2gW.ltrans7.ltrans.o
                0x000000000003f5f0                ShellCommandRunVol
 .text.ShellCommandRunAttrib
                0x000000000003fe38      0x6a8 /tmp/Shell.dll.y4Q2gW.ltrans7.ltrans.o
                0x000000000003fe38                ShellCommandRunAttrib
 .text.CascadeDelete
                0x00000000000404e0      0x480 /tmp/Shell.dll.y4Q2gW.ltrans7.ltrans.o
 .text.ValidateAndMoveFiles
                0x0000000000040960      0xe78 /tmp/Shell.dll.y4Q2gW.ltrans7.ltrans.o
 .text.ShellCommandRunMv
                0x00000000000417d8      0x484 /tmp/Shell.dll.y4Q2gW.ltrans7.ltrans.o
                0x00000000000417d8                ShellCommandRunMv
 .text.ShellCommandRunRm
                0x0000000000041c5c      0x448 /tmp/Shell.dll.y4Q2gW.ltrans7.ltrans.o
                0x0000000000041c5c                ShellCommandRunRm
 .text.ShellCommandRunParse
                0x00000000000420a4      0x634 /tmp/Shell.dll.y4Q2gW.ltrans7.ltrans.o
                0x00000000000420a4                ShellCommandRunParse
 .text.ProcessValidateAndCopyFiles
                0x00000000000426d8      0x208 /tmp/Shell.dll.y4Q2gW.ltrans7.ltrans.o
 .text.ShellCommandRunCp
                0x00000000000428e0      0x50c /tmp/Shell.dll.y4Q2gW.ltrans7.ltrans.o
                0x00000000000428e0                ShellCommandRunCp
 .text.IsNumberLetterOnly
                0x0000000000042dec       0x54 /tmp/Shell.dll.y4Q2gW.ltrans8.ltrans.o
 .text.InternalIsTimeLikeString
                0x0000000000042e40       0x7c /tmp/Shell.dll.y4Q2gW.ltrans8.ltrans.o
 .text.ShellCommandGetManFileNameLevel2
                0x0000000000042ebc        0xc /tmp/Shell.dll.y4Q2gW.ltrans8.ltrans.o
                0x0000000000042ebc                ShellCommandGetManFileNameLevel2
 .text.DevPathSerialDefault
                0x0000000000042ec8        0x8 /tmp/Shell.dll.y4Q2gW.ltrans8.ltrans.o
 .text.DevPathCompareAcpi
                0x0000000000042ed0       0x50 /tmp/Shell.dll.y4Q2gW.ltrans8.ltrans.o
 .text.FileTimeToLocalTime
                0x0000000000042f20      0x1a8 /tmp/Shell.dll.y4Q2gW.ltrans8.ltrans.o
 .text.DevPathComparePci
                0x00000000000430c8       0x9c /tmp/Shell.dll.y4Q2gW.ltrans8.ltrans.o
 .text.VerifyIntermediateDirectories
                0x0000000000043164      0x158 /tmp/Shell.dll.y4Q2gW.ltrans8.ltrans.o
 .text.GetFullyQualifiedPath
                0x00000000000432bc      0x100 /tmp/Shell.dll.y4Q2gW.ltrans8.ltrans.o
 .text.PrintNonSfoHeader
                0x00000000000433bc       0x64 /tmp/Shell.dll.y4Q2gW.ltrans8.ltrans.o
 .text.LoadDriver
                0x0000000000043420      0x344 /tmp/Shell.dll.y4Q2gW.ltrans8.ltrans.o
 .text.ShellCommandRunLoad
                0x0000000000043764      0x2f4 /tmp/Shell.dll.y4Q2gW.ltrans8.ltrans.o
                0x0000000000043764                ShellCommandRunLoad
 .text.ShellCommandRunMkDir
                0x0000000000043a58      0x32c /tmp/Shell.dll.y4Q2gW.ltrans8.ltrans.o
                0x0000000000043a58                ShellCommandRunMkDir
 .text.StrniCmp.part.0
                0x0000000000043d84       0xdc /tmp/Shell.dll.y4Q2gW.ltrans8.ltrans.o
 .text.ShellCommandRunCd
                0x0000000000043e60      0x670 /tmp/Shell.dll.y4Q2gW.ltrans8.ltrans.o
                0x0000000000043e60                ShellCommandRunCd
 .text.ShellCommandRunSet
                0x00000000000444d0      0x470 /tmp/Shell.dll.y4Q2gW.ltrans8.ltrans.o
                0x00000000000444d0                ShellCommandRunSet
 .text.ShellCommandRunReset
                0x0000000000044940      0x42c /tmp/Shell.dll.y4Q2gW.ltrans8.ltrans.o
                0x0000000000044940                ShellCommandRunReset
 .text.ShellCommandRunTime
                0x0000000000044d6c      0x778 /tmp/Shell.dll.y4Q2gW.ltrans8.ltrans.o
                0x0000000000044d6c                ShellCommandRunTime
 .text.ShellCommandRunDate
                0x00000000000454e4      0x44c /tmp/Shell.dll.y4Q2gW.ltrans8.ltrans.o
                0x00000000000454e4                ShellCommandRunDate
 .text.PerformSingleMappingDelete
                0x0000000000045930       0xb4 /tmp/Shell.dll.y4Q2gW.ltrans8.ltrans.o
 .text.PerformSingleMappingDisplay
                0x00000000000459e4      0x6dc /tmp/Shell.dll.y4Q2gW.ltrans8.ltrans.o
 .text.PerformMappingDisplay
                0x00000000000460c0      0x3c4 /tmp/Shell.dll.y4Q2gW.ltrans8.ltrans.o
 .text.ShellCommandRunTimeZone
                0x0000000000046484      0x6e4 /tmp/Shell.dll.y4Q2gW.ltrans8.ltrans.o
                0x0000000000046484                ShellCommandRunTimeZone
 .text.PrintLsOutput
                0x0000000000046b68      0xb5c /tmp/Shell.dll.y4Q2gW.ltrans8.ltrans.o
 .text.ShellCommandRunLs
                0x00000000000476c4      0x734 /tmp/Shell.dll.y4Q2gW.ltrans8.ltrans.o
                0x00000000000476c4                ShellCommandRunLs
 .text.GetHIDevicePath
                0x0000000000047df8      0x184 /tmp/Shell.dll.y4Q2gW.ltrans8.ltrans.o
 .text.DevPathCompareDefault
                0x0000000000047f7c       0xb4 /tmp/Shell.dll.y4Q2gW.ltrans8.ltrans.o
 .text.CatPrint
                0x0000000000048030      0x154 /tmp/Shell.dll.y4Q2gW.ltrans8.ltrans.o
 .text.AppendCSDStr
                0x0000000000048184      0x198 /tmp/Shell.dll.y4Q2gW.ltrans8.ltrans.o
 .text.DevPathSerial1394
                0x000000000004831c       0xbc /tmp/Shell.dll.y4Q2gW.ltrans8.ltrans.o
 .text.DevPathSerialMacAddr
                0x00000000000483d8      0x104 /tmp/Shell.dll.y4Q2gW.ltrans8.ltrans.o
 .text.AppendCSDNum2
                0x00000000000484dc       0x88 /tmp/Shell.dll.y4Q2gW.ltrans8.ltrans.o
 .text.AppendCSDNum
                0x0000000000048564       0x84 /tmp/Shell.dll.y4Q2gW.ltrans8.ltrans.o
 .text.DevPathSerialAcpi
                0x00000000000485e8       0xa0 /tmp/Shell.dll.y4Q2gW.ltrans8.ltrans.o
 .text.DevPathSerialScsi
                0x0000000000048688       0x88 /tmp/Shell.dll.y4Q2gW.ltrans8.ltrans.o
 .text.DevPathSerialIPv6
                0x0000000000048710      0x150 /tmp/Shell.dll.y4Q2gW.ltrans8.ltrans.o
 .text.DevPathSerialIPv4
                0x0000000000048860      0x11c /tmp/Shell.dll.y4Q2gW.ltrans8.ltrans.o
 .text.DevPathSerialInfiniBand
                0x000000000004897c      0x120 /tmp/Shell.dll.y4Q2gW.ltrans8.ltrans.o
 .text.DevPathSerialI2O
                0x0000000000048a9c       0x6c /tmp/Shell.dll.y4Q2gW.ltrans8.ltrans.o
 .text.DevPathSerialIScsi
                0x0000000000048b08       0x68 /tmp/Shell.dll.y4Q2gW.ltrans8.ltrans.o
 .text.DevPathSerialSata
                0x0000000000048b70       0x98 /tmp/Shell.dll.y4Q2gW.ltrans8.ltrans.o
 .text.DevPathSerialLun
                0x0000000000048c08       0x6c /tmp/Shell.dll.y4Q2gW.ltrans8.ltrans.o
 .text.DevPathSerialVendor
                0x0000000000048c74      0x164 /tmp/Shell.dll.y4Q2gW.ltrans8.ltrans.o
 .text.DevPathSerialUsb
                0x0000000000048dd8      0x1a8 /tmp/Shell.dll.y4Q2gW.ltrans8.ltrans.o
 .text.DevPathSerialUart
                0x0000000000048f80       0xa8 /tmp/Shell.dll.y4Q2gW.ltrans8.ltrans.o
 .text.DevPathSerialFibre
                0x0000000000049028       0x88 /tmp/Shell.dll.y4Q2gW.ltrans8.ltrans.o
 .text.DevPathSerialCdRom
                0x00000000000490b0       0x74 /tmp/Shell.dll.y4Q2gW.ltrans8.ltrans.o
 .text.DevPathSerialAtapi
                0x0000000000049124       0x78 /tmp/Shell.dll.y4Q2gW.ltrans8.ltrans.o
 .text.DevPathSerialHardDrive
                0x000000000004919c       0x7c /tmp/Shell.dll.y4Q2gW.ltrans8.ltrans.o
 .text.CopySingleFile
                0x0000000000049218      0x444 /tmp/Shell.dll.y4Q2gW.ltrans8.ltrans.o
                0x0000000000049218                CopySingleFile
 .text.ValidateAndCopyFiles
                0x000000000004965c      0x914 /tmp/Shell.dll.y4Q2gW.ltrans8.ltrans.o
                0x000000000004965c                ValidateAndCopyFiles
 .text.ShellCommandFindMapItem
                0x0000000000049f70       0x84 /tmp/Shell.dll.y4Q2gW.ltrans8.ltrans.o
                0x0000000000049f70                ShellCommandFindMapItem
 .text.ShellCommandConsistMappingGenMappingName
                0x0000000000049ff4      0x298 /tmp/Shell.dll.y4Q2gW.ltrans8.ltrans.o
                0x0000000000049ff4                ShellCommandConsistMappingGenMappingName
 .text.ShellCommandConsistMappingUnInitialize
                0x000000000004a28c       0x64 /tmp/Shell.dll.y4Q2gW.ltrans8.ltrans.o
                0x000000000004a28c                ShellCommandConsistMappingUnInitialize
 .text.ShellCommandConsistMappingInitialize
                0x000000000004a2f0      0x208 /tmp/Shell.dll.y4Q2gW.ltrans8.ltrans.o
                0x000000000004a2f0                ShellCommandConsistMappingInitialize
 .text.ShellCommandRunMap
                0x000000000004a4f8      0xcbc /tmp/Shell.dll.y4Q2gW.ltrans8.ltrans.o
                0x000000000004a4f8                ShellCommandRunMap
 .text.UniqueNameCompare.lto_priv.0
                0x000000000004b1b4       0x20 /tmp/Shell.dll.y4Q2gW.ltrans9.ltrans.o
                0x000000000004b1b4                UniqueNameCompare.lto_priv.0
 .text.UniqueNameAliasCompare.lto_priv.0
                0x000000000004b1d4       0x20 /tmp/Shell.dll.y4Q2gW.ltrans9.ltrans.o
                0x000000000004b1d4                UniqueNameAliasCompare.lto_priv.0
 .text.FileHandleFlush
                0x000000000004b1f4       0x1c /tmp/Shell.dll.y4Q2gW.ltrans9.ltrans.o
                0x000000000004b1f4                FileHandleFlush
 .text.FileHandleGetPosition
                0x000000000004b210       0x24 /tmp/Shell.dll.y4Q2gW.ltrans9.ltrans.o
                0x000000000004b210                FileHandleGetPosition
 .text.FileHandleSetPosition
                0x000000000004b234       0x1c /tmp/Shell.dll.y4Q2gW.ltrans9.ltrans.o
                0x000000000004b234                FileHandleSetPosition
 .text.FileHandleDelete
                0x000000000004b250       0x1c /tmp/Shell.dll.y4Q2gW.ltrans9.ltrans.o
                0x000000000004b250                FileHandleDelete
 .text.FileHandleClose
                0x000000000004b26c       0x1c /tmp/Shell.dll.y4Q2gW.ltrans9.ltrans.o
                0x000000000004b26c                FileHandleClose
 .text.FileHandleWrite
                0x000000000004b288       0x1c /tmp/Shell.dll.y4Q2gW.ltrans9.ltrans.o
                0x000000000004b288                FileHandleWrite
 .text.FileHandleRead
                0x000000000004b2a4       0x1c /tmp/Shell.dll.y4Q2gW.ltrans9.ltrans.o
                0x000000000004b2a4                FileHandleRead
 .text.FileHandleSetInfo
                0x000000000004b2c0       0x34 /tmp/Shell.dll.y4Q2gW.ltrans9.ltrans.o
                0x000000000004b2c0                FileHandleSetInfo
 .text.FileHandleGetInfo
                0x000000000004b2f4       0xc4 /tmp/Shell.dll.y4Q2gW.ltrans9.ltrans.o
                0x000000000004b2f4                FileHandleGetInfo
 .text.FileHandleGetSize
                0x000000000004b3b8       0x54 /tmp/Shell.dll.y4Q2gW.ltrans9.ltrans.o
                0x000000000004b3b8                FileHandleGetSize
 .text.InternalShellInitHandleList.part.0
                0x000000000004b40c      0x154 /tmp/Shell.dll.y4Q2gW.ltrans9.ltrans.o
 .text.InternalPrintTo
                0x000000000004b560       0xe0 /tmp/Shell.dll.y4Q2gW.ltrans9.ltrans.o
 .text.DriverEfiVersionProtocolDumpInformation
                0x000000000004b640       0xe8 /tmp/Shell.dll.y4Q2gW.ltrans9.ltrans.o
 .text.InternalShellPrintWorker
                0x000000000004b728      0x4d4 /tmp/Shell.dll.y4Q2gW.ltrans9.ltrans.o
 .text.FreeBufferList.part.0
                0x000000000004bbfc       0x58 /tmp/Shell.dll.y4Q2gW.ltrans9.ltrans.o
                0x000000000004bbfc                FreeBufferList.part.0
 .text.ShellSortFileList
                0x000000000004bc54      0x310 /tmp/Shell.dll.y4Q2gW.ltrans9.ltrans.o
                0x000000000004bc54                ShellSortFileList
 .text.ShellFileHandleEof
                0x000000000004bf64       0xe0 /tmp/Shell.dll.y4Q2gW.ltrans9.ltrans.o
                0x000000000004bf64                ShellFileHandleEof
 .text.ShellFileHandleRemove
                0x000000000004c044       0xb4 /tmp/Shell.dll.y4Q2gW.ltrans9.ltrans.o
                0x000000000004c044                ShellFileHandleRemove
 .text.ShellFileHandleGetPath
                0x000000000004c0f8       0x7c /tmp/Shell.dll.y4Q2gW.ltrans9.ltrans.o
                0x000000000004c0f8                ShellFileHandleGetPath
 .text.ShellCommandCreateNewMappingName
                0x000000000004c174       0x70 /tmp/Shell.dll.y4Q2gW.ltrans9.ltrans.o
                0x000000000004c174                ShellCommandCreateNewMappingName
 .text.ShellCommandGetCurrentScriptFile
                0x000000000004c1e4       0x44 /tmp/Shell.dll.y4Q2gW.ltrans9.ltrans.o
                0x000000000004c1e4                ShellCommandGetCurrentScriptFile
 .text.DeleteScriptFileStruct
                0x000000000004c228       0xf0 /tmp/Shell.dll.y4Q2gW.ltrans9.ltrans.o
                0x000000000004c228                DeleteScriptFileStruct
 .text.ShellCommandSetNewScript
                0x000000000004c318       0x8c /tmp/Shell.dll.y4Q2gW.ltrans9.ltrans.o
                0x000000000004c318                ShellCommandSetNewScript
 .text.ShellCommandRegisterExit
                0x000000000004c3a4       0x30 /tmp/Shell.dll.y4Q2gW.ltrans9.ltrans.o
                0x000000000004c3a4                ShellCommandRegisterExit
 .text.ShellCommandIsOnAliasList
                0x000000000004c3d4      0x120 /tmp/Shell.dll.y4Q2gW.ltrans9.ltrans.o
                0x000000000004c3d4                ShellCommandIsOnAliasList
 .text.ShellCommandRegisterAlias
                0x000000000004c4f4      0x114 /tmp/Shell.dll.y4Q2gW.ltrans9.ltrans.o
                0x000000000004c4f4                ShellCommandRegisterAlias
 .text.CommandInit
                0x000000000004c608      0x160 /tmp/Shell.dll.y4Q2gW.ltrans9.ltrans.o
                0x000000000004c608                CommandInit
 .text.GetAllMappingGuids
                0x000000000004c768       0xec /tmp/Shell.dll.y4Q2gW.ltrans9.ltrans.o
                0x000000000004c768                GetAllMappingGuids
 .text.GetHandleListByProtocolList
                0x000000000004c854      0x1a8 /tmp/Shell.dll.y4Q2gW.ltrans9.ltrans.o
                0x000000000004c854                GetHandleListByProtocolList
 .text.GetHandleListByProtocol
                0x000000000004c9fc      0x154 /tmp/Shell.dll.y4Q2gW.ltrans9.ltrans.o
                0x000000000004c9fc                GetHandleListByProtocol
 .text.ShellCommandCreateInitialMappingsAndPaths
                0x000000000004cb50      0x498 /tmp/Shell.dll.y4Q2gW.ltrans9.ltrans.o
                0x000000000004cb50                ShellCommandCreateInitialMappingsAndPaths
 .text.ShellCommandFindDynamicCommand
                0x000000000004cfe8       0xe8 /tmp/Shell.dll.y4Q2gW.ltrans9.ltrans.o
                0x000000000004cfe8                ShellCommandFindDynamicCommand
 .text.ShellCommandIsCommandOnList
                0x000000000004d0d0       0xf0 /tmp/Shell.dll.y4Q2gW.ltrans9.ltrans.o
                0x000000000004d0d0                ShellCommandIsCommandOnList
 .text.ParseHandleDatabaseByRelationshipWithType
                0x000000000004d1c0      0x74c /tmp/Shell.dll.y4Q2gW.ltrans9.ltrans.o
                0x000000000004d1c0                ParseHandleDatabaseByRelationshipWithType
 .text.ParseHandleDatabaseByRelationship
                0x000000000004d90c      0x1f8 /tmp/Shell.dll.y4Q2gW.ltrans9.ltrans.o
                0x000000000004d90c                ParseHandleDatabaseByRelationship
 .text.ParseHandleDatabaseForChildControllers
                0x000000000004db04      0x194 /tmp/Shell.dll.y4Q2gW.ltrans9.ltrans.o
                0x000000000004db04                ParseHandleDatabaseForChildControllers
 .text.ConvertHandleIndexToHandle
                0x000000000004dc98       0xec /tmp/Shell.dll.y4Q2gW.ltrans9.ltrans.o
                0x000000000004dc98                ConvertHandleIndexToHandle
 .text.ConvertHandleToHandleIndex
                0x000000000004dd84      0x13c /tmp/Shell.dll.y4Q2gW.ltrans9.ltrans.o
                0x000000000004dd84                ConvertHandleToHandleIndex
 .text.GetStringNameFromHandle
                0x000000000004dec0      0x148 /tmp/Shell.dll.y4Q2gW.ltrans9.ltrans.o
                0x000000000004dec0                GetStringNameFromHandle
 .text.InternalShellGetNodeFromGuid
                0x000000000004e008       0xf4 /tmp/Shell.dll.y4Q2gW.ltrans9.ltrans.o
                0x000000000004e008                InternalShellGetNodeFromGuid
 .text.GetProtocolInformationDump
                0x000000000004e0fc       0xb8 /tmp/Shell.dll.y4Q2gW.ltrans9.ltrans.o
                0x000000000004e0fc                GetProtocolInformationDump
 .text.HandleParsingHiiInit
                0x000000000004e1b4       0x7c /tmp/Shell.dll.y4Q2gW.ltrans9.ltrans.o
                0x000000000004e1b4                HandleParsingHiiInit
 .text.InternalShellStripQuotes.part.0
                0x000000000004e230       0x7c /tmp/Shell.dll.y4Q2gW.ltrans9.ltrans.o
                0x000000000004e230                InternalShellStripQuotes.part.0
 .text.ShellFileHandleReadLine
                0x000000000004e2ac      0x2dc /tmp/Shell.dll.y4Q2gW.ltrans9.ltrans.o
                0x000000000004e2ac                ShellFileHandleReadLine
 .text.ShellFileHandleReturnLine
                0x000000000004e588       0xe8 /tmp/Shell.dll.y4Q2gW.ltrans9.ltrans.o
                0x000000000004e588                ShellFileHandleReturnLine
 .text.StrnCatGrow
                0x000000000004e670      0x174 /tmp/Shell.dll.y4Q2gW.ltrans9.ltrans.o
                0x000000000004e670                StrnCatGrow
 .text.ConvertEfiFileProtocolToShellHandle.part.0
                0x000000000004e7e4       0xa0 /tmp/Shell.dll.y4Q2gW.ltrans9.ltrans.o
                0x000000000004e7e4                ConvertEfiFileProtocolToShellHandle.part.0
 .text.ShellCommandRegisterCommandName
                0x000000000004e884      0x204 /tmp/Shell.dll.y4Q2gW.ltrans9.ltrans.o
                0x000000000004e884                ShellCommandRegisterCommandName
 .text.DevicePathProtocolDumpInformationEx
                0x000000000004ea88      0x198 /tmp/Shell.dll.y4Q2gW.ltrans9.ltrans.o
 .text.LoadedImageDevicePathProtocolDumpInformation
                0x000000000004ec20        0xc /tmp/Shell.dll.y4Q2gW.ltrans9.ltrans.o
 .text.DevicePathProtocolDumpInformation
                0x000000000004ec2c        0xc /tmp/Shell.dll.y4Q2gW.ltrans9.ltrans.o
 .text.ConvertMemoryType
                0x000000000004ec38      0x18c /tmp/Shell.dll.y4Q2gW.ltrans9.ltrans.o
 .text.ShellPrintEx
                0x000000000004edc4       0xb8 /tmp/Shell.dll.y4Q2gW.ltrans9.ltrans.o
                0x000000000004edc4                ShellPrintEx
 .text.DumpHex  0x000000000004ee7c      0x13c /tmp/Shell.dll.y4Q2gW.ltrans9.ltrans.o
                0x000000000004ee7c                DumpHex
 .text.ShellPrintHelp
                0x000000000004efb8      0x144 /tmp/Shell.dll.y4Q2gW.ltrans9.ltrans.o
                0x000000000004efb8                ShellPrintHelp
 .text.ShellCommandLineGetCount
                0x000000000004f0fc       0x74 /tmp/Shell.dll.y4Q2gW.ltrans9.ltrans.o
                0x000000000004f0fc                ShellCommandLineGetCount
 .text.ShellCommandLineGetRawValue
                0x000000000004f170       0x78 /tmp/Shell.dll.y4Q2gW.ltrans9.ltrans.o
                0x000000000004f170                ShellCommandLineGetRawValue
 .text.ShellCommandLineGetValue
                0x000000000004f1e8      0x148 /tmp/Shell.dll.y4Q2gW.ltrans9.ltrans.o
                0x000000000004f1e8                ShellCommandLineGetValue
 .text.ShellCommandLineGetFlag
                0x000000000004f330      0x138 /tmp/Shell.dll.y4Q2gW.ltrans9.ltrans.o
                0x000000000004f330                ShellCommandLineGetFlag
 .text.ShellCommandLineFreeVarList
                0x000000000004f468       0x70 /tmp/Shell.dll.y4Q2gW.ltrans9.ltrans.o
                0x000000000004f468                ShellCommandLineFreeVarList
 .text.ShellCloseFileMetaArg
                0x000000000004f4d8       0xb8 /tmp/Shell.dll.y4Q2gW.ltrans9.ltrans.o
                0x000000000004f4d8                ShellCloseFileMetaArg
 .text.ShellOpenFileMetaArg
                0x000000000004f590      0x3b4 /tmp/Shell.dll.y4Q2gW.ltrans9.ltrans.o
                0x000000000004f590                ShellOpenFileMetaArg
 .text.ShellFileExists
                0x000000000004f944       0x94 /tmp/Shell.dll.y4Q2gW.ltrans9.ltrans.o
                0x000000000004f944                ShellFileExists
 .text.ShellGetCurrentDir
                0x000000000004f9d8       0x34 /tmp/Shell.dll.y4Q2gW.ltrans9.ltrans.o
                0x000000000004f9d8                ShellGetCurrentDir
 .text.ShellGetEnvironmentVariable
                0x000000000004fa0c       0x2c /tmp/Shell.dll.y4Q2gW.ltrans9.ltrans.o
                0x000000000004fa0c                ShellGetEnvironmentVariable
 .text.ShellGetExecutionBreakFlag
                0x000000000004fa38       0x58 /tmp/Shell.dll.y4Q2gW.ltrans9.ltrans.o
                0x000000000004fa38                ShellGetExecutionBreakFlag
 .text.ShellPromptForResponse
                0x000000000004fa90      0x620 /tmp/Shell.dll.y4Q2gW.ltrans9.ltrans.o
                0x000000000004fa90                ShellPromptForResponse
 .text.ShellGetFileSize
                0x00000000000500b0       0x10 /tmp/Shell.dll.y4Q2gW.ltrans9.ltrans.o
                0x00000000000500b0                ShellGetFileSize
 .text.ShellDeleteFile
                0x00000000000500c0       0x14 /tmp/Shell.dll.y4Q2gW.ltrans9.ltrans.o
                0x00000000000500c0                ShellDeleteFile
 .text.ShellCloseFile
                0x00000000000500d4       0x14 /tmp/Shell.dll.y4Q2gW.ltrans9.ltrans.o
                0x00000000000500d4                ShellCloseFile
 .text.ShellWriteFile
                0x00000000000500e8       0x10 /tmp/Shell.dll.y4Q2gW.ltrans9.ltrans.o
                0x00000000000500e8                ShellWriteFile
 .text.ShellReadFile
                0x00000000000500f8       0x10 /tmp/Shell.dll.y4Q2gW.ltrans9.ltrans.o
                0x00000000000500f8                ShellReadFile
 .text.ShellOpenFileByName
                0x0000000000050108      0x410 /tmp/Shell.dll.y4Q2gW.ltrans9.ltrans.o
                0x0000000000050108                ShellOpenFileByName
 .text.ShellDeleteFileByName
                0x0000000000050518       0x70 /tmp/Shell.dll.y4Q2gW.ltrans9.ltrans.o
                0x0000000000050518                ShellDeleteFileByName
 .text.ShellCreateDirectory
                0x0000000000050588       0x2c /tmp/Shell.dll.y4Q2gW.ltrans9.ltrans.o
                0x0000000000050588                ShellCreateDirectory
 .text.ShellGetFileInfo
                0x00000000000505b4       0x10 /tmp/Shell.dll.y4Q2gW.ltrans9.ltrans.o
                0x00000000000505b4                ShellGetFileInfo
 .text.ShellInitialize
                0x00000000000505c4       0x84 /tmp/Shell.dll.y4Q2gW.ltrans9.ltrans.o
                0x00000000000505c4                ShellInitialize
 .text.ShellIsHexaDecimalDigitCharacter
                0x0000000000050648       0x3c /tmp/Shell.dll.y4Q2gW.ltrans9.ltrans.o
                0x0000000000050648                ShellIsHexaDecimalDigitCharacter
 .text.InternalShellIsHexOrDecimalNumber
                0x0000000000050684      0x12c /tmp/Shell.dll.y4Q2gW.ltrans9.ltrans.o
 .text.ShellConvertStringToUint64
                0x00000000000507b0      0x2b4 /tmp/Shell.dll.y4Q2gW.ltrans9.ltrans.o
                0x00000000000507b0                ShellConvertStringToUint64
 .text.ShellStrToUintn
                0x0000000000050a64       0x78 /tmp/Shell.dll.y4Q2gW.ltrans9.ltrans.o
                0x0000000000050a64                ShellStrToUintn
 .text.InternalIsFlag
                0x0000000000050adc       0xa4 /tmp/Shell.dll.y4Q2gW.ltrans9.ltrans.o
                0x0000000000050adc                InternalIsFlag
 .text.FullyQualifyPath
                0x0000000000050b80      0x188 /tmp/Shell.dll.y4Q2gW.ltrans9.ltrans.o
                0x0000000000050b80                FullyQualifyPath
 .text.FileHandleFindNextFile.part.0
                0x0000000000050d08       0xcc /tmp/Shell.dll.y4Q2gW.ltrans9.ltrans.o
                0x0000000000050d08                FileHandleFindNextFile.part.0
 .text.FileHandleIsDirectory
                0x0000000000050dd4       0x50 /tmp/Shell.dll.y4Q2gW.ltrans9.ltrans.o
                0x0000000000050dd4                FileHandleIsDirectory
 .text.ShellIsFile
                0x0000000000050e24       0xb8 /tmp/Shell.dll.y4Q2gW.ltrans9.ltrans.o
                0x0000000000050e24                ShellIsFile
 .text.ShellIsDirectory
                0x0000000000050edc      0x194 /tmp/Shell.dll.y4Q2gW.ltrans9.ltrans.o
                0x0000000000050edc                ShellIsDirectory
 .text.ShellFindFilePath
                0x0000000000051070      0x32c /tmp/Shell.dll.y4Q2gW.ltrans9.ltrans.o
                0x0000000000051070                ShellFindFilePath
 .text.HiiGetSupportedLanguages
                0x000000000005139c       0xe8 /tmp/Shell.dll.y4Q2gW.ltrans9.ltrans.o
                0x000000000005139c                HiiGetSupportedLanguages
 .text.HiiGetString
                0x0000000000051484      0x1c8 /tmp/Shell.dll.y4Q2gW.ltrans9.ltrans.o
                0x0000000000051484                HiiGetString
 .text.GetGuidFromStringName
                0x000000000005164c      0x1e0 /tmp/Shell.dll.y4Q2gW.ltrans9.ltrans.o
                0x000000000005164c                GetGuidFromStringName
 .text.GetStringNameFromGuid
                0x000000000005182c       0x4c /tmp/Shell.dll.y4Q2gW.ltrans9.ltrans.o
                0x000000000005182c                GetStringNameFromGuid
 .text.PartitionInfoProtocolDumpInformation
                0x0000000000051878      0x154 /tmp/Shell.dll.y4Q2gW.ltrans9.ltrans.o
 .text.FirmwareManagementDumpInformation
                0x00000000000519cc      0x7c0 /tmp/Shell.dll.y4Q2gW.ltrans9.ltrans.o
 .text.AdapterInformationDumpInformation
                0x000000000005218c      0x538 /tmp/Shell.dll.y4Q2gW.ltrans9.ltrans.o
 .text.UsbIoProtocolDumpInformation
                0x00000000000526c4       0xe8 /tmp/Shell.dll.y4Q2gW.ltrans9.ltrans.o
 .text.PciIoProtocolDumpInformation
                0x00000000000527ac      0x1a8 /tmp/Shell.dll.y4Q2gW.ltrans9.ltrans.o
 .text.DebugSupportProtocolDumpInformation
                0x0000000000052954      0x13c /tmp/Shell.dll.y4Q2gW.ltrans9.ltrans.o
 .text.BlockIoProtocolDumpInformation
                0x0000000000052a90      0x1c4 /tmp/Shell.dll.y4Q2gW.ltrans9.ltrans.o
 .text.BusSpecificDriverOverrideProtocolDumpInformation
                0x0000000000052c54      0x15c /tmp/Shell.dll.y4Q2gW.ltrans9.ltrans.o
 .text.TxtOutProtocolDumpInformation
                0x0000000000052db0      0x244 /tmp/Shell.dll.y4Q2gW.ltrans9.ltrans.o
 .text.PciRootBridgeIoDumpInformation
                0x0000000000052ff4      0x320 /tmp/Shell.dll.y4Q2gW.ltrans9.ltrans.o
 .text.EdidActiveProtocolDumpInformation
                0x0000000000053314      0x140 /tmp/Shell.dll.y4Q2gW.ltrans9.ltrans.o
 .text.EdidDiscoveredProtocolDumpInformation
                0x0000000000053454      0x140 /tmp/Shell.dll.y4Q2gW.ltrans9.ltrans.o
 .text.GraphicsOutputProtocolDumpInformation
                0x0000000000053594      0x304 /tmp/Shell.dll.y4Q2gW.ltrans9.ltrans.o
 .text.LoadedImageProtocolDumpInformation
                0x0000000000053898      0x25c /tmp/Shell.dll.y4Q2gW.ltrans9.ltrans.o
 .text.ShellPromptForResponseHii
                0x0000000000053af4       0x58 /tmp/Shell.dll.y4Q2gW.ltrans9.ltrans.o
                0x0000000000053af4                ShellPromptForResponseHii
 .text.ShellPrintHiiEx
                0x0000000000053b4c       0xec /tmp/Shell.dll.y4Q2gW.ltrans9.ltrans.o
                0x0000000000053b4c                ShellPrintHiiEx
 .text.StrToAscii
                0x0000000000053c38       0x2c /tmp/Shell.dll.y4Q2gW.ltrans10.ltrans.o
 .text.IsHexStr
                0x0000000000053c64       0x38 /tmp/Shell.dll.y4Q2gW.ltrans10.ltrans.o
 .text.SplitStr
                0x0000000000053c9c       0x48 /tmp/Shell.dll.y4Q2gW.ltrans10.ltrans.o
 .text.GetNextParamStr
                0x0000000000053ce4        0x8 /tmp/Shell.dll.y4Q2gW.ltrans10.ltrans.o
 .text.InternalSafeStringNoStrOverlap
                0x0000000000053cec       0x3c /tmp/Shell.dll.y4Q2gW.ltrans10.ltrans.o
 .text.FileBasedSimpleTextOutTestString
                0x0000000000053d28        0x8 /tmp/Shell.dll.y4Q2gW.ltrans10.ltrans.o
                0x0000000000053d28                FileBasedSimpleTextOutTestString
 .text.FileBasedSimpleTextOutQueryMode
                0x0000000000053d30       0x10 /tmp/Shell.dll.y4Q2gW.ltrans10.ltrans.o
 .text.FileBasedSimpleTextOutSetAttribute
                0x0000000000053d40        0x8 /tmp/Shell.dll.y4Q2gW.ltrans10.ltrans.o
 .text.FileBasedSimpleTextOutSetCursorPosition
                0x0000000000053d48        0x8 /tmp/Shell.dll.y4Q2gW.ltrans10.ltrans.o
 .text.FileBasedSimpleTextInReset
                0x0000000000053d50        0x8 /tmp/Shell.dll.y4Q2gW.ltrans10.ltrans.o
 .text.FileBasedSimpleTextOutEnableCursor
                0x0000000000053d58        0x8 /tmp/Shell.dll.y4Q2gW.ltrans10.ltrans.o
 .text.FileBasedSimpleTextOutClearScreen
                0x0000000000053d60        0x8 /tmp/Shell.dll.y4Q2gW.ltrans10.ltrans.o
 .text.FileBasedSimpleTextOutSetMode
                0x0000000000053d68        0x8 /tmp/Shell.dll.y4Q2gW.ltrans10.ltrans.o
 .text.FileBasedSimpleTextOutReset
                0x0000000000053d70        0x8 /tmp/Shell.dll.y4Q2gW.ltrans10.ltrans.o
 .text.FileBasedSimpleTextInReadKeyStroke
                0x0000000000053d78       0xb4 /tmp/Shell.dll.y4Q2gW.ltrans10.ltrans.o
 .text.ConInWaitForKey
                0x0000000000053e2c       0x14 /tmp/Shell.dll.y4Q2gW.ltrans10.ltrans.o
 .text.FileInterfaceFileOpen
                0x0000000000053e40       0x10 /tmp/Shell.dll.y4Q2gW.ltrans10.ltrans.o
                0x0000000000053e40                FileInterfaceFileOpen
 .text.FileInterfaceFileFlush
                0x0000000000053e50       0x10 /tmp/Shell.dll.y4Q2gW.ltrans10.ltrans.o
                0x0000000000053e50                FileInterfaceFileFlush
 .text.FileInterfaceFileSetInfo
                0x0000000000053e60       0x10 /tmp/Shell.dll.y4Q2gW.ltrans10.ltrans.o
                0x0000000000053e60                FileInterfaceFileSetInfo
 .text.FileInterfaceFileGetInfo
                0x0000000000053e70       0x10 /tmp/Shell.dll.y4Q2gW.ltrans10.ltrans.o
                0x0000000000053e70                FileInterfaceFileGetInfo
 .text.FileInterfaceFileGetPosition
                0x0000000000053e80       0x10 /tmp/Shell.dll.y4Q2gW.ltrans10.ltrans.o
                0x0000000000053e80                FileInterfaceFileGetPosition
 .text.FileInterfaceFileSetPosition
                0x0000000000053e90       0x10 /tmp/Shell.dll.y4Q2gW.ltrans10.ltrans.o
                0x0000000000053e90                FileInterfaceFileSetPosition
 .text.FileInterfaceMemGetPosition
                0x0000000000053ea0       0x10 /tmp/Shell.dll.y4Q2gW.ltrans10.ltrans.o
 .text.FileInterfaceMemSetPosition
                0x0000000000053eb0       0x24 /tmp/Shell.dll.y4Q2gW.ltrans10.ltrans.o
 .text.FileInterfaceEnvRead
                0x0000000000053ed4       0x88 /tmp/Shell.dll.y4Q2gW.ltrans10.ltrans.o
 .text.DevicePathFromHandle
                0x0000000000053f5c       0x6c /tmp/Shell.dll.y4Q2gW.ltrans10.ltrans.o
                0x0000000000053f5c                DevicePathFromHandle
 .text.AllocatePool
                0x0000000000053fc8        0x4 /tmp/Shell.dll.y4Q2gW.ltrans10.ltrans.o
                0x0000000000053fc8                AllocatePool
 .text.DebugPrintLevelEnabled
                0x0000000000053fcc        0x8 /tmp/Shell.dll.y4Q2gW.ltrans10.ltrans.o
                0x0000000000053fcc                DebugPrintLevelEnabled
 .text.DebugCodeEnabled
                0x0000000000053fd4        0x8 /tmp/Shell.dll.y4Q2gW.ltrans10.ltrans.o
                0x0000000000053fd4                DebugCodeEnabled
 .text.DebugPrintEnabled
                0x0000000000053fdc        0x8 /tmp/Shell.dll.y4Q2gW.ltrans10.ltrans.o
                0x0000000000053fdc                DebugPrintEnabled
 .text.DebugAssertEnabled
                0x0000000000053fe4        0x8 /tmp/Shell.dll.y4Q2gW.ltrans10.ltrans.o
                0x0000000000053fe4                DebugAssertEnabled
 .text.BaseDebugLibSerialPortConstructor
                0x0000000000053fec        0x8 /tmp/Shell.dll.y4Q2gW.ltrans10.ltrans.o
                0x0000000000053fec                BaseDebugLibSerialPortConstructor
 .text.BasePrintLibValueToString
                0x0000000000053ff4       0x84 /tmp/Shell.dll.y4Q2gW.ltrans10.ltrans.o
                0x0000000000053ff4                BasePrintLibValueToString
 .text.BasePrintLibFillBuffer
                0x0000000000054078       0x34 /tmp/Shell.dll.y4Q2gW.ltrans10.ltrans.o
                0x0000000000054078                BasePrintLibFillBuffer
 .text.AsciiSPrint
                0x00000000000540ac       0xb8 /tmp/Shell.dll.y4Q2gW.ltrans10.ltrans.o
                0x00000000000540ac                AsciiSPrint
 .text.MultU64x32
                0x0000000000054164        0xc /tmp/Shell.dll.y4Q2gW.ltrans10.ltrans.o
                0x0000000000054164                MultU64x32
 .text.SwapBytes32
                0x0000000000054170       0x20 /tmp/Shell.dll.y4Q2gW.ltrans10.ltrans.o
                0x0000000000054170                SwapBytes32
 .text.PathRemoveLastItem
                0x0000000000054190       0x5c /tmp/Shell.dll.y4Q2gW.ltrans10.ltrans.o
                0x0000000000054190                PathRemoveLastItem
 .text.AsciiStrLen
                0x00000000000541ec       0x90 /tmp/Shell.dll.y4Q2gW.ltrans10.ltrans.o
                0x00000000000541ec                AsciiStrLen
 .text.DebugAssert
                0x000000000005427c       0x84 /tmp/Shell.dll.y4Q2gW.ltrans10.ltrans.o
                0x000000000005427c                DebugAssert
 .text.SetDevicePathNodeLength
                0x0000000000054300       0x78 /tmp/Shell.dll.y4Q2gW.ltrans10.ltrans.o
 .text.DevicePathNodeLength
                0x0000000000054378       0x50 /tmp/Shell.dll.y4Q2gW.ltrans10.ltrans.o
                0x0000000000054378                DevicePathNodeLength
 .text.NextDevicePathNode
                0x00000000000543c8       0x50 /tmp/Shell.dll.y4Q2gW.ltrans10.ltrans.o
                0x00000000000543c8                NextDevicePathNode
 .text.DevicePathSubType
                0x0000000000054418       0x48 /tmp/Shell.dll.y4Q2gW.ltrans10.ltrans.o
                0x0000000000054418                DevicePathSubType
 .text.DevicePathType
                0x0000000000054460       0x48 /tmp/Shell.dll.y4Q2gW.ltrans10.ltrans.o
                0x0000000000054460                DevicePathType
 .text.IsDevicePathEndType
                0x00000000000544a8       0x58 /tmp/Shell.dll.y4Q2gW.ltrans10.ltrans.o
                0x00000000000544a8                IsDevicePathEndType
 .text.IsDevicePathEnd
                0x0000000000054500       0x70 /tmp/Shell.dll.y4Q2gW.ltrans10.ltrans.o
                0x0000000000054500                IsDevicePathEnd
 .text.UefiDevicePathLibGetDevicePathSize
                0x0000000000054570       0x6c /tmp/Shell.dll.y4Q2gW.ltrans10.ltrans.o
                0x0000000000054570                UefiDevicePathLibGetDevicePathSize
 .text.SPrintLength
                0x00000000000545dc       0x64 /tmp/Shell.dll.y4Q2gW.ltrans10.ltrans.o
                0x00000000000545dc                SPrintLength
 .text.UnicodeVSPrint
                0x0000000000054640       0x90 /tmp/Shell.dll.y4Q2gW.ltrans10.ltrans.o
                0x0000000000054640                UnicodeVSPrint
 .text.UnicodeSPrint
                0x00000000000546d0       0xa4 /tmp/Shell.dll.y4Q2gW.ltrans10.ltrans.o
                0x00000000000546d0                UnicodeSPrint
 .text.DivU64x32
                0x0000000000054774        0xc /tmp/Shell.dll.y4Q2gW.ltrans10.ltrans.o
                0x0000000000054774                DivU64x32
 .text.LShiftU64
                0x0000000000054780        0x8 /tmp/Shell.dll.y4Q2gW.ltrans10.ltrans.o
                0x0000000000054780                LShiftU64
 .text.RShiftU64
                0x0000000000054788        0x8 /tmp/Shell.dll.y4Q2gW.ltrans10.ltrans.o
                0x0000000000054788                RShiftU64
 .text.InternalBaseLibIsListValid
                0x0000000000054790       0xac /tmp/Shell.dll.y4Q2gW.ltrans10.ltrans.o
 .text.GetPreviousNode
                0x000000000005483c       0x44 /tmp/Shell.dll.y4Q2gW.ltrans10.ltrans.o
                0x000000000005483c                GetPreviousNode
 .text.GetNextNode
                0x0000000000054880       0x44 /tmp/Shell.dll.y4Q2gW.ltrans10.ltrans.o
                0x0000000000054880                GetNextNode
 .text.ConsoleLoggerEnableCursor
                0x00000000000548c4       0x78 /tmp/Shell.dll.y4Q2gW.ltrans10.ltrans.o
                0x00000000000548c4                ConsoleLoggerEnableCursor
 .text.ConsoleLoggerSetCursorPosition
                0x000000000005493c       0xa4 /tmp/Shell.dll.y4Q2gW.ltrans10.ltrans.o
                0x000000000005493c                ConsoleLoggerSetCursorPosition
 .text.ConsoleLoggerClearScreen
                0x00000000000549e0      0x108 /tmp/Shell.dll.y4Q2gW.ltrans10.ltrans.o
                0x00000000000549e0                ConsoleLoggerClearScreen
 .text.ConsoleLoggerSetAttribute
                0x0000000000054ae8       0x78 /tmp/Shell.dll.y4Q2gW.ltrans10.ltrans.o
                0x0000000000054ae8                ConsoleLoggerSetAttribute
 .text.ConsoleLoggerQueryMode
                0x0000000000054b60       0x88 /tmp/Shell.dll.y4Q2gW.ltrans10.ltrans.o
                0x0000000000054b60                ConsoleLoggerQueryMode
 .text.ConsoleLoggerTestString
                0x0000000000054be8       0x70 /tmp/Shell.dll.y4Q2gW.ltrans10.ltrans.o
                0x0000000000054be8                ConsoleLoggerTestString
 .text.DebugPrint
                0x0000000000054c58       0xd0 /tmp/Shell.dll.y4Q2gW.ltrans10.ltrans.o
                0x0000000000054c58                DebugPrint
 .text.HiiRemovePackages
                0x0000000000054d28       0xb0 /tmp/Shell.dll.y4Q2gW.ltrans10.ltrans.o
                0x0000000000054d28                HiiRemovePackages
 .text.StringNoCaseCompare
                0x0000000000054dd8       0xc4 /tmp/Shell.dll.y4Q2gW.ltrans10.ltrans.o
                0x0000000000054dd8                StringNoCaseCompare
 .text.FreePool
                0x0000000000054e9c       0x7c /tmp/Shell.dll.y4Q2gW.ltrans10.ltrans.o
                0x0000000000054e9c                FreePool
 .text.GetVariable2
                0x0000000000054f18      0x15c /tmp/Shell.dll.y4Q2gW.ltrans10.ltrans.o
                0x0000000000054f18                GetVariable2
 .text.FileInterfaceFileClose
                0x0000000000055074       0x38 /tmp/Shell.dll.y4Q2gW.ltrans10.ltrans.o
                0x0000000000055074                FileInterfaceFileClose
 .text.FileInterfaceFileDelete
                0x00000000000550ac       0x38 /tmp/Shell.dll.y4Q2gW.ltrans10.ltrans.o
                0x00000000000550ac                FileInterfaceFileDelete
 .text.FileInterfaceMemClose
                0x00000000000550e4       0x38 /tmp/Shell.dll.y4Q2gW.ltrans10.ltrans.o
 .text.AsciiStrSize
                0x000000000005511c       0x18 /tmp/Shell.dll.y4Q2gW.ltrans10.ltrans.o
 .text.AsciiStrnCmp
                0x0000000000055134       0xd4 /tmp/Shell.dll.y4Q2gW.ltrans10.ltrans.o
                0x0000000000055134                AsciiStrnCmp
 .text.StrHexToUint64
                0x0000000000055208       0x50 /tmp/Shell.dll.y4Q2gW.ltrans10.ltrans.o
                0x0000000000055208                StrHexToUint64
 .text.InternalIsHexaDecimalDigitCharacter
                0x0000000000055258       0x34 /tmp/Shell.dll.y4Q2gW.ltrans10.ltrans.o
                0x0000000000055258                InternalIsHexaDecimalDigitCharacter
 .text.CharToUpper
                0x000000000005528c       0x20 /tmp/Shell.dll.y4Q2gW.ltrans10.ltrans.o
                0x000000000005528c                CharToUpper
 .text.InternalHexCharToUintn
                0x00000000000552ac       0x3c /tmp/Shell.dll.y4Q2gW.ltrans10.ltrans.o
                0x00000000000552ac                InternalHexCharToUintn
 .text.StrLen   0x00000000000552e8       0xa4 /tmp/Shell.dll.y4Q2gW.ltrans10.ltrans.o
                0x00000000000552e8                StrLen
 .text.StrSize  0x000000000005538c       0x1c /tmp/Shell.dll.y4Q2gW.ltrans10.ltrans.o
                0x000000000005538c                StrSize
 .text.StrStr   0x00000000000553a8       0xac /tmp/Shell.dll.y4Q2gW.ltrans10.ltrans.o
                0x00000000000553a8                StrStr
 .text.StrnCmp  0x0000000000055454       0xd4 /tmp/Shell.dll.y4Q2gW.ltrans10.ltrans.o
                0x0000000000055454                StrnCmp
 .text.StrCmp   0x0000000000055528       0x88 /tmp/Shell.dll.y4Q2gW.ltrans10.ltrans.o
                0x0000000000055528                StrCmp
 .text.FileBasedSimpleTextOutOutputString
                0x00000000000555b0       0x80 /tmp/Shell.dll.y4Q2gW.ltrans10.ltrans.o
 .text.AsciiStrnLenS
                0x0000000000055630       0x3c /tmp/Shell.dll.y4Q2gW.ltrans10.ltrans.o
                0x0000000000055630                AsciiStrnLenS
 .text.AsciiStrToUnicodeStrS
                0x000000000005566c      0x218 /tmp/Shell.dll.y4Q2gW.ltrans10.ltrans.o
 .text.StrHexToBytes
                0x0000000000055884      0x1f8 /tmp/Shell.dll.y4Q2gW.ltrans10.ltrans.o
                0x0000000000055884                StrHexToBytes
 .text.StrnLenS
                0x0000000000055a7c       0x70 /tmp/Shell.dll.y4Q2gW.ltrans10.ltrans.o
                0x0000000000055a7c                StrnLenS
 .text.StrDecimalToUint64
                0x0000000000055aec      0x13c /tmp/Shell.dll.y4Q2gW.ltrans10.ltrans.o
 .text.Strtoi64
                0x0000000000055c28       0x40 /tmp/Shell.dll.y4Q2gW.ltrans10.ltrans.o
 .text.StrHexToUintnS
                0x0000000000055c68      0x1a8 /tmp/Shell.dll.y4Q2gW.ltrans10.ltrans.o
                0x0000000000055c68                StrHexToUintnS
 .text.StrHexToUintn
                0x0000000000055e10       0x50 /tmp/Shell.dll.y4Q2gW.ltrans10.ltrans.o
 .text.EisaIdFromText
                0x0000000000055e60       0x44 /tmp/Shell.dll.y4Q2gW.ltrans10.ltrans.o
 .text.StrDecimalToUintnS
                0x0000000000055ea4      0x184 /tmp/Shell.dll.y4Q2gW.ltrans10.ltrans.o
                0x0000000000055ea4                StrDecimalToUintnS
 .text.StrDecimalToUintn
                0x0000000000056028       0x50 /tmp/Shell.dll.y4Q2gW.ltrans10.ltrans.o
 .text.Strtoi   0x0000000000056078       0x2c /tmp/Shell.dll.y4Q2gW.ltrans10.ltrans.o
 .text.NetworkProtocolFromText
                0x00000000000560a4       0x5c /tmp/Shell.dll.y4Q2gW.ltrans10.ltrans.o
 .text.StrnCatS
                0x0000000000056100      0x2f4 /tmp/Shell.dll.y4Q2gW.ltrans10.ltrans.o
                0x0000000000056100                StrnCatS
 .text.StrCatS  0x00000000000563f4      0x29c /tmp/Shell.dll.y4Q2gW.ltrans10.ltrans.o
                0x00000000000563f4                StrCatS
 .text.StrnCpyS
                0x0000000000056690      0x288 /tmp/Shell.dll.y4Q2gW.ltrans10.ltrans.o
                0x0000000000056690                StrnCpyS
 .text.StrCpyS  0x0000000000056918      0x22c /tmp/Shell.dll.y4Q2gW.ltrans10.ltrans.o
                0x0000000000056918                StrCpyS
 .text.IsNull   0x0000000000056b44       0x4c /tmp/Shell.dll.y4Q2gW.ltrans10.ltrans.o
                0x0000000000056b44                IsNull
 .text.IsNodeAtEnd
                0x0000000000056b90       0x6c /tmp/Shell.dll.y4Q2gW.ltrans10.ltrans.o
                0x0000000000056b90                IsNodeAtEnd
 .text.IsListEmpty
                0x0000000000056bfc       0x4c /tmp/Shell.dll.y4Q2gW.ltrans10.ltrans.o
                0x0000000000056bfc                IsListEmpty
 .text.RemoveEntryList
                0x0000000000056c48       0x50 /tmp/Shell.dll.y4Q2gW.ltrans10.ltrans.o
                0x0000000000056c48                RemoveEntryList
 .text.GetFirstNode
                0x0000000000056c98       0x44 /tmp/Shell.dll.y4Q2gW.ltrans10.ltrans.o
                0x0000000000056c98                GetFirstNode
 .text.InsertTailList
                0x0000000000056cdc       0x5c /tmp/Shell.dll.y4Q2gW.ltrans10.ltrans.o
                0x0000000000056cdc                InsertTailList
 .text.InsertHeadList
                0x0000000000056d38       0x58 /tmp/Shell.dll.y4Q2gW.ltrans10.ltrans.o
                0x0000000000056d38                InsertHeadList
 .text.SwapListEntries
                0x0000000000056d90       0xb0 /tmp/Shell.dll.y4Q2gW.ltrans10.ltrans.o
                0x0000000000056d90                SwapListEntries
 .text.InitializeListHead
                0x0000000000056e40       0x40 /tmp/Shell.dll.y4Q2gW.ltrans10.ltrans.o
                0x0000000000056e40                InitializeListHead
 .text.CopyMem  0x0000000000056e80       0xa4 /tmp/Shell.dll.y4Q2gW.ltrans10.ltrans.o
                0x0000000000056e80                CopyMem
 .text.QuickSortWorker
                0x0000000000056f24      0x1c0 /tmp/Shell.dll.y4Q2gW.ltrans10.ltrans.o
                0x0000000000056f24                QuickSortWorker
 .text.SetDevicePathEndNode
                0x00000000000570e4       0x54 /tmp/Shell.dll.y4Q2gW.ltrans10.ltrans.o
                0x00000000000570e4                SetDevicePathEndNode
 .text.AllocateCopyPool
                0x0000000000057138       0x8c /tmp/Shell.dll.y4Q2gW.ltrans10.ltrans.o
                0x0000000000057138                AllocateCopyPool
 .text.UefiDevicePathLibStrDuplicate
                0x00000000000571c4       0x24 /tmp/Shell.dll.y4Q2gW.ltrans10.ltrans.o
                0x00000000000571c4                UefiDevicePathLibStrDuplicate
 .text.UefiDevicePathLibDuplicateDevicePath
                0x00000000000571e8       0x34 /tmp/Shell.dll.y4Q2gW.ltrans10.ltrans.o
                0x00000000000571e8                UefiDevicePathLibDuplicateDevicePath
 .text.UefiDevicePathLibAppendDevicePath
                0x000000000005721c       0xc4 /tmp/Shell.dll.y4Q2gW.ltrans10.ltrans.o
                0x000000000005721c                UefiDevicePathLibAppendDevicePath
 .text.FileDevicePath
                0x00000000000572e0       0xa0 /tmp/Shell.dll.y4Q2gW.ltrans10.ltrans.o
                0x00000000000572e0                FileDevicePath
 .text.UefiDevicePathLibAppendDevicePathNode
                0x0000000000057380       0x9c /tmp/Shell.dll.y4Q2gW.ltrans10.ltrans.o
                0x0000000000057380                UefiDevicePathLibAppendDevicePathNode
 .text.PathCleanUpDirectories
                0x000000000005741c      0x170 /tmp/Shell.dll.y4Q2gW.ltrans10.ltrans.o
                0x000000000005741c                PathCleanUpDirectories
 .text.FileInterfaceMemRead
                0x000000000005758c       0x64 /tmp/Shell.dll.y4Q2gW.ltrans10.ltrans.o
 .text.SetMem   0x00000000000575f0       0x68 /tmp/Shell.dll.y4Q2gW.ltrans10.ltrans.o
                0x00000000000575f0                SetMem
 .text.SetMem16
                0x0000000000057658       0xbc /tmp/Shell.dll.y4Q2gW.ltrans10.ltrans.o
                0x0000000000057658                SetMem16
 .text.AppendStringToHistory
                0x0000000000057714      0x32c /tmp/Shell.dll.y4Q2gW.ltrans10.ltrans.o
 .text.ConsoleLoggerOutputStringSplit
                0x0000000000057a40       0x48 /tmp/Shell.dll.y4Q2gW.ltrans10.ltrans.o
 .text.ConsoleLoggerOutputString
                0x0000000000057a88      0x45c /tmp/Shell.dll.y4Q2gW.ltrans10.ltrans.o
                0x0000000000057a88                ConsoleLoggerOutputString
 .text.ZeroMem  0x0000000000057ee4       0x70 /tmp/Shell.dll.y4Q2gW.ltrans10.ltrans.o
                0x0000000000057ee4                ZeroMem
 .text.ReallocatePool
                0x0000000000057f54       0x70 /tmp/Shell.dll.y4Q2gW.ltrans10.ltrans.o
                0x0000000000057f54                ReallocatePool
 .text.UefiDevicePathLibCatPrint
                0x0000000000057fc4      0x184 /tmp/Shell.dll.y4Q2gW.ltrans10.ltrans.o
 .text.DevPathToTextNodeGeneric
                0x0000000000058148       0xfc /tmp/Shell.dll.y4Q2gW.ltrans10.ltrans.o
 .text.DevPathToTextEndInstance
                0x0000000000058244        0xc /tmp/Shell.dll.y4Q2gW.ltrans10.ltrans.o
 .text.DevPathToTextBBS
                0x0000000000058250       0xa0 /tmp/Shell.dll.y4Q2gW.ltrans10.ltrans.o
 .text.DevPathRelativeOffsetRange
                0x00000000000582f0       0x10 /tmp/Shell.dll.y4Q2gW.ltrans10.ltrans.o
 .text.DevPathToTextFvFile
                0x0000000000058300       0x10 /tmp/Shell.dll.y4Q2gW.ltrans10.ltrans.o
 .text.DevPathToTextFv
                0x0000000000058310       0x10 /tmp/Shell.dll.y4Q2gW.ltrans10.ltrans.o
 .text.DevPathToTextMediaProtocol
                0x0000000000058320       0x10 /tmp/Shell.dll.y4Q2gW.ltrans10.ltrans.o
 .text.DevPathToTextFilePath
                0x0000000000058330       0x10 /tmp/Shell.dll.y4Q2gW.ltrans10.ltrans.o
 .text.DevPathToTextCDROM
                0x0000000000058340       0x30 /tmp/Shell.dll.y4Q2gW.ltrans10.ltrans.o
 .text.DevPathToTextHardDrive
                0x0000000000058370       0x8c /tmp/Shell.dll.y4Q2gW.ltrans10.ltrans.o
 .text.DevPathToTextUri
                0x00000000000583fc       0x94 /tmp/Shell.dll.y4Q2gW.ltrans10.ltrans.o
 .text.DevPathToTextBluetoothLE
                0x0000000000058490       0x44 /tmp/Shell.dll.y4Q2gW.ltrans10.ltrans.o
 .text.DevPathToTextWiFi
                0x00000000000584d4       0x70 /tmp/Shell.dll.y4Q2gW.ltrans10.ltrans.o
 .text.DevPathToTextBluetooth
                0x0000000000058544       0x24 /tmp/Shell.dll.y4Q2gW.ltrans10.ltrans.o
 .text.DevPathToTextVlan
                0x0000000000058568       0x10 /tmp/Shell.dll.y4Q2gW.ltrans10.ltrans.o
 .text.DevPathToTextiSCSI
                0x0000000000058578      0x10c /tmp/Shell.dll.y4Q2gW.ltrans10.ltrans.o
 .text.DevPathToTextUart
                0x0000000000058684      0x118 /tmp/Shell.dll.y4Q2gW.ltrans10.ltrans.o
 .text.DevPathToTextInfiniBand
                0x000000000005879c       0x1c /tmp/Shell.dll.y4Q2gW.ltrans10.ltrans.o
 .text.CatIPv6Address
                0x00000000000587b8       0x8c /tmp/Shell.dll.y4Q2gW.ltrans10.ltrans.o
 .text.CatIPv4Address
                0x0000000000058844       0x1c /tmp/Shell.dll.y4Q2gW.ltrans10.ltrans.o
 .text.DevPathToTextDns
                0x0000000000058860       0xc0 /tmp/Shell.dll.y4Q2gW.ltrans10.ltrans.o
 .text.CatNetworkProtocol
                0x0000000000058920       0x38 /tmp/Shell.dll.y4Q2gW.ltrans10.ltrans.o
 .text.DevPathToTextIPv6
                0x0000000000058958       0xe8 /tmp/Shell.dll.y4Q2gW.ltrans10.ltrans.o
 .text.DevPathToTextIPv4
                0x0000000000058a40       0xf0 /tmp/Shell.dll.y4Q2gW.ltrans10.ltrans.o
 .text.DevPathToTextMacAddr
                0x0000000000058b30       0x8c /tmp/Shell.dll.y4Q2gW.ltrans10.ltrans.o
 .text.DevPathToTextI2O
                0x0000000000058bbc       0x10 /tmp/Shell.dll.y4Q2gW.ltrans10.ltrans.o
 .text.DevPathToTextSata
                0x0000000000058bcc       0x18 /tmp/Shell.dll.y4Q2gW.ltrans10.ltrans.o
 .text.DevPathToTextUsbClass
                0x0000000000058be4      0x194 /tmp/Shell.dll.y4Q2gW.ltrans10.ltrans.o
 .text.DevPathToTextLogicalUnit
                0x0000000000058d78       0x10 /tmp/Shell.dll.y4Q2gW.ltrans10.ltrans.o
 .text.DevPathToTextUsbWWID
                0x0000000000058d88       0xb4 /tmp/Shell.dll.y4Q2gW.ltrans10.ltrans.o
 .text.DevPathToTextUsb
                0x0000000000058e3c       0x14 /tmp/Shell.dll.y4Q2gW.ltrans10.ltrans.o
 .text.DevPathToText1394
                0x0000000000058e50       0x10 /tmp/Shell.dll.y4Q2gW.ltrans10.ltrans.o
 .text.DevPathToTextEmmc
                0x0000000000058e60       0x10 /tmp/Shell.dll.y4Q2gW.ltrans10.ltrans.o
 .text.DevPathToTextSd
                0x0000000000058e70       0x10 /tmp/Shell.dll.y4Q2gW.ltrans10.ltrans.o
 .text.DevPathToTextUfs
                0x0000000000058e80       0x14 /tmp/Shell.dll.y4Q2gW.ltrans10.ltrans.o
 .text.DevPathToTextNVMe
                0x0000000000058e94       0x54 /tmp/Shell.dll.y4Q2gW.ltrans10.ltrans.o
 .text.DevPathToTextSasEx
                0x0000000000058ee8      0x18c /tmp/Shell.dll.y4Q2gW.ltrans10.ltrans.o
 .text.DevPathToTextFibreEx
                0x0000000000059074       0xa8 /tmp/Shell.dll.y4Q2gW.ltrans10.ltrans.o
 .text.DevPathToTextFibre
                0x000000000005911c       0x10 /tmp/Shell.dll.y4Q2gW.ltrans10.ltrans.o
 .text.DevPathToTextScsi
                0x000000000005912c       0x14 /tmp/Shell.dll.y4Q2gW.ltrans10.ltrans.o
 .text.DevPathToTextAtapi
                0x0000000000059140       0x60 /tmp/Shell.dll.y4Q2gW.ltrans10.ltrans.o
 .text.DevPathToTextAcpiAdr
                0x00000000000591a0       0x9c /tmp/Shell.dll.y4Q2gW.ltrans10.ltrans.o
 .text.DevPathToTextAcpiEx
                0x000000000005923c      0x28c /tmp/Shell.dll.y4Q2gW.ltrans10.ltrans.o
 .text.DevPathToTextAcpi
                0x00000000000594c8       0xc0 /tmp/Shell.dll.y4Q2gW.ltrans10.ltrans.o
 .text.DevPathToTextBmc
                0x0000000000059588       0x3c /tmp/Shell.dll.y4Q2gW.ltrans10.ltrans.o
 .text.DevPathToTextController
                0x00000000000595c4       0x10 /tmp/Shell.dll.y4Q2gW.ltrans10.ltrans.o
 .text.DevPathToTextMemMap
                0x00000000000595d4       0x14 /tmp/Shell.dll.y4Q2gW.ltrans10.ltrans.o
 .text.DevPathToTextPccard
                0x00000000000595e8       0x10 /tmp/Shell.dll.y4Q2gW.ltrans10.ltrans.o
 .text.DevPathToTextPci
                0x00000000000595f8       0x14 /tmp/Shell.dll.y4Q2gW.ltrans10.ltrans.o
 .text.AllocateZeroPool
                0x000000000005960c       0x34 /tmp/Shell.dll.y4Q2gW.ltrans10.ltrans.o
                0x000000000005960c                AllocateZeroPool
 .text.GetBestLanguage
                0x0000000000059640      0x1e0 /tmp/Shell.dll.y4Q2gW.ltrans10.ltrans.o
                0x0000000000059640                GetBestLanguage
 .text.UefiDevicePathLibConvertDevicePathToText
                0x0000000000059820      0x170 /tmp/Shell.dll.y4Q2gW.ltrans10.ltrans.o
                0x0000000000059820                UefiDevicePathLibConvertDevicePathToText
 .text.DevicePathCompare
                0x0000000000059990      0x138 /tmp/Shell.dll.y4Q2gW.ltrans10.ltrans.o
                0x0000000000059990                DevicePathCompare
 .text.UefiDevicePathLibCreateDeviceNode
                0x0000000000059ac8       0x64 /tmp/Shell.dll.y4Q2gW.ltrans10.ltrans.o
                0x0000000000059ac8                UefiDevicePathLibCreateDeviceNode
 .text.DevPathFromTextSata
                0x0000000000059b2c       0x94 /tmp/Shell.dll.y4Q2gW.ltrans10.ltrans.o
                0x0000000000059b2c                DevPathFromTextSata
 .text.DevPathFromTextBBS
                0x0000000000059bc0      0x170 /tmp/Shell.dll.y4Q2gW.ltrans10.ltrans.o
                0x0000000000059bc0                DevPathFromTextBBS
 .text.DevPathFromTextRelativeOffsetRange
                0x0000000000059d30       0x6c /tmp/Shell.dll.y4Q2gW.ltrans10.ltrans.o
                0x0000000000059d30                DevPathFromTextRelativeOffsetRange
 .text.DevPathFromTextCDROM
                0x0000000000059d9c       0x84 /tmp/Shell.dll.y4Q2gW.ltrans10.ltrans.o
                0x0000000000059d9c                DevPathFromTextCDROM
 .text.DevPathFromTextUri
                0x0000000000059e20       0x60 /tmp/Shell.dll.y4Q2gW.ltrans10.ltrans.o
                0x0000000000059e20                DevPathFromTextUri
 .text.DevPathFromTextDns
                0x0000000000059e80      0x13c /tmp/Shell.dll.y4Q2gW.ltrans10.ltrans.o
                0x0000000000059e80                DevPathFromTextDns
 .text.DevPathFromTextBluetoothLE
                0x0000000000059fbc       0x74 /tmp/Shell.dll.y4Q2gW.ltrans10.ltrans.o
                0x0000000000059fbc                DevPathFromTextBluetoothLE
 .text.DevPathFromTextWiFi
                0x000000000005a030       0xb8 /tmp/Shell.dll.y4Q2gW.ltrans10.ltrans.o
                0x000000000005a030                DevPathFromTextWiFi
 .text.DevPathFromTextBluetooth
                0x000000000005a0e8       0x54 /tmp/Shell.dll.y4Q2gW.ltrans10.ltrans.o
                0x000000000005a0e8                DevPathFromTextBluetooth
 .text.DevPathFromTextVlan
                0x000000000005a13c       0x4c /tmp/Shell.dll.y4Q2gW.ltrans10.ltrans.o
                0x000000000005a13c                DevPathFromTextVlan
 .text.DevPathFromTextiSCSI
                0x000000000005a188      0x1a8 /tmp/Shell.dll.y4Q2gW.ltrans10.ltrans.o
                0x000000000005a188                DevPathFromTextiSCSI
 .text.DevPathFromTextUnit
                0x000000000005a330       0x4c /tmp/Shell.dll.y4Q2gW.ltrans10.ltrans.o
                0x000000000005a330                DevPathFromTextUnit
 .text.DevPathFromTextUsbWwid
                0x000000000005a37c       0xe8 /tmp/Shell.dll.y4Q2gW.ltrans10.ltrans.o
                0x000000000005a37c                DevPathFromTextUsbWwid
 .text.ConvertFromTextUsbClass
                0x000000000005a464      0x118 /tmp/Shell.dll.y4Q2gW.ltrans10.ltrans.o
 .text.DevPathFromTextUsbTestAndMeasurement
                0x000000000005a57c       0x58 /tmp/Shell.dll.y4Q2gW.ltrans10.ltrans.o
                0x000000000005a57c                DevPathFromTextUsbTestAndMeasurement
 .text.DevPathFromTextUsbIrdaBridge
                0x000000000005a5d4       0x58 /tmp/Shell.dll.y4Q2gW.ltrans10.ltrans.o
                0x000000000005a5d4                DevPathFromTextUsbIrdaBridge
 .text.DevPathFromTextUsbDeviceFirmwareUpdate
                0x000000000005a62c       0x58 /tmp/Shell.dll.y4Q2gW.ltrans10.ltrans.o
                0x000000000005a62c                DevPathFromTextUsbDeviceFirmwareUpdate
 .text.DevPathFromTextUsbWireless
                0x000000000005a684       0x5c /tmp/Shell.dll.y4Q2gW.ltrans10.ltrans.o
                0x000000000005a684                DevPathFromTextUsbWireless
 .text.DevPathFromTextUsbDiagnostic
                0x000000000005a6e0       0x5c /tmp/Shell.dll.y4Q2gW.ltrans10.ltrans.o
                0x000000000005a6e0                DevPathFromTextUsbDiagnostic
 .text.DevPathFromTextUsbVideo
                0x000000000005a73c       0x5c /tmp/Shell.dll.y4Q2gW.ltrans10.ltrans.o
                0x000000000005a73c                DevPathFromTextUsbVideo
 .text.DevPathFromTextUsbSmartCard
                0x000000000005a798       0x5c /tmp/Shell.dll.y4Q2gW.ltrans10.ltrans.o
                0x000000000005a798                DevPathFromTextUsbSmartCard
 .text.DevPathFromTextUsbCDCData
                0x000000000005a7f4       0x5c /tmp/Shell.dll.y4Q2gW.ltrans10.ltrans.o
                0x000000000005a7f4                DevPathFromTextUsbCDCData
 .text.DevPathFromTextUsbHub
                0x000000000005a850       0x5c /tmp/Shell.dll.y4Q2gW.ltrans10.ltrans.o
                0x000000000005a850                DevPathFromTextUsbHub
 .text.DevPathFromTextUsbMassStorage
                0x000000000005a8ac       0x5c /tmp/Shell.dll.y4Q2gW.ltrans10.ltrans.o
                0x000000000005a8ac                DevPathFromTextUsbMassStorage
 .text.DevPathFromTextUsbPrinter
                0x000000000005a908       0x5c /tmp/Shell.dll.y4Q2gW.ltrans10.ltrans.o
                0x000000000005a908                DevPathFromTextUsbPrinter
 .text.DevPathFromTextUsbImage
                0x000000000005a964       0x5c /tmp/Shell.dll.y4Q2gW.ltrans10.ltrans.o
                0x000000000005a964                DevPathFromTextUsbImage
 .text.DevPathFromTextUsbHID
                0x000000000005a9c0       0x5c /tmp/Shell.dll.y4Q2gW.ltrans10.ltrans.o
                0x000000000005a9c0                DevPathFromTextUsbHID
 .text.DevPathFromTextUsbCDCControl
                0x000000000005aa1c       0x5c /tmp/Shell.dll.y4Q2gW.ltrans10.ltrans.o
                0x000000000005aa1c                DevPathFromTextUsbCDCControl
 .text.DevPathFromTextUsbAudio
                0x000000000005aa78       0x5c /tmp/Shell.dll.y4Q2gW.ltrans10.ltrans.o
                0x000000000005aa78                DevPathFromTextUsbAudio
 .text.DevPathFromTextUsbClass
                0x000000000005aad4       0x58 /tmp/Shell.dll.y4Q2gW.ltrans10.ltrans.o
                0x000000000005aad4                DevPathFromTextUsbClass
 .text.DevPathFromTextUart
                0x000000000005ab2c      0x1b0 /tmp/Shell.dll.y4Q2gW.ltrans10.ltrans.o
                0x000000000005ab2c                DevPathFromTextUart
 .text.DevPathFromTextIPv6
                0x000000000005acdc      0x140 /tmp/Shell.dll.y4Q2gW.ltrans10.ltrans.o
                0x000000000005acdc                DevPathFromTextIPv6
 .text.DevPathFromTextIPv4
                0x000000000005ae1c      0x130 /tmp/Shell.dll.y4Q2gW.ltrans10.ltrans.o
                0x000000000005ae1c                DevPathFromTextIPv4
 .text.DevPathFromTextMAC
                0x000000000005af4c       0x84 /tmp/Shell.dll.y4Q2gW.ltrans10.ltrans.o
                0x000000000005af4c                DevPathFromTextMAC
 .text.DevPathFromTextEmmc
                0x000000000005afd0       0x4c /tmp/Shell.dll.y4Q2gW.ltrans10.ltrans.o
                0x000000000005afd0                DevPathFromTextEmmc
 .text.DevPathFromTextSd
                0x000000000005b01c       0x4c /tmp/Shell.dll.y4Q2gW.ltrans10.ltrans.o
                0x000000000005b01c                DevPathFromTextSd
 .text.DevPathFromTextUfs
                0x000000000005b068       0x6c /tmp/Shell.dll.y4Q2gW.ltrans10.ltrans.o
                0x000000000005b068                DevPathFromTextUfs
 .text.DevPathFromTextNVMe
                0x000000000005b0d4       0xb4 /tmp/Shell.dll.y4Q2gW.ltrans10.ltrans.o
                0x000000000005b0d4                DevPathFromTextNVMe
 .text.DevPathFromTextSasEx
                0x000000000005b188      0x244 /tmp/Shell.dll.y4Q2gW.ltrans10.ltrans.o
                0x000000000005b188                DevPathFromTextSasEx
 .text.DevPathFromTextI2O
                0x000000000005b3cc       0x4c /tmp/Shell.dll.y4Q2gW.ltrans10.ltrans.o
                0x000000000005b3cc                DevPathFromTextI2O
 .text.DevPathFromTextUsb
                0x000000000005b418       0x6c /tmp/Shell.dll.y4Q2gW.ltrans10.ltrans.o
                0x000000000005b418                DevPathFromTextUsb
 .text.DevPathFromText1394
                0x000000000005b484       0x50 /tmp/Shell.dll.y4Q2gW.ltrans10.ltrans.o
                0x000000000005b484                DevPathFromText1394
 .text.DevPathFromTextFibreEx
                0x000000000005b4d4       0x88 /tmp/Shell.dll.y4Q2gW.ltrans10.ltrans.o
                0x000000000005b4d4                DevPathFromTextFibreEx
 .text.DevPathFromTextFibre
                0x000000000005b55c       0x70 /tmp/Shell.dll.y4Q2gW.ltrans10.ltrans.o
                0x000000000005b55c                DevPathFromTextFibre
 .text.DevPathFromTextScsi
                0x000000000005b5cc       0x6c /tmp/Shell.dll.y4Q2gW.ltrans10.ltrans.o
                0x000000000005b5cc                DevPathFromTextScsi
 .text.DevPathFromTextAta
                0x000000000005b638       0xf4 /tmp/Shell.dll.y4Q2gW.ltrans10.ltrans.o
                0x000000000005b638                DevPathFromTextAta
 .text.DevPathFromTextAcpiAdr
                0x000000000005b72c       0xf8 /tmp/Shell.dll.y4Q2gW.ltrans10.ltrans.o
                0x000000000005b72c                DevPathFromTextAcpiAdr
 .text.DevPathFromTextAcpiExp
                0x000000000005b824       0xec /tmp/Shell.dll.y4Q2gW.ltrans10.ltrans.o
                0x000000000005b824                DevPathFromTextAcpiExp
 .text.DevPathFromTextAcpiEx
                0x000000000005b910      0x138 /tmp/Shell.dll.y4Q2gW.ltrans10.ltrans.o
                0x000000000005b910                DevPathFromTextAcpiEx
 .text.ConvertFromTextAcpi
                0x000000000005ba48       0x64 /tmp/Shell.dll.y4Q2gW.ltrans10.ltrans.o
 .text.DevPathFromTextParallelPort
                0x000000000005baac        0x8 /tmp/Shell.dll.y4Q2gW.ltrans10.ltrans.o
                0x000000000005baac                DevPathFromTextParallelPort
 .text.DevPathFromTextSerial
                0x000000000005bab4        0x8 /tmp/Shell.dll.y4Q2gW.ltrans10.ltrans.o
                0x000000000005bab4                DevPathFromTextSerial
 .text.DevPathFromTextKeyboard
                0x000000000005babc        0x8 /tmp/Shell.dll.y4Q2gW.ltrans10.ltrans.o
                0x000000000005babc                DevPathFromTextKeyboard
 .text.DevPathFromTextFloppy
                0x000000000005bac4        0x8 /tmp/Shell.dll.y4Q2gW.ltrans10.ltrans.o
                0x000000000005bac4                DevPathFromTextFloppy
 .text.DevPathFromTextPcieRoot
                0x000000000005bacc        0x8 /tmp/Shell.dll.y4Q2gW.ltrans10.ltrans.o
                0x000000000005bacc                DevPathFromTextPcieRoot
 .text.DevPathFromTextPciRoot
                0x000000000005bad4        0x8 /tmp/Shell.dll.y4Q2gW.ltrans10.ltrans.o
                0x000000000005bad4                DevPathFromTextPciRoot
 .text.DevPathFromTextAcpi
                0x000000000005badc       0x6c /tmp/Shell.dll.y4Q2gW.ltrans10.ltrans.o
                0x000000000005badc                DevPathFromTextAcpi
 .text.DevPathFromTextBmc
                0x000000000005bb48       0x74 /tmp/Shell.dll.y4Q2gW.ltrans10.ltrans.o
                0x000000000005bb48                DevPathFromTextBmc
 .text.DevPathFromTextCtrl
                0x000000000005bbbc       0x4c /tmp/Shell.dll.y4Q2gW.ltrans10.ltrans.o
                0x000000000005bbbc                DevPathFromTextCtrl
 .text.DevPathFromTextMemoryMapped
                0x000000000005bc08       0x84 /tmp/Shell.dll.y4Q2gW.ltrans10.ltrans.o
                0x000000000005bc08                DevPathFromTextMemoryMapped
 .text.DevPathFromTextPcCard
                0x000000000005bc8c       0x4c /tmp/Shell.dll.y4Q2gW.ltrans10.ltrans.o
                0x000000000005bc8c                DevPathFromTextPcCard
 .text.DevPathFromTextPci
                0x000000000005bcd8       0x6c /tmp/Shell.dll.y4Q2gW.ltrans10.ltrans.o
                0x000000000005bcd8                DevPathFromTextPci
 .text.DevPathFromTextGenericPath
                0x000000000005bd44       0x88 /tmp/Shell.dll.y4Q2gW.ltrans10.ltrans.o
 .text.DevPathFromTextBbsPath
                0x000000000005bdcc        0xc /tmp/Shell.dll.y4Q2gW.ltrans10.ltrans.o
                0x000000000005bdcc                DevPathFromTextBbsPath
 .text.DevPathFromTextMediaPath
                0x000000000005bdd8        0xc /tmp/Shell.dll.y4Q2gW.ltrans10.ltrans.o
                0x000000000005bdd8                DevPathFromTextMediaPath
 .text.DevPathFromTextMsg
                0x000000000005bde4        0xc /tmp/Shell.dll.y4Q2gW.ltrans10.ltrans.o
                0x000000000005bde4                DevPathFromTextMsg
 .text.DevPathFromTextAcpiPath
                0x000000000005bdf0        0xc /tmp/Shell.dll.y4Q2gW.ltrans10.ltrans.o
                0x000000000005bdf0                DevPathFromTextAcpiPath
 .text.DevPathFromTextHardwarePath
                0x000000000005bdfc        0xc /tmp/Shell.dll.y4Q2gW.ltrans10.ltrans.o
                0x000000000005bdfc                DevPathFromTextHardwarePath
 .text.DevPathFromTextPath
                0x000000000005be08       0x28 /tmp/Shell.dll.y4Q2gW.ltrans10.ltrans.o
                0x000000000005be08                DevPathFromTextPath
 .text.FileInterfaceFileWrite
                0x000000000005be30       0xd0 /tmp/Shell.dll.y4Q2gW.ltrans10.ltrans.o
                0x000000000005be30                FileInterfaceFileWrite
 .text.FileInterfaceFileRead
                0x000000000005bf00      0x174 /tmp/Shell.dll.y4Q2gW.ltrans10.ltrans.o
                0x000000000005bf00                FileInterfaceFileRead
 .text.FileInterfaceMemWrite
                0x000000000005c074      0x17c /tmp/Shell.dll.y4Q2gW.ltrans10.ltrans.o
 .text.CompareGuid
                0x000000000005c1f0       0x60 /tmp/Shell.dll.y4Q2gW.ltrans10.ltrans.o
                0x000000000005c1f0                CompareGuid
 .text.EfiGetSystemConfigurationTable
                0x000000000005c250       0x94 /tmp/Shell.dll.y4Q2gW.ltrans10.ltrans.o
                0x000000000005c250                EfiGetSystemConfigurationTable
 .text.DevPathToTextRamDisk
                0x000000000005c2e4      0x1a0 /tmp/Shell.dll.y4Q2gW.ltrans10.ltrans.o
 .text.DevPathToTextVendor
                0x000000000005c484      0x354 /tmp/Shell.dll.y4Q2gW.ltrans10.ltrans.o
 .text.FileInterfaceMemGetInfo
                0x000000000005c7d8       0x94 /tmp/Shell.dll.y4Q2gW.ltrans10.ltrans.o
 .text.CopyGuid
                0x000000000005c86c       0x64 /tmp/Shell.dll.y4Q2gW.ltrans10.ltrans.o
                0x000000000005c86c                CopyGuid
 .text.HiiAddPackages
                0x000000000005c8d0      0x1c8 /tmp/Shell.dll.y4Q2gW.ltrans10.ltrans.o
                0x000000000005c8d0                HiiAddPackages
 .text.DevPathFromTextPersistentVirtualCd
                0x000000000005ca98       0xe0 /tmp/Shell.dll.y4Q2gW.ltrans10.ltrans.o
                0x000000000005ca98                DevPathFromTextPersistentVirtualCd
 .text.DevPathFromTextPersistentVirtualDisk
                0x000000000005cb78       0xe0 /tmp/Shell.dll.y4Q2gW.ltrans10.ltrans.o
                0x000000000005cb78                DevPathFromTextPersistentVirtualDisk
 .text.DevPathFromTextVirtualCd
                0x000000000005cc58       0xe0 /tmp/Shell.dll.y4Q2gW.ltrans10.ltrans.o
                0x000000000005cc58                DevPathFromTextVirtualCd
 .text.DevPathFromTextVirtualDisk
                0x000000000005cd38       0xe0 /tmp/Shell.dll.y4Q2gW.ltrans10.ltrans.o
                0x000000000005cd38                DevPathFromTextVirtualDisk
 .text.DevPathFromTextDebugPort
                0x000000000005ce18       0x40 /tmp/Shell.dll.y4Q2gW.ltrans10.ltrans.o
                0x000000000005ce18                DevPathFromTextDebugPort
 .text.DevPathFromTextSAS
                0x000000000005ce58      0x218 /tmp/Shell.dll.y4Q2gW.ltrans10.ltrans.o
                0x000000000005ce58                DevPathFromTextSAS
 .text.DevPathFromTextUartFlowCtrl
                0x000000000005d070       0x88 /tmp/Shell.dll.y4Q2gW.ltrans10.ltrans.o
                0x000000000005d070                DevPathFromTextUartFlowCtrl
 .text.DevPathFromTextVenUtf8
                0x000000000005d0f8       0x40 /tmp/Shell.dll.y4Q2gW.ltrans10.ltrans.o
                0x000000000005d0f8                DevPathFromTextVenUtf8
 .text.DevPathFromTextVenVt100Plus
                0x000000000005d138       0x40 /tmp/Shell.dll.y4Q2gW.ltrans10.ltrans.o
                0x000000000005d138                DevPathFromTextVenVt100Plus
 .text.DevPathFromTextVenVt100
                0x000000000005d178       0x40 /tmp/Shell.dll.y4Q2gW.ltrans10.ltrans.o
                0x000000000005d178                DevPathFromTextVenVt100
 .text.DevPathFromTextVenPcAnsi
                0x000000000005d1b8       0x40 /tmp/Shell.dll.y4Q2gW.ltrans10.ltrans.o
                0x000000000005d1b8                DevPathFromTextVenPcAnsi
 .text.StrToGuid
                0x000000000005d1f8      0x1ac /tmp/Shell.dll.y4Q2gW.ltrans10.ltrans.o
                0x000000000005d1f8                StrToGuid
 .text.DevPathFromTextRamDisk
                0x000000000005d3a4       0xe8 /tmp/Shell.dll.y4Q2gW.ltrans10.ltrans.o
                0x000000000005d3a4                DevPathFromTextRamDisk
 .text.DevPathFromTextFvFile
                0x000000000005d48c       0x4c /tmp/Shell.dll.y4Q2gW.ltrans10.ltrans.o
                0x000000000005d48c                DevPathFromTextFvFile
 .text.DevPathFromTextFv
                0x000000000005d4d8       0x4c /tmp/Shell.dll.y4Q2gW.ltrans10.ltrans.o
                0x000000000005d4d8                DevPathFromTextFv
 .text.DevPathFromTextMedia
                0x000000000005d524       0x4c /tmp/Shell.dll.y4Q2gW.ltrans10.ltrans.o
                0x000000000005d524                DevPathFromTextMedia
 .text.DevPathFromTextHD
                0x000000000005d570      0x160 /tmp/Shell.dll.y4Q2gW.ltrans10.ltrans.o
                0x000000000005d570                DevPathFromTextHD
 .text.DevPathFromTextInfiniband
                0x000000000005d6d0       0xbc /tmp/Shell.dll.y4Q2gW.ltrans10.ltrans.o
                0x000000000005d6d0                DevPathFromTextInfiniband
 .text.ConvertFromTextVendor
                0x000000000005d78c       0x90 /tmp/Shell.dll.y4Q2gW.ltrans10.ltrans.o
 .text.DevPathFromTextVenMedia
                0x000000000005d81c        0xc /tmp/Shell.dll.y4Q2gW.ltrans10.ltrans.o
                0x000000000005d81c                DevPathFromTextVenMedia
 .text.DevPathFromTextVenMsg
                0x000000000005d828        0xc /tmp/Shell.dll.y4Q2gW.ltrans10.ltrans.o
                0x000000000005d828                DevPathFromTextVenMsg
 .text.DevPathFromTextVenHw
                0x000000000005d834        0xc /tmp/Shell.dll.y4Q2gW.ltrans10.ltrans.o
                0x000000000005d834                DevPathFromTextVenHw
 .text.CloseSimpleTextOutOnFile
                0x000000000005d840       0x64 /tmp/Shell.dll.y4Q2gW.ltrans10.ltrans.o
                0x000000000005d840                CloseSimpleTextOutOnFile
 .text.CreateSimpleTextOutOnFile
                0x000000000005d8a4      0x18c /tmp/Shell.dll.y4Q2gW.ltrans10.ltrans.o
                0x000000000005d8a4                CreateSimpleTextOutOnFile
 .text.CloseSimpleTextInOnFile
                0x000000000005da30       0x80 /tmp/Shell.dll.y4Q2gW.ltrans10.ltrans.o
                0x000000000005da30                CloseSimpleTextInOnFile
 .text.CreateSimpleTextInOnFile
                0x000000000005dab0      0x120 /tmp/Shell.dll.y4Q2gW.ltrans10.ltrans.o
                0x000000000005dab0                CreateSimpleTextInOnFile
 .text.ConsoleLoggerResetBuffers
                0x000000000005dbd0       0xdc /tmp/Shell.dll.y4Q2gW.ltrans10.ltrans.o
                0x000000000005dbd0                ConsoleLoggerResetBuffers
 .text.ConsoleLoggerSetMode
                0x000000000005dcac       0xa0 /tmp/Shell.dll.y4Q2gW.ltrans10.ltrans.o
                0x000000000005dcac                ConsoleLoggerSetMode
 .text.ConsoleLoggerReset
                0x000000000005dd4c       0x94 /tmp/Shell.dll.y4Q2gW.ltrans10.ltrans.o
                0x000000000005dd4c                ConsoleLoggerReset
 .text.UpdateDisplayFromHistory
                0x000000000005dde0      0x268 /tmp/Shell.dll.y4Q2gW.ltrans10.ltrans.o
                0x000000000005dde0                UpdateDisplayFromHistory
 .text.FileInterfaceStdInRead
                0x000000000005e048      0xd60 /tmp/Shell.dll.y4Q2gW.ltrans10.ltrans.o
                0x000000000005e048                FileInterfaceStdInRead
 .text.ManFileFindSections
                0x000000000005eda8      0x234 /tmp/Shell.dll.y4Q2gW.ltrans10.ltrans.o
                0x000000000005eda8                ManFileFindSections
 .text.ShellRemvoeEnvVarFromList
                0x000000000005efdc       0xc0 /tmp/Shell.dll.y4Q2gW.ltrans10.ltrans.o
                0x000000000005efdc                ShellRemvoeEnvVarFromList
 .text.ShellAddEnvVarToList
                0x000000000005f09c      0x118 /tmp/Shell.dll.y4Q2gW.ltrans10.ltrans.o
                0x000000000005f09c                ShellAddEnvVarToList
 .text.FileInterfaceEnvVolWrite
                0x000000000005f1b4      0x1b4 /tmp/Shell.dll.y4Q2gW.ltrans10.ltrans.o
 .text.FileInterfaceEnvNonVolWrite
                0x000000000005f368      0x1b4 /tmp/Shell.dll.y4Q2gW.ltrans10.ltrans.o
 .text.FreeEnvironmentVariableList
                0x000000000005f51c       0xe4 /tmp/Shell.dll.y4Q2gW.ltrans10.ltrans.o
                0x000000000005f51c                FreeEnvironmentVariableList
 .text.GetEnvironmentVariableList
                0x000000000005f600      0x290 /tmp/Shell.dll.y4Q2gW.ltrans10.ltrans.o
                0x000000000005f600                GetEnvironmentVariableList
 .text.SetEnvironmentVariableList
                0x000000000005f890      0x278 /tmp/Shell.dll.y4Q2gW.ltrans10.ltrans.o
                0x000000000005f890                SetEnvironmentVariableList
 .text.SetEnvironmentVariables.part.0
                0x000000000005fb08      0x1e0 /tmp/Shell.dll.y4Q2gW.ltrans10.ltrans.o
                0x000000000005fb08                SetEnvironmentVariables.part.0
 .text.IsVolatileEnv
                0x000000000005fce8      0x120 /tmp/Shell.dll.y4Q2gW.ltrans10.ltrans.o
                0x000000000005fce8                IsVolatileEnv
 .text.FileInterfaceEnvClose
                0x000000000005fe08      0x1c0 /tmp/Shell.dll.y4Q2gW.ltrans10.ltrans.o
 .text.FileInterfaceEnvDelete
                0x000000000005ffc8       0x48 /tmp/Shell.dll.y4Q2gW.ltrans10.ltrans.o
 .text.CreateFileInterfaceMem
                0x0000000000060010      0x14c /tmp/Shell.dll.y4Q2gW.ltrans10.ltrans.o
                0x0000000000060010                CreateFileInterfaceMem
 .text.CreateFileInterfaceEnv
                0x000000000006015c      0x12c /tmp/Shell.dll.y4Q2gW.ltrans10.ltrans.o
                0x000000000006015c                CreateFileInterfaceEnv
 .text.FileInterfaceNulWrite
                0x0000000000060288        0x8 /tmp/Shell.dll.y4Q2gW.ltrans11.ltrans.o
                0x0000000000060288                FileInterfaceNulWrite
 .text.FileInterfaceNulRead
                0x0000000000060290        0xc /tmp/Shell.dll.y4Q2gW.ltrans11.ltrans.o
 .text.FileInterfaceStdInWrite
                0x000000000006029c        0x8 /tmp/Shell.dll.y4Q2gW.ltrans11.ltrans.o
                0x000000000006029c                FileInterfaceStdInWrite
 .text.FileInterfaceStdErrRead
                0x00000000000602a4        0x8 /tmp/Shell.dll.y4Q2gW.ltrans11.ltrans.o
 .text.FileInterfaceStdOutRead
                0x00000000000602ac        0x8 /tmp/Shell.dll.y4Q2gW.ltrans11.ltrans.o
 .text.FileInterfaceStdErrWrite
                0x00000000000602b4       0x1c /tmp/Shell.dll.y4Q2gW.ltrans11.ltrans.o
 .text.FileInterfaceStdOutWrite
                0x00000000000602d0       0x44 /tmp/Shell.dll.y4Q2gW.ltrans11.ltrans.o
 .text.FileInterfaceNopSetInfo
                0x0000000000060314        0x8 /tmp/Shell.dll.y4Q2gW.ltrans11.ltrans.o
                0x0000000000060314                FileInterfaceNopSetInfo
 .text.FileInterfaceNopGetInfo
                0x000000000006031c        0x8 /tmp/Shell.dll.y4Q2gW.ltrans11.ltrans.o
                0x000000000006031c                FileInterfaceNopGetInfo
 .text.FileInterfaceNopSetPosition
                0x0000000000060324        0x8 /tmp/Shell.dll.y4Q2gW.ltrans11.ltrans.o
                0x0000000000060324                FileInterfaceNopSetPosition
 .text.FileInterfaceNopGetPosition
                0x000000000006032c        0x8 /tmp/Shell.dll.y4Q2gW.ltrans11.ltrans.o
                0x000000000006032c                FileInterfaceNopGetPosition
 .text.FileInterfaceNopGeneric
                0x0000000000060334        0x8 /tmp/Shell.dll.y4Q2gW.ltrans11.ltrans.o
                0x0000000000060334                FileInterfaceNopGeneric
 .text.FileInterfaceOpenNotFound
                0x000000000006033c        0xc /tmp/Shell.dll.y4Q2gW.ltrans11.ltrans.o
                0x000000000006033c                FileInterfaceOpenNotFound
 .text.NotificationFunction
                0x0000000000060348       0xa0 /tmp/Shell.dll.y4Q2gW.ltrans11.ltrans.o
                0x0000000000060348                NotificationFunction
 .text.ToLower  0x00000000000603e8       0x30 /tmp/Shell.dll.y4Q2gW.ltrans11.ltrans.o
 .text.EfiShellIsRootShell
                0x0000000000060418        0xc /tmp/Shell.dll.y4Q2gW.ltrans11.ltrans.o
                0x0000000000060418                EfiShellIsRootShell
 .text.EfiShellGetPageBreak
                0x0000000000060424        0xc /tmp/Shell.dll.y4Q2gW.ltrans11.ltrans.o
                0x0000000000060424                EfiShellGetPageBreak
 .text.EfiShellEnablePageBreak
                0x0000000000060430       0x10 /tmp/Shell.dll.y4Q2gW.ltrans11.ltrans.o
                0x0000000000060430                EfiShellEnablePageBreak
 .text.EfiShellDisablePageBreak
                0x0000000000060440        0xc /tmp/Shell.dll.y4Q2gW.ltrans11.ltrans.o
                0x0000000000060440                EfiShellDisablePageBreak
 .text.CalculateEfiHdrCrc
                0x000000000006044c       0x70 /tmp/Shell.dll.y4Q2gW.ltrans11.ltrans.o
 .text.IsUnicodeFile
                0x00000000000604bc      0x108 /tmp/Shell.dll.y4Q2gW.ltrans11.ltrans.o
 .text.AddBufferToFreeList
                0x00000000000605c4       0x4c /tmp/Shell.dll.y4Q2gW.ltrans11.ltrans.o
 .text.FixFileName
                0x0000000000060610       0x74 /tmp/Shell.dll.y4Q2gW.ltrans11.ltrans.o
 .text.FixVarName
                0x0000000000060684       0x48 /tmp/Shell.dll.y4Q2gW.ltrans11.ltrans.o
 .text.FindFirstCharacter
                0x00000000000606cc       0xac /tmp/Shell.dll.y4Q2gW.ltrans11.ltrans.o
 .text.InternalDuplicateShellFileInfo
                0x0000000000060778       0xdc /tmp/Shell.dll.y4Q2gW.ltrans11.ltrans.o
 .text.WriteFileTag
                0x0000000000060854       0xa8 /tmp/Shell.dll.y4Q2gW.ltrans11.ltrans.o
 .text.EfiShellGetAlias
                0x00000000000608fc      0x2bc /tmp/Shell.dll.y4Q2gW.ltrans11.ltrans.o
                0x00000000000608fc                EfiShellGetAlias
 .text.EfiShellGetHelpText
                0x0000000000060bb8      0x27c /tmp/Shell.dll.y4Q2gW.ltrans11.ltrans.o
                0x0000000000060bb8                EfiShellGetHelpText
 .text.EfiShellGetDevicePathFromMap
                0x0000000000060e34       0xb0 /tmp/Shell.dll.y4Q2gW.ltrans11.ltrans.o
                0x0000000000060e34                EfiShellGetDevicePathFromMap
 .text.EfiShellGetEnvEx
                0x0000000000060ee4      0x2f4 /tmp/Shell.dll.y4Q2gW.ltrans11.ltrans.o
                0x0000000000060ee4                EfiShellGetEnvEx
 .text.EfiShellGetEnv
                0x00000000000611d8        0x8 /tmp/Shell.dll.y4Q2gW.ltrans11.ltrans.o
                0x00000000000611d8                EfiShellGetEnv
 .text.EfiShellGetCurDir
                0x00000000000611e0       0xf8 /tmp/Shell.dll.y4Q2gW.ltrans11.ltrans.o
                0x00000000000611e0                EfiShellGetCurDir
 .text.EfiShellGetGuidName
                0x00000000000612d8       0x70 /tmp/Shell.dll.y4Q2gW.ltrans11.ltrans.o
                0x00000000000612d8                EfiShellGetGuidName
 .text.EfiShellGetGuidFromName
                0x0000000000061348       0x88 /tmp/Shell.dll.y4Q2gW.ltrans11.ltrans.o
                0x0000000000061348                EfiShellGetGuidFromName
 .text.IsCommand
                0x00000000000613d0       0x28 /tmp/Shell.dll.y4Q2gW.ltrans11.ltrans.o
 .text.IsScriptOnlyCommand
                0x00000000000613f8       0xb0 /tmp/Shell.dll.y4Q2gW.ltrans11.ltrans.o
 .text.GetNextParameter
                0x00000000000614a8      0x1c0 /tmp/Shell.dll.y4Q2gW.ltrans11.ltrans.o
 .text.TrimSpaces
                0x0000000000061668       0xdc /tmp/Shell.dll.y4Q2gW.ltrans11.ltrans.o
 .text.EfiShellClose
                0x0000000000061744       0x24 /tmp/Shell.dll.y4Q2gW.ltrans11.ltrans.o
                0x0000000000061744                EfiShellClose
 .text.EfiShellRegisterGuidName
                0x0000000000061768      0x23c /tmp/Shell.dll.y4Q2gW.ltrans11.ltrans.o
                0x0000000000061768                EfiShellRegisterGuidName
 .text.EfiShellGetFilePathFromDevicePath
                0x00000000000619a4      0x2d0 /tmp/Shell.dll.y4Q2gW.ltrans11.ltrans.o
                0x00000000000619a4                EfiShellGetFilePathFromDevicePath
 .text.EfiShellBatchIsActive
                0x0000000000061c74       0x1c /tmp/Shell.dll.y4Q2gW.ltrans11.ltrans.o
                0x0000000000061c74                EfiShellBatchIsActive
 .text.EfiShellGetDeviceName
                0x0000000000061c90      0x388 /tmp/Shell.dll.y4Q2gW.ltrans11.ltrans.o
                0x0000000000061c90                EfiShellGetDeviceName
 .text.EfiShellGetDevicePathFromFilePath
                0x0000000000062018      0x230 /tmp/Shell.dll.y4Q2gW.ltrans11.ltrans.o
                0x0000000000062018                EfiShellGetDevicePathFromFilePath
 .text.EfiShellGetMapFromDevicePath
                0x0000000000062248      0x164 /tmp/Shell.dll.y4Q2gW.ltrans11.ltrans.o
                0x0000000000062248                EfiShellGetMapFromDevicePath
 .text.EfiShellOpenRootByHandle
                0x00000000000623ac      0x100 /tmp/Shell.dll.y4Q2gW.ltrans11.ltrans.o
                0x00000000000623ac                EfiShellOpenRootByHandle
 .text.EfiShellOpenRoot
                0x00000000000624ac       0x94 /tmp/Shell.dll.y4Q2gW.ltrans11.ltrans.o
                0x00000000000624ac                EfiShellOpenRoot
 .text.EfiShellSetMap
                0x0000000000062540      0x1bc /tmp/Shell.dll.y4Q2gW.ltrans11.ltrans.o
                0x0000000000062540                EfiShellSetMap
 .text.ContainsSplit
                0x00000000000626fc       0xec /tmp/Shell.dll.y4Q2gW.ltrans11.ltrans.o
 .text.ProcessCommandLineToFinal
                0x00000000000627e8      0x7e0 /tmp/Shell.dll.y4Q2gW.ltrans11.ltrans.o
 .text.GetOperationType
                0x0000000000062fc8      0x11c /tmp/Shell.dll.y4Q2gW.ltrans11.ltrans.o
 .text.CleanUpShellProtocol
                0x00000000000630e4       0xd0 /tmp/Shell.dll.y4Q2gW.ltrans11.ltrans.o
                0x00000000000630e4                CleanUpShellProtocol
 .text.InternalSetAlias
                0x00000000000631b4      0x10c /tmp/Shell.dll.y4Q2gW.ltrans11.ltrans.o
                0x00000000000631b4                InternalSetAlias
 .text.EfiShellSetAlias
                0x00000000000632c0       0x9c /tmp/Shell.dll.y4Q2gW.ltrans11.ltrans.o
                0x00000000000632c0                EfiShellSetAlias
 .text.InternalEfiShellSetEnv
                0x000000000006335c      0x11c /tmp/Shell.dll.y4Q2gW.ltrans11.ltrans.o
                0x000000000006335c                InternalEfiShellSetEnv
 .text.EfiShellSetCurDir
                0x0000000000063478      0x4b4 /tmp/Shell.dll.y4Q2gW.ltrans11.ltrans.o
                0x0000000000063478                EfiShellSetCurDir
 .text.EfiShellSetEnv
                0x000000000006392c       0xfc /tmp/Shell.dll.y4Q2gW.ltrans11.ltrans.o
                0x000000000006392c                EfiShellSetEnv
 .text.SetLastError
                0x0000000000063a28       0x94 /tmp/Shell.dll.y4Q2gW.ltrans11.ltrans.o
 .text.InternalFreeShellFileInfoNode
                0x0000000000063abc       0x5c /tmp/Shell.dll.y4Q2gW.ltrans11.ltrans.o
                0x0000000000063abc                InternalFreeShellFileInfoNode
 .text.EfiShellFreeFileList
                0x0000000000063b18       0x80 /tmp/Shell.dll.y4Q2gW.ltrans11.ltrans.o
                0x0000000000063b18                EfiShellFreeFileList
 .text.EfiShellFindFilesInDir
                0x0000000000063b98      0x458 /tmp/Shell.dll.y4Q2gW.ltrans11.ltrans.o
                0x0000000000063b98                EfiShellFindFilesInDir
 .text.EfiShellRemoveDupInFileList
                0x0000000000063ff0      0x12c /tmp/Shell.dll.y4Q2gW.ltrans11.ltrans.o
                0x0000000000063ff0                EfiShellRemoveDupInFileList
 .text.InternalOpenFileDevicePath
                0x000000000006411c      0x234 /tmp/Shell.dll.y4Q2gW.ltrans11.ltrans.o
                0x000000000006411c                InternalOpenFileDevicePath
 .text.EfiShellOpenFileByName
                0x0000000000064350      0x1e8 /tmp/Shell.dll.y4Q2gW.ltrans11.ltrans.o
                0x0000000000064350                EfiShellOpenFileByName
 .text.ShellSearchHandle.part.0
                0x0000000000064538      0x3ac /tmp/Shell.dll.y4Q2gW.ltrans11.ltrans.o
 .text.EfiShellFindFiles
                0x00000000000648e4      0x1d0 /tmp/Shell.dll.y4Q2gW.ltrans11.ltrans.o
                0x00000000000648e4                EfiShellFindFiles
 .text.EfiShellOpenFileList
                0x0000000000064ab4      0x24c /tmp/Shell.dll.y4Q2gW.ltrans11.ltrans.o
                0x0000000000064ab4                EfiShellOpenFileList
 .text.EfiShellCreateFile
                0x0000000000064d00       0xec /tmp/Shell.dll.y4Q2gW.ltrans11.ltrans.o
                0x0000000000064d00                EfiShellCreateFile
 .text.EfiShellDeleteFileByName
                0x0000000000064dec       0x70 /tmp/Shell.dll.y4Q2gW.ltrans11.ltrans.o
                0x0000000000064dec                EfiShellDeleteFileByName
 .text.RestoreArgcArgv
                0x0000000000064e5c       0x9c /tmp/Shell.dll.y4Q2gW.ltrans11.ltrans.o
                0x0000000000064e5c                RestoreArgcArgv
 .text.ParseCommandLineToArgs
                0x0000000000064ef8      0x22c /tmp/Shell.dll.y4Q2gW.ltrans11.ltrans.o
                0x0000000000064ef8                ParseCommandLineToArgs
 .text.InternalShellExecuteDevicePath
                0x0000000000065124      0x464 /tmp/Shell.dll.y4Q2gW.ltrans11.ltrans.o
 .text.RunShellCommand
                0x0000000000065588     0x1be4 /tmp/Shell.dll.y4Q2gW.ltrans11.ltrans.o
                0x0000000000065588                RunShellCommand
 .text.EfiShellExecute
                0x000000000006716c      0x2d4 /tmp/Shell.dll.y4Q2gW.ltrans11.ltrans.o
                0x000000000006716c                EfiShellExecute
 .text.RunSplitCommand
                0x0000000000067440      0x2f0 /tmp/Shell.dll.y4Q2gW.ltrans11.ltrans.o
 .text.RestoreBufferList
                0x0000000000067730       0x34 /tmp/Shell.dll.y4Q2gW.ltrans11.ltrans.o
                0x0000000000067730                RestoreBufferList
 .text.ProcessLibraryDestructorList
                0x0000000000067764      0x3f4 /tmp/Shell.dll.y4Q2gW.ltrans11.ltrans.o
                0x0000000000067764                ProcessLibraryDestructorList
 .text.ProcessLibraryConstructorList
                0x0000000000067b58     0x16a0 /tmp/Shell.dll.y4Q2gW.ltrans12.ltrans.o
 .text.memcpy   0x00000000000691f8       0x20 /tmp/Shell.dll.y4Q2gW.ltrans12.ltrans.o
                0x00000000000691f8                memcpy
 .text.__stack_chk_fail
                0x0000000000069218       0x44 /tmp/Shell.dll.y4Q2gW.ltrans12.ltrans.o
                0x0000000000069218                __stack_chk_fail
 .text._ModuleEntryPoint
                0x000000000006925c     0x1ff8 /tmp/Shell.dll.y4Q2gW.ltrans12.ltrans.o
                0x000000000006925c                _ModuleEntryPoint
 *fill*         0x000000000006b254        0xc 
 .text          0x000000000006b260      0x200 /home/alastair/pftf-rpi4/Build/RPi4/DEBUG_GCC5/AARCH64/MdePkg/Library/BaseMemoryLibOptDxe/BaseMemoryLibOptDxe/OUTPUT/BaseMemoryLibOptDxe.lib(SetMem.obj)
                0x000000000006b260                InternalMemSetMem16
                0x000000000006b26c                InternalMemSetMem32
                0x000000000006b278                InternalMemSetMem64
                0x000000000006b284                InternalMemZeroMem
                0x000000000006b28c                InternalMemSetMem
 .text          0x000000000006b460      0x218 /home/alastair/pftf-rpi4/Build/RPi4/DEBUG_GCC5/AARCH64/MdePkg/Library/BaseMemoryLibOptDxe/BaseMemoryLibOptDxe/OUTPUT/BaseMemoryLibOptDxe.lib(CopyMem.obj)
                0x000000000006b5cc                InternalMemCopyMem
 *fill*         0x000000000006b678        0x8 
 .text          0x000000000006b680       0x20 /home/alastair/pftf-rpi4/Build/RPi4/DEBUG_GCC5/AARCH64/MdePkg/Library/BaseMemoryLibOptDxe/BaseMemoryLibOptDxe/OUTPUT/BaseMemoryLibOptDxe.lib(CompareGuid.obj)
                0x000000000006b680                InternalMemCompareGuid
 .text          0x000000000006b6a0        0x8 /home/alastair/pftf-rpi4/Build/RPi4/DEBUG_GCC5/AARCH64/MdePkg/Library/BaseLib/BaseLib/OUTPUT/BaseLib.lib(CpuBreakpoint.obj)
                0x000000000006b6a0                CpuBreakpoint
 *fill*         0x000000000006b6a8       0x18 
 .text          0x000000000006b6c0       0xe0 /home/alastair/pftf-rpi4/Build/RPi4/DEBUG_GCC5/AARCH64/MdePkg/Library/BaseMemoryLibOptDxe/BaseMemoryLibOptDxe/OUTPUT/BaseMemoryLibOptDxe.lib(CompareMem.obj)
                0x000000000006b6c0                InternalMemCompareMem
 *(.rodata .rodata.* .gnu.linkonce.r.*)
 .rodata.RedBlackTreeRecursiveCheck.part.0.str1.1
                0x000000000006b7a0      0x115 /tmp/Shell.dll.y4Q2gW.ltrans0.ltrans.o
 *fill*         0x000000000006b8b5        0x1 
 .rodata.ManFileFindTitleSection.part.0.constprop.0.str2.2
                0x000000000006b8b6       0x14 /tmp/Shell.dll.y4Q2gW.ltrans0.ltrans.o
 .rodata.InternalCommandLineParse.part.0.constprop.0.str1.1
                0x000000000006b8ca       0x60 /tmp/Shell.dll.y4Q2gW.ltrans0.ltrans.o
 .rodata.InternalCommandLineParse.part.0.constprop.0.str2.2
                0x000000000006b92a        0xc /tmp/Shell.dll.y4Q2gW.ltrans0.ltrans.o
                                         0x10 (size before relaxing)
 *fill*         0x000000000006b936        0x2 
 .rodata.InternalCommandLineParse.part.0.constprop.0
                0x000000000006b938        0x6 /tmp/Shell.dll.y4Q2gW.ltrans0.ltrans.o
 .rodata.NetLibDetectMedia.constprop.0.str1.1
                0x000000000006b93e       0x63 /tmp/Shell.dll.y4Q2gW.ltrans0.ltrans.o
 .rodata.CatVSPrint.str1.1
                0x000000000006b9a1       0x6a /tmp/Shell.dll.y4Q2gW.ltrans0.ltrans.o
 .rodata.ShellFindFilePathEx.constprop.0.str1.1
                0x000000000006ba0b       0x6a /tmp/Shell.dll.y4Q2gW.ltrans0.ltrans.o
                                         0x19 (size before relaxing)
 .rodata.ShellFindFilePathEx.constprop.0.str2.2
                0x000000000006ba0b        0xc /tmp/Shell.dll.y4Q2gW.ltrans0.ltrans.o
                                          0x4 (size before relaxing)
 .rodata.RunScriptFile.constprop.0.str1.1
                0x000000000006ba0b      0x15d /tmp/Shell.dll.y4Q2gW.ltrans0.ltrans.o
 .rodata.RunScriptFile.constprop.0.str2.2
                0x000000000006bb68       0x9e /tmp/Shell.dll.y4Q2gW.ltrans0.ltrans.o
                                         0xbc (size before relaxing)
 *fill*         0x000000000006bc06        0x2 
 .rodata.RunScriptFile.constprop.0
                0x000000000006bc08       0x14 /tmp/Shell.dll.y4Q2gW.ltrans0.ltrans.o
 .rodata.ShellCommandAddMapItemAndUpdatePath.constprop.0.str2.2
                0x000000000006bc1c       0x3c /tmp/Shell.dll.y4Q2gW.ltrans0.ltrans.o
                                         0x40 (size before relaxing)
 .rodata.ShellCommandAddMapItemAndUpdatePath.constprop.0.str1.1
                0x000000000006bc58       0xa4 /tmp/Shell.dll.y4Q2gW.ltrans0.ltrans.o
 .rodata.PerformQuickSort.constprop.0.str1.1
                0x000000000006bcfc       0x6a /tmp/Shell.dll.y4Q2gW.ltrans0.ltrans.o
                                         0x81 (size before relaxing)
 .rodata.ShellLibConstructorWorker.constprop.0.str1.1
                0x000000000006bd66       0x11 /tmp/Shell.dll.y4Q2gW.ltrans0.ltrans.o
 .rodata.GetBestLanguageForDriver.constprop.0.str1.1
                0x000000000006bd77       0x11 /tmp/Shell.dll.y4Q2gW.ltrans0.ltrans.o
                                          0x1 (size before relaxing)
 *fill*         0x000000000006bd77        0x1 
 .rodata.GetBestLanguageForDriver.constprop.0.str2.2
                0x000000000006bd78       0x1a /tmp/Shell.dll.y4Q2gW.ltrans0.ltrans.o
 .rodata.ProcessManFile.constprop.0.str1.1
                0x000000000006bd92       0x24 /tmp/Shell.dll.y4Q2gW.ltrans0.ltrans.o
                                         0x27 (size before relaxing)
 .rodata.ProcessManFile.constprop.0.str2.2
                0x000000000006bdb6       0x14 /tmp/Shell.dll.y4Q2gW.ltrans0.ltrans.o
 .rodata.CreateAndPopulateShellFileInfo.constprop.0.str1.1
                0x000000000006bdca       0xae /tmp/Shell.dll.y4Q2gW.ltrans0.ltrans.o
 .rodata.FileHandleFindFirstFile.constprop.0.str1.1
                0x000000000006be78       0x8c /tmp/Shell.dll.y4Q2gW.ltrans0.ltrans.o
 .rodata.StrnCatGrowLeft.constprop.0.str1.1
                0x000000000006bf04       0x25 /tmp/Shell.dll.y4Q2gW.ltrans0.ltrans.o
 .rodata.ConsoleLoggerDisplayHistory.constprop.0.str1.1
                0x000000000006bf29       0x49 /tmp/Shell.dll.y4Q2gW.ltrans0.ltrans.o
                                         0x65 (size before relaxing)
 .rodata.StrHexToUint64S.constprop.0.str1.1
                0x000000000006bf72       0xe6 /tmp/Shell.dll.y4Q2gW.ltrans0.ltrans.o
 .rodata.StrToIpv6Address.constprop.0.str1.1
                0x000000000006c058       0x4a /tmp/Shell.dll.y4Q2gW.ltrans0.ltrans.o
 .rodata.UnicodeStrToAsciiStrS.constprop.0.str1.1
                0x000000000006c0a2       0xc0 /tmp/Shell.dll.y4Q2gW.ltrans0.ltrans.o
 .rodata.UnicodeValueToStringS.constprop.0.str1.1
                0x000000000006c162       0x75 /tmp/Shell.dll.y4Q2gW.ltrans0.ltrans.o
 .rodata.ShellCommandLineParseEx.constprop.0.str1.1
                0x000000000006c1d7       0x23 /tmp/Shell.dll.y4Q2gW.ltrans0.ltrans.o
 .rodata.SearchList.constprop.0.str1.1
                0x000000000006c1fa       0x69 /tmp/Shell.dll.y4Q2gW.ltrans0.ltrans.o
 *fill*         0x000000000006c263        0x1 
 .rodata.StatusBarRefresh.constprop.0.str2.2
                0x000000000006c264       0x58 /tmp/Shell.dll.y4Q2gW.ltrans0.ltrans.o
                                         0x62 (size before relaxing)
 .rodata.IoWrite64.constprop.0.str1.1
                0x000000000006c2bc       0x5e /tmp/Shell.dll.y4Q2gW.ltrans0.ltrans.o
 .rodata.QueryTable.constprop.0.str2.2
                0x000000000006c31a       0x22 /tmp/Shell.dll.y4Q2gW.ltrans0.ltrans.o
                                         0x26 (size before relaxing)
 .rodata.DivU64x64Remainder.constprop.0.str1.1
                0x000000000006c33c       0x57 /tmp/Shell.dll.y4Q2gW.ltrans0.ltrans.o
 .rodata.IsZeroBuffer.constprop.0.str1.1
                0x000000000006c393       0xb7 /tmp/Shell.dll.y4Q2gW.ltrans0.ltrans.o
 .rodata.NetIp6IsLinkLocalAddr.str1.1
                0x000000000006c44a       0x14 /tmp/Shell.dll.y4Q2gW.ltrans0.ltrans.o
 .rodata.BcfgLibraryRegisterBcfgCommand.part.0.str2.2
                0x000000000006c45e        0xa /tmp/Shell.dll.y4Q2gW.ltrans0.ltrans.o
 .rodata.OrderedCollectionInsert.constprop.0.str1.1
                0x000000000006c468       0x1e /tmp/Shell.dll.y4Q2gW.ltrans0.ltrans.o
 .rodata.OrderedCollectionDelete.str1.1
                0x000000000006c486       0xbe /tmp/Shell.dll.y4Q2gW.ltrans0.ltrans.o
 .rodata.OrderedCollectionUninit.str1.1
                0x000000000006c544       0x20 /tmp/Shell.dll.y4Q2gW.ltrans0.ltrans.o
 .rodata.PeCoffLoaderGetPdbPointer.str1.1
                0x000000000006c564       0x77 /tmp/Shell.dll.y4Q2gW.ltrans0.ltrans.o
 .rodata.EfiGetNameGuidFromFwVolDevicePathNode.str1.1
                0x000000000006c5db       0x65 /tmp/Shell.dll.y4Q2gW.ltrans0.ltrans.o
 .rodata.CatSDumpHex.constprop.0.str2.2
                0x000000000006c640       0x2c /tmp/Shell.dll.y4Q2gW.ltrans0.ltrans.o
 .rodata.HBufferImageSave.constprop.0.str2.2
                0x000000000006c66c       0xe2 /tmp/Shell.dll.y4Q2gW.ltrans0.ltrans.o
 .rodata.HBufferImageSave.constprop.0.str1.1
                0x000000000006c74e       0x73 /tmp/Shell.dll.y4Q2gW.ltrans0.ltrans.o
 .rodata.Print.str1.1
                0x000000000006c7c1       0x52 /tmp/Shell.dll.y4Q2gW.ltrans0.ltrans.o
 *fill*         0x000000000006c813        0x1 
 .rodata.Dump12Chars.str2.2
                0x000000000006c814       0x32 /tmp/Shell.dll.y4Q2gW.ltrans0.ltrans.o
 .rodata.Dump8Chars.str2.2
                0x000000000006c846       0x32 /tmp/Shell.dll.y4Q2gW.ltrans0.ltrans.o
                                         0x22 (size before relaxing)
 .rodata.Dump6Chars.str2.2
                0x000000000006c846       0x32 /tmp/Shell.dll.y4Q2gW.ltrans0.ltrans.o
                                         0x1a (size before relaxing)
 .rodata.Dump4Chars.str2.2
                0x000000000006c846       0x32 /tmp/Shell.dll.y4Q2gW.ltrans0.ltrans.o
                                         0x12 (size before relaxing)
 .rodata.Dump3Chars.str2.2
                0x000000000006c846       0x32 /tmp/Shell.dll.y4Q2gW.ltrans0.ltrans.o
                                          0xe (size before relaxing)
 .rodata.MmioWrite64.str1.1
                0x000000000006c846       0x13 /tmp/Shell.dll.y4Q2gW.ltrans0.ltrans.o
 .rodata.MmioWrite32.str1.1
                0x000000000006c859       0x13 /tmp/Shell.dll.y4Q2gW.ltrans0.ltrans.o
 .rodata.MmioWrite16.str1.1
                0x000000000006c86c       0x13 /tmp/Shell.dll.y4Q2gW.ltrans0.ltrans.o
 .rodata.WriteUnaligned16.str1.1
                0x000000000006c87f       0x45 /tmp/Shell.dll.y4Q2gW.ltrans0.ltrans.o
 .rodata.BasePrintLibSPrintMarker.constprop.0.str1.1
                0x000000000006c8c4      0x224 /tmp/Shell.dll.y4Q2gW.ltrans0.ltrans.o
                                        0x240 (size before relaxing)
 .rodata.BasePrintLibSPrintMarker.constprop.0
                0x000000000006cae8       0x5e /tmp/Shell.dll.y4Q2gW.ltrans0.ltrans.o
 .rodata.BcfgMod.str2.2
                0x000000000006cb46       0xd0 /tmp/Shell.dll.y4Q2gW.ltrans0.ltrans.o
                                         0xe2 (size before relaxing)
 .rodata.BcfgMod.str1.1
                0x000000000006cc16       0x6e /tmp/Shell.dll.y4Q2gW.ltrans0.ltrans.o
 .rodata.ShellCommandRunBcfg.str2.2
                0x000000000006cc84      0x13e /tmp/Shell.dll.y4Q2gW.ltrans0.ltrans.o
                                        0x154 (size before relaxing)
 .rodata.ShellCommandRunBcfg.str1.1
                0x000000000006cdc2      0x180 /tmp/Shell.dll.y4Q2gW.ltrans0.ltrans.o
 *fill*         0x000000000006cf42        0x2 
 .rodata.ShellCommandRunBcfg
                0x000000000006cf44       0x14 /tmp/Shell.dll.y4Q2gW.ltrans0.ltrans.o
 .rodata.DivU64x32Remainder.str1.1
                0x000000000006cf58       0x4a /tmp/Shell.dll.y4Q2gW.ltrans0.ltrans.o
 .rodata.CompareMem.str1.1
                0x000000000006cfa2      0x115 /tmp/Shell.dll.y4Q2gW.ltrans0.ltrans.o
 *fill*         0x000000000006d0b7        0x1 
 .rodata.PrintFieldName.str2.2
                0x000000000006d0b8       0x16 /tmp/Shell.dll.y4Q2gW.ltrans0.ltrans.o
 .rodata.DumpRaw.str2.2
                0x000000000006d0ce       0x7a /tmp/Shell.dll.y4Q2gW.ltrans0.ltrans.o
 .rodata.VerifyChecksum.constprop.0.str2.2
                0x000000000006d148       0x6e /tmp/Shell.dll.y4Q2gW.ltrans0.ltrans.o
 .rodata.ParseAcpi.str2.2
                0x000000000006d1b6      0x116 /tmp/Shell.dll.y4Q2gW.ltrans0.ltrans.o
 .rodata.ParseAcpi
                0x000000000006d2cc        0x8 /tmp/Shell.dll.y4Q2gW.ltrans0.ltrans.o
 .rodata.DumpAcpiHeader.str1.1
                0x000000000006d2d4       0x12 /tmp/Shell.dll.y4Q2gW.ltrans0.ltrans.o
 .rodata.ParseAcpiXsdt.str1.1
                0x000000000006d2e6        0x5 /tmp/Shell.dll.y4Q2gW.ltrans0.ltrans.o
 *fill*         0x000000000006d2eb        0x1 
 .rodata.ParseAcpiXsdt.str2.2
                0x000000000006d2ec       0xb8 /tmp/Shell.dll.y4Q2gW.ltrans0.ltrans.o
                                         0xc6 (size before relaxing)
 .rodata.ParseAcpiSrat.str1.1
                0x000000000006d3a4       0xcd /tmp/Shell.dll.y4Q2gW.ltrans0.ltrans.o
 *fill*         0x000000000006d471        0x1 
 .rodata.ParseAcpiSrat.str2.2
                0x000000000006d472      0x220 /tmp/Shell.dll.y4Q2gW.ltrans0.ltrans.o
 *fill*         0x000000000006d692        0x2 
 .rodata.ParseAcpiSrat
                0x000000000006d694        0x6 /tmp/Shell.dll.y4Q2gW.ltrans0.ltrans.o
 .rodata.str2.2
                0x000000000006d69a      0x746 /tmp/Shell.dll.y4Q2gW.ltrans0.ltrans.o
                                        0x7ea (size before relaxing)
 .rodata        0x000000000006dde0        0x4 /tmp/Shell.dll.y4Q2gW.ltrans0.ltrans.o
 *fill*         0x000000000006dde4        0x4 
 .rodata.AcpiHeaderParser.lto_priv.0
                0x000000000006dde8      0x1f8 /tmp/Shell.dll.y4Q2gW.ltrans0.ltrans.o
                0x000000000006dde8                AcpiHeaderParser.lto_priv.0
 .rodata.GasParser.lto_priv.0
                0x000000000006dfe0      0x118 /tmp/Shell.dll.y4Q2gW.ltrans0.ltrans.o
                0x000000000006dfe0                GasParser.lto_priv.0
 .rodata.Hex.lto_priv.0
                0x000000000006e0f8       0x10 /tmp/Shell.dll.y4Q2gW.ltrans0.ltrans.o
                0x000000000006e0f8                Hex.lto_priv.0
 .rodata.ParamList
                0x000000000006e108       0x30 /tmp/Shell.dll.y4Q2gW.ltrans0.ltrans.o
 .rodata.SratApciSapicAffinityParser
                0x000000000006e138      0x1c0 /tmp/Shell.dll.y4Q2gW.ltrans0.ltrans.o
 .rodata.SratGenericInitiatorAffinityParser
                0x000000000006e2f8      0x1c0 /tmp/Shell.dll.y4Q2gW.ltrans0.ltrans.o
 .rodata.SratGicCAffinityParser
                0x000000000006e4b8      0x150 /tmp/Shell.dll.y4Q2gW.ltrans0.ltrans.o
 .rodata.SratGicITSAffinityParser
                0x000000000006e608      0x118 /tmp/Shell.dll.y4Q2gW.ltrans0.ltrans.o
 .rodata.SratMemAffinityParser
                0x000000000006e720      0x268 /tmp/Shell.dll.y4Q2gW.ltrans0.ltrans.o
 .rodata.SratParser
                0x000000000006e988      0x268 /tmp/Shell.dll.y4Q2gW.ltrans0.ltrans.o
 .rodata.SratResourceAllocationParser
                0x000000000006ebf0       0x70 /tmp/Shell.dll.y4Q2gW.ltrans0.ltrans.o
 .rodata.SratX2ApciAffinityParser
                0x000000000006ec60      0x1c0 /tmp/Shell.dll.y4Q2gW.ltrans0.ltrans.o
 .rodata.XsdtParser
                0x000000000006ee20      0x1f8 /tmp/Shell.dll.y4Q2gW.ltrans0.ltrans.o
 .rodata.__FUNCTION__.2031
                0x000000000006f018       0x10 /tmp/Shell.dll.y4Q2gW.ltrans0.ltrans.o
 .rodata.__FUNCTION__.2056
                0x000000000006f028       0x11 /tmp/Shell.dll.y4Q2gW.ltrans0.ltrans.o
 .rodata.__FUNCTION__.2072
                0x000000000006f039       0x11 /tmp/Shell.dll.y4Q2gW.ltrans0.ltrans.o
 .rodata.__FUNCTION__.2221
                0x000000000006f04a       0x16 /tmp/Shell.dll.y4Q2gW.ltrans0.ltrans.o
 .rodata.mBmLoadOptionName
                0x000000000006f060       0x20 /tmp/Shell.dll.y4Q2gW.ltrans0.ltrans.o
 .rodata.mErrorString
                0x000000000006f080      0x2b5 /tmp/Shell.dll.y4Q2gW.ltrans0.ltrans.o
 *fill*         0x000000000006f335        0x1 
 .rodata.mExecutableExtensions.lto_priv.0
                0x000000000006f336       0x14 /tmp/Shell.dll.y4Q2gW.ltrans0.ltrans.o
                0x000000000006f336                mExecutableExtensions.lto_priv.0
 .rodata.mFileName
                0x000000000006f34a       0x1c /tmp/Shell.dll.y4Q2gW.ltrans0.ltrans.o
 .rodata.mWarningString
                0x000000000006f366       0x96 /tmp/Shell.dll.y4Q2gW.ltrans0.ltrans.o
 .rodata.DumpVendorSpecificData.str2.2
                0x000000000006f3fc       0xae /tmp/Shell.dll.y4Q2gW.ltrans1.ltrans.o
 .rodata.DumpVendorSpecificData.str1.1
                0x000000000006f4aa        0x1 /tmp/Shell.dll.y4Q2gW.ltrans1.ltrans.o
 .rodata.ParseAcpiSpcr.str1.1
                0x000000000006f4aa        0x5 /tmp/Shell.dll.y4Q2gW.ltrans1.ltrans.o
 .rodata.ParseAcpiMcfg.str1.1
                0x000000000006f4af       0x1d /tmp/Shell.dll.y4Q2gW.ltrans1.ltrans.o
 .rodata.ParseAcpiFacs.str1.1
                0x000000000006f4cc        0x5 /tmp/Shell.dll.y4Q2gW.ltrans1.ltrans.o
 .rodata.ParseAcpiBgrt.str1.1
                0x000000000006f4d1        0x5 /tmp/Shell.dll.y4Q2gW.ltrans1.ltrans.o
 .rodata.DumpSratDeviceHandle.lto_priv.0.str2.2
                0x000000000006f4d6       0x5c /tmp/Shell.dll.y4Q2gW.ltrans1.ltrans.o
                                         0x60 (size before relaxing)
 .rodata.ValidateSratDeviceHandleType.lto_priv.0.str2.2
                0x000000000006f532       0x84 /tmp/Shell.dll.y4Q2gW.ltrans1.ltrans.o
 .rodata.ValidateSratReserved.lto_priv.0.str2.2
                0x000000000006f5b6       0x74 /tmp/Shell.dll.y4Q2gW.ltrans1.ltrans.o
 .rodata.ValidateIrq.str2.2
                0x000000000006f62a       0x6c /tmp/Shell.dll.y4Q2gW.ltrans1.ltrans.o
 .rodata.ValidateInterruptType.lto_priv.1.str2.2
                0x000000000006f696       0x78 /tmp/Shell.dll.y4Q2gW.ltrans1.ltrans.o
 .rodata.ValidateXsdtAddress.str2.2
                0x000000000006f70e       0x8a /tmp/Shell.dll.y4Q2gW.ltrans1.ltrans.o
 .rodata.ValidateRsdtAddress.str2.2
                0x000000000006f798       0x82 /tmp/Shell.dll.y4Q2gW.ltrans1.ltrans.o
 .rodata.ValidateCacheAttributes.lto_priv.1.str2.2
                0x000000000006f81a       0x7a /tmp/Shell.dll.y4Q2gW.ltrans1.ltrans.o
 .rodata.ValidateCacheLineSize.str2.2
                0x000000000006f894       0xfe /tmp/Shell.dll.y4Q2gW.ltrans1.ltrans.o
 .rodata.ValidateCacheAssociativity.str2.2
                0x000000000006f992       0x66 /tmp/Shell.dll.y4Q2gW.ltrans1.ltrans.o
 .rodata.ValidateCacheNumberOfSets.str2.2
                0x000000000006f9f8      0x270 /tmp/Shell.dll.y4Q2gW.ltrans1.ltrans.o
 .rodata.ParseAcpiPcct.str1.1
                0x000000000006fc68       0x55 /tmp/Shell.dll.y4Q2gW.ltrans1.ltrans.o
 *fill*         0x000000000006fcbd        0x1 
 .rodata.ParseAcpiPcct.str2.2
                0x000000000006fcbe      0x21c /tmp/Shell.dll.y4Q2gW.ltrans1.ltrans.o
 *fill*         0x000000000006feda        0x2 
 .rodata.ParseAcpiPcct
                0x000000000006fedc        0x5 /tmp/Shell.dll.y4Q2gW.ltrans1.ltrans.o
 *fill*         0x000000000006fee1        0x1 
 .rodata.ValidatePlatInterrupt.str2.2
                0x000000000006fee2       0xcc /tmp/Shell.dll.y4Q2gW.ltrans1.ltrans.o
 .rodata.ValidatePccGas.str2.2
                0x000000000006ffae       0x3c /tmp/Shell.dll.y4Q2gW.ltrans1.ltrans.o
 .rodata.ValidateRangeLength8.str2.2
                0x000000000006ffea       0xc0 /tmp/Shell.dll.y4Q2gW.ltrans1.ltrans.o
 .rodata.ValidateRangeLength4.str2.2
                0x00000000000700aa       0xd8 /tmp/Shell.dll.y4Q2gW.ltrans1.ltrans.o
 .rodata.ParseAcpiMadt.str1.1
                0x0000000000070182       0x2a /tmp/Shell.dll.y4Q2gW.ltrans1.ltrans.o
 .rodata.ParseAcpiMadt.str2.2
                0x00000000000701ac      0x2ae /tmp/Shell.dll.y4Q2gW.ltrans1.ltrans.o
 *fill*         0x000000000007045a        0x2 
 .rodata.ParseAcpiMadt
                0x000000000007045c        0x5 /tmp/Shell.dll.y4Q2gW.ltrans1.ltrans.o
 *fill*         0x0000000000070461        0x1 
 .rodata.ValidateSpeOverflowInterrupt.str2.2
                0x0000000000070462      0x1b4 /tmp/Shell.dll.y4Q2gW.ltrans1.ltrans.o
 .rodata.ValidateGICDSystemVectorBase.str2.2
                0x0000000000070616       0x52 /tmp/Shell.dll.y4Q2gW.ltrans1.ltrans.o
 .rodata.ValidateItsIdArrayReference.str2.2
                0x0000000000070668       0x5a /tmp/Shell.dll.y4Q2gW.ltrans1.ltrans.o
 .rodata.ValidatePmcgIdMappingCount.str2.2
                0x00000000000706c2       0x74 /tmp/Shell.dll.y4Q2gW.ltrans1.ltrans.o
 .rodata.ValidateItsIdMappingCount.str2.2
                0x0000000000070736       0x58 /tmp/Shell.dll.y4Q2gW.ltrans1.ltrans.o
 .rodata.ValidateCacheAttributes.lto_priv.0.str2.2
                0x000000000007078e      0x1be /tmp/Shell.dll.y4Q2gW.ltrans1.ltrans.o
 .rodata.ParseAcpiGtdt.str1.1
                0x000000000007094c       0x33 /tmp/Shell.dll.y4Q2gW.ltrans1.ltrans.o
 *fill*         0x000000000007097f        0x1 
 .rodata.ParseAcpiGtdt.str2.2
                0x0000000000070980      0x2da /tmp/Shell.dll.y4Q2gW.ltrans1.ltrans.o
 .rodata.ValidateGtFrameNumber.str2.2
                0x0000000000070c5a       0x8a /tmp/Shell.dll.y4Q2gW.ltrans1.ltrans.o
 .rodata.ValidateGtBlockTimerCount.str2.2
                0x0000000000070ce4       0x62 /tmp/Shell.dll.y4Q2gW.ltrans1.ltrans.o
 .rodata.ValidateFlags.str2.2
                0x0000000000070d46       0x78 /tmp/Shell.dll.y4Q2gW.ltrans1.ltrans.o
 .rodata.ValidateXFirmwareCtrl.str2.2
                0x0000000000070dbe       0x76 /tmp/Shell.dll.y4Q2gW.ltrans1.ltrans.o
 .rodata.ValidateFirmwareCtrl.str2.2
                0x0000000000070e34       0x72 /tmp/Shell.dll.y4Q2gW.ltrans1.ltrans.o
 .rodata.ValidateNameSpaceStrLen.str2.2
                0x0000000000070ea6       0xe0 /tmp/Shell.dll.y4Q2gW.ltrans1.ltrans.o
 .rodata.ValidateInterruptFlags.str2.2
                0x0000000000070f86       0x50 /tmp/Shell.dll.y4Q2gW.ltrans1.ltrans.o
 .rodata.ValidateInterruptType.lto_priv.0.str2.2
                0x0000000000070fd6       0x50 /tmp/Shell.dll.y4Q2gW.ltrans1.ltrans.o
 .rodata.ValidateInterfaceType.str2.2
                0x0000000000071026       0x50 /tmp/Shell.dll.y4Q2gW.ltrans1.ltrans.o
 .rodata.ValidateGicInterfaceType.str2.2
                0x0000000000071076       0x4c /tmp/Shell.dll.y4Q2gW.ltrans1.ltrans.o
 .rodata.ValidateProcessorFlags.str2.2
                0x00000000000710c2       0x9e /tmp/Shell.dll.y4Q2gW.ltrans1.ltrans.o
 .rodata.DumpCacheAttributes.str2.2
                0x0000000000071160       0xa0 /tmp/Shell.dll.y4Q2gW.ltrans1.ltrans.o
                                         0xa8 (size before relaxing)
 .rodata.ParseAcpiDbg2.str1.1
                0x0000000000071200       0x17 /tmp/Shell.dll.y4Q2gW.ltrans1.ltrans.o
 *fill*         0x0000000000071217        0x1 
 .rodata.ParseAcpiDbg2.str2.2
                0x0000000000071218      0x482 /tmp/Shell.dll.y4Q2gW.ltrans1.ltrans.o
                                        0x4b0 (size before relaxing)
 .rodata.DumpSratPciBdfNumber.str2.2
                0x000000000007169a       0x6a /tmp/Shell.dll.y4Q2gW.ltrans1.ltrans.o
 .rodata.ParseAcpiSlit.str1.1
                0x0000000000071704        0x5 /tmp/Shell.dll.y4Q2gW.ltrans1.ltrans.o
 *fill*         0x0000000000071709        0x1 
 .rodata.ParseAcpiSlit.str2.2
                0x000000000007170a      0x39e /tmp/Shell.dll.y4Q2gW.ltrans1.ltrans.o
                                        0x3ae (size before relaxing)
 .rodata.ParseAcpiPptt.str1.1
                0x0000000000071aa8       0x4a /tmp/Shell.dll.y4Q2gW.ltrans1.ltrans.o
 .rodata.ParseAcpiPptt.str2.2
                0x0000000000071af2      0x422 /tmp/Shell.dll.y4Q2gW.ltrans1.ltrans.o
 .rodata.DumpIortNodeIdMappings.str1.1
                0x0000000000071f14       0x10 /tmp/Shell.dll.y4Q2gW.ltrans1.ltrans.o
 .rodata.ParseAcpiIort.str1.1
                0x0000000000071f24       0xc8 /tmp/Shell.dll.y4Q2gW.ltrans1.ltrans.o
 .rodata.ParseAcpiIort.str2.2
                0x0000000000071fec      0x2cc /tmp/Shell.dll.y4Q2gW.ltrans1.ltrans.o
 .rodata.ParseAcpiIort
                0x00000000000722b8        0xc /tmp/Shell.dll.y4Q2gW.ltrans1.ltrans.o
 .rodata.ParseAcpiAest.str1.1
                0x00000000000722c4       0x89 /tmp/Shell.dll.y4Q2gW.ltrans1.ltrans.o
                                         0x98 (size before relaxing)
 *fill*         0x000000000007234d        0x1 
 .rodata.ParseAcpiAest.str2.2
                0x000000000007234e      0x51c /tmp/Shell.dll.y4Q2gW.ltrans1.ltrans.o
 *fill*         0x000000000007286a        0x2 
 .rodata.ParseAcpiAest
                0x000000000007286c        0x5 /tmp/Shell.dll.y4Q2gW.ltrans1.ltrans.o
 .rodata.ParseAcpiHmat.str1.1
                0x0000000000072871       0x96 /tmp/Shell.dll.y4Q2gW.ltrans1.ltrans.o
 *fill*         0x0000000000072907        0x1 
 .rodata.ParseAcpiHmat.str2.2
                0x0000000000072908      0x7b6 /tmp/Shell.dll.y4Q2gW.ltrans1.ltrans.o
                                        0x7bc (size before relaxing)
 .rodata.DumpAcpiTableToFile.str2.2
                0x00000000000730be       0xc4 /tmp/Shell.dll.y4Q2gW.ltrans1.ltrans.o
 .rodata.ProcessTableReportOptions.str2.2
                0x0000000000073182       0xb6 /tmp/Shell.dll.y4Q2gW.ltrans1.ltrans.o
 .rodata.ProcessTableReportOptions
                0x0000000000073238        0x4 /tmp/Shell.dll.y4Q2gW.ltrans1.ltrans.o
 .rodata.ShellCommandRunAcpiView.str2.2
                0x000000000007323c      0x3f0 /tmp/Shell.dll.y4Q2gW.ltrans1.ltrans.o
                                        0x402 (size before relaxing)
 .rodata.ShellCommandRunIfconfig.str2.2
                0x000000000007362c       0xc2 /tmp/Shell.dll.y4Q2gW.ltrans1.ltrans.o
                                         0xd2 (size before relaxing)
 .rodata.ShellCommandRunIfconfig.str1.1
                0x00000000000736ee       0x7f /tmp/Shell.dll.y4Q2gW.ltrans1.ltrans.o
                                         0x91 (size before relaxing)
 .rodata.PingSendEchoRequest.str1.1
                0x000000000007376d       0x86 /tmp/Shell.dll.y4Q2gW.ltrans1.ltrans.o
 *fill*         0x00000000000737f3        0x1 
 .rodata.ShellCommandRunPing.str2.2
                0x00000000000737f4       0x1a /tmp/Shell.dll.y4Q2gW.ltrans1.ltrans.o
                                         0x24 (size before relaxing)
 .rodata.ShellCommandRunPing.str1.1
                0x000000000007380e       0x2d /tmp/Shell.dll.y4Q2gW.ltrans1.ltrans.o
 *fill*         0x000000000007383b        0x1 
 .rodata.ProcessAcpiTable.str2.2
                0x000000000007383c       0x66 /tmp/Shell.dll.y4Q2gW.ltrans1.ltrans.o
 .rodata.ParseAcpiRsdp.str1.1
                0x00000000000738a2        0x5 /tmp/Shell.dll.y4Q2gW.ltrans1.ltrans.o
 *fill*         0x00000000000738a7        0x1 
 .rodata.ParseAcpiRsdp.str2.2
                0x00000000000738a8      0x10a /tmp/Shell.dll.y4Q2gW.ltrans1.ltrans.o
 .rodata.ParseAcpiFadt.str1.1
                0x00000000000739b2        0x5 /tmp/Shell.dll.y4Q2gW.ltrans1.ltrans.o
 *fill*         0x00000000000739b7        0x1 
 .rodata.ParseAcpiFadt.str2.2
                0x00000000000739b8      0x1f0 /tmp/Shell.dll.y4Q2gW.ltrans1.ltrans.o
 .rodata.PrintBitsInfo.str2.2
                0x0000000000073ba8        0x8 /tmp/Shell.dll.y4Q2gW.ltrans1.ltrans.o
 .rodata.str2.2
                0x0000000000073bb0     0x3f9c /tmp/Shell.dll.y4Q2gW.ltrans1.ltrans.o
                                       0x4494 (size before relaxing)
 .rodata.str1.1
                0x0000000000077b4c        0xc /tmp/Shell.dll.y4Q2gW.ltrans1.ltrans.o
 .rodata.AestGicStructure
                0x0000000000077b58       0x70 /tmp/Shell.dll.y4Q2gW.ltrans1.ltrans.o
 .rodata.AestMemoryControllerStructure
                0x0000000000077bc8       0x38 /tmp/Shell.dll.y4Q2gW.ltrans1.ltrans.o
 .rodata.AestNodeHeaderParser
                0x0000000000077c00      0x230 /tmp/Shell.dll.y4Q2gW.ltrans1.ltrans.o
 .rodata.AestNodeInterface
                0x0000000000077e30      0x1f8 /tmp/Shell.dll.y4Q2gW.ltrans1.ltrans.o
 .rodata.AestNodeInterrupt
                0x0000000000078028      0x150 /tmp/Shell.dll.y4Q2gW.ltrans1.ltrans.o
 .rodata.AestParser
                0x0000000000078178      0x1f8 /tmp/Shell.dll.y4Q2gW.ltrans1.ltrans.o
 .rodata.AestProcessorCacheResourceSubstructure
                0x0000000000078370       0x70 /tmp/Shell.dll.y4Q2gW.ltrans1.ltrans.o
 .rodata.AestProcessorGenericResourceSubstructure
                0x00000000000783e0       0x38 /tmp/Shell.dll.y4Q2gW.ltrans1.ltrans.o
 .rodata.AestProcessorStructure
                0x0000000000078418      0x150 /tmp/Shell.dll.y4Q2gW.ltrans1.ltrans.o
 .rodata.AestProcessorTlbResourceSubstructure
                0x0000000000078568       0x70 /tmp/Shell.dll.y4Q2gW.ltrans1.ltrans.o
 .rodata.AestSmmuStructure
                0x00000000000785d8       0x70 /tmp/Shell.dll.y4Q2gW.ltrans1.ltrans.o
 .rodata.AestVendorDefinedStructure
                0x0000000000078648       0xa8 /tmp/Shell.dll.y4Q2gW.ltrans1.ltrans.o
 .rodata.ArmSbbr10Mandatory
                0x00000000000786f0       0x1c /tmp/Shell.dll.y4Q2gW.ltrans1.ltrans.o
 .rodata.ArmSbbr11Mandatory
                0x000000000007870c       0x20 /tmp/Shell.dll.y4Q2gW.ltrans1.ltrans.o
 .rodata.ArmSbbr12Mandatory
                0x000000000007872c       0x24 /tmp/Shell.dll.y4Q2gW.ltrans1.ltrans.o
 .rodata.ArmSbbrReqs
                0x0000000000078750       0x30 /tmp/Shell.dll.y4Q2gW.ltrans1.ltrans.o
 .rodata.ArmSbbrVersions
                0x0000000000078780       0x18 /tmp/Shell.dll.y4Q2gW.ltrans1.ltrans.o
 .rodata.BgrtParser
                0x0000000000078798      0x348 /tmp/Shell.dll.y4Q2gW.ltrans1.ltrans.o
 .rodata.CacheTypeStructureParser
                0x0000000000078ae0      0x230 /tmp/Shell.dll.y4Q2gW.ltrans1.ltrans.o
 .rodata.Dbg2Parser
                0x0000000000078d10      0x268 /tmp/Shell.dll.y4Q2gW.ltrans1.ltrans.o
 .rodata.DbgDevInfoHeaderParser
                0x0000000000078f78       0x70 /tmp/Shell.dll.y4Q2gW.ltrans1.ltrans.o
 .rodata.DbgDevInfoParser
                0x0000000000078fe8      0x2a0 /tmp/Shell.dll.y4Q2gW.ltrans1.ltrans.o
 .rodata.FacsParser
                0x0000000000079288      0x2d8 /tmp/Shell.dll.y4Q2gW.ltrans1.ltrans.o
 .rodata.FadtParser
                0x0000000000079560      0xe00 /tmp/Shell.dll.y4Q2gW.ltrans1.ltrans.o
 .rodata.GicCParser
                0x000000000007a360      0x3f0 /tmp/Shell.dll.y4Q2gW.ltrans1.ltrans.o
 .rodata.GicDParser
                0x000000000007a750      0x1c0 /tmp/Shell.dll.y4Q2gW.ltrans1.ltrans.o
 .rodata.GicITSParser
                0x000000000007a910      0x150 /tmp/Shell.dll.y4Q2gW.ltrans1.ltrans.o
 .rodata.GicMSIFrameParser
                0x000000000007aa60      0x1c0 /tmp/Shell.dll.y4Q2gW.ltrans1.ltrans.o
 .rodata.GicRParser
                0x000000000007ac20      0x118 /tmp/Shell.dll.y4Q2gW.ltrans1.ltrans.o
 .rodata.GtBlockParser
                0x000000000007ad38      0x150 /tmp/Shell.dll.y4Q2gW.ltrans1.ltrans.o
 .rodata.GtBlockTimerParser
                0x000000000007ae88      0x1f8 /tmp/Shell.dll.y4Q2gW.ltrans1.ltrans.o
 .rodata.GtPlatformTimerHeaderParser
                0x000000000007b080       0xa8 /tmp/Shell.dll.y4Q2gW.ltrans1.ltrans.o
 .rodata.GtdtParser
                0x000000000007b128      0x540 /tmp/Shell.dll.y4Q2gW.ltrans1.ltrans.o
 .rodata.HmatParser
                0x000000000007b668      0x230 /tmp/Shell.dll.y4Q2gW.ltrans1.ltrans.o
 .rodata.HmatStructureHeaderParser
                0x000000000007b898       0xa8 /tmp/Shell.dll.y4Q2gW.ltrans1.ltrans.o
 .rodata.IdStructureParser
                0x000000000007b940      0x1f8 /tmp/Shell.dll.y4Q2gW.ltrans1.ltrans.o
 .rodata.InterruptArrayParser
                0x000000000007bb38       0x70 /tmp/Shell.dll.y4Q2gW.ltrans1.ltrans.o
 .rodata.IortNodeHeaderParser
                0x000000000007bba8      0x150 /tmp/Shell.dll.y4Q2gW.ltrans1.ltrans.o
 .rodata.IortNodeIdMappingParser
                0x000000000007bcf8      0x118 /tmp/Shell.dll.y4Q2gW.ltrans1.ltrans.o
 .rodata.IortNodeItsParser
                0x000000000007be10      0x188 /tmp/Shell.dll.y4Q2gW.ltrans1.ltrans.o
 .rodata.IortNodeNamedComponentParser
                0x000000000007bf98      0x1f8 /tmp/Shell.dll.y4Q2gW.ltrans1.ltrans.o
 .rodata.IortNodePmcgParser
                0x000000000007c190      0x230 /tmp/Shell.dll.y4Q2gW.ltrans1.ltrans.o
 .rodata.IortNodeRootComplexParser
                0x000000000007c3c0      0x268 /tmp/Shell.dll.y4Q2gW.ltrans1.ltrans.o
 .rodata.IortNodeSmmuV1V2Parser
                0x000000000007c628      0x428 /tmp/Shell.dll.y4Q2gW.ltrans1.ltrans.o
 .rodata.IortNodeSmmuV3Parser
                0x000000000007ca50      0x3b8 /tmp/Shell.dll.y4Q2gW.ltrans1.ltrans.o
 .rodata.IortParser
                0x000000000007ce08      0x2a0 /tmp/Shell.dll.y4Q2gW.ltrans1.ltrans.o
 .rodata.ItsIdParser
                0x000000000007d0a8       0x38 /tmp/Shell.dll.y4Q2gW.ltrans1.ltrans.o
 .rodata.MadtInterruptControllerHeaderParser
                0x000000000007d0e0       0xa8 /tmp/Shell.dll.y4Q2gW.ltrans1.ltrans.o
 .rodata.MadtParser
                0x000000000007d188      0x268 /tmp/Shell.dll.y4Q2gW.ltrans1.ltrans.o
 .rodata.McfgParser
                0x000000000007d3f0      0x230 /tmp/Shell.dll.y4Q2gW.ltrans1.ltrans.o
 .rodata.MemProximityDomainAttributeParser
                0x000000000007d620      0x230 /tmp/Shell.dll.y4Q2gW.ltrans1.ltrans.o
 .rodata.MemSideCacheInfoParser
                0x000000000007d850      0x1f8 /tmp/Shell.dll.y4Q2gW.ltrans1.ltrans.o
 .rodata.ParamList
                0x000000000007da48       0x70 /tmp/Shell.dll.y4Q2gW.ltrans1.ltrans.o
 .rodata.PccSubspaceHeaderParser
                0x000000000007dab8       0x70 /tmp/Shell.dll.y4Q2gW.ltrans1.ltrans.o
 .rodata.PccSubspaceType0Parser
                0x000000000007db28      0x268 /tmp/Shell.dll.y4Q2gW.ltrans1.ltrans.o
 .rodata.PccSubspaceType1Parser
                0x000000000007dd90      0x2d8 /tmp/Shell.dll.y4Q2gW.ltrans1.ltrans.o
 .rodata.PccSubspaceType2Parser
                0x000000000007e068      0x380 /tmp/Shell.dll.y4Q2gW.ltrans1.ltrans.o
 .rodata.PccSubspaceType3Parser
                0x000000000007e3e8      0x540 /tmp/Shell.dll.y4Q2gW.ltrans1.ltrans.o
 .rodata.PcctParser
                0x000000000007e928      0x268 /tmp/Shell.dll.y4Q2gW.ltrans1.ltrans.o
 .rodata.PciCfgSpaceBaseAddrParser
                0x000000000007eb90      0x118 /tmp/Shell.dll.y4Q2gW.ltrans1.ltrans.o
 .rodata.PermanentString
                0x000000000007eca8       0x14 /tmp/Shell.dll.y4Q2gW.ltrans1.ltrans.o
 *fill*         0x000000000007ecbc        0x4 
 .rodata.PingParamList
                0x000000000007ecc0       0x60 /tmp/Shell.dll.y4Q2gW.ltrans1.ltrans.o
 .rodata.PpttParser
                0x000000000007ed20      0x1f8 /tmp/Shell.dll.y4Q2gW.ltrans1.ltrans.o
 .rodata.ProcessorHierarchyNodeStructureParser
                0x000000000007ef18      0x188 /tmp/Shell.dll.y4Q2gW.ltrans1.ltrans.o
 .rodata.ProcessorTopologyStructureHeaderParser
                0x000000000007f0a0       0xa8 /tmp/Shell.dll.y4Q2gW.ltrans1.ltrans.o
 .rodata.RsdpParser
                0x000000000007f148      0x1f8 /tmp/Shell.dll.y4Q2gW.ltrans1.ltrans.o
 .rodata.SBSAGenericWatchdogParser
                0x000000000007f340      0x188 /tmp/Shell.dll.y4Q2gW.ltrans1.ltrans.o
 .rodata.SlitParser
                0x000000000007f4c8      0x230 /tmp/Shell.dll.y4Q2gW.ltrans1.ltrans.o
 .rodata.SllbiNames
                0x000000000007f6f8       0x30 /tmp/Shell.dll.y4Q2gW.ltrans1.ltrans.o
 .rodata.SllbiParser
                0x000000000007f728      0x230 /tmp/Shell.dll.y4Q2gW.ltrans1.ltrans.o
 .rodata.SpcrParser
                0x000000000007f958      0x658 /tmp/Shell.dll.y4Q2gW.ltrans1.ltrans.o
 .rodata.SratDeviceHandleAcpiParser
                0x000000000007ffb0       0xa8 /tmp/Shell.dll.y4Q2gW.ltrans1.ltrans.o
 .rodata.SratDeviceHandlePciParser
                0x0000000000080058       0xa8 /tmp/Shell.dll.y4Q2gW.ltrans1.ltrans.o
 .rodata.gIp4AllMasks
                0x0000000000080100       0x84 /tmp/Shell.dll.y4Q2gW.ltrans1.ltrans.o
 .rodata.gShellAcpiViewFileName
                0x0000000000080184       0x1a /tmp/Shell.dll.y4Q2gW.ltrans1.ltrans.o
 .rodata.gShellNetwork1FileName
                0x000000000008019e       0x1c /tmp/Shell.dll.y4Q2gW.ltrans1.ltrans.o
 .rodata.SmbiosPrintStructure.part.0.str1.1
                0x00000000000801ba      0xb21 /tmp/Shell.dll.y4Q2gW.ltrans2.ltrans.o
                                        0xbd9 (size before relaxing)
 *fill*         0x0000000000080cdb        0x1 
 .rodata.SmbiosPrintStructure.part.0.str2.2
                0x0000000000080cdc     0x142a /tmp/Shell.dll.y4Q2gW.ltrans2.ltrans.o
                                       0x1474 (size before relaxing)
 *fill*         0x0000000000082106        0x2 
 .rodata.SmbiosPrintStructure.part.0
                0x0000000000082108      0x332 /tmp/Shell.dll.y4Q2gW.ltrans2.ltrans.o
 .rodata.str2.2
                0x000000000008243a     0x3e8a /tmp/Shell.dll.y4Q2gW.ltrans2.ltrans.o
                                       0x40b8 (size before relaxing)
 .rodata.Smbios64BitPrintEPSInfo.str2.2
                0x00000000000862c4        0x4 /tmp/Shell.dll.y4Q2gW.ltrans3.ltrans.o
 .rodata.SendBlock.str1.1
                0x00000000000862c4       0x8b /tmp/Shell.dll.y4Q2gW.ltrans3.ltrans.o
 .rodata.HBufferImageCreateLine.str1.1
                0x000000000008634f       0x60 /tmp/Shell.dll.y4Q2gW.ltrans3.ltrans.o
                                         0x75 (size before relaxing)
 *fill*         0x00000000000863af        0x1 
 .rodata.HBufferImagePrintLine.str2.2
                0x00000000000863b0       0x14 /tmp/Shell.dll.y4Q2gW.ltrans3.ltrans.o
                                         0x42 (size before relaxing)
 .rodata.ExplainPcieRootStatus.str2.2
                0x00000000000863c4      0x15e /tmp/Shell.dll.y4Q2gW.ltrans3.ltrans.o
 .rodata.ExplainPcieRootCap.str2.2
                0x0000000000086522       0x72 /tmp/Shell.dll.y4Q2gW.ltrans3.ltrans.o
 .rodata.ExplainPcieRootControl.str2.2
                0x0000000000086594      0x23a /tmp/Shell.dll.y4Q2gW.ltrans3.ltrans.o
 .rodata.ExplainPcieSlotStatus.str2.2
                0x00000000000867ce      0x45a /tmp/Shell.dll.y4Q2gW.ltrans3.ltrans.o
 .rodata.ExplainPcieSlotControl.str2.2
                0x0000000000086c28      0x588 /tmp/Shell.dll.y4Q2gW.ltrans3.ltrans.o
 .rodata.ExplainPcieSlotCap.str2.2
                0x00000000000871b0      0x5f0 /tmp/Shell.dll.y4Q2gW.ltrans3.ltrans.o
 .rodata.ExplainPcieLinkStatus.str2.2
                0x00000000000877a0      0x374 /tmp/Shell.dll.y4Q2gW.ltrans3.ltrans.o
                                        0x386 (size before relaxing)
 .rodata.ExplainPcieLinkControl.str2.2
                0x0000000000087b14      0x478 /tmp/Shell.dll.y4Q2gW.ltrans3.ltrans.o
 .rodata.ExplainPcieLinkCap.str2.2
                0x0000000000087f8c      0x50a /tmp/Shell.dll.y4Q2gW.ltrans3.ltrans.o
 .rodata.ExplainPcieDeviceStatus.str2.2
                0x0000000000088496      0x27c /tmp/Shell.dll.y4Q2gW.ltrans3.ltrans.o
 .rodata.ExplainPcieDeviceControl.str2.2
                0x0000000000088712      0x50e /tmp/Shell.dll.y4Q2gW.ltrans3.ltrans.o
 .rodata.ExplainPcieDeviceCap.str2.2
                0x0000000000088c20      0x43c /tmp/Shell.dll.y4Q2gW.ltrans3.ltrans.o
 .rodata.ExplainPcieCapReg.str2.2
                0x000000000008905c      0x192 /tmp/Shell.dll.y4Q2gW.ltrans3.ltrans.o
 .rodata.InputBarPrintInput.str2.2
                0x00000000000891ee        0x6 /tmp/Shell.dll.y4Q2gW.ltrans3.ltrans.o
 .rodata.ShellCommandRunDblk.str1.1
                0x00000000000891ee       0x51 /tmp/Shell.dll.y4Q2gW.ltrans3.ltrans.o
                                         0x98 (size before relaxing)
 *fill*         0x000000000008923f        0x1 
 .rodata.ShellCommandRunDblk.str2.2
                0x0000000000089240       0x6e /tmp/Shell.dll.y4Q2gW.ltrans3.ltrans.o
 .rodata.GetAttrType.str2.2
                0x00000000000892ae       0x3e /tmp/Shell.dll.y4Q2gW.ltrans3.ltrans.o
                                         0x46 (size before relaxing)
 .rodata.CascadeProcessVariables.str2.2
                0x00000000000892ec       0x3e /tmp/Shell.dll.y4Q2gW.ltrans3.ltrans.o
                                          0xa (size before relaxing)
 .rodata.ShellCommandRunDmpStore.str2.2
                0x00000000000892ec       0x44 /tmp/Shell.dll.y4Q2gW.ltrans3.ltrans.o
                                         0x56 (size before relaxing)
 .rodata.ShellCommandRunDmpStore.str1.1
                0x0000000000089330       0x55 /tmp/Shell.dll.y4Q2gW.ltrans3.ltrans.o
 .rodata.DisplayMmMemorySize.str2.2
                0x0000000000089385        0xc /tmp/Shell.dll.y4Q2gW.ltrans3.ltrans.o
 .rodata.HBufferImageRestoreMousePosition.str2.2
                0x0000000000089385        0x6 /tmp/Shell.dll.y4Q2gW.ltrans3.ltrans.o
 .rodata.HBufferImageFreeLines.str1.1
                0x0000000000089385       0x59 /tmp/Shell.dll.y4Q2gW.ltrans3.ltrans.o
 .rodata.HMemImageRead.str2.2
                0x00000000000893de       0x82 /tmp/Shell.dll.y4Q2gW.ltrans3.ltrans.o
 .rodata.HMemImageRead.str1.1
                0x0000000000089460       0x5d /tmp/Shell.dll.y4Q2gW.ltrans3.ltrans.o
 *fill*         0x00000000000894bd        0x1 
 .rodata.HFileImageRead.str2.2
                0x00000000000894be       0x5c /tmp/Shell.dll.y4Q2gW.ltrans3.ltrans.o
 .rodata.HFileImageRead.str1.1
                0x000000000008951a       0x5e /tmp/Shell.dll.y4Q2gW.ltrans3.ltrans.o
 .rodata.HDiskImageRead.str2.2
                0x000000000008951a       0x74 /tmp/Shell.dll.y4Q2gW.ltrans3.ltrans.o
 .rodata.HDiskImageRead.str1.1
                0x000000000008958e       0x5e /tmp/Shell.dll.y4Q2gW.ltrans3.ltrans.o
 .rodata.HBufferImageHandleInput.str2.2
                0x00000000000895ec       0x20 /tmp/Shell.dll.y4Q2gW.ltrans3.ltrans.o
 .rodata.HBufferImageHandleInput
                0x000000000008960c       0x26 /tmp/Shell.dll.y4Q2gW.ltrans3.ltrans.o
 .rodata.InputBarSetPrompt.str2.2
                0x0000000000089632        0x8 /tmp/Shell.dll.y4Q2gW.ltrans3.ltrans.o
 .rodata.InputBarRefresh.str2.2
                0x000000000008963a        0xe /tmp/Shell.dll.y4Q2gW.ltrans3.ltrans.o
 .rodata.MainTitleBarRefresh.str2.2
                0x0000000000089648       0x9a /tmp/Shell.dll.y4Q2gW.ltrans3.ltrans.o
                                         0xc4 (size before relaxing)
 .rodata.ShellCommandRunSmbiosView.str2.2
                0x00000000000896e2      0x136 /tmp/Shell.dll.y4Q2gW.ltrans3.ltrans.o
                                        0x234 (size before relaxing)
 .rodata.ShellCommandRunSmbiosView.str1.1
                0x0000000000089818       0x6d /tmp/Shell.dll.y4Q2gW.ltrans3.ltrans.o
 *fill*         0x0000000000089885        0x1 
 .rodata.str2.2
                0x0000000000089886      0x604 /tmp/Shell.dll.y4Q2gW.ltrans3.ltrans.o
                                        0x656 (size before relaxing)
 *fill*         0x0000000000089e8a        0x6 
 .rodata.ASPMCtrlStrTable
                0x0000000000089e90       0x20 /tmp/Shell.dll.y4Q2gW.ltrans3.ltrans.o
 .rodata.CSWTCH.173
                0x0000000000089eb0       0x28 /tmp/Shell.dll.y4Q2gW.ltrans3.ltrans.o
 .rodata.CSWTCH.360
                0x0000000000089ed8       0x28 /tmp/Shell.dll.y4Q2gW.ltrans3.ltrans.o
 .rodata.CSWTCH.361
                0x0000000000089f00       0x20 /tmp/Shell.dll.y4Q2gW.ltrans3.ltrans.o
 .rodata.DevicePortTypeTable
                0x0000000000089f20       0x58 /tmp/Shell.dll.y4Q2gW.ltrans3.ltrans.o
 .rodata.IndicatorTable
                0x0000000000089f78       0x20 /tmp/Shell.dll.y4Q2gW.ltrans3.ltrans.o
 .rodata.L0sLatencyStrTable
                0x0000000000089f98       0x40 /tmp/Shell.dll.y4Q2gW.ltrans3.ltrans.o
 .rodata.L1LatencyStrTable
                0x0000000000089fd8       0x40 /tmp/Shell.dll.y4Q2gW.ltrans3.ltrans.o
 .rodata.ParamList.lto_priv.0
                0x000000000008a018       0x70 /tmp/Shell.dll.y4Q2gW.ltrans3.ltrans.o
 .rodata.ParamList.lto_priv.1
                0x000000000008a088       0x50 /tmp/Shell.dll.y4Q2gW.ltrans3.ltrans.o
 .rodata.SlotPwrLmtScaleTable
                0x000000000008a0d8       0x20 /tmp/Shell.dll.y4Q2gW.ltrans3.ltrans.o
 .rodata.PciPrintClassCode.str2.2
                0x000000000008a0f8       0x2e /tmp/Shell.dll.y4Q2gW.ltrans4.ltrans.o
                                         0x3e (size before relaxing)
 .rodata.PrintDifferentPoint.str2.2
                0x000000000008a126       0x2c /tmp/Shell.dll.y4Q2gW.ltrans4.ltrans.o
                                         0x4a (size before relaxing)
 .rodata.ShellCommandRunPci.str1.1
                0x000000000008a152       0x50 /tmp/Shell.dll.y4Q2gW.ltrans4.ltrans.o
                                         0x97 (size before relaxing)
 .rodata.ShellCommandRunPci.str2.2
                0x000000000008a1a2      0x19a /tmp/Shell.dll.y4Q2gW.ltrans4.ltrans.o
                                        0x1ae (size before relaxing)
 .rodata.ShellCommandRunPci
                0x000000000008a33c       0x32 /tmp/Shell.dll.y4Q2gW.ltrans4.ltrans.o
 .rodata.DisplaySettings.str2.2
                0x000000000008a36e       0x10 /tmp/Shell.dll.y4Q2gW.ltrans4.ltrans.o
                                         0x20 (size before relaxing)
 .rodata.ShellCommandRunSerMode.str1.1
                0x000000000008a37e       0x54 /tmp/Shell.dll.y4Q2gW.ltrans4.ltrans.o
 *fill*         0x000000000008a3d2        0x2 
 .rodata.ShellCommandRunSerMode
                0x000000000008a3d4       0x10 /tmp/Shell.dll.y4Q2gW.ltrans4.ltrans.o
 .rodata.ParseParameterData.str2.2
                0x000000000008a3e4        0xe /tmp/Shell.dll.y4Q2gW.ltrans4.ltrans.o
                                         0x14 (size before relaxing)
 .rodata.ParseParameterData.str1.1
                0x000000000008a3f2       0xab /tmp/Shell.dll.y4Q2gW.ltrans4.ltrans.o
 .rodata.ShellCommandRunSetVar.str1.1
                0x000000000008a49d       0xa6 /tmp/Shell.dll.y4Q2gW.ltrans4.ltrans.o
                                         0xf1 (size before relaxing)
 *fill*         0x000000000008a543        0x1 
 .rodata.ShellCommandRunSetVar.str2.2
                0x000000000008a544       0x24 /tmp/Shell.dll.y4Q2gW.ltrans4.ltrans.o
                                         0x30 (size before relaxing)
 .rodata.ShellMmAccess.str1.1
                0x000000000008a568       0x6f /tmp/Shell.dll.y4Q2gW.ltrans4.ltrans.o
 *fill*         0x000000000008a5d7        0x1 
 .rodata.ShellMmAccess
                0x000000000008a5d8       0x10 /tmp/Shell.dll.y4Q2gW.ltrans4.ltrans.o
 .rodata.ShellCommandRunMm.str2.2
                0x000000000008a5e8       0x48 /tmp/Shell.dll.y4Q2gW.ltrans4.ltrans.o
                                         0x4e (size before relaxing)
 .rodata.LoadEfiDriversFromRomImage.str2.2
                0x000000000008a630       0x24 /tmp/Shell.dll.y4Q2gW.ltrans4.ltrans.o
 .rodata.LoadEfiDriversFromRomImage.str1.1
                0x000000000008a654       0x57 /tmp/Shell.dll.y4Q2gW.ltrans4.ltrans.o
 *fill*         0x000000000008a6ab        0x1 
 .rodata.ShellCommandRunLoadPciRom.str2.2
                0x000000000008a6ac        0x8 /tmp/Shell.dll.y4Q2gW.ltrans4.ltrans.o
 .rodata.ShellCommandRunLoadPciRom.str1.1
                0x000000000008a6b4        0xb /tmp/Shell.dll.y4Q2gW.ltrans4.ltrans.o
 .rodata.ShellCommandRunDmem.str1.1
                0x000000000008a6bf       0x51 /tmp/Shell.dll.y4Q2gW.ltrans4.ltrans.o
 .rodata.ShellCommandRunDmem.str2.2
                0x000000000008a710        0xa /tmp/Shell.dll.y4Q2gW.ltrans4.ltrans.o
 .rodata.ShellCommandRunMode.str1.1
                0x000000000008a71a       0x51 /tmp/Shell.dll.y4Q2gW.ltrans4.ltrans.o
 .rodata.ShellCommandRunMode.str2.2
                0x000000000008a76b        0xa /tmp/Shell.dll.y4Q2gW.ltrans4.ltrans.o
 .rodata.ShellCommandRunEfiDecompress.str1.1
                0x000000000008a76b       0x8e /tmp/Shell.dll.y4Q2gW.ltrans4.ltrans.o
 *fill*         0x000000000008a7f9        0x1 
 .rodata.ShellCommandRunEfiDecompress.str2.2
                0x000000000008a7fa       0x1c /tmp/Shell.dll.y4Q2gW.ltrans4.ltrans.o
 .rodata.ShellCommandRunEfiCompress.str1.1
                0x000000000008a816       0x58 /tmp/Shell.dll.y4Q2gW.ltrans4.ltrans.o
 .rodata.ShellCommandRunEfiCompress.str2.2
                0x000000000008a86e       0x18 /tmp/Shell.dll.y4Q2gW.ltrans4.ltrans.o
 .rodata.ShellCommandRunMemMap.str1.1
                0x000000000008a886       0x60 /tmp/Shell.dll.y4Q2gW.ltrans4.ltrans.o
 .rodata.ShellCommandRunMemMap.str2.2
                0x000000000008a8e6        0xe /tmp/Shell.dll.y4Q2gW.ltrans4.ltrans.o
                                         0x18 (size before relaxing)
 .rodata.ShellCommandRunMemMap
                0x000000000008a8f4       0x1e /tmp/Shell.dll.y4Q2gW.ltrans4.ltrans.o
 .rodata.ShellCommandRunComp.str1.1
                0x000000000008a912       0x51 /tmp/Shell.dll.y4Q2gW.ltrans4.ltrans.o
 *fill*         0x000000000008a963        0x1 
 .rodata.ShellCommandRunComp.str2.2
                0x000000000008a964       0x22 /tmp/Shell.dll.y4Q2gW.ltrans4.ltrans.o
                                         0x2a (size before relaxing)
 .rodata.ShellCommandRunSetSize.str1.1
                0x000000000008a986       0x54 /tmp/Shell.dll.y4Q2gW.ltrans4.ltrans.o
 .rodata.ShellCommandRunSetSize.str2.2
                0x000000000008a9da       0x10 /tmp/Shell.dll.y4Q2gW.ltrans4.ltrans.o
 .rodata.HMainCommandOpenMemory.str2.2
                0x000000000008a9ea       0xdc /tmp/Shell.dll.y4Q2gW.ltrans4.ltrans.o
 .rodata.HLineRetreat.str1.1
                0x000000000008aac6       0x6e /tmp/Shell.dll.y4Q2gW.ltrans4.ltrans.o
 .rodata.str2.2
                0x000000000008aac6     0x2526 /tmp/Shell.dll.y4Q2gW.ltrans4.ltrans.o
                                       0x2892 (size before relaxing)
 .rodata.CSWTCH.68
                0x000000000008cfec        0x6 /tmp/Shell.dll.y4Q2gW.ltrans4.ltrans.o
 *fill*         0x000000000008cff2        0x6 
 .rodata.CSWTCH.69
                0x000000000008cff8       0x20 /tmp/Shell.dll.y4Q2gW.ltrans4.ltrans.o
 .rodata.NameEfiACPIMemoryNVS
                0x000000000008d018       0x1c /tmp/Shell.dll.y4Q2gW.ltrans4.ltrans.o
 .rodata.NameEfiACPIMemoryNVSShort
                0x000000000008d034       0x12 /tmp/Shell.dll.y4Q2gW.ltrans4.ltrans.o
 .rodata.NameEfiACPIReclaimMemory
                0x000000000008d046       0x24 /tmp/Shell.dll.y4Q2gW.ltrans4.ltrans.o
 .rodata.NameEfiACPIReclaimMemoryShort
                0x000000000008d06a       0x14 /tmp/Shell.dll.y4Q2gW.ltrans4.ltrans.o
 .rodata.NameEfiBootServicesCode
                0x000000000008d07e       0x20 /tmp/Shell.dll.y4Q2gW.ltrans4.ltrans.o
 .rodata.NameEfiBootServicesCodeShort
                0x000000000008d09e       0x10 /tmp/Shell.dll.y4Q2gW.ltrans4.ltrans.o
 .rodata.NameEfiBootServicesData
                0x000000000008d0ae       0x20 /tmp/Shell.dll.y4Q2gW.ltrans4.ltrans.o
 .rodata.NameEfiBootServicesDataShort
                0x000000000008d0ce       0x10 /tmp/Shell.dll.y4Q2gW.ltrans4.ltrans.o
 .rodata.NameEfiConventionalMemory
                0x000000000008d0de       0x14 /tmp/Shell.dll.y4Q2gW.ltrans4.ltrans.o
 .rodata.NameEfiLoaderCode
                0x000000000008d0f2       0x16 /tmp/Shell.dll.y4Q2gW.ltrans4.ltrans.o
 .rodata.NameEfiLoaderData
                0x000000000008d108       0x16 /tmp/Shell.dll.y4Q2gW.ltrans4.ltrans.o
 .rodata.NameEfiMemoryMappedIO
                0x000000000008d11e       0x1e /tmp/Shell.dll.y4Q2gW.ltrans4.ltrans.o
 .rodata.NameEfiMemoryMappedIOPortSpace
                0x000000000008d13c       0x30 /tmp/Shell.dll.y4Q2gW.ltrans4.ltrans.o
 .rodata.NameEfiMemoryMappedIOPortSpaceShort
                0x000000000008d16c       0x14 /tmp/Shell.dll.y4Q2gW.ltrans4.ltrans.o
 .rodata.NameEfiMemoryMappedIOShort
                0x000000000008d180        0xa /tmp/Shell.dll.y4Q2gW.ltrans4.ltrans.o
 .rodata.NameEfiPalCode
                0x000000000008d18a       0x10 /tmp/Shell.dll.y4Q2gW.ltrans4.ltrans.o
 .rodata.NameEfiPersistentMemory
                0x000000000008d19a       0x16 /tmp/Shell.dll.y4Q2gW.ltrans4.ltrans.o
 .rodata.NameEfiReservedMemoryType
                0x000000000008d1b0       0x12 /tmp/Shell.dll.y4Q2gW.ltrans4.ltrans.o
 .rodata.NameEfiRuntimeServicesCode
                0x000000000008d1c2       0x18 /tmp/Shell.dll.y4Q2gW.ltrans4.ltrans.o
 .rodata.NameEfiRuntimeServicesCodeShort
                0x000000000008d1da       0x10 /tmp/Shell.dll.y4Q2gW.ltrans4.ltrans.o
 .rodata.NameEfiRuntimeServicesData
                0x000000000008d1ea       0x18 /tmp/Shell.dll.y4Q2gW.ltrans4.ltrans.o
 .rodata.NameEfiRuntimeServicesDataShort
                0x000000000008d202       0x10 /tmp/Shell.dll.y4Q2gW.ltrans4.ltrans.o
 .rodata.NameEfiUnusableMemory
                0x000000000008d212       0x1e /tmp/Shell.dll.y4Q2gW.ltrans4.ltrans.o
 .rodata.NameEfiUnusableMemoryShort
                0x000000000008d230       0x12 /tmp/Shell.dll.y4Q2gW.ltrans4.ltrans.o
 *fill*         0x000000000008d242        0x6 
 .rodata.ParamList.lto_priv.2
                0x000000000008d248       0x30 /tmp/Shell.dll.y4Q2gW.ltrans4.ltrans.o
 .rodata.ParamList.lto_priv.3
                0x000000000008d278       0x20 /tmp/Shell.dll.y4Q2gW.ltrans4.ltrans.o
 .rodata.ParamList.lto_priv.4
                0x000000000008d298       0x20 /tmp/Shell.dll.y4Q2gW.ltrans4.ltrans.o
 .rodata.ParamList.lto_priv.5
                0x000000000008d2b8       0x80 /tmp/Shell.dll.y4Q2gW.ltrans4.ltrans.o
 .rodata.ParamList.lto_priv.6
                0x000000000008d338       0x50 /tmp/Shell.dll.y4Q2gW.ltrans4.ltrans.o
 .rodata.ParamList.lto_priv.7
                0x000000000008d388       0x40 /tmp/Shell.dll.y4Q2gW.ltrans4.ltrans.o
 .rodata.PcieExplainList
                0x000000000008d3c8      0x280 /tmp/Shell.dll.y4Q2gW.ltrans4.ltrans.o
 .rodata.mShellMmAccessTypeStr
                0x000000000008d648        0xa /tmp/Shell.dll.y4Q2gW.ltrans4.ltrans.o
 *fill*         0x000000000008d652        0x6 
 .rodata.mShellMmMaxNumber
                0x000000000008d658       0x48 /tmp/Shell.dll.y4Q2gW.ltrans4.ltrans.o
 .rodata.mShellMmRootBridgeIoWidth
                0x000000000008d6a0       0x24 /tmp/Shell.dll.y4Q2gW.ltrans4.ltrans.o
 *fill*         0x000000000008d6c4        0x4 
 .rodata.mUefiDevicePathLibDevPathFromTextTable
                0x000000000008d6c8      0x570 /tmp/Shell.dll.y4Q2gW.ltrans4.ltrans.o
 .rodata.HMainCommandExit.str2.2
                0x000000000008dc38       0x52 /tmp/Shell.dll.y4Q2gW.ltrans5.ltrans.o
 .rodata.HMainCommandOpenDisk.str2.2
                0x000000000008dc38       0x78 /tmp/Shell.dll.y4Q2gW.ltrans5.ltrans.o
                                         0x7e (size before relaxing)
 .rodata.HMainCommandSelectEnd.str2.2
                0x000000000008dcb0       0x24 /tmp/Shell.dll.y4Q2gW.ltrans5.ltrans.o
 .rodata.HMainCommandSelectStart.str2.2
                0x000000000008dcd4       0x28 /tmp/Shell.dll.y4Q2gW.ltrans5.ltrans.o
 .rodata.MainCommandSwitchFileType.str2.2
                0x000000000008dcfc       0x46 /tmp/Shell.dll.y4Q2gW.ltrans5.ltrans.o
 .rodata.HMainCommandOpenFile.str2.2
                0x000000000008dd42       0x4c /tmp/Shell.dll.y4Q2gW.ltrans5.ltrans.o
 .rodata.InternalEditorMiscLineRetreat.part.0.str1.1
                0x000000000008dd8e       0x5c /tmp/Shell.dll.y4Q2gW.ltrans5.ltrans.o
                                         0x71 (size before relaxing)
 .rodata.LineCat.str2.2
                0x000000000008ddea        0xa /tmp/Shell.dll.y4Q2gW.ltrans5.ltrans.o
 .rodata.MainCommandPasteLine.str2.2
                0x000000000008ddf4       0x22 /tmp/Shell.dll.y4Q2gW.ltrans5.ltrans.o
 .rodata.HMainCommandPaste.str2.2
                0x000000000008de16       0x22 /tmp/Shell.dll.y4Q2gW.ltrans5.ltrans.o
 .rodata.HMainCommandPaste.str1.1
                0x000000000008de38       0x60 /tmp/Shell.dll.y4Q2gW.ltrans5.ltrans.o
 .rodata.HMainCommandCut.str2.2
                0x000000000008de38       0x2a /tmp/Shell.dll.y4Q2gW.ltrans5.ltrans.o
 .rodata.HMainCommandSaveBuffer.str2.2
                0x000000000008de62      0x146 /tmp/Shell.dll.y4Q2gW.ltrans5.ltrans.o
 .rodata.HMainCommandGoToOffset.str2.2
                0x000000000008dfa8       0x3c /tmp/Shell.dll.y4Q2gW.ltrans5.ltrans.o
 .rodata.FileBufferRestoreMousePosition.str2.2
                0x000000000008dfe4        0xa /tmp/Shell.dll.y4Q2gW.ltrans5.ltrans.o
 .rodata.HMainCommandDisplayHelp.str2.2
                0x000000000008dfe4        0xe /tmp/Shell.dll.y4Q2gW.ltrans5.ltrans.o
 .rodata.MainCommandGotoLine.str2.2
                0x000000000008dff2       0x34 /tmp/Shell.dll.y4Q2gW.ltrans5.ltrans.o
 .rodata.EditGetDefaultFileName.str2.2
                0x000000000008e026       0x1a /tmp/Shell.dll.y4Q2gW.ltrans5.ltrans.o
 .rodata.ShellCommandRunHexEdit.str2.2
                0x000000000008e040       0xb6 /tmp/Shell.dll.y4Q2gW.ltrans5.ltrans.o
                                         0xf6 (size before relaxing)
 .rodata.ShellCommandRunHexEdit.str1.1
                0x000000000008e0f6       0xbe /tmp/Shell.dll.y4Q2gW.ltrans5.ltrans.o
                                        0x105 (size before relaxing)
 .rodata.FileBufferSave.str2.2
                0x000000000008e1b4       0xe2 /tmp/Shell.dll.y4Q2gW.ltrans5.ltrans.o
 .rodata.MainCommandSaveFile.str2.2
                0x000000000008e1b4       0x4c /tmp/Shell.dll.y4Q2gW.ltrans5.ltrans.o
 .rodata.MainCommandExit.str2.2
                0x000000000008e200       0x4e /tmp/Shell.dll.y4Q2gW.ltrans5.ltrans.o
 .rodata.MainCommandCutLine.str2.2
                0x000000000008e24e       0x1e /tmp/Shell.dll.y4Q2gW.ltrans5.ltrans.o
 .rodata.FileBufferRead.str2.2
                0x000000000008e26c       0xf2 /tmp/Shell.dll.y4Q2gW.ltrans5.ltrans.o
                                        0x10e (size before relaxing)
 .rodata.FileBufferPrintLine.str2.2
                0x000000000008e35e        0x6 /tmp/Shell.dll.y4Q2gW.ltrans5.ltrans.o
                                          0xa (size before relaxing)
 .rodata.ShellCmdDriverConfigurationProcessActionRequired.str2.2
                0x000000000008e364       0x8c /tmp/Shell.dll.y4Q2gW.ltrans5.ltrans.o
                                         0xb4 (size before relaxing)
 .rodata.ShellCmdDriverConfigurationProcessActionRequired
                0x000000000008e3f0        0x4 /tmp/Shell.dll.y4Q2gW.ltrans5.ltrans.o
 .rodata.PreHiiDrvCfg.str1.1
                0x000000000008e3f4       0x6c /tmp/Shell.dll.y4Q2gW.ltrans5.ltrans.o
                                         0x6d (size before relaxing)
 .rodata.PreHiiDrvCfg.str2.2
                0x000000000008e460        0xe /tmp/Shell.dll.y4Q2gW.ltrans5.ltrans.o
                                         0x18 (size before relaxing)
 .rodata.ShellCommandRunDevTree.str1.1
                0x000000000008e46e       0x58 /tmp/Shell.dll.y4Q2gW.ltrans5.ltrans.o
 .rodata.ShellCommandRunDevTree.str2.2
                0x000000000008e4c6       0x10 /tmp/Shell.dll.y4Q2gW.ltrans5.ltrans.o
 .rodata.ShellCommandRunEdit.str1.1
                0x000000000008e4d6       0xb6 /tmp/Shell.dll.y4Q2gW.ltrans5.ltrans.o
                                         0xd0 (size before relaxing)
 .rodata.ShellCommandRunEdit.str2.2
                0x000000000008e58c       0x1c /tmp/Shell.dll.y4Q2gW.ltrans5.ltrans.o
                                         0x38 (size before relaxing)
 .rodata.ShellCommandRunEdit
                0x000000000008e5a8       0x30 /tmp/Shell.dll.y4Q2gW.ltrans5.ltrans.o
 .rodata.MainCommandSearchReplace.str2.2
                0x000000000008e5d8       0xe0 /tmp/Shell.dll.y4Q2gW.ltrans5.ltrans.o
 .rodata.MainCommandSearchReplace.str1.1
                0x000000000008e6b8       0x18 /tmp/Shell.dll.y4Q2gW.ltrans5.ltrans.o
 .rodata.FindHiiHandleViaDevPath.str1.1
                0x000000000008e6d0       0x4a /tmp/Shell.dll.y4Q2gW.ltrans5.ltrans.o
 .rodata.ShellCommandRunDrvCfg.str2.2
                0x000000000008e71a       0x72 /tmp/Shell.dll.y4Q2gW.ltrans5.ltrans.o
                                         0x98 (size before relaxing)
 .rodata        0x000000000008e78c        0x4 /tmp/Shell.dll.y4Q2gW.ltrans5.ltrans.o
 .rodata.HexEditorMenuItems
                0x000000000008e790       0xb0 /tmp/Shell.dll.y4Q2gW.ltrans5.ltrans.o
 .rodata.HexMainMenuHelpInfo
                0x000000000008e840       0x30 /tmp/Shell.dll.y4Q2gW.ltrans5.ltrans.o
 .rodata.MainMenuHelpInfo
                0x000000000008e870       0x30 /tmp/Shell.dll.y4Q2gW.ltrans5.ltrans.o
 .rodata.ParamList.lto_priv.8
                0x000000000008e8a0       0x30 /tmp/Shell.dll.y4Q2gW.ltrans5.ltrans.o
 .rodata.ParamList.lto_priv.9
                0x000000000008e8d0       0x40 /tmp/Shell.dll.y4Q2gW.ltrans5.ltrans.o
 .rodata.ParamListHii
                0x000000000008e910       0x60 /tmp/Shell.dll.y4Q2gW.ltrans5.ltrans.o
 .rodata.ParamListPreHii
                0x000000000008e970       0x60 /tmp/Shell.dll.y4Q2gW.ltrans5.ltrans.o
 .rodata.gUnicodeFileTag
                0x000000000008e9d0        0x2 /tmp/Shell.dll.y4Q2gW.ltrans5.ltrans.o
                0x000000000008e9d0                gUnicodeFileTag
 .rodata.mFileName
                0x000000000008e9d2       0x1e /tmp/Shell.dll.y4Q2gW.ltrans5.ltrans.o
 .rodata.ShellLevel3CommandsLibSetAlias.str2.2
                0x000000000008e9f0        0xc /tmp/Shell.dll.y4Q2gW.ltrans6.ltrans.o
 .rodata.ShellCommandRunDrivers.str2.2
                0x000000000008e9fc       0x10 /tmp/Shell.dll.y4Q2gW.ltrans6.ltrans.o
                                         0x26 (size before relaxing)
 .rodata.ShellCommandRunDrivers.str1.1
                0x000000000008ea0c       0x55 /tmp/Shell.dll.y4Q2gW.ltrans6.ltrans.o
                                         0x9f (size before relaxing)
 *fill*         0x000000000008ea61        0x1 
 .rodata.ShellCommandRunDevices.str2.2
                0x000000000008ea62       0x14 /tmp/Shell.dll.y4Q2gW.ltrans6.ltrans.o
                                         0x24 (size before relaxing)
 .rodata.ShellCommandRunDevices.str1.1
                0x000000000008ea76       0x70 /tmp/Shell.dll.y4Q2gW.ltrans6.ltrans.o
 .rodata.ShellCommandRunVer.str1.1
                0x000000000008eae6       0x50 /tmp/Shell.dll.y4Q2gW.ltrans6.ltrans.o
 .rodata.ShellCommandRunVer.str2.2
                0x000000000008eb36       0x46 /tmp/Shell.dll.y4Q2gW.ltrans6.ltrans.o
                                         0x6e (size before relaxing)
 .rodata.ShellCommandRunGetMtc.str1.1
                0x000000000008eb7c       0x53 /tmp/Shell.dll.y4Q2gW.ltrans6.ltrans.o
 *fill*         0x000000000008ebcf        0x1 
 .rodata.ShellCommandRunGetMtc.str2.2
                0x000000000008ebd0        0xe /tmp/Shell.dll.y4Q2gW.ltrans6.ltrans.o
 .rodata.ShellCommandRunStall.str1.1
                0x000000000008ebde       0x52 /tmp/Shell.dll.y4Q2gW.ltrans6.ltrans.o
 .rodata.ShellCommandRunStall.str2.2
                0x000000000008ec30        0xc /tmp/Shell.dll.y4Q2gW.ltrans6.ltrans.o
 .rodata.ShellCommandRunOpenInfo.str1.1
                0x000000000008ec3c       0x70 /tmp/Shell.dll.y4Q2gW.ltrans6.ltrans.o
 .rodata.ShellCommandRunOpenInfo.str2.2
                0x000000000008ecac       0x24 /tmp/Shell.dll.y4Q2gW.ltrans6.ltrans.o
 .rodata.ShellCommandRunEcho.str1.1
                0x000000000008ecd0       0x51 /tmp/Shell.dll.y4Q2gW.ltrans6.ltrans.o
 *fill*         0x000000000008ed21        0x1 
 .rodata.ShellCommandRunEcho.str2.2
                0x000000000008ed22        0xa /tmp/Shell.dll.y4Q2gW.ltrans6.ltrans.o
                                         0x2a (size before relaxing)
 .rodata.GetProtocolInfoString.str1.1
                0x000000000008ed2c       0x92 /tmp/Shell.dll.y4Q2gW.ltrans6.ltrans.o
 .rodata.GetProtocolInfoString.str2.2
                0x000000000008edbe       0x10 /tmp/Shell.dll.y4Q2gW.ltrans6.ltrans.o
                                         0x30 (size before relaxing)
 .rodata.DoDhByHandle.str2.2
                0x000000000008edce       0xc2 /tmp/Shell.dll.y4Q2gW.ltrans6.ltrans.o
                                         0xec (size before relaxing)
 .rodata.ShellCommandRunDh.str2.2
                0x000000000008ee90       0x18 /tmp/Shell.dll.y4Q2gW.ltrans6.ltrans.o
                                         0x38 (size before relaxing)
 .rodata.ShellCommandRunDh.str1.1
                0x000000000008eea8        0x6 /tmp/Shell.dll.y4Q2gW.ltrans6.ltrans.o
 .rodata.ShellCommandRunDrvDiag.str1.1
                0x000000000008eeae       0x75 /tmp/Shell.dll.y4Q2gW.ltrans6.ltrans.o
 *fill*         0x000000000008ef23        0x1 
 .rodata.ShellCommandRunDrvDiag.str2.2
                0x000000000008ef24       0xb0 /tmp/Shell.dll.y4Q2gW.ltrans6.ltrans.o
                                         0xbc (size before relaxing)
 .rodata.ShellCommandRunUnload.str1.1
                0x000000000008efd4       0x54 /tmp/Shell.dll.y4Q2gW.ltrans6.ltrans.o
 .rodata.ShellCommandRunUnload.str2.2
                0x000000000008f028       0x1c /tmp/Shell.dll.y4Q2gW.ltrans6.ltrans.o
                                         0x28 (size before relaxing)
 .rodata.ShellCommandRunDisconnect.str1.1
                0x000000000008f044       0x86 /tmp/Shell.dll.y4Q2gW.ltrans6.ltrans.o
 .rodata.ShellCommandRunDisconnect.str2.2
                0x000000000008f0ca       0xaa /tmp/Shell.dll.y4Q2gW.ltrans6.ltrans.o
                                         0xb8 (size before relaxing)
 .rodata.ShellCommandRunConnect.str1.1
                0x000000000008f174       0x55 /tmp/Shell.dll.y4Q2gW.ltrans6.ltrans.o
 *fill*         0x000000000008f1c9        0x1 
 .rodata.ShellCommandRunConnect.str2.2
                0x000000000008f1ca       0x10 /tmp/Shell.dll.y4Q2gW.ltrans6.ltrans.o
                                         0x20 (size before relaxing)
 .rodata.ShellCommandRunReconnect.str1.1
                0x000000000008f1da       0x57 /tmp/Shell.dll.y4Q2gW.ltrans6.ltrans.o
 *fill*         0x000000000008f231        0x1 
 .rodata.ShellCommandRunReconnect.str2.2
                0x000000000008f232       0x14 /tmp/Shell.dll.y4Q2gW.ltrans6.ltrans.o
 .rodata.DoTouchByHandle.str2.2
                0x000000000008f246       0x26 /tmp/Shell.dll.y4Q2gW.ltrans6.ltrans.o
                                         0x34 (size before relaxing)
 .rodata.ShellCommandRunTouch.str1.1
                0x000000000008f26c       0x52 /tmp/Shell.dll.y4Q2gW.ltrans6.ltrans.o
 .rodata.ShellCommandRunType.str1.1
                0x000000000008f2be       0x51 /tmp/Shell.dll.y4Q2gW.ltrans6.ltrans.o
                                         0x6e (size before relaxing)
 *fill*         0x000000000008f30f        0x1 
 .rodata.ShellCommandRunType.str2.2
                0x000000000008f310       0x10 /tmp/Shell.dll.y4Q2gW.ltrans6.ltrans.o
                                         0x2c (size before relaxing)
 .rodata.ShellCommandRunCls.str1.1
                0x000000000008f320       0x50 /tmp/Shell.dll.y4Q2gW.ltrans6.ltrans.o
 .rodata.ShellCommandRunCls.str2.2
                0x000000000008f370        0x8 /tmp/Shell.dll.y4Q2gW.ltrans6.ltrans.o
 .rodata.ShellCommandRunHelp.str1.1
                0x000000000008f378       0x97 /tmp/Shell.dll.y4Q2gW.ltrans6.ltrans.o
 *fill*         0x000000000008f40f        0x1 
 .rodata.ShellCommandRunHelp.str2.2
                0x000000000008f410       0xb6 /tmp/Shell.dll.y4Q2gW.ltrans6.ltrans.o
                                         0xba (size before relaxing)
 .rodata.ShellCommandRunPause.str1.1
                0x000000000008f4c6       0x52 /tmp/Shell.dll.y4Q2gW.ltrans6.ltrans.o
 .rodata.ShellCommandRunPause.str2.2
                0x000000000008f518        0xc /tmp/Shell.dll.y4Q2gW.ltrans6.ltrans.o
                                         0x12 (size before relaxing)
 .rodata.ShellCommandRunAlias.str1.1
                0x000000000008f524       0x5f /tmp/Shell.dll.y4Q2gW.ltrans6.ltrans.o
 .rodata.ShellCommandRunShift.str1.1
                0x000000000008f583       0x74 /tmp/Shell.dll.y4Q2gW.ltrans6.ltrans.o
 *fill*         0x000000000008f5f7        0x1 
 .rodata.ShellCommandRunShift.str2.2
                0x000000000008f5f8        0xc /tmp/Shell.dll.y4Q2gW.ltrans6.ltrans.o
 .rodata.DoDevTreeForHandle.str2.2
                0x000000000008f604       0x12 /tmp/Shell.dll.y4Q2gW.ltrans6.ltrans.o
                                         0x22 (size before relaxing)
 .rodata.DoDevTreeForHandle.str1.1
                0x000000000008f616       0x1a /tmp/Shell.dll.y4Q2gW.ltrans6.ltrans.o
                                         0x6f (size before relaxing)
 .rodata.CSWTCH.41
                0x000000000008f630      0x180 /tmp/Shell.dll.y4Q2gW.ltrans6.ltrans.o
 .rodata.ParamList.lto_priv.10
                0x000000000008f7b0       0x20 /tmp/Shell.dll.y4Q2gW.ltrans6.ltrans.o
 .rodata.ParamList.lto_priv.11
                0x000000000008f7d0       0x30 /tmp/Shell.dll.y4Q2gW.ltrans6.ltrans.o
 .rodata.ParamList.lto_priv.12
                0x000000000008f800       0x30 /tmp/Shell.dll.y4Q2gW.ltrans6.ltrans.o
 .rodata.ParamList.lto_priv.13
                0x000000000008f830       0x20 /tmp/Shell.dll.y4Q2gW.ltrans6.ltrans.o
 .rodata.ParamList.lto_priv.14
                0x000000000008f850       0x50 /tmp/Shell.dll.y4Q2gW.ltrans6.ltrans.o
 .rodata.ParamList.lto_priv.15
                0x000000000008f8a0       0x30 /tmp/Shell.dll.y4Q2gW.ltrans6.ltrans.o
 .rodata.ParamList.lto_priv.16
                0x000000000008f8d0       0x20 /tmp/Shell.dll.y4Q2gW.ltrans6.ltrans.o
 .rodata.ParamList.lto_priv.17
                0x000000000008f8f0       0x50 /tmp/Shell.dll.y4Q2gW.ltrans6.ltrans.o
 .rodata.ParamList.lto_priv.18
                0x000000000008f940       0x30 /tmp/Shell.dll.y4Q2gW.ltrans6.ltrans.o
 .rodata.ParamList.lto_priv.19
                0x000000000008f970       0x30 /tmp/Shell.dll.y4Q2gW.ltrans6.ltrans.o
 .rodata.ParamList.lto_priv.20
                0x000000000008f9a0       0x30 /tmp/Shell.dll.y4Q2gW.ltrans6.ltrans.o
 .rodata.ParamList.lto_priv.21
                0x000000000008f9d0       0x20 /tmp/Shell.dll.y4Q2gW.ltrans6.ltrans.o
 .rodata.ParamList.lto_priv.22
                0x000000000008f9f0       0x40 /tmp/Shell.dll.y4Q2gW.ltrans6.ltrans.o
 .rodata.ParamList.lto_priv.23
                0x000000000008fa30       0x60 /tmp/Shell.dll.y4Q2gW.ltrans6.ltrans.o
 .rodata.ParamList.lto_priv.24
                0x000000000008fa90       0x70 /tmp/Shell.dll.y4Q2gW.ltrans6.ltrans.o
 .rodata.ParamList.lto_priv.25
                0x000000000008fb00       0x30 /tmp/Shell.dll.y4Q2gW.ltrans6.ltrans.o
 .rodata.StringChild
                0x000000000008fb30       0x14 /tmp/Shell.dll.y4Q2gW.ltrans6.ltrans.o
 .rodata.StringDriver
                0x000000000008fb44       0x14 /tmp/Shell.dll.y4Q2gW.ltrans6.ltrans.o
 .rodata.StringDriverEx
                0x000000000008fb58       0x14 /tmp/Shell.dll.y4Q2gW.ltrans6.ltrans.o
 .rodata.StringExclusive
                0x000000000008fb6c       0x14 /tmp/Shell.dll.y4Q2gW.ltrans6.ltrans.o
 .rodata.StringGetProt
                0x000000000008fb80       0x14 /tmp/Shell.dll.y4Q2gW.ltrans6.ltrans.o
 .rodata.StringHandProt
                0x000000000008fb94       0x14 /tmp/Shell.dll.y4Q2gW.ltrans6.ltrans.o
 .rodata.StringTestProt
                0x000000000008fba8       0x14 /tmp/Shell.dll.y4Q2gW.ltrans6.ltrans.o
 .rodata.StringUnknown
                0x000000000008fbbc       0x14 /tmp/Shell.dll.y4Q2gW.ltrans6.ltrans.o
 .rodata._gPcd_FixedAtBuild_PcdShellSupplier
                0x000000000008fbd0        0xe /tmp/Shell.dll.y4Q2gW.ltrans6.ltrans.o
                0x000000000008fbd0                _gPcd_FixedAtBuild_PcdShellSupplier
 .rodata.gShellLevel3FileName
                0x000000000008fbde       0x1c /tmp/Shell.dll.y4Q2gW.ltrans6.ltrans.o
 .rodata.mFileName
                0x000000000008fbfa       0x20 /tmp/Shell.dll.y4Q2gW.ltrans6.ltrans.o
 *fill*         0x000000000008fc1a        0x6 
 .rodata.mGuidDataLen
                0x000000000008fc20       0x28 /tmp/Shell.dll.y4Q2gW.ltrans6.ltrans.o
 .rodata.ShellIsValidForNumber.str2.2
                0x000000000008fc48        0x4 /tmp/Shell.dll.y4Q2gW.ltrans7.ltrans.o
 .rodata.PerformResultOperation.str2.2
                0x000000000008fc48       0x16 /tmp/Shell.dll.y4Q2gW.ltrans7.ltrans.o
                                         0x1c (size before relaxing)
 .rodata.ShellCommandRunEndFor.str1.1
                0x000000000008fc5e       0x50 /tmp/Shell.dll.y4Q2gW.ltrans7.ltrans.o
                                         0x85 (size before relaxing)
 .rodata.ShellCommandRunEndFor.str2.2
                0x000000000008fcae       0x1c /tmp/Shell.dll.y4Q2gW.ltrans7.ltrans.o
                                         0x2c (size before relaxing)
 .rodata.ShellCommandRunEndIf.str1.1
                0x000000000008fcca       0x4f /tmp/Shell.dll.y4Q2gW.ltrans7.ltrans.o
 *fill*         0x000000000008fd19        0x1 
 .rodata.ShellCommandRunEndIf.str2.2
                0x000000000008fd1a       0x18 /tmp/Shell.dll.y4Q2gW.ltrans7.ltrans.o
                                         0x1e (size before relaxing)
 .rodata.ShellCommandRunElse.str2.2
                0x000000000008fd32        0xa /tmp/Shell.dll.y4Q2gW.ltrans7.ltrans.o
 .rodata.ShellCommandRunElse.str1.1
                0x000000000008fd3c        0x5 /tmp/Shell.dll.y4Q2gW.ltrans7.ltrans.o
 .rodata.InternalRemoveAliasFromList.str1.1
                0x000000000008fd41       0x1c /tmp/Shell.dll.y4Q2gW.ltrans7.ltrans.o
                                         0x56 (size before relaxing)
 .rodata.InternalUpdateAliasOnList.str1.1
                0x000000000008fd5d       0x40 /tmp/Shell.dll.y4Q2gW.ltrans7.ltrans.o
 .rodata.ShellCommandRunFor.str1.1
                0x000000000008fd9d       0x80 /tmp/Shell.dll.y4Q2gW.ltrans7.ltrans.o
                                         0xd2 (size before relaxing)
 *fill*         0x000000000008fe1d        0x1 
 .rodata.ShellCommandRunFor.str2.2
                0x000000000008fe1e       0x14 /tmp/Shell.dll.y4Q2gW.ltrans7.ltrans.o
                                         0x3a (size before relaxing)
 .rodata.ShellCommandRunIf.str2.2
                0x000000000008fe32       0xcc /tmp/Shell.dll.y4Q2gW.ltrans7.ltrans.o
                                        0x130 (size before relaxing)
 .rodata.ShellCommandRunIf.str1.1
                0x000000000008fefe       0xa6 /tmp/Shell.dll.y4Q2gW.ltrans7.ltrans.o
                                         0xb8 (size before relaxing)
 .rodata.ShellCommandRunIf
                0x000000000008ffa4       0x12 /tmp/Shell.dll.y4Q2gW.ltrans7.ltrans.o
 .rodata.ShellCommandRunGoto.str1.1
                0x000000000008ffb6       0x51 /tmp/Shell.dll.y4Q2gW.ltrans7.ltrans.o
 *fill*         0x0000000000090007        0x1 
 .rodata.ShellCommandRunGoto.str2.2
                0x0000000000090008       0x14 /tmp/Shell.dll.y4Q2gW.ltrans7.ltrans.o
                                         0x18 (size before relaxing)
 .rodata.ShellCommandRunExit.str1.1
                0x000000000009001c       0x51 /tmp/Shell.dll.y4Q2gW.ltrans7.ltrans.o
 *fill*         0x000000000009006d        0x1 
 .rodata.ShellCommandRunExit.str2.2
                0x000000000009006e        0x6 /tmp/Shell.dll.y4Q2gW.ltrans7.ltrans.o
                                         0x10 (size before relaxing)
 .rodata.ShellCommandRunVol.str2.2
                0x0000000000090074       0x1c /tmp/Shell.dll.y4Q2gW.ltrans7.ltrans.o
                                         0x52 (size before relaxing)
 .rodata.ShellCommandRunVol.str1.1
                0x0000000000090090       0x68 /tmp/Shell.dll.y4Q2gW.ltrans7.ltrans.o
 .rodata.ShellCommandRunAttrib.str1.1
                0x00000000000900f8       0x6f /tmp/Shell.dll.y4Q2gW.ltrans7.ltrans.o
 *fill*         0x0000000000090167        0x1 
 .rodata.ShellCommandRunAttrib.str2.2
                0x0000000000090168       0x26 /tmp/Shell.dll.y4Q2gW.ltrans7.ltrans.o
                                         0x48 (size before relaxing)
 .rodata.CascadeDelete.str2.2
                0x000000000009018e        0x6 /tmp/Shell.dll.y4Q2gW.ltrans7.ltrans.o
 .rodata.CascadeDelete.str1.1
                0x000000000009018e       0x64 /tmp/Shell.dll.y4Q2gW.ltrans7.ltrans.o
 .rodata.ValidateAndMoveFiles.str1.1
                0x00000000000901f2      0x153 /tmp/Shell.dll.y4Q2gW.ltrans7.ltrans.o
 .rodata.ValidateAndMoveFiles.str2.2
                0x0000000000090345        0xc /tmp/Shell.dll.y4Q2gW.ltrans7.ltrans.o
 *fill*         0x0000000000090345        0x3 
 .rodata.ValidateAndMoveFiles
                0x0000000000090348        0x6 /tmp/Shell.dll.y4Q2gW.ltrans7.ltrans.o
 .rodata.ShellCommandRunRm.str2.2
                0x000000000009034e        0x6 /tmp/Shell.dll.y4Q2gW.ltrans7.ltrans.o
 .rodata.ShellCommandRunParse.str2.2
                0x000000000009034e       0x4e /tmp/Shell.dll.y4Q2gW.ltrans7.ltrans.o
                                         0x5e (size before relaxing)
 .rodata.ShellCommandRunParse.str1.1
                0x000000000009039c       0x6c /tmp/Shell.dll.y4Q2gW.ltrans7.ltrans.o
                                         0x85 (size before relaxing)
 .rodata.ProcessValidateAndCopyFiles.str2.2
                0x0000000000090408       0x4e /tmp/Shell.dll.y4Q2gW.ltrans7.ltrans.o
                                          0x6 (size before relaxing)
 .rodata.ProcessValidateAndCopyFiles.str1.1
                0x0000000000090408       0xf2 /tmp/Shell.dll.y4Q2gW.ltrans7.ltrans.o
 .rodata.AllFiles
                0x00000000000904fa        0x4 /tmp/Shell.dll.y4Q2gW.ltrans7.ltrans.o
 *fill*         0x00000000000904fe        0x2 
 .rodata.AttribParamList
                0x0000000000090500       0x90 /tmp/Shell.dll.y4Q2gW.ltrans7.ltrans.o
 .rodata.ParamList.lto_priv.26
                0x0000000000090590       0x30 /tmp/Shell.dll.y4Q2gW.ltrans7.ltrans.o
 .rodata.ParamList.lto_priv.27
                0x00000000000905c0       0x30 /tmp/Shell.dll.y4Q2gW.ltrans7.ltrans.o
 .rodata.ParamList.lto_priv.28
                0x00000000000905f0       0x20 /tmp/Shell.dll.y4Q2gW.ltrans7.ltrans.o
 .rodata.ParamList.lto_priv.29
                0x0000000000090610       0x30 /tmp/Shell.dll.y4Q2gW.ltrans7.ltrans.o
 .rodata.ParamList.lto_priv.30
                0x0000000000090640       0x20 /tmp/Shell.dll.y4Q2gW.ltrans7.ltrans.o
 .rodata.mFileName
                0x0000000000090660       0x1c /tmp/Shell.dll.y4Q2gW.ltrans7.ltrans.o
 .rodata.FileTimeToLocalTime.str1.1
                0x000000000009067c       0xe1 /tmp/Shell.dll.y4Q2gW.ltrans8.ltrans.o
 .rodata.DevPathComparePci.str1.1
                0x000000000009075d       0x8c /tmp/Shell.dll.y4Q2gW.ltrans8.ltrans.o
 .rodata.VerifyIntermediateDirectories.str1.1
                0x00000000000907e9       0x67 /tmp/Shell.dll.y4Q2gW.ltrans8.ltrans.o
                                         0x7c (size before relaxing)
 .rodata.GetFullyQualifiedPath.str2.2
                0x0000000000090850        0x8 /tmp/Shell.dll.y4Q2gW.ltrans8.ltrans.o
 .rodata.LoadDriver.str1.1
                0x0000000000090850       0x73 /tmp/Shell.dll.y4Q2gW.ltrans8.ltrans.o
                                         0xd3 (size before relaxing)
 .rodata.ShellCommandRunLoad.str2.2
                0x00000000000908c3       0x4e /tmp/Shell.dll.y4Q2gW.ltrans8.ltrans.o
                                         0x18 (size before relaxing)
 .rodata.ShellCommandRunMkDir.str1.1
                0x00000000000908c3       0x6d /tmp/Shell.dll.y4Q2gW.ltrans8.ltrans.o
 .rodata.ShellCommandRunMkDir.str2.2
                0x0000000000090930        0xc /tmp/Shell.dll.y4Q2gW.ltrans8.ltrans.o
 .rodata.ShellCommandRunCd.str1.1
                0x000000000009093c       0x7e /tmp/Shell.dll.y4Q2gW.ltrans8.ltrans.o
 .rodata.ShellCommandRunCd.str2.2
                0x00000000000909ba        0x6 /tmp/Shell.dll.y4Q2gW.ltrans8.ltrans.o
                                          0xc (size before relaxing)
 .rodata.ShellCommandRunSet.str1.1
                0x00000000000909c0       0x50 /tmp/Shell.dll.y4Q2gW.ltrans8.ltrans.o
 .rodata.ShellCommandRunSet.str2.2
                0x0000000000090a10        0x6 /tmp/Shell.dll.y4Q2gW.ltrans8.ltrans.o
                                         0x16 (size before relaxing)
 .rodata.ShellCommandRunReset.str1.1
                0x0000000000090a10       0x52 /tmp/Shell.dll.y4Q2gW.ltrans8.ltrans.o
 .rodata.ShellCommandRunReset.str2.2
                0x0000000000090a62       0x88 /tmp/Shell.dll.y4Q2gW.ltrans8.ltrans.o
                                         0xa6 (size before relaxing)
 .rodata.ShellCommandRunTime.str2.2
                0x0000000000090aea       0x42 /tmp/Shell.dll.y4Q2gW.ltrans8.ltrans.o
                                         0x64 (size before relaxing)
 .rodata.ShellCommandRunTime.str1.1
                0x0000000000090b2c       0x55 /tmp/Shell.dll.y4Q2gW.ltrans8.ltrans.o
 *fill*         0x0000000000090b81        0x3 
 .rodata.ShellCommandRunTime
                0x0000000000090b84        0x4 /tmp/Shell.dll.y4Q2gW.ltrans8.ltrans.o
 .rodata.ShellCommandRunDate.str2.2
                0x0000000000090b88       0x42 /tmp/Shell.dll.y4Q2gW.ltrans8.ltrans.o
                                         0x18 (size before relaxing)
 .rodata.PerformSingleMappingDisplay.str2.2
                0x0000000000090b88       0x26 /tmp/Shell.dll.y4Q2gW.ltrans8.ltrans.o
                                         0x3e (size before relaxing)
 .rodata.PerformMappingDisplay.str2.2
                0x0000000000090bae       0x26 /tmp/Shell.dll.y4Q2gW.ltrans8.ltrans.o
                                          0x8 (size before relaxing)
 .rodata.ShellCommandRunTimeZone.str2.2
                0x0000000000090bae       0x24 /tmp/Shell.dll.y4Q2gW.ltrans8.ltrans.o
                                         0x30 (size before relaxing)
 .rodata.PrintLsOutput.str2.2
                0x0000000000090bd2       0x2c /tmp/Shell.dll.y4Q2gW.ltrans8.ltrans.o
                                         0x5e (size before relaxing)
 .rodata.PrintLsOutput.str1.1
                0x0000000000090bfe       0x49 /tmp/Shell.dll.y4Q2gW.ltrans8.ltrans.o
                                         0x91 (size before relaxing)
 .rodata.ShellCommandRunLs.str2.2
                0x0000000000090c47        0xc /tmp/Shell.dll.y4Q2gW.ltrans8.ltrans.o
 .rodata.ShellCommandRunLs.str1.1
                0x0000000000090c47       0x7c /tmp/Shell.dll.y4Q2gW.ltrans8.ltrans.o
 .rodata.GetHIDevicePath.str1.1
                0x0000000000090cc3       0x7c /tmp/Shell.dll.y4Q2gW.ltrans8.ltrans.o
                                         0x3a (size before relaxing)
 .rodata.AppendCSDStr.str1.1
                0x0000000000090cc3       0x33 /tmp/Shell.dll.y4Q2gW.ltrans8.ltrans.o
 .rodata.AppendCSDStr.str2.2
                0x0000000000090cf6        0x8 /tmp/Shell.dll.y4Q2gW.ltrans8.ltrans.o
                                         0x14 (size before relaxing)
 .rodata.DevPathSerial1394.str1.1
                0x0000000000090cfe       0x33 /tmp/Shell.dll.y4Q2gW.ltrans8.ltrans.o
                                         0x1c (size before relaxing)
 .rodata.DevPathSerial1394.str2.2
                0x0000000000090cfe        0x8 /tmp/Shell.dll.y4Q2gW.ltrans8.ltrans.o
 .rodata.DevPathSerialMacAddr.str2.2
                0x0000000000090cfe        0xa /tmp/Shell.dll.y4Q2gW.ltrans8.ltrans.o
 .rodata.AppendCSDNum.str2.2
                0x0000000000090cfe        0x8 /tmp/Shell.dll.y4Q2gW.ltrans8.ltrans.o
 .rodata.DevPathSerialIPv4.str2.2
                0x0000000000090cfe       0x22 /tmp/Shell.dll.y4Q2gW.ltrans8.ltrans.o
 .rodata.DevPathSerialVendor.str1.1
                0x0000000000090d20       0x34 /tmp/Shell.dll.y4Q2gW.ltrans8.ltrans.o
 .rodata.DevPathSerialVendor.str2.2
                0x0000000000090d54        0x6 /tmp/Shell.dll.y4Q2gW.ltrans8.ltrans.o
 .rodata.DevPathSerialUsb.str1.1
                0x0000000000090d54       0x16 /tmp/Shell.dll.y4Q2gW.ltrans8.ltrans.o
 .rodata.CopySingleFile.str2.2
                0x0000000000090d6a        0x6 /tmp/Shell.dll.y4Q2gW.ltrans8.ltrans.o
 .rodata.CopySingleFile
                0x0000000000090d70        0xc /tmp/Shell.dll.y4Q2gW.ltrans8.ltrans.o
 .rodata.ValidateAndCopyFiles.str1.1
                0x0000000000090d7c       0x18 /tmp/Shell.dll.y4Q2gW.ltrans8.ltrans.o
                                         0xdf (size before relaxing)
 .rodata.ValidateAndCopyFiles.str2.2
                0x0000000000090d94        0x6 /tmp/Shell.dll.y4Q2gW.ltrans8.ltrans.o
 .rodata.ShellCommandConsistMappingGenMappingName.str1.1
                0x0000000000090d94       0x16 /tmp/Shell.dll.y4Q2gW.ltrans8.ltrans.o
 .rodata.ShellCommandConsistMappingGenMappingName.str2.2
                0x0000000000090daa        0x6 /tmp/Shell.dll.y4Q2gW.ltrans8.ltrans.o
 .rodata.ShellCommandRunMap.str1.1
                0x0000000000090daa       0x50 /tmp/Shell.dll.y4Q2gW.ltrans8.ltrans.o
 .rodata.ShellCommandRunMap.str2.2
                0x0000000000090daa        0x6 /tmp/Shell.dll.y4Q2gW.ltrans8.ltrans.o
                                         0x10 (size before relaxing)
 .rodata.str2.2
                0x0000000000090daa        0x6 /tmp/Shell.dll.y4Q2gW.ltrans8.ltrans.o
                                         0x16 (size before relaxing)
 .rodata.Cd     0x0000000000090db0        0x8 /tmp/Shell.dll.y4Q2gW.ltrans8.ltrans.o
 .rodata.DevPathConsistMappingTable
                0x0000000000090db8      0x1f8 /tmp/Shell.dll.y4Q2gW.ltrans8.ltrans.o
 .rodata.Fp     0x0000000000090fb0        0x8 /tmp/Shell.dll.y4Q2gW.ltrans8.ltrans.o
 .rodata.Hd     0x0000000000090fb8        0x8 /tmp/Shell.dll.y4Q2gW.ltrans8.ltrans.o
 .rodata.LoadParamList
                0x0000000000090fc0       0x20 /tmp/Shell.dll.y4Q2gW.ltrans8.ltrans.o
 .rodata.LsParamList
                0x0000000000090fe0       0x40 /tmp/Shell.dll.y4Q2gW.ltrans8.ltrans.o
 .rodata.MapParamList
                0x0000000000091020       0x90 /tmp/Shell.dll.y4Q2gW.ltrans8.ltrans.o
 .rodata.ResetParamList
                0x00000000000910b0       0x50 /tmp/Shell.dll.y4Q2gW.ltrans8.ltrans.o
 .rodata.SetParamList
                0x0000000000091100       0x30 /tmp/Shell.dll.y4Q2gW.ltrans8.ltrans.o
 .rodata.TimeParamList3
                0x0000000000091130       0x30 /tmp/Shell.dll.y4Q2gW.ltrans8.ltrans.o
 .rodata.TimeZoneList
                0x0000000000091160       0x90 /tmp/Shell.dll.y4Q2gW.ltrans8.ltrans.o
 .rodata.TimeZoneParamList3
                0x00000000000911f0       0x40 /tmp/Shell.dll.y4Q2gW.ltrans8.ltrans.o
 .rodata.mFileName
                0x0000000000091230       0x1c /tmp/Shell.dll.y4Q2gW.ltrans8.ltrans.o
 *fill*         0x000000000009124c        0x4 
 .rodata.mMTDName
                0x0000000000091250       0x50 /tmp/Shell.dll.y4Q2gW.ltrans8.ltrans.o
 .rodata.InternalShellInitHandleList.part.0.str1.1
                0x00000000000912a0       0x5b /tmp/Shell.dll.y4Q2gW.ltrans9.ltrans.o
                                         0x90 (size before relaxing)
 .rodata.InternalPrintTo.str1.1
                0x00000000000912fb       0x5d /tmp/Shell.dll.y4Q2gW.ltrans9.ltrans.o
 *fill*         0x00000000000912fb        0x1 
 .rodata.DriverEfiVersionProtocolDumpInformation.str2.2
                0x00000000000912fc        0xe /tmp/Shell.dll.y4Q2gW.ltrans9.ltrans.o
 .rodata.InternalShellPrintWorker.str2.2
                0x000000000009130a       0x20 /tmp/Shell.dll.y4Q2gW.ltrans9.ltrans.o
                                         0x4a (size before relaxing)
 .rodata.ShellSortFileList.str1.1
                0x000000000009132a       0x78 /tmp/Shell.dll.y4Q2gW.ltrans9.ltrans.o
                                         0xd1 (size before relaxing)
 .rodata.ShellFileHandleEof.str1.1
                0x00000000000913a2       0x78 /tmp/Shell.dll.y4Q2gW.ltrans9.ltrans.o
                                         0x17 (size before relaxing)
 .rodata.ShellCommandCreateNewMappingName.str2.2
                0x00000000000913a2       0x1a /tmp/Shell.dll.y4Q2gW.ltrans9.ltrans.o
 .rodata.ShellCommandIsOnAliasList.str1.1
                0x00000000000913bc       0x56 /tmp/Shell.dll.y4Q2gW.ltrans9.ltrans.o
 .rodata.CommandInit.str2.2
                0x00000000000913bc       0x1a /tmp/Shell.dll.y4Q2gW.ltrans9.ltrans.o
 .rodata.GetHandleListByProtocolList.str1.1
                0x00000000000913bc       0x3d /tmp/Shell.dll.y4Q2gW.ltrans9.ltrans.o
 .rodata.ShellCommandCreateInitialMappingsAndPaths.str2.2
                0x00000000000913f9       0x18 /tmp/Shell.dll.y4Q2gW.ltrans9.ltrans.o
 .rodata.ShellCommandCreateInitialMappingsAndPaths.str1.1
                0x00000000000913f9       0x1f /tmp/Shell.dll.y4Q2gW.ltrans9.ltrans.o
 .rodata.ShellCommandIsCommandOnList.str1.1
                0x0000000000091418       0x1f /tmp/Shell.dll.y4Q2gW.ltrans9.ltrans.o
                                         0x1e (size before relaxing)
 .rodata.ParseHandleDatabaseByRelationshipWithType.str1.1
                0x0000000000091418       0x48 /tmp/Shell.dll.y4Q2gW.ltrans9.ltrans.o
 .rodata.ParseHandleDatabaseByRelationship.str1.1
                0x0000000000091460       0xb7 /tmp/Shell.dll.y4Q2gW.ltrans9.ltrans.o
 .rodata.InternalShellGetNodeFromGuid.str1.1
                0x0000000000091517       0xb7 /tmp/Shell.dll.y4Q2gW.ltrans9.ltrans.o
                                         0x15 (size before relaxing)
 .rodata.GetProtocolInformationDump.str1.1
                0x0000000000091517       0x1a /tmp/Shell.dll.y4Q2gW.ltrans9.ltrans.o
 .rodata.HandleParsingHiiInit.str1.1
                0x0000000000091517       0x28 /tmp/Shell.dll.y4Q2gW.ltrans9.ltrans.o
 .rodata.ShellFileHandleReadLine.str1.1
                0x000000000009153f       0x3d /tmp/Shell.dll.y4Q2gW.ltrans9.ltrans.o
                                         0x54 (size before relaxing)
 .rodata.StrnCatGrow.str1.1
                0x000000000009157c       0x2d /tmp/Shell.dll.y4Q2gW.ltrans9.ltrans.o
                                         0x52 (size before relaxing)
 .rodata.ShellCommandRegisterCommandName.str2.2
                0x00000000000915a9        0x4 /tmp/Shell.dll.y4Q2gW.ltrans9.ltrans.o
 .rodata.ShellCommandRegisterCommandName.str1.1
                0x00000000000915a9       0x5a /tmp/Shell.dll.y4Q2gW.ltrans9.ltrans.o
 .rodata.DevicePathProtocolDumpInformationEx.str2.2
                0x0000000000091603        0xc /tmp/Shell.dll.y4Q2gW.ltrans9.ltrans.o
 *fill*         0x0000000000091603        0x1 
 .rodata.ConvertMemoryType.str2.2
                0x0000000000091604      0x23e /tmp/Shell.dll.y4Q2gW.ltrans9.ltrans.o
 *fill*         0x0000000000091842        0x2 
 .rodata.ConvertMemoryType
                0x0000000000091844       0x10 /tmp/Shell.dll.y4Q2gW.ltrans9.ltrans.o
 .rodata.DumpHex.str1.1
                0x0000000000091854        0x1 /tmp/Shell.dll.y4Q2gW.ltrans9.ltrans.o
 .rodata.DumpHex.str2.2
                0x0000000000091854       0x2c /tmp/Shell.dll.y4Q2gW.ltrans9.ltrans.o
 .rodata.ShellPrintHelp.str2.2
                0x0000000000091854       0x2e /tmp/Shell.dll.y4Q2gW.ltrans9.ltrans.o
 .rodata.ShellOpenFileMetaArg.str1.1
                0x0000000000091882       0x8f /tmp/Shell.dll.y4Q2gW.ltrans9.ltrans.o
                                         0xa4 (size before relaxing)
 .rodata.ShellFileExists.str1.1
                0x0000000000091911       0x8f /tmp/Shell.dll.y4Q2gW.ltrans9.ltrans.o
                                         0x15 (size before relaxing)
 .rodata.ShellPromptForResponse.str2.2
                0x0000000000091911       0x12 /tmp/Shell.dll.y4Q2gW.ltrans9.ltrans.o
 .rodata.ShellPromptForResponse.str1.1
                0x0000000000091911       0x42 /tmp/Shell.dll.y4Q2gW.ltrans9.ltrans.o
 *fill*         0x0000000000091953        0x1 
 .rodata.ShellPromptForResponse
                0x0000000000091954        0xa /tmp/Shell.dll.y4Q2gW.ltrans9.ltrans.o
 .rodata.ShellOpenFileByName.str1.1
                0x000000000009195e       0x26 /tmp/Shell.dll.y4Q2gW.ltrans9.ltrans.o
                                         0x58 (size before relaxing)
 .rodata.ShellOpenFileByName.str2.2
                0x0000000000091984       0x12 /tmp/Shell.dll.y4Q2gW.ltrans9.ltrans.o
 .rodata.ShellConvertStringToUint64.str2.2
                0x0000000000091996        0x6 /tmp/Shell.dll.y4Q2gW.ltrans9.ltrans.o
                                          0xc (size before relaxing)
 .rodata.FullyQualifyPath.str1.1
                0x000000000009199c       0x15 /tmp/Shell.dll.y4Q2gW.ltrans9.ltrans.o
 .rodata.FullyQualifyPath.str2.2
                0x000000000009199c        0x4 /tmp/Shell.dll.y4Q2gW.ltrans9.ltrans.o
 .rodata.FileHandleFindNextFile.part.0.str1.1
                0x000000000009199c       0x8c /tmp/Shell.dll.y4Q2gW.ltrans9.ltrans.o
 .rodata.ShellIsDirectory.str1.1
                0x000000000009199c       0x18 /tmp/Shell.dll.y4Q2gW.ltrans9.ltrans.o
 .rodata.ShellFindFilePath.str1.1
                0x00000000000919b4       0x17 /tmp/Shell.dll.y4Q2gW.ltrans9.ltrans.o
 .rodata.HiiGetSupportedLanguages.str1.1
                0x00000000000919cb       0x4c /tmp/Shell.dll.y4Q2gW.ltrans9.ltrans.o
                                         0x66 (size before relaxing)
 .rodata.HiiGetString.str1.1
                0x0000000000091a17       0x58 /tmp/Shell.dll.y4Q2gW.ltrans9.ltrans.o
 *fill*         0x0000000000091a6f        0x1 
 .rodata.PartitionInfoProtocolDumpInformation.str2.2
                0x0000000000091a70        0xe /tmp/Shell.dll.y4Q2gW.ltrans9.ltrans.o
 .rodata.FirmwareManagementDumpInformation.str2.2
                0x0000000000091a7e      0x168 /tmp/Shell.dll.y4Q2gW.ltrans9.ltrans.o
                                        0x176 (size before relaxing)
 .rodata.AdapterInformationDumpInformation.str2.2
                0x0000000000091be6      0x13a /tmp/Shell.dll.y4Q2gW.ltrans9.ltrans.o
 .rodata.PciIoProtocolDumpInformation.str2.2
                0x0000000000091d20       0x1c /tmp/Shell.dll.y4Q2gW.ltrans9.ltrans.o
                                         0x26 (size before relaxing)
 .rodata.DebugSupportProtocolDumpInformation.str2.2
                0x0000000000091d3c       0x1c /tmp/Shell.dll.y4Q2gW.ltrans9.ltrans.o
 .rodata.BlockIoProtocolDumpInformation.str2.2
                0x0000000000091d58       0x70 /tmp/Shell.dll.y4Q2gW.ltrans9.ltrans.o
                                         0x84 (size before relaxing)
 .rodata.TxtOutProtocolDumpInformation.str1.1
                0x0000000000091dc8       0x31 /tmp/Shell.dll.y4Q2gW.ltrans9.ltrans.o
 *fill*         0x0000000000091df9        0x1 
 .rodata.PciRootBridgeIoDumpInformation.str2.2
                0x0000000000091dfa       0x66 /tmp/Shell.dll.y4Q2gW.ltrans9.ltrans.o
                                         0x70 (size before relaxing)
 .rodata.EdidActiveProtocolDumpInformation.str2.2
                0x0000000000091e60       0x16 /tmp/Shell.dll.y4Q2gW.ltrans9.ltrans.o
 .rodata.EdidDiscoveredProtocolDumpInformation.str2.2
                0x0000000000091e76       0x1e /tmp/Shell.dll.y4Q2gW.ltrans9.ltrans.o
 .rodata.GraphicsOutputProtocolDumpInformation.str2.2
                0x0000000000091e94      0x108 /tmp/Shell.dll.y4Q2gW.ltrans9.ltrans.o
 .rodata.GraphicsOutputProtocolDumpInformation
                0x0000000000091f9c        0x5 /tmp/Shell.dll.y4Q2gW.ltrans9.ltrans.o
 *fill*         0x0000000000091fa1        0x3 
 .rodata.EfiIsaAcpiProtocolGuid
                0x0000000000091fa4       0x10 /tmp/Shell.dll.y4Q2gW.ltrans9.ltrans.o
 .rodata.EfiIsaIoProtocolGuid
                0x0000000000091fb4       0x10 /tmp/Shell.dll.y4Q2gW.ltrans9.ltrans.o
 .rodata.WinNtIoProtocolGuid
                0x0000000000091fc4       0x10 /tmp/Shell.dll.y4Q2gW.ltrans9.ltrans.o
 .rodata.WinNtSerialPortGuid
                0x0000000000091fd4       0x10 /tmp/Shell.dll.y4Q2gW.ltrans9.ltrans.o
 .rodata.WinNtThunkProtocolGuid
                0x0000000000091fe4       0x10 /tmp/Shell.dll.y4Q2gW.ltrans9.ltrans.o
 *fill*         0x0000000000091ff4        0x4 
 .rodata.mGuidStringList
                0x0000000000091ff8     0x1a28 /tmp/Shell.dll.y4Q2gW.ltrans9.ltrans.o
 .rodata.mGuidStringListNT
                0x0000000000093a20       0x60 /tmp/Shell.dll.y4Q2gW.ltrans9.ltrans.o
 .rodata.AsciiStrLen.str1.1
                0x0000000000093a80       0x76 /tmp/Shell.dll.y4Q2gW.ltrans10.ltrans.o
                                         0x8d (size before relaxing)
 .rodata.DebugAssert.str1.1
                0x0000000000093af6       0x1e /tmp/Shell.dll.y4Q2gW.ltrans10.ltrans.o
 .rodata.SetDevicePathNodeLength.str1.1
                0x0000000000093b14       0x9c /tmp/Shell.dll.y4Q2gW.ltrans10.ltrans.o
                                         0xb1 (size before relaxing)
 .rodata.SPrintLength.str1.1
                0x0000000000093bb0       0x6c /tmp/Shell.dll.y4Q2gW.ltrans10.ltrans.o
 .rodata.UnicodeVSPrint.str1.1
                0x0000000000093c1c       0x28 /tmp/Shell.dll.y4Q2gW.ltrans10.ltrans.o
 .rodata.InternalBaseLibIsListValid.str1.1
                0x0000000000093c44       0x83 /tmp/Shell.dll.y4Q2gW.ltrans10.ltrans.o
                                         0x98 (size before relaxing)
 .rodata.IsNodeInList.str1.1
                0x0000000000093cc7       0x44 /tmp/Shell.dll.y4Q2gW.ltrans10.ltrans.o
 .rodata.GetPreviousNode.str1.1
                0x0000000000093d0b       0x22 /tmp/Shell.dll.y4Q2gW.ltrans10.ltrans.o
 .rodata.ConsoleLoggerEnableCursor.str1.1
                0x0000000000093d2d       0x5e /tmp/Shell.dll.y4Q2gW.ltrans10.ltrans.o
 .rodata.HiiRemovePackages.str1.1
                0x0000000000093d2d       0x47 /tmp/Shell.dll.y4Q2gW.ltrans10.ltrans.o
                                         0x96 (size before relaxing)
 .rodata.StringNoCaseCompare.str1.1
                0x0000000000093d74       0x4d /tmp/Shell.dll.y4Q2gW.ltrans10.ltrans.o
 .rodata.FreePool.str1.1
                0x0000000000093d74       0x5b /tmp/Shell.dll.y4Q2gW.ltrans10.ltrans.o
 .rodata.GetVariable2.str1.1
                0x0000000000093dcf       0x9c /tmp/Shell.dll.y4Q2gW.ltrans10.ltrans.o
 .rodata.AsciiStrnCmp.str1.1
                0x0000000000093e6b       0x70 /tmp/Shell.dll.y4Q2gW.ltrans10.ltrans.o
 .rodata.StrLen.str1.1
                0x0000000000093edb       0x3a /tmp/Shell.dll.y4Q2gW.ltrans10.ltrans.o
                                         0x5d (size before relaxing)
 .rodata.StrStr.str1.1
                0x0000000000093f15       0x32 /tmp/Shell.dll.y4Q2gW.ltrans10.ltrans.o
 .rodata.StrnCmp.str1.1
                0x0000000000093f47       0x72 /tmp/Shell.dll.y4Q2gW.ltrans10.ltrans.o
 .rodata.AsciiStrToUnicodeStrS.str1.1
                0x0000000000093fb9       0xc8 /tmp/Shell.dll.y4Q2gW.ltrans10.ltrans.o
                                        0x171 (size before relaxing)
 .rodata.StrHexToBytes.str1.1
                0x0000000000094081       0x5c /tmp/Shell.dll.y4Q2gW.ltrans10.ltrans.o
                                         0x6d (size before relaxing)
 .rodata.StrDecimalToUint64.str1.1
                0x00000000000940dd       0x30 /tmp/Shell.dll.y4Q2gW.ltrans10.ltrans.o
 *fill*         0x00000000000940dd        0x1 
 .rodata.NetworkProtocolFromText.str2.2
                0x00000000000940de       0x10 /tmp/Shell.dll.y4Q2gW.ltrans10.ltrans.o
 .rodata.StrnCatS.str1.1
                0x00000000000940ee       0x7c /tmp/Shell.dll.y4Q2gW.ltrans10.ltrans.o
                                         0x9f (size before relaxing)
 .rodata.IsListEmpty.str1.1
                0x000000000009416a       0x26 /tmp/Shell.dll.y4Q2gW.ltrans10.ltrans.o
 .rodata.RemoveEntryList.str1.1
                0x0000000000094190       0x15 /tmp/Shell.dll.y4Q2gW.ltrans10.ltrans.o
 .rodata.InitializeListHead.str1.1
                0x00000000000941a5       0x19 /tmp/Shell.dll.y4Q2gW.ltrans10.ltrans.o
 .rodata.CopyMem.str1.1
                0x00000000000941a5       0x52 /tmp/Shell.dll.y4Q2gW.ltrans10.ltrans.o
                                         0xd3 (size before relaxing)
 .rodata.QuickSortWorker.str1.1
                0x00000000000941f7       0x20 /tmp/Shell.dll.y4Q2gW.ltrans10.ltrans.o
                                         0x54 (size before relaxing)
 .rodata.AllocateCopyPool.str1.1
                0x0000000000094217       0x3f /tmp/Shell.dll.y4Q2gW.ltrans10.ltrans.o
 .rodata.PathCleanUpDirectories.str2.2
                0x0000000000094256       0x1c /tmp/Shell.dll.y4Q2gW.ltrans10.ltrans.o
 .rodata.SetMem.str1.1
                0x0000000000094272       0x51 /tmp/Shell.dll.y4Q2gW.ltrans10.ltrans.o
                                         0x89 (size before relaxing)
 .rodata.SetMem16.str1.1
                0x00000000000942c3       0xa6 /tmp/Shell.dll.y4Q2gW.ltrans10.ltrans.o
 .rodata.AppendStringToHistory.str1.1
                0x0000000000094369      0x15c /tmp/Shell.dll.y4Q2gW.ltrans10.ltrans.o
                                        0x178 (size before relaxing)
 .rodata.AppendStringToHistory.str2.2
                0x00000000000944c5        0x6 /tmp/Shell.dll.y4Q2gW.ltrans10.ltrans.o
 .rodata.ConsoleLoggerOutputString.str1.1
                0x00000000000944c5       0x4c /tmp/Shell.dll.y4Q2gW.ltrans10.ltrans.o
                                         0x73 (size before relaxing)
 .rodata.ZeroMem.str1.1
                0x0000000000094511       0x88 /tmp/Shell.dll.y4Q2gW.ltrans10.ltrans.o
 .rodata.UefiDevicePathLibCatPrint.str1.1
                0x0000000000094599       0x6b /tmp/Shell.dll.y4Q2gW.ltrans10.ltrans.o
 .rodata.DevPathToTextNodeGeneric.str2.2
                0x0000000000094604       0x22 /tmp/Shell.dll.y4Q2gW.ltrans10.ltrans.o
                                         0x34 (size before relaxing)
 .rodata.DevPathToTextBBS.str2.2
                0x0000000000094626       0x2c /tmp/Shell.dll.y4Q2gW.ltrans10.ltrans.o
                                         0x3a (size before relaxing)
 .rodata.DevPathRelativeOffsetRange.str2.2
                0x0000000000094652       0x28 /tmp/Shell.dll.y4Q2gW.ltrans10.ltrans.o
 .rodata.DevPathToTextFvFile.str2.2
                0x000000000009467a       0x16 /tmp/Shell.dll.y4Q2gW.ltrans10.ltrans.o
 .rodata.DevPathToTextFv.str2.2
                0x0000000000094690        0xe /tmp/Shell.dll.y4Q2gW.ltrans10.ltrans.o
 .rodata.DevPathToTextMediaProtocol.str2.2
                0x000000000009469e       0x14 /tmp/Shell.dll.y4Q2gW.ltrans10.ltrans.o
 .rodata.DevPathToTextFilePath.str2.2
                0x00000000000946b2        0x6 /tmp/Shell.dll.y4Q2gW.ltrans10.ltrans.o
 .rodata.DevPathToTextCDROM.str2.2
                0x00000000000946b2       0x48 /tmp/Shell.dll.y4Q2gW.ltrans10.ltrans.o
 .rodata.DevPathToTextHardDrive.str2.2
                0x00000000000946fa       0x64 /tmp/Shell.dll.y4Q2gW.ltrans10.ltrans.o
                                         0x7e (size before relaxing)
 .rodata.DevPathToTextUri.str1.1
                0x000000000009475e       0x17 /tmp/Shell.dll.y4Q2gW.ltrans10.ltrans.o
 *fill*         0x0000000000094775        0x1 
 .rodata.DevPathToTextUri.str2.2
                0x0000000000094776       0x10 /tmp/Shell.dll.y4Q2gW.ltrans10.ltrans.o
 .rodata.DevPathToTextBluetoothLE.str2.2
                0x0000000000094786       0x5a /tmp/Shell.dll.y4Q2gW.ltrans10.ltrans.o
 .rodata.DevPathToTextWiFi.str2.2
                0x00000000000947e0       0x14 /tmp/Shell.dll.y4Q2gW.ltrans10.ltrans.o
 .rodata.DevPathToTextBluetooth.str2.2
                0x00000000000947f4       0x48 /tmp/Shell.dll.y4Q2gW.ltrans10.ltrans.o
 .rodata.DevPathToTextVlan.str2.2
                0x000000000009483c       0x12 /tmp/Shell.dll.y4Q2gW.ltrans10.ltrans.o
 .rodata.DevPathToTextiSCSI.str2.2
                0x000000000009484e       0x64 /tmp/Shell.dll.y4Q2gW.ltrans10.ltrans.o
                                         0x88 (size before relaxing)
 .rodata.DevPathToTextUart.str2.2
                0x00000000000948b2       0x50 /tmp/Shell.dll.y4Q2gW.ltrans10.ltrans.o
                                         0x74 (size before relaxing)
 *fill*         0x0000000000094902        0x2 
 .rodata.DevPathToTextUart
                0x0000000000094904        0x4 /tmp/Shell.dll.y4Q2gW.ltrans10.ltrans.o
 .rodata.DevPathToTextInfiniBand.str2.2
                0x0000000000094908       0x4c /tmp/Shell.dll.y4Q2gW.ltrans10.ltrans.o
 .rodata.CatIPv6Address.str2.2
                0x0000000000094954       0x90 /tmp/Shell.dll.y4Q2gW.ltrans10.ltrans.o
 .rodata.CatIPv4Address.str2.2
                0x00000000000949e4       0x18 /tmp/Shell.dll.y4Q2gW.ltrans10.ltrans.o
 .rodata.DevPathToTextDns.str2.2
                0x00000000000949fc        0xa /tmp/Shell.dll.y4Q2gW.ltrans10.ltrans.o
 .rodata.CatNetworkProtocol.str2.2
                0x0000000000094a06        0xa /tmp/Shell.dll.y4Q2gW.ltrans10.ltrans.o
 .rodata.DevPathToTextIPv6.str2.2
                0x0000000000094a06       0x80 /tmp/Shell.dll.y4Q2gW.ltrans10.ltrans.o
                                         0x8e (size before relaxing)
 .rodata.DevPathToTextIPv4.str2.2
                0x0000000000094a86       0x24 /tmp/Shell.dll.y4Q2gW.ltrans10.ltrans.o
 .rodata.DevPathToTextMacAddr.str2.2
                0x0000000000094aaa        0xa /tmp/Shell.dll.y4Q2gW.ltrans10.ltrans.o
 .rodata.DevPathToTextI2O.str2.2
                0x0000000000094ab4       0x14 /tmp/Shell.dll.y4Q2gW.ltrans10.ltrans.o
 .rodata.DevPathToTextSata.str2.2
                0x0000000000094ac8       0x2a /tmp/Shell.dll.y4Q2gW.ltrans10.ltrans.o
 .rodata.DevPathToTextUsbClass.str2.2
                0x0000000000094af2      0x14a /tmp/Shell.dll.y4Q2gW.ltrans10.ltrans.o
                                        0x250 (size before relaxing)
 .rodata.DevPathToTextUsbClass
                0x0000000000094c3c        0xe /tmp/Shell.dll.y4Q2gW.ltrans10.ltrans.o
 .rodata.DevPathToTextLogicalUnit.str2.2
                0x0000000000094c4a       0x16 /tmp/Shell.dll.y4Q2gW.ltrans10.ltrans.o
 .rodata.DevPathToTextUsbWWID.str1.1
                0x0000000000094c60       0x17 /tmp/Shell.dll.y4Q2gW.ltrans10.ltrans.o
 *fill*         0x0000000000094c77        0x1 
 .rodata.DevPathToTextUsbWWID.str2.2
                0x0000000000094c78       0x3a /tmp/Shell.dll.y4Q2gW.ltrans10.ltrans.o
 .rodata.DevPathToTextUsb.str2.2
                0x0000000000094cb2       0x1e /tmp/Shell.dll.y4Q2gW.ltrans10.ltrans.o
 .rodata.DevPathToText1394.str2.2
                0x0000000000094cd0       0x1c /tmp/Shell.dll.y4Q2gW.ltrans10.ltrans.o
 .rodata.DevPathToTextEmmc.str2.2
                0x0000000000094cec       0x16 /tmp/Shell.dll.y4Q2gW.ltrans10.ltrans.o
 .rodata.DevPathToTextSd.str2.2
                0x0000000000094d02       0x12 /tmp/Shell.dll.y4Q2gW.ltrans10.ltrans.o
 .rodata.DevPathToTextUfs.str2.2
                0x0000000000094d14       0x1e /tmp/Shell.dll.y4Q2gW.ltrans10.ltrans.o
 .rodata.DevPathToTextNVMe.str2.2
                0x0000000000094d32       0x66 /tmp/Shell.dll.y4Q2gW.ltrans10.ltrans.o
 .rodata.DevPathToTextSasEx.str2.2
                0x0000000000094d98       0xac /tmp/Shell.dll.y4Q2gW.ltrans10.ltrans.o
                                         0xc0 (size before relaxing)
 .rodata.DevPathToTextFibreEx.str2.2
                0x0000000000094e44       0x16 /tmp/Shell.dll.y4Q2gW.ltrans10.ltrans.o
 .rodata.DevPathToTextFibre.str2.2
                0x0000000000094e5a       0x26 /tmp/Shell.dll.y4Q2gW.ltrans10.ltrans.o
 .rodata.DevPathToTextScsi.str2.2
                0x0000000000094e80       0x20 /tmp/Shell.dll.y4Q2gW.ltrans10.ltrans.o
 .rodata.DevPathToTextAtapi.str2.2
                0x0000000000094ea0       0x64 /tmp/Shell.dll.y4Q2gW.ltrans10.ltrans.o
                                         0x72 (size before relaxing)
 .rodata.DevPathToTextAcpiAdr.str2.2
                0x0000000000094f04       0x26 /tmp/Shell.dll.y4Q2gW.ltrans10.ltrans.o
 .rodata.DevPathToTextAcpiEx.str2.2
                0x0000000000094f2a      0x12c /tmp/Shell.dll.y4Q2gW.ltrans10.ltrans.o
                                        0x148 (size before relaxing)
 .rodata.DevPathToTextAcpi.str2.2
                0x0000000000095056       0xc2 /tmp/Shell.dll.y4Q2gW.ltrans10.ltrans.o
 .rodata.DevPathToTextBmc.str2.2
                0x0000000000095118       0x20 /tmp/Shell.dll.y4Q2gW.ltrans10.ltrans.o
 .rodata.DevPathToTextController.str2.2
                0x0000000000095138       0x16 /tmp/Shell.dll.y4Q2gW.ltrans10.ltrans.o
 .rodata.DevPathToTextMemMap.str2.2
                0x000000000009514e       0x3e /tmp/Shell.dll.y4Q2gW.ltrans10.ltrans.o
 .rodata.DevPathToTextPccard.str2.2
                0x000000000009518c       0x1a /tmp/Shell.dll.y4Q2gW.ltrans10.ltrans.o
 .rodata.DevPathToTextPci.str2.2
                0x00000000000951a6       0x1e /tmp/Shell.dll.y4Q2gW.ltrans10.ltrans.o
 .rodata.GetBestLanguage.str1.1
                0x00000000000951c4       0x23 /tmp/Shell.dll.y4Q2gW.ltrans10.ltrans.o
 .rodata.UefiDevicePathLibConvertDevicePathToText.str2.2
                0x00000000000951e7        0x4 /tmp/Shell.dll.y4Q2gW.ltrans10.ltrans.o
 *fill*         0x00000000000951e7        0x1 
 .rodata.DevPathFromTextBBS.str2.2
                0x00000000000951e8       0x1e /tmp/Shell.dll.y4Q2gW.ltrans10.ltrans.o
                                         0x46 (size before relaxing)
 .rodata.DevPathFromTextUart.str2.2
                0x0000000000095206       0x10 /tmp/Shell.dll.y4Q2gW.ltrans10.ltrans.o
                                         0x24 (size before relaxing)
 *fill*         0x0000000000095216        0x2 
 .rodata.DevPathFromTextUart
                0x0000000000095218       0x10 /tmp/Shell.dll.y4Q2gW.ltrans10.ltrans.o
 .rodata.DevPathFromTextIPv6.str2.2
                0x0000000000095228       0x2e /tmp/Shell.dll.y4Q2gW.ltrans10.ltrans.o
 .rodata.DevPathFromTextSasEx.str2.2
                0x0000000000095256       0x16 /tmp/Shell.dll.y4Q2gW.ltrans10.ltrans.o
 .rodata.DevPathFromTextAcpiAdr.str1.1
                0x000000000009526c       0x18 /tmp/Shell.dll.y4Q2gW.ltrans10.ltrans.o
                                         0x6c (size before relaxing)
 .rodata.FileInterfaceFileWrite.str1.1
                0x0000000000095284        0x3 /tmp/Shell.dll.y4Q2gW.ltrans10.ltrans.o
 .rodata.CompareGuid.str1.1
                0x0000000000095284       0x7e /tmp/Shell.dll.y4Q2gW.ltrans10.ltrans.o
 .rodata.DevPathToTextRamDisk.str2.2
                0x0000000000095302       0xca /tmp/Shell.dll.y4Q2gW.ltrans10.ltrans.o
                                        0x136 (size before relaxing)
 .rodata.DevPathToTextVendor.str2.2
                0x00000000000953cc      0x136 /tmp/Shell.dll.y4Q2gW.ltrans10.ltrans.o
                                        0x166 (size before relaxing)
 .rodata.CopyGuid.str1.1
                0x0000000000095502       0x3b /tmp/Shell.dll.y4Q2gW.ltrans10.ltrans.o
 *fill*         0x000000000009553d        0x1 
 .rodata.FileInterfaceStdInRead.str2.2
                0x000000000009553e       0x28 /tmp/Shell.dll.y4Q2gW.ltrans10.ltrans.o
                                         0x48 (size before relaxing)
 .rodata.FileInterfaceStdInRead.str1.1
                0x0000000000095566       0x8e /tmp/Shell.dll.y4Q2gW.ltrans10.ltrans.o
 .rodata.FileInterfaceStdInRead
                0x00000000000955f4       0x2e /tmp/Shell.dll.y4Q2gW.ltrans10.ltrans.o
 .rodata.ManFileFindSections.str2.2
                0x0000000000095622       0x10 /tmp/Shell.dll.y4Q2gW.ltrans10.ltrans.o
 .rodata.ManFileFindSections.str1.1
                0x0000000000095632       0x97 /tmp/Shell.dll.y4Q2gW.ltrans10.ltrans.o
 .rodata.FreeEnvironmentVariableList.str1.1
                0x00000000000956c9       0x47 /tmp/Shell.dll.y4Q2gW.ltrans10.ltrans.o
 .rodata.SetEnvironmentVariables.part.0.str2.2
                0x0000000000095710        0x4 /tmp/Shell.dll.y4Q2gW.ltrans10.ltrans.o
 .rodata.SetEnvironmentVariables.part.0.str1.1
                0x0000000000095710       0x2c /tmp/Shell.dll.y4Q2gW.ltrans10.ltrans.o
 .rodata.CreateFileInterfaceMem.str1.1
                0x000000000009573c       0x62 /tmp/Shell.dll.y4Q2gW.ltrans10.ltrans.o
 .rodata.str2.2
                0x000000000009579e       0x50 /tmp/Shell.dll.y4Q2gW.ltrans10.ltrans.o
 .rodata.CSWTCH.42
                0x000000000009579e        0x6 /tmp/Shell.dll.y4Q2gW.ltrans10.ltrans.o
 *fill*         0x00000000000957a4        0x4 
 .rodata.CSWTCH.58
                0x00000000000957a8       0x30 /tmp/Shell.dll.y4Q2gW.ltrans10.ltrans.o
 .rodata.__FUNCTION__.1941
                0x00000000000957d8        0x8 /tmp/Shell.dll.y4Q2gW.ltrans10.ltrans.o
 .rodata.__FUNCTION__.1952
                0x00000000000957e0        0x9 /tmp/Shell.dll.y4Q2gW.ltrans10.ltrans.o
 .rodata.__FUNCTION__.1964
                0x00000000000957e9        0x8 /tmp/Shell.dll.y4Q2gW.ltrans10.ltrans.o
 .rodata.__FUNCTION__.1977
                0x00000000000957f1        0x9 /tmp/Shell.dll.y4Q2gW.ltrans10.ltrans.o
 .rodata.__FUNCTION__.1986
                0x00000000000957fa       0x13 /tmp/Shell.dll.y4Q2gW.ltrans10.ltrans.o
 .rodata.__FUNCTION__.2001
                0x000000000009580d       0x14 /tmp/Shell.dll.y4Q2gW.ltrans10.ltrans.o
 .rodata.__FUNCTION__.2016
                0x0000000000095821        0xf /tmp/Shell.dll.y4Q2gW.ltrans10.ltrans.o
 .rodata.__FUNCTION__.2082
                0x0000000000095830        0xa /tmp/Shell.dll.y4Q2gW.ltrans10.ltrans.o
 .rodata.__FUNCTION__.2090
                0x000000000009583a        0xe /tmp/Shell.dll.y4Q2gW.ltrans10.ltrans.o
 .rodata.__FUNCTION__.2243
                0x0000000000095848       0x16 /tmp/Shell.dll.y4Q2gW.ltrans10.ltrans.o
 .rodata.mEndOfPakageList
                0x000000000009585e        0x4 /tmp/Shell.dll.y4Q2gW.ltrans10.ltrans.o
 .rodata.mHexStr
                0x0000000000095862       0x10 /tmp/Shell.dll.y4Q2gW.ltrans10.ltrans.o
 .rodata.mUefiDevicePathLibEndDevicePath
                0x0000000000095872        0x4 /tmp/Shell.dll.y4Q2gW.ltrans10.ltrans.o
 *fill*         0x0000000000095876        0x2 
 .rodata.mUefiDevicePathLibToTextTable
                0x0000000000095878      0x320 /tmp/Shell.dll.y4Q2gW.ltrans10.ltrans.o
 .rodata.mUefiDevicePathLibToTextTableGeneric
                0x0000000000095b98       0x60 /tmp/Shell.dll.y4Q2gW.ltrans10.ltrans.o
 .rodata.FixFileName.str2.2
                0x0000000000095bf8        0x8 /tmp/Shell.dll.y4Q2gW.ltrans11.ltrans.o
 .rodata.FixVarName.str2.2
                0x0000000000095bf8        0x4 /tmp/Shell.dll.y4Q2gW.ltrans11.ltrans.o
 .rodata.WriteFileTag.str1.1
                0x0000000000095bf8       0x40 /tmp/Shell.dll.y4Q2gW.ltrans11.ltrans.o
                                         0x93 (size before relaxing)
 .rodata.EfiShellGetAlias.str1.1
                0x0000000000095c38       0x45 /tmp/Shell.dll.y4Q2gW.ltrans11.ltrans.o
                                         0x8e (size before relaxing)
 .rodata.EfiShellGetAlias.str2.2
                0x0000000000095c7d        0x4 /tmp/Shell.dll.y4Q2gW.ltrans11.ltrans.o
 .rodata.EfiShellGetHelpText.str1.1
                0x0000000000095c7d       0x19 /tmp/Shell.dll.y4Q2gW.ltrans11.ltrans.o
                                         0xb4 (size before relaxing)
 .rodata.EfiShellGetDevicePathFromMap.str2.2
                0x0000000000095c96        0x4 /tmp/Shell.dll.y4Q2gW.ltrans11.ltrans.o
 .rodata.EfiShellGetEnvEx.str1.1
                0x0000000000095c96       0x26 /tmp/Shell.dll.y4Q2gW.ltrans11.ltrans.o
 .rodata.EfiShellGetCurDir.str2.2
                0x0000000000095cbc        0x8 /tmp/Shell.dll.y4Q2gW.ltrans11.ltrans.o
 .rodata.EfiShellGetCurDir.str1.1
                0x0000000000095cbc       0x4e /tmp/Shell.dll.y4Q2gW.ltrans11.ltrans.o
 .rodata.IsScriptOnlyCommand.str2.2
                0x0000000000095d0a       0x3c /tmp/Shell.dll.y4Q2gW.ltrans11.ltrans.o
 .rodata.GetNextParameter.str2.2
                0x0000000000095d0a        0x6 /tmp/Shell.dll.y4Q2gW.ltrans11.ltrans.o
                                          0xc (size before relaxing)
 .rodata.TrimSpaces.str1.1
                0x0000000000095d10       0x17 /tmp/Shell.dll.y4Q2gW.ltrans11.ltrans.o
                                         0x58 (size before relaxing)
 .rodata.EfiShellRegisterGuidName.str1.1
                0x0000000000095d27        0x7 /tmp/Shell.dll.y4Q2gW.ltrans11.ltrans.o
                                         0x6b (size before relaxing)
 .rodata.EfiShellGetFilePathFromDevicePath.str1.1
                0x0000000000095d2e       0x8f /tmp/Shell.dll.y4Q2gW.ltrans11.ltrans.o
 .rodata.EfiShellGetFilePathFromDevicePath.str2.2
                0x0000000000095dbd        0x4 /tmp/Shell.dll.y4Q2gW.ltrans11.ltrans.o
 .rodata.ContainsSplit.str2.2
                0x0000000000095dbd        0x4 /tmp/Shell.dll.y4Q2gW.ltrans11.ltrans.o
 .rodata.ProcessCommandLineToFinal.str1.1
                0x0000000000095dbd       0x56 /tmp/Shell.dll.y4Q2gW.ltrans11.ltrans.o
 *fill*         0x0000000000095e13        0x1 
 .rodata.ProcessCommandLineToFinal.str2.2
                0x0000000000095e14        0xc /tmp/Shell.dll.y4Q2gW.ltrans11.ltrans.o
                                         0x1c (size before relaxing)
 .rodata.InternalSetAlias.str1.1
                0x0000000000095e20       0x16 /tmp/Shell.dll.y4Q2gW.ltrans11.ltrans.o
 .rodata.EfiShellSetCurDir.str1.1
                0x0000000000095e20       0xae /tmp/Shell.dll.y4Q2gW.ltrans11.ltrans.o
                                         0xf8 (size before relaxing)
 .rodata.EfiShellSetEnv.str2.2
                0x0000000000095ece       0x5c /tmp/Shell.dll.y4Q2gW.ltrans11.ltrans.o
                                         0x82 (size before relaxing)
 .rodata.SetLastError.str2.2
                0x0000000000095f2a       0x2a /tmp/Shell.dll.y4Q2gW.ltrans11.ltrans.o
 .rodata.EfiShellFindFilesInDir.str2.2
                0x0000000000095f2a        0xa /tmp/Shell.dll.y4Q2gW.ltrans11.ltrans.o
 .rodata.EfiShellFindFilesInDir.str1.1
                0x0000000000095f2a       0x50 /tmp/Shell.dll.y4Q2gW.ltrans11.ltrans.o
                                         0xa3 (size before relaxing)
 .rodata.EfiShellOpenFileByName.str2.2
                0x0000000000095f7a       0x12 /tmp/Shell.dll.y4Q2gW.ltrans11.ltrans.o
                                         0x2a (size before relaxing)
 .rodata.EfiShellOpenFileByName.str1.1
                0x0000000000095f8c       0x1c /tmp/Shell.dll.y4Q2gW.ltrans11.ltrans.o
 .rodata.EfiShellFindFiles.str1.1
                0x0000000000095fa8       0x1e /tmp/Shell.dll.y4Q2gW.ltrans11.ltrans.o
 .rodata.EfiShellOpenFileList.str1.1
                0x0000000000095fc6       0x5b /tmp/Shell.dll.y4Q2gW.ltrans11.ltrans.o
 .rodata.RestoreArgcArgv.str1.1
                0x0000000000096021       0x20 /tmp/Shell.dll.y4Q2gW.ltrans11.ltrans.o
 .rodata.ParseCommandLineToArgs.str1.1
                0x0000000000096021       0x11 /tmp/Shell.dll.y4Q2gW.ltrans11.ltrans.o
                                         0x26 (size before relaxing)
 .rodata.InternalShellExecuteDevicePath.str1.1
                0x0000000000096032       0x3d /tmp/Shell.dll.y4Q2gW.ltrans11.ltrans.o
                                         0x72 (size before relaxing)
 .rodata.RunShellCommand.str1.1
                0x000000000009606f       0xc1 /tmp/Shell.dll.y4Q2gW.ltrans11.ltrans.o
 .rodata.RunShellCommand.str2.2
                0x0000000000096130       0xee /tmp/Shell.dll.y4Q2gW.ltrans11.ltrans.o
                                         0xf8 (size before relaxing)
 .rodata.EfiShellExecute.str2.2
                0x000000000009621e       0x22 /tmp/Shell.dll.y4Q2gW.ltrans11.ltrans.o
 .rodata.RunSplitCommand.str1.1
                0x0000000000096240       0xa4 /tmp/Shell.dll.y4Q2gW.ltrans11.ltrans.o
 .rodata.ProcessLibraryDestructorList.str1.1
                0x00000000000962e4       0xa8 /tmp/Shell.dll.y4Q2gW.ltrans11.ltrans.o
 .rodata.mNoNestingEnvVarName
                0x000000000009638c       0x14 /tmp/Shell.dll.y4Q2gW.ltrans11.ltrans.o
                0x000000000009638c                mNoNestingEnvVarName
 .rodata.mNoNestingTrue
                0x00000000000963a0        0xa /tmp/Shell.dll.y4Q2gW.ltrans11.ltrans.o
                0x00000000000963a0                mNoNestingTrue
 .rodata.mScriptExtension
                0x00000000000963aa        0xa /tmp/Shell.dll.y4Q2gW.ltrans11.ltrans.o
 .rodata.ProcessLibraryConstructorList.str1.1
                0x00000000000963b4      0x27b /tmp/Shell.dll.y4Q2gW.ltrans12.ltrans.o
                                        0x318 (size before relaxing)
 *fill*         0x000000000009662f        0x1 
 .rodata.ProcessLibraryConstructorList.str2.2
                0x0000000000096630       0xf8 /tmp/Shell.dll.y4Q2gW.ltrans12.ltrans.o
                                        0x442 (size before relaxing)
 .rodata.__stack_chk_fail.str1.1
                0x0000000000096728       0x2e /tmp/Shell.dll.y4Q2gW.ltrans12.ltrans.o
 .rodata._ModuleEntryPoint.str1.1
                0x0000000000096756      0x1a2 /tmp/Shell.dll.y4Q2gW.ltrans12.ltrans.o
                                        0x2da (size before relaxing)
 .rodata._ModuleEntryPoint.str2.2
                0x00000000000968f8      0x102 /tmp/Shell.dll.y4Q2gW.ltrans12.ltrans.o
                                        0x1b2 (size before relaxing)
 *fill*         0x00000000000969fa        0x6 
 .rodata.ParserList
                0x0000000000096a00      0x130 /tmp/Shell.dll.y4Q2gW.ltrans12.ltrans.o
 .rodata.mStartupScript
                0x0000000000096b30       0x18 /tmp/Shell.dll.y4Q2gW.ltrans12.ltrans.o
 *(.got .got.*)
 .got           0x0000000000096b48        0x8 /home/alastair/pftf-rpi4/edk2/ArmPkg/Library/GccLto/liblto-aarch64.a
                0x0000000000096b48                _GLOBAL_OFFSET_TABLE_
 .got.plt       0x0000000000096b50       0x18 /home/alastair/pftf-rpi4/edk2/ArmPkg/Library/GccLto/liblto-aarch64.a
 *:AutoGen.obj(.data.g*Guid)

.plt            0x0000000000096b68        0x0
 .plt           0x0000000000096b68        0x0 /home/alastair/pftf-rpi4/edk2/ArmPkg/Library/GccLto/liblto-aarch64.a

.data           0x0000000000097000    0x64e08
 *(.data .data.* .gnu.linkonce.d.*)
 .data.rel.ro   0x0000000000097000        0x0 /home/alastair/pftf-rpi4/edk2/ArmPkg/Library/GccLto/liblto-aarch64.a
 .data.SELSysManagementTypesTable
                0x0000000000097000      0x100 /tmp/Shell.dll.y4Q2gW.ltrans0.ltrans.o
 .data.ShellInfoObject
                0x0000000000097100      0x140 /tmp/Shell.dll.y4Q2gW.ltrans0.ltrans.o
                0x0000000000097100                ShellInfoObject
 .data.UefiShellBcfgCommandLibStrings
                0x0000000000097240     0x3034 /tmp/Shell.dll.y4Q2gW.ltrans0.ltrans.o
 .data.gEdkiiVariableLockProtocolGuid
                0x000000000009a274       0x10 /tmp/Shell.dll.y4Q2gW.ltrans0.ltrans.o
 .data.gEfiAdapterInfoMediaStateGuid
                0x000000000009a284       0x10 /tmp/Shell.dll.y4Q2gW.ltrans0.ltrans.o
                0x000000000009a284                gEfiAdapterInfoMediaStateGuid
 .data.gEfiAdapterInformationProtocolGuid
                0x000000000009a294       0x10 /tmp/Shell.dll.y4Q2gW.ltrans0.ltrans.o
                0x000000000009a294                gEfiAdapterInformationProtocolGuid
 .data.gEfiBlockIoProtocolGuid
                0x000000000009a2a4       0x10 /tmp/Shell.dll.y4Q2gW.ltrans0.ltrans.o
                0x000000000009a2a4                gEfiBlockIoProtocolGuid
 .data.gEfiDevicePathProtocolGuid
                0x000000000009a2b4       0x10 /tmp/Shell.dll.y4Q2gW.ltrans0.ltrans.o
                0x000000000009a2b4                gEfiDevicePathProtocolGuid
 .data.gEfiGlobalVariableGuid
                0x000000000009a2c4       0x10 /tmp/Shell.dll.y4Q2gW.ltrans0.ltrans.o
                0x000000000009a2c4                gEfiGlobalVariableGuid
 .data.gEfiHiiPackageListProtocolGuid
                0x000000000009a2d4       0x10 /tmp/Shell.dll.y4Q2gW.ltrans0.ltrans.o
                0x000000000009a2d4                gEfiHiiPackageListProtocolGuid
 .data.gEfiLoadedImageProtocolGuid
                0x000000000009a2e4       0x10 /tmp/Shell.dll.y4Q2gW.ltrans0.ltrans.o
                0x000000000009a2e4                gEfiLoadedImageProtocolGuid
 .data.gEfiShellEnvironment2ExtGuid
                0x000000000009a2f4       0x10 /tmp/Shell.dll.y4Q2gW.ltrans0.ltrans.o
 .data.gEfiShellEnvironment2Guid
                0x000000000009a304       0x10 /tmp/Shell.dll.y4Q2gW.ltrans0.ltrans.o
                0x000000000009a304                gEfiShellEnvironment2Guid
 .data.gEfiShellInterfaceGuid
                0x000000000009a314       0x10 /tmp/Shell.dll.y4Q2gW.ltrans0.ltrans.o
                0x000000000009a314                gEfiShellInterfaceGuid
 .data.gEfiShellParametersProtocolGuid
                0x000000000009a324       0x10 /tmp/Shell.dll.y4Q2gW.ltrans0.ltrans.o
                0x000000000009a324                gEfiShellParametersProtocolGuid
 .data.gEfiShellProtocolGuid
                0x000000000009a334       0x10 /tmp/Shell.dll.y4Q2gW.ltrans0.ltrans.o
                0x000000000009a334                gEfiShellProtocolGuid
 .data.gEfiSimpleNetworkProtocolGuid
                0x000000000009a344       0x10 /tmp/Shell.dll.y4Q2gW.ltrans0.ltrans.o
                0x000000000009a344                gEfiSimpleNetworkProtocolGuid
 .data.gShellBcfgHiiGuid
                0x000000000009a354       0x10 /tmp/Shell.dll.y4Q2gW.ltrans0.ltrans.o
 .data.mShellManHiiDevicePath
                0x000000000009a364       0x18 /tmp/Shell.dll.y4Q2gW.ltrans0.ltrans.o
 .data.ArmSbbrTableCounts
                0x000000000009a37c       0x48 /tmp/Shell.dll.y4Q2gW.ltrans1.ltrans.o
 *fill*         0x000000000009a3c4        0x4 
 .data.McErrorCorrectCapabilityTable
                0x000000000009a3c8       0x60 /tmp/Shell.dll.y4Q2gW.ltrans1.ltrans.o
 .data.McInterleaveSupportTable
                0x000000000009a428       0x70 /tmp/Shell.dll.y4Q2gW.ltrans1.ltrans.o
 .data.MemoryErrorGranularityTable
                0x000000000009a498       0x40 /tmp/Shell.dll.y4Q2gW.ltrans1.ltrans.o
 .data.MemoryErrorOperationTable
                0x000000000009a4d8       0x50 /tmp/Shell.dll.y4Q2gW.ltrans1.ltrans.o
 .data.MemoryErrorTypeTable
                0x000000000009a528       0xe0 /tmp/Shell.dll.y4Q2gW.ltrans1.ltrans.o
 .data.MmMemoryTypeTable
                0x000000000009a608       0xb0 /tmp/Shell.dll.y4Q2gW.ltrans1.ltrans.o
 .data.OnboardDeviceTypesTable
                0x000000000009a6b8       0xa0 /tmp/Shell.dll.y4Q2gW.ltrans1.ltrans.o
 .data.PortConnectorTypeTable
                0x000000000009a758      0x2a0 /tmp/Shell.dll.y4Q2gW.ltrans1.ltrans.o
 .data.SELTypesTable
                0x000000000009a9f8      0x1b0 /tmp/Shell.dll.y4Q2gW.ltrans1.ltrans.o
 .data.SELVarDataFormatTypeTable
                0x000000000009aba8       0x90 /tmp/Shell.dll.y4Q2gW.ltrans1.ltrans.o
 .data.SystemEnclosureStatusTable
                0x000000000009ac38       0x60 /tmp/Shell.dll.y4Q2gW.ltrans1.ltrans.o
 .data.SystemEnclosureTypeTable
                0x000000000009ac98      0x240 /tmp/Shell.dll.y4Q2gW.ltrans1.ltrans.o
 .data.SystemSlotTypeTable
                0x000000000009aed8      0x410 /tmp/Shell.dll.y4Q2gW.ltrans1.ltrans.o
 .data.gEfiAcpiTableGuid
                0x000000000009b2e8       0x10 /tmp/Shell.dll.y4Q2gW.ltrans1.ltrans.o
 .data.gEfiIp4Config2ProtocolGuid
                0x000000000009b2f8       0x10 /tmp/Shell.dll.y4Q2gW.ltrans1.ltrans.o
                0x000000000009b2f8                gEfiIp4Config2ProtocolGuid
 .data.gEfiIp4ProtocolGuid
                0x000000000009b308       0x10 /tmp/Shell.dll.y4Q2gW.ltrans1.ltrans.o
                0x000000000009b308                gEfiIp4ProtocolGuid
 .data.gEfiIp4ServiceBindingProtocolGuid
                0x000000000009b318       0x10 /tmp/Shell.dll.y4Q2gW.ltrans1.ltrans.o
                0x000000000009b318                gEfiIp4ServiceBindingProtocolGuid
 .data.gEfiIp6ConfigProtocolGuid
                0x000000000009b328       0x10 /tmp/Shell.dll.y4Q2gW.ltrans1.ltrans.o
                0x000000000009b328                gEfiIp6ConfigProtocolGuid
 .data.gEfiIp6ProtocolGuid
                0x000000000009b338       0x10 /tmp/Shell.dll.y4Q2gW.ltrans1.ltrans.o
                0x000000000009b338                gEfiIp6ProtocolGuid
 .data.gEfiIp6ServiceBindingProtocolGuid
                0x000000000009b348       0x10 /tmp/Shell.dll.y4Q2gW.ltrans1.ltrans.o
                0x000000000009b348                gEfiIp6ServiceBindingProtocolGuid
 .data.mIfConfigCheckList
                0x000000000009b358       0x60 /tmp/Shell.dll.y4Q2gW.ltrans1.ltrans.o
 .data.mSetCheckList
                0x000000000009b3b8       0x60 /tmp/Shell.dll.y4Q2gW.ltrans1.ltrans.o
 .data.BaseBoardBoardTypeTable
                0x000000000009b418       0xd0 /tmp/Shell.dll.y4Q2gW.ltrans2.ltrans.o
 .data.BaseBoardFeatureFlagsTable
                0x000000000009b4e8       0x50 /tmp/Shell.dll.y4Q2gW.ltrans2.ltrans.o
 .data.CacheAssociativityTable
                0x000000000009b538       0xe0 /tmp/Shell.dll.y4Q2gW.ltrans2.ltrans.o
 .data.CacheErrCorrectingTypeTable
                0x000000000009b618       0x60 /tmp/Shell.dll.y4Q2gW.ltrans2.ltrans.o
 .data.CacheSRAMTypeTable
                0x000000000009b678       0x70 /tmp/Shell.dll.y4Q2gW.ltrans2.ltrans.o
 .data.CacheSystemCacheTypeTable
                0x000000000009b6e8       0x50 /tmp/Shell.dll.y4Q2gW.ltrans2.ltrans.o
 .data.CoolingDeviceStatusTable
                0x000000000009b738       0x60 /tmp/Shell.dll.y4Q2gW.ltrans2.ltrans.o
 .data.CoolingDeviceTypeTable
                0x000000000009b798       0xb0 /tmp/Shell.dll.y4Q2gW.ltrans2.ltrans.o
 .data.ECPLocTable
                0x000000000009b848       0xb0 /tmp/Shell.dll.y4Q2gW.ltrans2.ltrans.o
 .data.ECPStatusTable
                0x000000000009b8f8       0x60 /tmp/Shell.dll.y4Q2gW.ltrans2.ltrans.o
 .data.IPMIDIBMCInterfaceTypeTable
                0x000000000009b958       0x60 /tmp/Shell.dll.y4Q2gW.ltrans2.ltrans.o
 .data.MCHostInterfaceTypeTable
                0x000000000009b9b8       0x30 /tmp/Shell.dll.y4Q2gW.ltrans2.ltrans.o
 .data.MDAddressTypeTable
                0x000000000009b9e8       0x50 /tmp/Shell.dll.y4Q2gW.ltrans2.ltrans.o
 .data.MDTypeTable
                0x000000000009ba38       0xd0 /tmp/Shell.dll.y4Q2gW.ltrans2.ltrans.o
 .data.McErrorDetectMethodTable
                0x000000000009bb08       0x80 /tmp/Shell.dll.y4Q2gW.ltrans2.ltrans.o
 .data.McMemorySpeedsTable
                0x000000000009bb88       0x50 /tmp/Shell.dll.y4Q2gW.ltrans2.ltrans.o
 .data.MemoryChannelTypeTable
                0x000000000009bbd8       0x40 /tmp/Shell.dll.y4Q2gW.ltrans2.ltrans.o
 .data.MemoryDeviceFormFactorTable
                0x000000000009bc18      0x100 /tmp/Shell.dll.y4Q2gW.ltrans2.ltrans.o
 .data.MemoryDeviceMemoryOperatingModeCapabilityTable
                0x000000000009bd18       0x50 /tmp/Shell.dll.y4Q2gW.ltrans2.ltrans.o
 .data.MemoryDeviceMemoryTechnologyTable
                0x000000000009bd68       0x70 /tmp/Shell.dll.y4Q2gW.ltrans2.ltrans.o
 .data.MemoryDeviceTypeDetailTable
                0x000000000009bdd8       0xe0 /tmp/Shell.dll.y4Q2gW.ltrans2.ltrans.o
 .data.MemoryDeviceTypeTable
                0x000000000009beb8      0x200 /tmp/Shell.dll.y4Q2gW.ltrans2.ltrans.o
 .data.MemoryModuleVoltageTable
                0x000000000009c0b8       0x30 /tmp/Shell.dll.y4Q2gW.ltrans2.ltrans.o
 .data.MmErrorStatusTable
                0x000000000009c0e8       0x30 /tmp/Shell.dll.y4Q2gW.ltrans2.ltrans.o
 .data.PBDeviceChemistryTable
                0x000000000009c118       0x80 /tmp/Shell.dll.y4Q2gW.ltrans2.ltrans.o
 .data.PMAErrorCorrectionTypesTable
                0x000000000009c198       0x70 /tmp/Shell.dll.y4Q2gW.ltrans2.ltrans.o
 .data.PMALocationTable
                0x000000000009c208       0xf0 /tmp/Shell.dll.y4Q2gW.ltrans2.ltrans.o
 .data.PMAUseTable
                0x000000000009c2f8       0x70 /tmp/Shell.dll.y4Q2gW.ltrans2.ltrans.o
 .data.PointingDeviceInterfaceTable
                0x000000000009c368       0xb0 /tmp/Shell.dll.y4Q2gW.ltrans2.ltrans.o
 .data.PointingDeviceTypeTable
                0x000000000009c418       0x70 /tmp/Shell.dll.y4Q2gW.ltrans2.ltrans.o
 .data.PortTypeTable
                0x000000000009c488      0x270 /tmp/Shell.dll.y4Q2gW.ltrans2.ltrans.o
 .data.PostResultsBitmapDw1Table
                0x000000000009c6f8      0x200 /tmp/Shell.dll.y4Q2gW.ltrans2.ltrans.o
 .data.PostResultsBitmapDw2Table
                0x000000000009c8f8      0x200 /tmp/Shell.dll.y4Q2gW.ltrans2.ltrans.o
 .data.ProcessorArchitectureTypesTable
                0x000000000009caf8       0x90 /tmp/Shell.dll.y4Q2gW.ltrans2.ltrans.o
 .data.ProcessorCharacteristicsTable
                0x000000000009cb88       0x90 /tmp/Shell.dll.y4Q2gW.ltrans2.ltrans.o
 .data.ProcessorTypeTable
                0x000000000009cc18       0x60 /tmp/Shell.dll.y4Q2gW.ltrans2.ltrans.o
 .data.ProcessorUpgradeTable
                0x000000000009cc78      0x3c0 /tmp/Shell.dll.y4Q2gW.ltrans2.ltrans.o
 .data.SESecurityStatusTable
                0x000000000009d038       0x50 /tmp/Shell.dll.y4Q2gW.ltrans2.ltrans.o
 .data.SlotCharacteristics1Table
                0x000000000009d088       0x80 /tmp/Shell.dll.y4Q2gW.ltrans2.ltrans.o
 .data.SlotCharacteristics2Table
                0x000000000009d108       0x40 /tmp/Shell.dll.y4Q2gW.ltrans2.ltrans.o
 .data.StructureTypeInfoTable
                0x000000000009d148      0x2f0 /tmp/Shell.dll.y4Q2gW.ltrans2.ltrans.o
 .data.SystemSlotCurrentUsageTable
                0x000000000009d438       0x50 /tmp/Shell.dll.y4Q2gW.ltrans2.ltrans.o
 .data.SystemSlotDataBusWidthTable
                0x000000000009d488       0xe0 /tmp/Shell.dll.y4Q2gW.ltrans2.ltrans.o
 .data.SystemSlotLengthTable
                0x000000000009d568       0x40 /tmp/Shell.dll.y4Q2gW.ltrans2.ltrans.o
 .data.SystemWakeupTypeTable
                0x000000000009d5a8       0x80 /tmp/Shell.dll.y4Q2gW.ltrans2.ltrans.o
 .data.TemperatureProbeLocTable
                0x000000000009d628       0xb0 /tmp/Shell.dll.y4Q2gW.ltrans2.ltrans.o
 .data.TemperatureProbeStatusTable
                0x000000000009d6d8       0x60 /tmp/Shell.dll.y4Q2gW.ltrans2.ltrans.o
 .data.VPLocationTable
                0x000000000009d738       0x60 /tmp/Shell.dll.y4Q2gW.ltrans2.ltrans.o
 .data.VPStatusTable
                0x000000000009d798       0xb0 /tmp/Shell.dll.y4Q2gW.ltrans2.ltrans.o
 .data.EmptyParamList
                0x000000000009d848       0x10 /tmp/Shell.dll.y4Q2gW.ltrans3.ltrans.o
                0x000000000009d848                EmptyParamList
 .data.gEfiPciRootBridgeIoProtocolGuid
                0x000000000009d858       0x10 /tmp/Shell.dll.y4Q2gW.ltrans3.ltrans.o
                0x000000000009d858                gEfiPciRootBridgeIoProtocolGuid
 .data.gEfiSmbios3TableGuid
                0x000000000009d868       0x10 /tmp/Shell.dll.y4Q2gW.ltrans3.ltrans.o
                0x000000000009d868                gEfiSmbios3TableGuid
 .data.gEfiSmbiosTableGuid
                0x000000000009d878       0x10 /tmp/Shell.dll.y4Q2gW.ltrans3.ltrans.o
                0x000000000009d878                gEfiSmbiosTableGuid
 .data.gShowType
                0x000000000009d888        0x1 /tmp/Shell.dll.y4Q2gW.ltrans3.ltrans.o
 *fill*         0x000000000009d889        0x7 
 .data.PCIBlankEntry
                0x000000000009d890       0x30 /tmp/Shell.dll.y4Q2gW.ltrans4.ltrans.o
 .data.PCIPIFClass_0100
                0x000000000009d8c0       0x90 /tmp/Shell.dll.y4Q2gW.ltrans4.ltrans.o
 .data.PCIPIFClass_0101
                0x000000000009d950      0x318 /tmp/Shell.dll.y4Q2gW.ltrans4.ltrans.o
 .data.PCIPIFClass_0105
                0x000000000009dc68       0x48 /tmp/Shell.dll.y4Q2gW.ltrans4.ltrans.o
 .data.PCIPIFClass_0106
                0x000000000009dcb0       0x60 /tmp/Shell.dll.y4Q2gW.ltrans4.ltrans.o
 .data.PCIPIFClass_0107
                0x000000000009dd10       0x48 /tmp/Shell.dll.y4Q2gW.ltrans4.ltrans.o
 .data.PCIPIFClass_0108
                0x000000000009dd58       0x60 /tmp/Shell.dll.y4Q2gW.ltrans4.ltrans.o
 .data.PCIPIFClass_0109
                0x000000000009ddb8       0x48 /tmp/Shell.dll.y4Q2gW.ltrans4.ltrans.o
 .data.PCIPIFClass_0300
                0x000000000009de00       0x48 /tmp/Shell.dll.y4Q2gW.ltrans4.ltrans.o
 .data.PCIPIFClass_0604
                0x000000000009de48       0x48 /tmp/Shell.dll.y4Q2gW.ltrans4.ltrans.o
 .data.PCIPIFClass_0609
                0x000000000009de90       0x48 /tmp/Shell.dll.y4Q2gW.ltrans4.ltrans.o
 .data.PCIPIFClass_060b
                0x000000000009ded8       0x48 /tmp/Shell.dll.y4Q2gW.ltrans4.ltrans.o
 .data.PCIPIFClass_0700
                0x000000000009df20       0xc0 /tmp/Shell.dll.y4Q2gW.ltrans4.ltrans.o
 .data.PCIPIFClass_0701
                0x000000000009dfe0       0x90 /tmp/Shell.dll.y4Q2gW.ltrans4.ltrans.o
 .data.PCIPIFClass_0703
                0x000000000009e070       0x90 /tmp/Shell.dll.y4Q2gW.ltrans4.ltrans.o
 .data.PCIPIFClass_0800
                0x000000000009e100       0x90 /tmp/Shell.dll.y4Q2gW.ltrans4.ltrans.o
 .data.PCIPIFClass_0801
                0x000000000009e190       0x60 /tmp/Shell.dll.y4Q2gW.ltrans4.ltrans.o
 .data.PCIPIFClass_0802
                0x000000000009e1f0       0x60 /tmp/Shell.dll.y4Q2gW.ltrans4.ltrans.o
 .data.PCIPIFClass_0803
                0x000000000009e250       0x60 /tmp/Shell.dll.y4Q2gW.ltrans4.ltrans.o
 .data.PCIPIFClass_0904
                0x000000000009e2b0       0x48 /tmp/Shell.dll.y4Q2gW.ltrans4.ltrans.o
 .data.PCIPIFClass_0c00
                0x000000000009e2f8       0x48 /tmp/Shell.dll.y4Q2gW.ltrans4.ltrans.o
 .data.PCIPIFClass_0c03
                0x000000000009e340       0xa8 /tmp/Shell.dll.y4Q2gW.ltrans4.ltrans.o
 .data.PCIPIFClass_0c07
                0x000000000009e3e8       0x60 /tmp/Shell.dll.y4Q2gW.ltrans4.ltrans.o
 .data.PCIPIFClass_0d01
                0x000000000009e448       0x48 /tmp/Shell.dll.y4Q2gW.ltrans4.ltrans.o
 .data.PCIPIFClass_0e00
                0x000000000009e490       0x48 /tmp/Shell.dll.y4Q2gW.ltrans4.ltrans.o
 .data.PCISubClass_00
                0x000000000009e4d8       0x48 /tmp/Shell.dll.y4Q2gW.ltrans4.ltrans.o
 .data.PCISubClass_01
                0x000000000009e520      0x120 /tmp/Shell.dll.y4Q2gW.ltrans4.ltrans.o
 .data.PCISubClass_02
                0x000000000009e640       0xf0 /tmp/Shell.dll.y4Q2gW.ltrans4.ltrans.o
 .data.PCISubClass_03
                0x000000000009e730       0x78 /tmp/Shell.dll.y4Q2gW.ltrans4.ltrans.o
 .data.PCISubClass_04
                0x000000000009e7a8       0x90 /tmp/Shell.dll.y4Q2gW.ltrans4.ltrans.o
 .data.PCISubClass_05
                0x000000000009e838       0x60 /tmp/Shell.dll.y4Q2gW.ltrans4.ltrans.o
 .data.PCISubClass_06
                0x000000000009e898      0x150 /tmp/Shell.dll.y4Q2gW.ltrans4.ltrans.o
 .data.PCISubClass_07
                0x000000000009e9e8       0xc0 /tmp/Shell.dll.y4Q2gW.ltrans4.ltrans.o
 .data.PCISubClass_08
                0x000000000009eaa8       0xf0 /tmp/Shell.dll.y4Q2gW.ltrans4.ltrans.o
 .data.PCISubClass_09
                0x000000000009eb98       0xa8 /tmp/Shell.dll.y4Q2gW.ltrans4.ltrans.o
 .data.PCISubClass_0a
                0x000000000009ec40       0x48 /tmp/Shell.dll.y4Q2gW.ltrans4.ltrans.o
 .data.PCISubClass_0b
                0x000000000009ec88       0xd8 /tmp/Shell.dll.y4Q2gW.ltrans4.ltrans.o
 .data.PCISubClass_0c
                0x000000000009ed60      0x120 /tmp/Shell.dll.y4Q2gW.ltrans4.ltrans.o
 .data.PCISubClass_0d
                0x000000000009ee80       0xd8 /tmp/Shell.dll.y4Q2gW.ltrans4.ltrans.o
 .data.PCISubClass_0e
                0x000000000009ef58       0x30 /tmp/Shell.dll.y4Q2gW.ltrans4.ltrans.o
 .data.PCISubClass_0f
                0x000000000009ef88       0x90 /tmp/Shell.dll.y4Q2gW.ltrans4.ltrans.o
 .data.PCISubClass_10
                0x000000000009f018       0x60 /tmp/Shell.dll.y4Q2gW.ltrans4.ltrans.o
 .data.PCISubClass_11
                0x000000000009f078       0x90 /tmp/Shell.dll.y4Q2gW.ltrans4.ltrans.o
 .data.PCISubClass_12
                0x000000000009f108       0x30 /tmp/Shell.dll.y4Q2gW.ltrans4.ltrans.o
 .data.PCISubClass_13
                0x000000000009f138       0x30 /tmp/Shell.dll.y4Q2gW.ltrans4.ltrans.o
 .data.SfoParamList
                0x000000000009f168       0x20 /tmp/Shell.dll.y4Q2gW.ltrans4.ltrans.o
                0x000000000009f168                SfoParamList
 .data.gClassStringList
                0x000000000009f188      0x210 /tmp/Shell.dll.y4Q2gW.ltrans4.ltrans.o
 .data.gEfiAcpi10TableGuid
                0x000000000009f398       0x10 /tmp/Shell.dll.y4Q2gW.ltrans4.ltrans.o
 .data.gEfiAcpi20TableGuid
                0x000000000009f3a8       0x10 /tmp/Shell.dll.y4Q2gW.ltrans4.ltrans.o
 .data.gEfiCpuIo2ProtocolGuid
                0x000000000009f3b8       0x10 /tmp/Shell.dll.y4Q2gW.ltrans4.ltrans.o
                0x000000000009f3b8                gEfiCpuIo2ProtocolGuid
 .data.gEfiDecompressProtocolGuid
                0x000000000009f3c8       0x10 /tmp/Shell.dll.y4Q2gW.ltrans4.ltrans.o
                0x000000000009f3c8                gEfiDecompressProtocolGuid
 .data.gEfiMpsTableGuid
                0x000000000009f3d8       0x10 /tmp/Shell.dll.y4Q2gW.ltrans4.ltrans.o
 .data.gEfiSerialIoProtocolGuid
                0x000000000009f3e8       0x10 /tmp/Shell.dll.y4Q2gW.ltrans4.ltrans.o
                0x000000000009f3e8                gEfiSerialIoProtocolGuid
 .data.CfgGuidList
                0x000000000009f3f8       0x18 /tmp/Shell.dll.y4Q2gW.ltrans5.ltrans.o
 .data.FileBufferConst
                0x000000000009f410       0x78 /tmp/Shell.dll.y4Q2gW.ltrans5.ltrans.o
 .data.HBufferImageConst
                0x000000000009f488       0x78 /tmp/Shell.dll.y4Q2gW.ltrans5.ltrans.o
 .data.HMainEditorConst
                0x000000000009f500       0x50 /tmp/Shell.dll.y4Q2gW.ltrans5.ltrans.o
 .data.HexMainControlBasedMenuFunctions
                0x000000000009f550       0xd8 /tmp/Shell.dll.y4Q2gW.ltrans5.ltrans.o
 .data.MainControlBasedMenuFunctions
                0x000000000009f628       0xd8 /tmp/Shell.dll.y4Q2gW.ltrans5.ltrans.o
 .data.MainEditorConst
                0x000000000009f700       0x48 /tmp/Shell.dll.y4Q2gW.ltrans5.ltrans.o
 .data.MainMenuItems
                0x000000000009f748       0xb0 /tmp/Shell.dll.y4Q2gW.ltrans5.ltrans.o
 .data.gEfiDriverConfiguration2ProtocolGuid
                0x000000000009f7f8       0x10 /tmp/Shell.dll.y4Q2gW.ltrans5.ltrans.o
                0x000000000009f7f8                gEfiDriverConfiguration2ProtocolGuid
 .data.gEfiDriverConfigurationProtocolGuid
                0x000000000009f808       0x10 /tmp/Shell.dll.y4Q2gW.ltrans5.ltrans.o
                0x000000000009f808                gEfiDriverConfigurationProtocolGuid
 .data.gEfiHiiConfigAccessProtocolGuid
                0x000000000009f818       0x10 /tmp/Shell.dll.y4Q2gW.ltrans5.ltrans.o
                0x000000000009f818                gEfiHiiConfigAccessProtocolGuid
 .data.gEfiHiiDatabaseProtocolGuid
                0x000000000009f828       0x10 /tmp/Shell.dll.y4Q2gW.ltrans5.ltrans.o
                0x000000000009f828                gEfiHiiDatabaseProtocolGuid
 .data.gEfiSimplePointerProtocolGuid
                0x000000000009f838       0x10 /tmp/Shell.dll.y4Q2gW.ltrans5.ltrans.o
                0x000000000009f838                gEfiSimplePointerProtocolGuid
 .data.gEfiSimpleTextInputExProtocolGuid
                0x000000000009f848       0x10 /tmp/Shell.dll.y4Q2gW.ltrans5.ltrans.o
                0x000000000009f848                gEfiSimpleTextInputExProtocolGuid
 .data.DiagGuidList
                0x000000000009f858       0x18 /tmp/Shell.dll.y4Q2gW.ltrans6.ltrans.o
 .data.gEfiComponentName2ProtocolGuid
                0x000000000009f870       0x10 /tmp/Shell.dll.y4Q2gW.ltrans6.ltrans.o
                0x000000000009f870                gEfiComponentName2ProtocolGuid
 .data.gEfiComponentNameProtocolGuid
                0x000000000009f880       0x10 /tmp/Shell.dll.y4Q2gW.ltrans6.ltrans.o
                0x000000000009f880                gEfiComponentNameProtocolGuid
 .data.gEfiDriverBindingProtocolGuid
                0x000000000009f890       0x10 /tmp/Shell.dll.y4Q2gW.ltrans6.ltrans.o
                0x000000000009f890                gEfiDriverBindingProtocolGuid
 .data.gEfiDriverDiagnostics2ProtocolGuid
                0x000000000009f8a0       0x10 /tmp/Shell.dll.y4Q2gW.ltrans6.ltrans.o
                0x000000000009f8a0                gEfiDriverDiagnostics2ProtocolGuid
 .data.gEfiDriverDiagnosticsProtocolGuid
                0x000000000009f8b0       0x10 /tmp/Shell.dll.y4Q2gW.ltrans6.ltrans.o
                0x000000000009f8b0                gEfiDriverDiagnosticsProtocolGuid
 .data.gEfiFirmwareVolume2ProtocolGuid
                0x000000000009f8c0       0x10 /tmp/Shell.dll.y4Q2gW.ltrans6.ltrans.o
                0x000000000009f8c0                gEfiFirmwareVolume2ProtocolGuid
 .data.gEfiPciIoProtocolGuid
                0x000000000009f8d0       0x10 /tmp/Shell.dll.y4Q2gW.ltrans6.ltrans.o
                0x000000000009f8d0                gEfiPciIoProtocolGuid
 .data.gEfiShellDynamicCommandProtocolGuid
                0x000000000009f8e0       0x10 /tmp/Shell.dll.y4Q2gW.ltrans6.ltrans.o
                0x000000000009f8e0                gEfiShellDynamicCommandProtocolGuid
 .data.gEfiFileSystemInfoGuid
                0x000000000009f8f0       0x10 /tmp/Shell.dll.y4Q2gW.ltrans7.ltrans.o
                0x000000000009f8f0                gEfiFileSystemInfoGuid
 .data.gEfiSasDevicePathGuid
                0x000000000009f900       0x10 /tmp/Shell.dll.y4Q2gW.ltrans8.ltrans.o
                0x000000000009f900                gEfiSasDevicePathGuid
 .data.gEfiSimpleFileSystemProtocolGuid
                0x000000000009f910       0x10 /tmp/Shell.dll.y4Q2gW.ltrans8.ltrans.o
                0x000000000009f910                gEfiSimpleFileSystemProtocolGuid
 .data.gEfiUsbIoProtocolGuid
                0x000000000009f920       0x10 /tmp/Shell.dll.y4Q2gW.ltrans8.ltrans.o
                0x000000000009f920                gEfiUsbIoProtocolGuid
 .data.mDayOfMonth
                0x000000000009f930       0x60 /tmp/Shell.dll.y4Q2gW.ltrans8.ltrans.o
 .data.UefiHandleParsingLibStrings
                0x000000000009f990     0x45d1 /tmp/Shell.dll.y4Q2gW.ltrans9.ltrans.o
 *fill*         0x00000000000a3f61        0x3 
 .data.gEfiAbsolutePointerProtocolGuid
                0x00000000000a3f64       0x10 /tmp/Shell.dll.y4Q2gW.ltrans9.ltrans.o
 .data.gEfiAcpiSdtProtocolGuid
                0x00000000000a3f74       0x10 /tmp/Shell.dll.y4Q2gW.ltrans9.ltrans.o
 .data.gEfiAcpiTableProtocolGuid
                0x00000000000a3f84       0x10 /tmp/Shell.dll.y4Q2gW.ltrans9.ltrans.o
 .data.gEfiAdapterInfoNetworkBootGuid
                0x00000000000a3f94       0x10 /tmp/Shell.dll.y4Q2gW.ltrans9.ltrans.o
 .data.gEfiAdapterInfoSanMacAddressGuid
                0x00000000000a3fa4       0x10 /tmp/Shell.dll.y4Q2gW.ltrans9.ltrans.o
 .data.gEfiAdapterInfoUndiIpv6SupportGuid
                0x00000000000a3fb4       0x10 /tmp/Shell.dll.y4Q2gW.ltrans9.ltrans.o
 .data.gEfiArpProtocolGuid
                0x00000000000a3fc4       0x10 /tmp/Shell.dll.y4Q2gW.ltrans9.ltrans.o
 .data.gEfiArpServiceBindingProtocolGuid
                0x00000000000a3fd4       0x10 /tmp/Shell.dll.y4Q2gW.ltrans9.ltrans.o
 .data.gEfiAtaPassThruProtocolGuid
                0x00000000000a3fe4       0x10 /tmp/Shell.dll.y4Q2gW.ltrans9.ltrans.o
 .data.gEfiAuthenticationInfoProtocolGuid
                0x00000000000a3ff4       0x10 /tmp/Shell.dll.y4Q2gW.ltrans9.ltrans.o
 .data.gEfiBdsArchProtocolGuid
                0x00000000000a4004       0x10 /tmp/Shell.dll.y4Q2gW.ltrans9.ltrans.o
 .data.gEfiBisProtocolGuid
                0x00000000000a4014       0x10 /tmp/Shell.dll.y4Q2gW.ltrans9.ltrans.o
 .data.gEfiBlockIo2ProtocolGuid
                0x00000000000a4024       0x10 /tmp/Shell.dll.y4Q2gW.ltrans9.ltrans.o
 .data.gEfiBlockIoCryptoProtocolGuid
                0x00000000000a4034       0x10 /tmp/Shell.dll.y4Q2gW.ltrans9.ltrans.o
 .data.gEfiBluetoothAttributeProtocolGuid
                0x00000000000a4044       0x10 /tmp/Shell.dll.y4Q2gW.ltrans9.ltrans.o
 .data.gEfiBluetoothAttributeServiceBindingProtocolGuid
                0x00000000000a4054       0x10 /tmp/Shell.dll.y4Q2gW.ltrans9.ltrans.o
 .data.gEfiBluetoothConfigProtocolGuid
                0x00000000000a4064       0x10 /tmp/Shell.dll.y4Q2gW.ltrans9.ltrans.o
 .data.gEfiBluetoothHcProtocolGuid
                0x00000000000a4074       0x10 /tmp/Shell.dll.y4Q2gW.ltrans9.ltrans.o
 .data.gEfiBluetoothIoProtocolGuid
                0x00000000000a4084       0x10 /tmp/Shell.dll.y4Q2gW.ltrans9.ltrans.o
 .data.gEfiBluetoothIoServiceBindingProtocolGuid
                0x00000000000a4094       0x10 /tmp/Shell.dll.y4Q2gW.ltrans9.ltrans.o
 .data.gEfiBluetoothLeConfigProtocolGuid
                0x00000000000a40a4       0x10 /tmp/Shell.dll.y4Q2gW.ltrans9.ltrans.o
 .data.gEfiBootManagerPolicyProtocolGuid
                0x00000000000a40b4       0x10 /tmp/Shell.dll.y4Q2gW.ltrans9.ltrans.o
 .data.gEfiBusSpecificDriverOverrideProtocolGuid
                0x00000000000a40c4       0x10 /tmp/Shell.dll.y4Q2gW.ltrans9.ltrans.o
 .data.gEfiCapsuleArchProtocolGuid
                0x00000000000a40d4       0x10 /tmp/Shell.dll.y4Q2gW.ltrans9.ltrans.o
 .data.gEfiConfigKeywordHandlerProtocolGuid
                0x00000000000a40e4       0x10 /tmp/Shell.dll.y4Q2gW.ltrans9.ltrans.o
 .data.gEfiConsoleInDeviceGuid
                0x00000000000a40f4       0x10 /tmp/Shell.dll.y4Q2gW.ltrans9.ltrans.o
 .data.gEfiConsoleOutDeviceGuid
                0x00000000000a4104       0x10 /tmp/Shell.dll.y4Q2gW.ltrans9.ltrans.o
 .data.gEfiCpuArchProtocolGuid
                0x00000000000a4114       0x10 /tmp/Shell.dll.y4Q2gW.ltrans9.ltrans.o
 .data.gEfiDebugPortProtocolGuid
                0x00000000000a4124       0x10 /tmp/Shell.dll.y4Q2gW.ltrans9.ltrans.o
                0x00000000000a4124                gEfiDebugPortProtocolGuid
 .data.gEfiDebugSupportProtocolGuid
                0x00000000000a4134       0x10 /tmp/Shell.dll.y4Q2gW.ltrans9.ltrans.o
 .data.gEfiDeferredImageLoadProtocolGuid
                0x00000000000a4144       0x10 /tmp/Shell.dll.y4Q2gW.ltrans9.ltrans.o
 .data.gEfiDeviceIoProtocolGuid
                0x00000000000a4154       0x10 /tmp/Shell.dll.y4Q2gW.ltrans9.ltrans.o
 .data.gEfiDevicePathFromTextProtocolGuid
                0x00000000000a4164       0x10 /tmp/Shell.dll.y4Q2gW.ltrans9.ltrans.o
 .data.gEfiDevicePathToTextProtocolGuid
                0x00000000000a4174       0x10 /tmp/Shell.dll.y4Q2gW.ltrans9.ltrans.o
 .data.gEfiDevicePathUtilitiesProtocolGuid
                0x00000000000a4184       0x10 /tmp/Shell.dll.y4Q2gW.ltrans9.ltrans.o
 .data.gEfiDhcp4ProtocolGuid
                0x00000000000a4194       0x10 /tmp/Shell.dll.y4Q2gW.ltrans9.ltrans.o
 .data.gEfiDhcp4ServiceBindingProtocolGuid
                0x00000000000a41a4       0x10 /tmp/Shell.dll.y4Q2gW.ltrans9.ltrans.o
 .data.gEfiDhcp6ProtocolGuid
                0x00000000000a41b4       0x10 /tmp/Shell.dll.y4Q2gW.ltrans9.ltrans.o
 .data.gEfiDhcp6ServiceBindingProtocolGuid
                0x00000000000a41c4       0x10 /tmp/Shell.dll.y4Q2gW.ltrans9.ltrans.o
 .data.gEfiDiskInfoProtocolGuid
                0x00000000000a41d4       0x10 /tmp/Shell.dll.y4Q2gW.ltrans9.ltrans.o
 .data.gEfiDiskIo2ProtocolGuid
                0x00000000000a41e4       0x10 /tmp/Shell.dll.y4Q2gW.ltrans9.ltrans.o
 .data.gEfiDiskIoProtocolGuid
                0x00000000000a41f4       0x10 /tmp/Shell.dll.y4Q2gW.ltrans9.ltrans.o
 .data.gEfiDns4ProtocolGuid
                0x00000000000a4204       0x10 /tmp/Shell.dll.y4Q2gW.ltrans9.ltrans.o
 .data.gEfiDns4ServiceBindingProtocolGuid
                0x00000000000a4214       0x10 /tmp/Shell.dll.y4Q2gW.ltrans9.ltrans.o
 .data.gEfiDns6ProtocolGuid
                0x00000000000a4224       0x10 /tmp/Shell.dll.y4Q2gW.ltrans9.ltrans.o
 .data.gEfiDns6ServiceBindingProtocolGuid
                0x00000000000a4234       0x10 /tmp/Shell.dll.y4Q2gW.ltrans9.ltrans.o
 .data.gEfiDriverFamilyOverrideProtocolGuid
                0x00000000000a4244       0x10 /tmp/Shell.dll.y4Q2gW.ltrans9.ltrans.o
 .data.gEfiDriverHealthProtocolGuid
                0x00000000000a4254       0x10 /tmp/Shell.dll.y4Q2gW.ltrans9.ltrans.o
 .data.gEfiDriverSupportedEfiVersionProtocolGuid
                0x00000000000a4264       0x10 /tmp/Shell.dll.y4Q2gW.ltrans9.ltrans.o
 .data.gEfiDxeMmReadyToLockProtocolGuid
                0x00000000000a4274       0x10 /tmp/Shell.dll.y4Q2gW.ltrans9.ltrans.o
 .data.gEfiDxeSmmReadyToLockProtocolGuid
                0x00000000000a4284       0x10 /tmp/Shell.dll.y4Q2gW.ltrans9.ltrans.o
 .data.gEfiEapConfigurationProtocolGuid
                0x00000000000a4294       0x10 /tmp/Shell.dll.y4Q2gW.ltrans9.ltrans.o
 .data.gEfiEapManagement2ProtocolGuid
                0x00000000000a42a4       0x10 /tmp/Shell.dll.y4Q2gW.ltrans9.ltrans.o
 .data.gEfiEapManagementProtocolGuid
                0x00000000000a42b4       0x10 /tmp/Shell.dll.y4Q2gW.ltrans9.ltrans.o
 .data.gEfiEapProtocolGuid
                0x00000000000a42c4       0x10 /tmp/Shell.dll.y4Q2gW.ltrans9.ltrans.o
 .data.gEfiEbcProtocolGuid
                0x00000000000a42d4       0x10 /tmp/Shell.dll.y4Q2gW.ltrans9.ltrans.o
 .data.gEfiEdidActiveProtocolGuid
                0x00000000000a42e4       0x10 /tmp/Shell.dll.y4Q2gW.ltrans9.ltrans.o
 .data.gEfiEdidDiscoveredProtocolGuid
                0x00000000000a42f4       0x10 /tmp/Shell.dll.y4Q2gW.ltrans9.ltrans.o
 .data.gEfiEdidOverrideProtocolGuid
                0x00000000000a4304       0x10 /tmp/Shell.dll.y4Q2gW.ltrans9.ltrans.o
 .data.gEfiEraseBlockProtocolGuid
                0x00000000000a4314       0x10 /tmp/Shell.dll.y4Q2gW.ltrans9.ltrans.o
 .data.gEfiExtScsiPassThruProtocolGuid
                0x00000000000a4324       0x10 /tmp/Shell.dll.y4Q2gW.ltrans9.ltrans.o
 .data.gEfiFileInfoGuid
                0x00000000000a4334       0x10 /tmp/Shell.dll.y4Q2gW.ltrans9.ltrans.o
                0x00000000000a4334                gEfiFileInfoGuid
 .data.gEfiFirmwareManagementProtocolGuid
                0x00000000000a4344       0x10 /tmp/Shell.dll.y4Q2gW.ltrans9.ltrans.o
 .data.gEfiFirmwareVolumeBlock2ProtocolGuid
                0x00000000000a4354       0x10 /tmp/Shell.dll.y4Q2gW.ltrans9.ltrans.o
 .data.gEfiFirmwareVolumeBlockProtocolGuid
                0x00000000000a4364       0x10 /tmp/Shell.dll.y4Q2gW.ltrans9.ltrans.o
 .data.gEfiFormBrowser2ProtocolGuid
                0x00000000000a4374       0x10 /tmp/Shell.dll.y4Q2gW.ltrans9.ltrans.o
 .data.gEfiFtp4ProtocolGuid
                0x00000000000a4384       0x10 /tmp/Shell.dll.y4Q2gW.ltrans9.ltrans.o
 .data.gEfiFtp4ServiceBindingProtocolGuid
                0x00000000000a4394       0x10 /tmp/Shell.dll.y4Q2gW.ltrans9.ltrans.o
 .data.gEfiGetPcdInfoProtocolGuid
                0x00000000000a43a4       0x10 /tmp/Shell.dll.y4Q2gW.ltrans9.ltrans.o
 .data.gEfiGraphicsOutputProtocolGuid
                0x00000000000a43b4       0x10 /tmp/Shell.dll.y4Q2gW.ltrans9.ltrans.o
 .data.gEfiHash2ProtocolGuid
                0x00000000000a43c4       0x10 /tmp/Shell.dll.y4Q2gW.ltrans9.ltrans.o
 .data.gEfiHash2ServiceBindingProtocolGuid
                0x00000000000a43d4       0x10 /tmp/Shell.dll.y4Q2gW.ltrans9.ltrans.o
 .data.gEfiHashProtocolGuid
                0x00000000000a43e4       0x10 /tmp/Shell.dll.y4Q2gW.ltrans9.ltrans.o
 .data.gEfiHashServiceBindingProtocolGuid
                0x00000000000a43f4       0x10 /tmp/Shell.dll.y4Q2gW.ltrans9.ltrans.o
 .data.gEfiHiiConfigRoutingProtocolGuid
                0x00000000000a4404       0x10 /tmp/Shell.dll.y4Q2gW.ltrans9.ltrans.o
                0x00000000000a4404                gEfiHiiConfigRoutingProtocolGuid
 .data.gEfiHiiFontProtocolGuid
                0x00000000000a4414       0x10 /tmp/Shell.dll.y4Q2gW.ltrans9.ltrans.o
                0x00000000000a4414                gEfiHiiFontProtocolGuid
 .data.gEfiHiiImageDecoderProtocolGuid
                0x00000000000a4424       0x10 /tmp/Shell.dll.y4Q2gW.ltrans9.ltrans.o
 .data.gEfiHiiImageExProtocolGuid
                0x00000000000a4434       0x10 /tmp/Shell.dll.y4Q2gW.ltrans9.ltrans.o
 .data.gEfiHiiImageProtocolGuid
                0x00000000000a4444       0x10 /tmp/Shell.dll.y4Q2gW.ltrans9.ltrans.o
                0x00000000000a4444                gEfiHiiImageProtocolGuid
 .data.gEfiHiiPopupProtocolGuid
                0x00000000000a4454       0x10 /tmp/Shell.dll.y4Q2gW.ltrans9.ltrans.o
 .data.gEfiHiiStringProtocolGuid
                0x00000000000a4464       0x10 /tmp/Shell.dll.y4Q2gW.ltrans9.ltrans.o
                0x00000000000a4464                gEfiHiiStringProtocolGuid
 .data.gEfiHttpBootCallbackProtocolGuid
                0x00000000000a4474       0x10 /tmp/Shell.dll.y4Q2gW.ltrans9.ltrans.o
 .data.gEfiHttpProtocolGuid
                0x00000000000a4484       0x10 /tmp/Shell.dll.y4Q2gW.ltrans9.ltrans.o
 .data.gEfiHttpServiceBindingProtocolGuid
                0x00000000000a4494       0x10 /tmp/Shell.dll.y4Q2gW.ltrans9.ltrans.o
 .data.gEfiHttpUtilitiesProtocolGuid
                0x00000000000a44a4       0x10 /tmp/Shell.dll.y4Q2gW.ltrans9.ltrans.o
 .data.gEfiI2cBusConfigurationManagementProtocolGuid
                0x00000000000a44b4       0x10 /tmp/Shell.dll.y4Q2gW.ltrans9.ltrans.o
 .data.gEfiI2cEnumerateProtocolGuid
                0x00000000000a44c4       0x10 /tmp/Shell.dll.y4Q2gW.ltrans9.ltrans.o
 .data.gEfiI2cHostProtocolGuid
                0x00000000000a44d4       0x10 /tmp/Shell.dll.y4Q2gW.ltrans9.ltrans.o
 .data.gEfiI2cIoProtocolGuid
                0x00000000000a44e4       0x10 /tmp/Shell.dll.y4Q2gW.ltrans9.ltrans.o
 .data.gEfiI2cMasterProtocolGuid
                0x00000000000a44f4       0x10 /tmp/Shell.dll.y4Q2gW.ltrans9.ltrans.o
 .data.gEfiIScsiInitiatorNameProtocolGuid
                0x00000000000a4504       0x10 /tmp/Shell.dll.y4Q2gW.ltrans9.ltrans.o
 .data.gEfiIdeControllerInitProtocolGuid
                0x00000000000a4514       0x10 /tmp/Shell.dll.y4Q2gW.ltrans9.ltrans.o
 .data.gEfiIncompatiblePciDeviceSupportProtocolGuid
                0x00000000000a4524       0x10 /tmp/Shell.dll.y4Q2gW.ltrans9.ltrans.o
 .data.gEfiIp4ConfigProtocolGuid
                0x00000000000a4534       0x10 /tmp/Shell.dll.y4Q2gW.ltrans9.ltrans.o
 .data.gEfiIpSec2ProtocolGuid
                0x00000000000a4544       0x10 /tmp/Shell.dll.y4Q2gW.ltrans9.ltrans.o
 .data.gEfiIpSecConfigProtocolGuid
                0x00000000000a4554       0x10 /tmp/Shell.dll.y4Q2gW.ltrans9.ltrans.o
 .data.gEfiIpSecProtocolGuid
                0x00000000000a4564       0x10 /tmp/Shell.dll.y4Q2gW.ltrans9.ltrans.o
 .data.gEfiIsaHcProtocolGuid
                0x00000000000a4574       0x10 /tmp/Shell.dll.y4Q2gW.ltrans9.ltrans.o
 .data.gEfiIsaHcServiceBindingProtocolGuid
                0x00000000000a4584       0x10 /tmp/Shell.dll.y4Q2gW.ltrans9.ltrans.o
 .data.gEfiKmsProtocolGuid
                0x00000000000a4594       0x10 /tmp/Shell.dll.y4Q2gW.ltrans9.ltrans.o
 .data.gEfiLegacyRegion2ProtocolGuid
                0x00000000000a45a4       0x10 /tmp/Shell.dll.y4Q2gW.ltrans9.ltrans.o
 .data.gEfiLoadFile2ProtocolGuid
                0x00000000000a45b4       0x10 /tmp/Shell.dll.y4Q2gW.ltrans9.ltrans.o
 .data.gEfiLoadFileProtocolGuid
                0x00000000000a45c4       0x10 /tmp/Shell.dll.y4Q2gW.ltrans9.ltrans.o
 .data.gEfiLoadedImageDevicePathProtocolGuid
                0x00000000000a45d4       0x10 /tmp/Shell.dll.y4Q2gW.ltrans9.ltrans.o
 .data.gEfiManagedNetworkProtocolGuid
                0x00000000000a45e4       0x10 /tmp/Shell.dll.y4Q2gW.ltrans9.ltrans.o
 .data.gEfiManagedNetworkServiceBindingProtocolGuid
                0x00000000000a45f4       0x10 /tmp/Shell.dll.y4Q2gW.ltrans9.ltrans.o
 .data.gEfiMetronomeArchProtocolGuid
                0x00000000000a4604       0x10 /tmp/Shell.dll.y4Q2gW.ltrans9.ltrans.o
 .data.gEfiMmAccessProtocolGuid
                0x00000000000a4614       0x10 /tmp/Shell.dll.y4Q2gW.ltrans9.ltrans.o
 .data.gEfiMmBaseProtocolGuid
                0x00000000000a4624       0x10 /tmp/Shell.dll.y4Q2gW.ltrans9.ltrans.o
 .data.gEfiMmCommunicationProtocolGuid
                0x00000000000a4634       0x10 /tmp/Shell.dll.y4Q2gW.ltrans9.ltrans.o
 .data.gEfiMmConfigurationProtocolGuid
                0x00000000000a4644       0x10 /tmp/Shell.dll.y4Q2gW.ltrans9.ltrans.o
 .data.gEfiMmControlProtocolGuid
                0x00000000000a4654       0x10 /tmp/Shell.dll.y4Q2gW.ltrans9.ltrans.o
 .data.gEfiMmCpuIoProtocolGuid
                0x00000000000a4664       0x10 /tmp/Shell.dll.y4Q2gW.ltrans9.ltrans.o
 .data.gEfiMmCpuProtocolGuid
                0x00000000000a4674       0x10 /tmp/Shell.dll.y4Q2gW.ltrans9.ltrans.o
 .data.gEfiMmEndOfDxeProtocolGuid
                0x00000000000a4684       0x10 /tmp/Shell.dll.y4Q2gW.ltrans9.ltrans.o
 .data.gEfiMmGpiDispatchProtocolGuid
                0x00000000000a4694       0x10 /tmp/Shell.dll.y4Q2gW.ltrans9.ltrans.o
 .data.gEfiMmIoTrapDispatchProtocolGuid
                0x00000000000a46a4       0x10 /tmp/Shell.dll.y4Q2gW.ltrans9.ltrans.o
 .data.gEfiMmPciRootBridgeIoProtocolGuid
                0x00000000000a46b4       0x10 /tmp/Shell.dll.y4Q2gW.ltrans9.ltrans.o
 .data.gEfiMmPeriodicTimerDispatchProtocolGuid
                0x00000000000a46c4       0x10 /tmp/Shell.dll.y4Q2gW.ltrans9.ltrans.o
 .data.gEfiMmPowerButtonDispatchProtocolGuid
                0x00000000000a46d4       0x10 /tmp/Shell.dll.y4Q2gW.ltrans9.ltrans.o
 .data.gEfiMmReadyToLockProtocolGuid
                0x00000000000a46e4       0x10 /tmp/Shell.dll.y4Q2gW.ltrans9.ltrans.o
 .data.gEfiMmRscHandlerProtocolGuid
                0x00000000000a46f4       0x10 /tmp/Shell.dll.y4Q2gW.ltrans9.ltrans.o
 .data.gEfiMmStandbyButtonDispatchProtocolGuid
                0x00000000000a4704       0x10 /tmp/Shell.dll.y4Q2gW.ltrans9.ltrans.o
 .data.gEfiMmStatusCodeProtocolGuid
                0x00000000000a4714       0x10 /tmp/Shell.dll.y4Q2gW.ltrans9.ltrans.o
 .data.gEfiMmSwDispatchProtocolGuid
                0x00000000000a4724       0x10 /tmp/Shell.dll.y4Q2gW.ltrans9.ltrans.o
 .data.gEfiMmSxDispatchProtocolGuid
                0x00000000000a4734       0x10 /tmp/Shell.dll.y4Q2gW.ltrans9.ltrans.o
 .data.gEfiMmUsbDispatchProtocolGuid
                0x00000000000a4744       0x10 /tmp/Shell.dll.y4Q2gW.ltrans9.ltrans.o
 .data.gEfiMonotonicCounterArchProtocolGuid
                0x00000000000a4754       0x10 /tmp/Shell.dll.y4Q2gW.ltrans9.ltrans.o
 .data.gEfiMpServiceProtocolGuid
                0x00000000000a4764       0x10 /tmp/Shell.dll.y4Q2gW.ltrans9.ltrans.o
 .data.gEfiMtftp4ProtocolGuid
                0x00000000000a4774       0x10 /tmp/Shell.dll.y4Q2gW.ltrans9.ltrans.o
 .data.gEfiMtftp4ServiceBindingProtocolGuid
                0x00000000000a4784       0x10 /tmp/Shell.dll.y4Q2gW.ltrans9.ltrans.o
 .data.gEfiMtftp6ProtocolGuid
                0x00000000000a4794       0x10 /tmp/Shell.dll.y4Q2gW.ltrans9.ltrans.o
 .data.gEfiMtftp6ServiceBindingProtocolGuid
                0x00000000000a47a4       0x10 /tmp/Shell.dll.y4Q2gW.ltrans9.ltrans.o
 .data.gEfiNetworkInterfaceIdentifierProtocolGuid
                0x00000000000a47b4       0x10 /tmp/Shell.dll.y4Q2gW.ltrans9.ltrans.o
 .data.gEfiNetworkInterfaceIdentifierProtocolGuid_31
                0x00000000000a47c4       0x10 /tmp/Shell.dll.y4Q2gW.ltrans9.ltrans.o
 .data.gEfiNvmExpressPassThruProtocolGuid
                0x00000000000a47d4       0x10 /tmp/Shell.dll.y4Q2gW.ltrans9.ltrans.o
 .data.gEfiPartTypeLegacyMbrGuid
                0x00000000000a47e4       0x10 /tmp/Shell.dll.y4Q2gW.ltrans9.ltrans.o
 .data.gEfiPartTypeSystemPartGuid
                0x00000000000a47f4       0x10 /tmp/Shell.dll.y4Q2gW.ltrans9.ltrans.o
 .data.gEfiPartitionInfoProtocolGuid
                0x00000000000a4804       0x10 /tmp/Shell.dll.y4Q2gW.ltrans9.ltrans.o
 .data.gEfiPcAnsiGuid
                0x00000000000a4814       0x10 /tmp/Shell.dll.y4Q2gW.ltrans9.ltrans.o
                0x00000000000a4814                gEfiPcAnsiGuid
 .data.gEfiPcdProtocolGuid
                0x00000000000a4824       0x10 /tmp/Shell.dll.y4Q2gW.ltrans9.ltrans.o
 .data.gEfiPciEnumerationCompleteProtocolGuid
                0x00000000000a4834       0x10 /tmp/Shell.dll.y4Q2gW.ltrans9.ltrans.o
 .data.gEfiPciHostBridgeResourceAllocationProtocolGuid
                0x00000000000a4844       0x10 /tmp/Shell.dll.y4Q2gW.ltrans9.ltrans.o
 .data.gEfiPciHotPlugInitProtocolGuid
                0x00000000000a4854       0x10 /tmp/Shell.dll.y4Q2gW.ltrans9.ltrans.o
 .data.gEfiPciHotPlugRequestProtocolGuid
                0x00000000000a4864       0x10 /tmp/Shell.dll.y4Q2gW.ltrans9.ltrans.o
 .data.gEfiPciOverrideProtocolGuid
                0x00000000000a4874       0x10 /tmp/Shell.dll.y4Q2gW.ltrans9.ltrans.o
 .data.gEfiPciPlatformProtocolGuid
                0x00000000000a4884       0x10 /tmp/Shell.dll.y4Q2gW.ltrans9.ltrans.o
 .data.gEfiPkcs7VerifyProtocolGuid
                0x00000000000a4894       0x10 /tmp/Shell.dll.y4Q2gW.ltrans9.ltrans.o
 .data.gEfiPlatformDriverOverrideProtocolGuid
                0x00000000000a48a4       0x10 /tmp/Shell.dll.y4Q2gW.ltrans9.ltrans.o
 .data.gEfiPlatformToDriverConfigurationProtocolGuid
                0x00000000000a48b4       0x10 /tmp/Shell.dll.y4Q2gW.ltrans9.ltrans.o
 .data.gEfiPxeBaseCodeCallbackProtocolGuid
                0x00000000000a48c4       0x10 /tmp/Shell.dll.y4Q2gW.ltrans9.ltrans.o
 .data.gEfiPxeBaseCodeProtocolGuid
                0x00000000000a48d4       0x10 /tmp/Shell.dll.y4Q2gW.ltrans9.ltrans.o
 .data.gEfiRamDiskProtocolGuid
                0x00000000000a48e4       0x10 /tmp/Shell.dll.y4Q2gW.ltrans9.ltrans.o
 .data.gEfiRealTimeClockArchProtocolGuid
                0x00000000000a48f4       0x10 /tmp/Shell.dll.y4Q2gW.ltrans9.ltrans.o
 .data.gEfiRegularExpressionProtocolGuid
                0x00000000000a4904       0x10 /tmp/Shell.dll.y4Q2gW.ltrans9.ltrans.o
 .data.gEfiResetArchProtocolGuid
                0x00000000000a4914       0x10 /tmp/Shell.dll.y4Q2gW.ltrans9.ltrans.o
 .data.gEfiResetNotificationProtocolGuid
                0x00000000000a4924       0x10 /tmp/Shell.dll.y4Q2gW.ltrans9.ltrans.o
 .data.gEfiRestProtocolGuid
                0x00000000000a4934       0x10 /tmp/Shell.dll.y4Q2gW.ltrans9.ltrans.o
 .data.gEfiRngProtocolGuid
                0x00000000000a4944       0x10 /tmp/Shell.dll.y4Q2gW.ltrans9.ltrans.o
 .data.gEfiRscHandlerProtocolGuid
                0x00000000000a4954       0x10 /tmp/Shell.dll.y4Q2gW.ltrans9.ltrans.o
 .data.gEfiRuntimeArchProtocolGuid
                0x00000000000a4964       0x10 /tmp/Shell.dll.y4Q2gW.ltrans9.ltrans.o
 .data.gEfiS3SaveStateProtocolGuid
                0x00000000000a4974       0x10 /tmp/Shell.dll.y4Q2gW.ltrans9.ltrans.o
 .data.gEfiS3SmmSaveStateProtocolGuid
                0x00000000000a4984       0x10 /tmp/Shell.dll.y4Q2gW.ltrans9.ltrans.o
 .data.gEfiScsiIoProtocolGuid
                0x00000000000a4994       0x10 /tmp/Shell.dll.y4Q2gW.ltrans9.ltrans.o
 .data.gEfiScsiPassThruProtocolGuid
                0x00000000000a49a4       0x10 /tmp/Shell.dll.y4Q2gW.ltrans9.ltrans.o
 .data.gEfiSdMmcPassThruProtocolGuid
                0x00000000000a49b4       0x10 /tmp/Shell.dll.y4Q2gW.ltrans9.ltrans.o
 .data.gEfiSecurity2ArchProtocolGuid
                0x00000000000a49c4       0x10 /tmp/Shell.dll.y4Q2gW.ltrans9.ltrans.o
 .data.gEfiSecurityArchProtocolGuid
                0x00000000000a49d4       0x10 /tmp/Shell.dll.y4Q2gW.ltrans9.ltrans.o
 .data.gEfiSecurityPolicyProtocolGuid
                0x00000000000a49e4       0x10 /tmp/Shell.dll.y4Q2gW.ltrans9.ltrans.o
 .data.gEfiSimpleTextInProtocolGuid
                0x00000000000a49f4       0x10 /tmp/Shell.dll.y4Q2gW.ltrans9.ltrans.o
                0x00000000000a49f4                gEfiSimpleTextInProtocolGuid
 .data.gEfiSimpleTextOutProtocolGuid
                0x00000000000a4a04       0x10 /tmp/Shell.dll.y4Q2gW.ltrans9.ltrans.o
                0x00000000000a4a04                gEfiSimpleTextOutProtocolGuid
 .data.gEfiSioControlProtocolGuid
                0x00000000000a4a14       0x10 /tmp/Shell.dll.y4Q2gW.ltrans9.ltrans.o
 .data.gEfiSioProtocolGuid
                0x00000000000a4a24       0x10 /tmp/Shell.dll.y4Q2gW.ltrans9.ltrans.o
 .data.gEfiSmartCardEdgeProtocolGuid
                0x00000000000a4a34       0x10 /tmp/Shell.dll.y4Q2gW.ltrans9.ltrans.o
 .data.gEfiSmartCardReaderProtocolGuid
                0x00000000000a4a44       0x10 /tmp/Shell.dll.y4Q2gW.ltrans9.ltrans.o
 .data.gEfiSmbiosProtocolGuid
                0x00000000000a4a54       0x10 /tmp/Shell.dll.y4Q2gW.ltrans9.ltrans.o
 .data.gEfiSmbusHcProtocolGuid
                0x00000000000a4a64       0x10 /tmp/Shell.dll.y4Q2gW.ltrans9.ltrans.o
 .data.gEfiSmmAccess2ProtocolGuid
                0x00000000000a4a74       0x10 /tmp/Shell.dll.y4Q2gW.ltrans9.ltrans.o
 .data.gEfiSmmBase2ProtocolGuid
                0x00000000000a4a84       0x10 /tmp/Shell.dll.y4Q2gW.ltrans9.ltrans.o
 .data.gEfiSmmCommunicationProtocolGuid
                0x00000000000a4a94       0x10 /tmp/Shell.dll.y4Q2gW.ltrans9.ltrans.o
 .data.gEfiSmmConfigurationProtocolGuid
                0x00000000000a4aa4       0x10 /tmp/Shell.dll.y4Q2gW.ltrans9.ltrans.o
 .data.gEfiSmmControl2ProtocolGuid
                0x00000000000a4ab4       0x10 /tmp/Shell.dll.y4Q2gW.ltrans9.ltrans.o
 .data.gEfiSmmCpuIo2ProtocolGuid
                0x00000000000a4ac4       0x10 /tmp/Shell.dll.y4Q2gW.ltrans9.ltrans.o
 .data.gEfiSmmCpuProtocolGuid
                0x00000000000a4ad4       0x10 /tmp/Shell.dll.y4Q2gW.ltrans9.ltrans.o
 .data.gEfiSmmEndOfDxeProtocolGuid
                0x00000000000a4ae4       0x10 /tmp/Shell.dll.y4Q2gW.ltrans9.ltrans.o
 .data.gEfiSmmGpiDispatch2ProtocolGuid
                0x00000000000a4af4       0x10 /tmp/Shell.dll.y4Q2gW.ltrans9.ltrans.o
 .data.gEfiSmmIoTrapDispatch2ProtocolGuid
                0x00000000000a4b04       0x10 /tmp/Shell.dll.y4Q2gW.ltrans9.ltrans.o
 .data.gEfiSmmPciRootBridgeIoProtocolGuid
                0x00000000000a4b14       0x10 /tmp/Shell.dll.y4Q2gW.ltrans9.ltrans.o
 .data.gEfiSmmPeriodicTimerDispatch2ProtocolGuid
                0x00000000000a4b24       0x10 /tmp/Shell.dll.y4Q2gW.ltrans9.ltrans.o
 .data.gEfiSmmPowerButtonDispatch2ProtocolGuid
                0x00000000000a4b34       0x10 /tmp/Shell.dll.y4Q2gW.ltrans9.ltrans.o
 .data.gEfiSmmReadyToLockProtocolGuid
                0x00000000000a4b44       0x10 /tmp/Shell.dll.y4Q2gW.ltrans9.ltrans.o
 .data.gEfiSmmRscHandlerProtocolGuid
                0x00000000000a4b54       0x10 /tmp/Shell.dll.y4Q2gW.ltrans9.ltrans.o
 .data.gEfiSmmStandbyButtonDispatch2ProtocolGuid
                0x00000000000a4b64       0x10 /tmp/Shell.dll.y4Q2gW.ltrans9.ltrans.o
 .data.gEfiSmmStatusCodeProtocolGuid
                0x00000000000a4b74       0x10 /tmp/Shell.dll.y4Q2gW.ltrans9.ltrans.o
 .data.gEfiSmmSwDispatch2ProtocolGuid
                0x00000000000a4b84       0x10 /tmp/Shell.dll.y4Q2gW.ltrans9.ltrans.o
 .data.gEfiSmmSxDispatch2ProtocolGuid
                0x00000000000a4b94       0x10 /tmp/Shell.dll.y4Q2gW.ltrans9.ltrans.o
 .data.gEfiSmmUsbDispatch2ProtocolGuid
                0x00000000000a4ba4       0x10 /tmp/Shell.dll.y4Q2gW.ltrans9.ltrans.o
 .data.gEfiStandardErrorDeviceGuid
                0x00000000000a4bb4       0x10 /tmp/Shell.dll.y4Q2gW.ltrans9.ltrans.o
 .data.gEfiStatusCodeRuntimeProtocolGuid
                0x00000000000a4bc4       0x10 /tmp/Shell.dll.y4Q2gW.ltrans9.ltrans.o
 .data.gEfiStorageSecurityCommandProtocolGuid
                0x00000000000a4bd4       0x10 /tmp/Shell.dll.y4Q2gW.ltrans9.ltrans.o
 .data.gEfiSupplicantProtocolGuid
                0x00000000000a4be4       0x10 /tmp/Shell.dll.y4Q2gW.ltrans9.ltrans.o
 .data.gEfiSupplicantServiceBindingProtocolGuid
                0x00000000000a4bf4       0x10 /tmp/Shell.dll.y4Q2gW.ltrans9.ltrans.o
 .data.gEfiTapeIoProtocolGuid
                0x00000000000a4c04       0x10 /tmp/Shell.dll.y4Q2gW.ltrans9.ltrans.o
 .data.gEfiTcg2ProtocolGuid
                0x00000000000a4c14       0x10 /tmp/Shell.dll.y4Q2gW.ltrans9.ltrans.o
 .data.gEfiTcgProtocolGuid
                0x00000000000a4c24       0x10 /tmp/Shell.dll.y4Q2gW.ltrans9.ltrans.o
 .data.gEfiTcp4ProtocolGuid
                0x00000000000a4c34       0x10 /tmp/Shell.dll.y4Q2gW.ltrans9.ltrans.o
 .data.gEfiTcp4ServiceBindingProtocolGuid
                0x00000000000a4c44       0x10 /tmp/Shell.dll.y4Q2gW.ltrans9.ltrans.o
 .data.gEfiTcp6ProtocolGuid
                0x00000000000a4c54       0x10 /tmp/Shell.dll.y4Q2gW.ltrans9.ltrans.o
 .data.gEfiTcp6ServiceBindingProtocolGuid
                0x00000000000a4c64       0x10 /tmp/Shell.dll.y4Q2gW.ltrans9.ltrans.o
 .data.gEfiTimerArchProtocolGuid
                0x00000000000a4c74       0x10 /tmp/Shell.dll.y4Q2gW.ltrans9.ltrans.o
 .data.gEfiTimestampProtocolGuid
                0x00000000000a4c84       0x10 /tmp/Shell.dll.y4Q2gW.ltrans9.ltrans.o
 .data.gEfiTlsConfigurationProtocolGuid
                0x00000000000a4c94       0x10 /tmp/Shell.dll.y4Q2gW.ltrans9.ltrans.o
 .data.gEfiTlsProtocolGuid
                0x00000000000a4ca4       0x10 /tmp/Shell.dll.y4Q2gW.ltrans9.ltrans.o
 .data.gEfiTlsServiceBindingProtocolGuid
                0x00000000000a4cb4       0x10 /tmp/Shell.dll.y4Q2gW.ltrans9.ltrans.o
 .data.gEfiUdp4ProtocolGuid
                0x00000000000a4cc4       0x10 /tmp/Shell.dll.y4Q2gW.ltrans9.ltrans.o
 .data.gEfiUdp4ServiceBindingProtocolGuid
                0x00000000000a4cd4       0x10 /tmp/Shell.dll.y4Q2gW.ltrans9.ltrans.o
 .data.gEfiUdp6ProtocolGuid
                0x00000000000a4ce4       0x10 /tmp/Shell.dll.y4Q2gW.ltrans9.ltrans.o
 .data.gEfiUdp6ServiceBindingProtocolGuid
                0x00000000000a4cf4       0x10 /tmp/Shell.dll.y4Q2gW.ltrans9.ltrans.o
 .data.gEfiUfsDeviceConfigProtocolGuid
                0x00000000000a4d04       0x10 /tmp/Shell.dll.y4Q2gW.ltrans9.ltrans.o
 .data.gEfiUgaDrawProtocolGuid
                0x00000000000a4d14       0x10 /tmp/Shell.dll.y4Q2gW.ltrans9.ltrans.o
 .data.gEfiUgaIoProtocolGuid
                0x00000000000a4d24       0x10 /tmp/Shell.dll.y4Q2gW.ltrans9.ltrans.o
 .data.gEfiUnicodeCollation2ProtocolGuid
                0x00000000000a4d34       0x10 /tmp/Shell.dll.y4Q2gW.ltrans9.ltrans.o
                0x00000000000a4d34                gEfiUnicodeCollation2ProtocolGuid
 .data.gEfiUnicodeCollationProtocolGuid
                0x00000000000a4d44       0x10 /tmp/Shell.dll.y4Q2gW.ltrans9.ltrans.o
                0x00000000000a4d44                gEfiUnicodeCollationProtocolGuid
 .data.gEfiUsb2HcProtocolGuid
                0x00000000000a4d54       0x10 /tmp/Shell.dll.y4Q2gW.ltrans9.ltrans.o
 .data.gEfiUsbFunctionIoProtocolGuid
                0x00000000000a4d64       0x10 /tmp/Shell.dll.y4Q2gW.ltrans9.ltrans.o
 .data.gEfiUsbHcProtocolGuid
                0x00000000000a4d74       0x10 /tmp/Shell.dll.y4Q2gW.ltrans9.ltrans.o
 .data.gEfiUserCredential2ProtocolGuid
                0x00000000000a4d84       0x10 /tmp/Shell.dll.y4Q2gW.ltrans9.ltrans.o
 .data.gEfiUserCredentialProtocolGuid
                0x00000000000a4d94       0x10 /tmp/Shell.dll.y4Q2gW.ltrans9.ltrans.o
 .data.gEfiUserManagerProtocolGuid
                0x00000000000a4da4       0x10 /tmp/Shell.dll.y4Q2gW.ltrans9.ltrans.o
 .data.gEfiVT100Guid
                0x00000000000a4db4       0x10 /tmp/Shell.dll.y4Q2gW.ltrans9.ltrans.o
                0x00000000000a4db4                gEfiVT100Guid
 .data.gEfiVT100PlusGuid
                0x00000000000a4dc4       0x10 /tmp/Shell.dll.y4Q2gW.ltrans9.ltrans.o
                0x00000000000a4dc4                gEfiVT100PlusGuid
 .data.gEfiVTUTF8Guid
                0x00000000000a4dd4       0x10 /tmp/Shell.dll.y4Q2gW.ltrans9.ltrans.o
                0x00000000000a4dd4                gEfiVTUTF8Guid
 .data.gEfiVariableArchProtocolGuid
                0x00000000000a4de4       0x10 /tmp/Shell.dll.y4Q2gW.ltrans9.ltrans.o
 .data.gEfiVariableWriteArchProtocolGuid
                0x00000000000a4df4       0x10 /tmp/Shell.dll.y4Q2gW.ltrans9.ltrans.o
 .data.gEfiVlanConfigProtocolGuid
                0x00000000000a4e04       0x10 /tmp/Shell.dll.y4Q2gW.ltrans9.ltrans.o
 .data.gEfiWatchdogTimerArchProtocolGuid
                0x00000000000a4e14       0x10 /tmp/Shell.dll.y4Q2gW.ltrans9.ltrans.o
 .data.gEfiWiFi2ProtocolGuid
                0x00000000000a4e24       0x10 /tmp/Shell.dll.y4Q2gW.ltrans9.ltrans.o
 .data.gEfiWiFiProtocolGuid
                0x00000000000a4e34       0x10 /tmp/Shell.dll.y4Q2gW.ltrans9.ltrans.o
 .data.gGetPcdInfoProtocolGuid
                0x00000000000a4e44       0x10 /tmp/Shell.dll.y4Q2gW.ltrans9.ltrans.o
 .data.gHandleParsingHiiGuid
                0x00000000000a4e54       0x10 /tmp/Shell.dll.y4Q2gW.ltrans9.ltrans.o
 .data.gPcdProtocolGuid
                0x00000000000a4e64       0x10 /tmp/Shell.dll.y4Q2gW.ltrans9.ltrans.o
 .data.gEfiPersistentVirtualCdGuid
                0x00000000000a4e74       0x10 /tmp/Shell.dll.y4Q2gW.ltrans10.ltrans.o
 .data.gEfiPersistentVirtualDiskGuid
                0x00000000000a4e84       0x10 /tmp/Shell.dll.y4Q2gW.ltrans10.ltrans.o
 .data.gEfiUartDevicePathGuid
                0x00000000000a4e94       0x10 /tmp/Shell.dll.y4Q2gW.ltrans10.ltrans.o
 .data.gEfiVirtualCdGuid
                0x00000000000a4ea4       0x10 /tmp/Shell.dll.y4Q2gW.ltrans10.ltrans.o
 .data.gEfiVirtualDiskGuid
                0x00000000000a4eb4       0x10 /tmp/Shell.dll.y4Q2gW.ltrans10.ltrans.o
 .data.gShellVariableGuid
                0x00000000000a4ec4       0x10 /tmp/Shell.dll.y4Q2gW.ltrans10.ltrans.o
                0x00000000000a4ec4                gShellVariableGuid
 *fill*         0x00000000000a4ed4        0x4 
 .data.FileInterfaceNulFile
                0x00000000000a4ed8       0x78 /tmp/Shell.dll.y4Q2gW.ltrans11.ltrans.o
                0x00000000000a4ed8                FileInterfaceNulFile
 .data.FileInterfaceStdErr
                0x00000000000a4f50       0x78 /tmp/Shell.dll.y4Q2gW.ltrans11.ltrans.o
                0x00000000000a4f50                FileInterfaceStdErr
 .data.FileInterfaceStdOut
                0x00000000000a4fc8       0x78 /tmp/Shell.dll.y4Q2gW.ltrans11.ltrans.o
                0x00000000000a4fc8                FileInterfaceStdOut
 .data.gShellAliasGuid
                0x00000000000a5040       0x10 /tmp/Shell.dll.y4Q2gW.ltrans11.ltrans.o
 .data.FileInterfaceStdIn
                0x00000000000a5050       0x78 /tmp/Shell.dll.y4Q2gW.ltrans12.ltrans.o
 .data.ShellStrings
                0x00000000000a50c8      0x5b7 /tmp/Shell.dll.y4Q2gW.ltrans12.ltrans.o
 .data.UefiShellAcpiViewCommandLibStrings
                0x00000000000a567f     0x2704 /tmp/Shell.dll.y4Q2gW.ltrans12.ltrans.o
 .data.UefiShellDebug1CommandsLibStrings
                0x00000000000a7d83    0x1d394 /tmp/Shell.dll.y4Q2gW.ltrans12.ltrans.o
 .data.UefiShellDriver1CommandsLibStrings
                0x00000000000c5117     0xcaee /tmp/Shell.dll.y4Q2gW.ltrans12.ltrans.o
 .data.UefiShellLevel1CommandsLibStrings
                0x00000000000d1c05     0x8663 /tmp/Shell.dll.y4Q2gW.ltrans12.ltrans.o
 .data.UefiShellLevel2CommandsLibStrings
                0x00000000000da268    0x138f5 /tmp/Shell.dll.y4Q2gW.ltrans12.ltrans.o
 .data.UefiShellLevel3CommandsLibStrings
                0x00000000000edb5d     0x83a9 /tmp/Shell.dll.y4Q2gW.ltrans12.ltrans.o
 .data.UefiShellNetwork1CommandsLibStrings
                0x00000000000f5f06     0x26a1 /tmp/Shell.dll.y4Q2gW.ltrans12.ltrans.o
 *fill*         0x00000000000f85a7        0x1 
 .data.__stack_chk_guard
                0x00000000000f85a8        0x8 /tmp/Shell.dll.y4Q2gW.ltrans12.ltrans.o
                0x00000000000f85a8                __stack_chk_guard
 .data.gEfiCallerIdGuid
                0x00000000000f85b0       0x10 /tmp/Shell.dll.y4Q2gW.ltrans12.ltrans.o
 .data.gEfiDxeServicesTableGuid
                0x00000000000f85c0       0x10 /tmp/Shell.dll.y4Q2gW.ltrans12.ltrans.o
 .data.gEfiHobListGuid
                0x00000000000f85d0       0x10 /tmp/Shell.dll.y4Q2gW.ltrans12.ltrans.o
 .data.gShellAcpiViewHiiGuid
                0x00000000000f85e0       0x10 /tmp/Shell.dll.y4Q2gW.ltrans12.ltrans.o
 .data.gShellDebug1HiiGuid
                0x00000000000f85f0       0x10 /tmp/Shell.dll.y4Q2gW.ltrans12.ltrans.o
 .data.gShellDriver1HiiGuid
                0x00000000000f8600       0x10 /tmp/Shell.dll.y4Q2gW.ltrans12.ltrans.o
 .data.gShellLevel1HiiGuid
                0x00000000000f8610       0x10 /tmp/Shell.dll.y4Q2gW.ltrans12.ltrans.o
 .data.gShellLevel2HiiGuid
                0x00000000000f8620       0x10 /tmp/Shell.dll.y4Q2gW.ltrans12.ltrans.o
 .data.gShellLevel3HiiGuid
                0x00000000000f8630       0x10 /tmp/Shell.dll.y4Q2gW.ltrans12.ltrans.o
 .data.gShellNetwork1HiiGuid
                0x00000000000f8640       0x10 /tmp/Shell.dll.y4Q2gW.ltrans12.ltrans.o
 .data.mShellProtocol
                0x00000000000f8650      0x168 /tmp/Shell.dll.y4Q2gW.ltrans12.ltrans.o
 *(.bss .bss.*)
 .bss.AcpiHdrInfo.lto_priv.0
                0x00000000000f87b8       0x48 /tmp/Shell.dll.y4Q2gW.ltrans0.ltrans.o
 .bss.AcpiHdrInfo.lto_priv.1
                0x00000000000f8800       0x48 /tmp/Shell.dll.y4Q2gW.ltrans0.ltrans.o
                0x00000000000f8800                AcpiHdrInfo.lto_priv.1
 .bss.AcpiHdrInfo.lto_priv.2
                0x00000000000f8848       0x48 /tmp/Shell.dll.y4Q2gW.ltrans0.ltrans.o
                0x00000000000f8848                AcpiHdrInfo.lto_priv.2
 .bss.FileFunctionMap
                0x00000000000f8890       0x50 /tmp/Shell.dll.y4Q2gW.ltrans0.ltrans.o
                0x00000000000f8890                FileFunctionMap
 .bss.HBufferImage
                0x00000000000f88e0       0x78 /tmp/Shell.dll.y4Q2gW.ltrans0.ltrans.o
                0x00000000000f88e0                HBufferImage
 .bss.HFileImage
                0x00000000000f8958       0x18 /tmp/Shell.dll.y4Q2gW.ltrans0.ltrans.o
                0x00000000000f8958                HFileImage
 .bss.HMemImage
                0x00000000000f8970       0x18 /tmp/Shell.dll.y4Q2gW.ltrans0.ltrans.o
                0x00000000000f8970                HMemImage
 .bss.SratDeviceHandleType.lto_priv.0
                0x00000000000f8988        0x8 /tmp/Shell.dll.y4Q2gW.ltrans0.ltrans.o
                0x00000000000f8988                SratDeviceHandleType.lto_priv.0
 .bss.SratRALength
                0x00000000000f8990        0x8 /tmp/Shell.dll.y4Q2gW.ltrans0.ltrans.o
 .bss.SratRAType
                0x00000000000f8998        0x8 /tmp/Shell.dll.y4Q2gW.ltrans0.ltrans.o
 .bss.StatusBarNeedRefresh
                0x00000000000f89a0        0x1 /tmp/Shell.dll.y4Q2gW.ltrans0.ltrans.o
                0x00000000000f89a0                StatusBarNeedRefresh
 *fill*         0x00000000000f89a1        0x7 
 .bss.StatusString
                0x00000000000f89a8        0x8 /tmp/Shell.dll.y4Q2gW.ltrans0.ltrans.o
                0x00000000000f89a8                StatusString
 .bss.StatusStringChanged
                0x00000000000f89b0        0x1 /tmp/Shell.dll.y4Q2gW.ltrans0.ltrans.o
                0x00000000000f89b0                StatusStringChanged
 .bss.UsePl011Uart
                0x00000000000f89b1        0x1 /tmp/Shell.dll.y4Q2gW.ltrans0.ltrans.o
 .bss.UsePl011UartSet
                0x00000000000f89b2        0x1 /tmp/Shell.dll.y4Q2gW.ltrans0.ltrans.o
 *fill*         0x00000000000f89b3        0x5 
 .bss.gBS       0x00000000000f89b8        0x8 /tmp/Shell.dll.y4Q2gW.ltrans0.ltrans.o
                0x00000000000f89b8                gBS
 .bss.gEfiShellParametersProtocol
                0x00000000000f89c0        0x8 /tmp/Shell.dll.y4Q2gW.ltrans0.ltrans.o
                0x00000000000f89c0                gEfiShellParametersProtocol
 .bss.gEfiShellProtocol
                0x00000000000f89c8        0x8 /tmp/Shell.dll.y4Q2gW.ltrans0.ltrans.o
                0x00000000000f89c8                gEfiShellProtocol
 .bss.gHiiDatabase
                0x00000000000f89d0        0x8 /tmp/Shell.dll.y4Q2gW.ltrans0.ltrans.o
                0x00000000000f89d0                gHiiDatabase
 .bss.gImageHandle
                0x00000000000f89d8        0x8 /tmp/Shell.dll.y4Q2gW.ltrans0.ltrans.o
                0x00000000000f89d8                gImageHandle
 .bss.gIndent   0x00000000000f89e0        0x4 /tmp/Shell.dll.y4Q2gW.ltrans0.ltrans.o
 *fill*         0x00000000000f89e4        0x4 
 .bss.gRT       0x00000000000f89e8        0x8 /tmp/Shell.dll.y4Q2gW.ltrans0.ltrans.o
                0x00000000000f89e8                gRT
 .bss.gST       0x00000000000f89f0        0x8 /tmp/Shell.dll.y4Q2gW.ltrans0.ltrans.o
                0x00000000000f89f0                gST
 .bss.gShellBcfgHiiHandle.lto_priv.0
                0x00000000000f89f8        0x8 /tmp/Shell.dll.y4Q2gW.ltrans0.ltrans.o
                0x00000000000f89f8                gShellBcfgHiiHandle.lto_priv.0
 .bss.gShellDebug1HiiHandle
                0x00000000000f8a00        0x8 /tmp/Shell.dll.y4Q2gW.ltrans0.ltrans.o
                0x00000000000f8a00                gShellDebug1HiiHandle
 .bss.gShellMapList
                0x00000000000f8a08       0x30 /tmp/Shell.dll.y4Q2gW.ltrans0.ltrans.o
                0x00000000000f8a08                gShellMapList
 .bss.gUnicodeCollation
                0x00000000000f8a38        0x8 /tmp/Shell.dll.y4Q2gW.ltrans0.ltrans.o
                0x00000000000f8a38                gUnicodeCollation
 .bss.mColourHighlighting.lto_priv.0
                0x00000000000f8a40        0x1 /tmp/Shell.dll.y4Q2gW.ltrans0.ltrans.o
                0x00000000000f8a40                mColourHighlighting.lto_priv.0
 *fill*         0x00000000000f8a41        0x7 
 .bss.mCommandList.lto_priv.0
                0x00000000000f8a48       0x40 /tmp/Shell.dll.y4Q2gW.ltrans0.ltrans.o
                0x00000000000f8a48                mCommandList.lto_priv.0
 .bss.mConsistencyCheck.lto_priv.0
                0x00000000000f8a88        0x1 /tmp/Shell.dll.y4Q2gW.ltrans0.ltrans.o
                0x00000000000f8a88                mConsistencyCheck.lto_priv.0
 .bss.mEchoState.lto_priv.0
                0x00000000000f8a89        0x1 /tmp/Shell.dll.y4Q2gW.ltrans0.ltrans.o
                0x00000000000f8a89                mEchoState.lto_priv.0
 *fill*         0x00000000000f8a8a        0x6 
 .bss.mEfiShellEnvironment2
                0x00000000000f8a90        0x8 /tmp/Shell.dll.y4Q2gW.ltrans0.ltrans.o
                0x00000000000f8a90                mEfiShellEnvironment2
 .bss.mEfiShellEnvironment2Handle
                0x00000000000f8a98        0x8 /tmp/Shell.dll.y4Q2gW.ltrans0.ltrans.o
                0x00000000000f8a98                mEfiShellEnvironment2Handle
 .bss.mEfiShellInterface
                0x00000000000f8aa0        0x8 /tmp/Shell.dll.y4Q2gW.ltrans0.ltrans.o
                0x00000000000f8aa0                mEfiShellInterface
 .bss.mExitCode.lto_priv.0
                0x00000000000f8aa8        0x8 /tmp/Shell.dll.y4Q2gW.ltrans0.ltrans.o
                0x00000000000f8aa8                mExitCode.lto_priv.0
 .bss.mExitRequested.lto_priv.0
                0x00000000000f8ab0        0x1 /tmp/Shell.dll.y4Q2gW.ltrans0.ltrans.o
                0x00000000000f8ab0                mExitRequested.lto_priv.0
 .bss.mExitScript.lto_priv.0
                0x00000000000f8ab1        0x1 /tmp/Shell.dll.y4Q2gW.ltrans0.ltrans.o
                0x00000000000f8ab1                mExitScript.lto_priv.0
 *fill*         0x00000000000f8ab2        0x6 
 .bss.mShellManDriverHandle
                0x00000000000f8ab8        0x8 /tmp/Shell.dll.y4Q2gW.ltrans0.ltrans.o
 .bss.mShellManHiiHandle
                0x00000000000f8ac0        0x8 /tmp/Shell.dll.y4Q2gW.ltrans0.ltrans.o
 .bss.mTableErrorCount.lto_priv.0
                0x00000000000f8ac8        0x4 /tmp/Shell.dll.y4Q2gW.ltrans0.ltrans.o
                0x00000000000f8ac8                mTableErrorCount.lto_priv.0
 *fill*         0x00000000000f8acc        0x4 
 .bss.AcpiHdrInfo.lto_priv.10
                0x00000000000f8ad0       0x48 /tmp/Shell.dll.y4Q2gW.ltrans1.ltrans.o
 .bss.AcpiHdrInfo.lto_priv.11
                0x00000000000f8b18       0x48 /tmp/Shell.dll.y4Q2gW.ltrans1.ltrans.o
 .bss.AcpiHdrInfo.lto_priv.12
                0x00000000000f8b60       0x48 /tmp/Shell.dll.y4Q2gW.ltrans1.ltrans.o
 .bss.AcpiHdrInfo.lto_priv.13
                0x00000000000f8ba8       0x48 /tmp/Shell.dll.y4Q2gW.ltrans1.ltrans.o
 .bss.AcpiHdrInfo.lto_priv.14
                0x00000000000f8bf0       0x48 /tmp/Shell.dll.y4Q2gW.ltrans1.ltrans.o
 .bss.AcpiHdrInfo.lto_priv.15
                0x00000000000f8c38       0x48 /tmp/Shell.dll.y4Q2gW.ltrans1.ltrans.o
 .bss.AcpiHdrInfo.lto_priv.3
                0x00000000000f8c80       0x48 /tmp/Shell.dll.y4Q2gW.ltrans1.ltrans.o
 .bss.AcpiHdrInfo.lto_priv.4
                0x00000000000f8cc8       0x48 /tmp/Shell.dll.y4Q2gW.ltrans1.ltrans.o
 .bss.AcpiHdrInfo.lto_priv.5
                0x00000000000f8d10       0x48 /tmp/Shell.dll.y4Q2gW.ltrans1.ltrans.o
 .bss.AcpiHdrInfo.lto_priv.6
                0x00000000000f8d58       0x48 /tmp/Shell.dll.y4Q2gW.ltrans1.ltrans.o
 .bss.AcpiHdrInfo.lto_priv.7
                0x00000000000f8da0       0x48 /tmp/Shell.dll.y4Q2gW.ltrans1.ltrans.o
 .bss.AcpiHdrInfo.lto_priv.8
                0x00000000000f8de8       0x48 /tmp/Shell.dll.y4Q2gW.ltrans1.ltrans.o
 .bss.AcpiHdrInfo.lto_priv.9
                0x00000000000f8e30       0x48 /tmp/Shell.dll.y4Q2gW.ltrans1.ltrans.o
 .bss.AddrSizeOffset
                0x00000000000f8e78        0x8 /tmp/Shell.dll.y4Q2gW.ltrans1.ltrans.o
 .bss.AestNodeLength
                0x00000000000f8e80        0x8 /tmp/Shell.dll.y4Q2gW.ltrans1.ltrans.o
 .bss.AestNodeType
                0x00000000000f8e88        0x8 /tmp/Shell.dll.y4Q2gW.ltrans1.ltrans.o
 .bss.BaseAddrRegOffset
                0x00000000000f8e90        0x8 /tmp/Shell.dll.y4Q2gW.ltrans1.ltrans.o
 .bss.CheckConflict.16865
                0x00000000000f8e98        0x4 /tmp/Shell.dll.y4Q2gW.ltrans1.ltrans.o
 .bss.CheckDuplicate.16864
                0x00000000000f8e9c        0x4 /tmp/Shell.dll.y4Q2gW.ltrans1.ltrans.o
 .bss.DbgDevInfoLen
                0x00000000000f8ea0        0x8 /tmp/Shell.dll.y4Q2gW.ltrans1.ltrans.o
 .bss.DsdtAddress
                0x00000000000f8ea8        0x8 /tmp/Shell.dll.y4Q2gW.ltrans1.ltrans.o
 .bss.ExtendedPccSubspaceInterruptFlags
                0x00000000000f8eb0        0x8 /tmp/Shell.dll.y4Q2gW.ltrans1.ltrans.o
 .bss.FadtMinorRevision
                0x00000000000f8eb8        0x8 /tmp/Shell.dll.y4Q2gW.ltrans1.ltrans.o
 .bss.FirmwareCtrl
                0x00000000000f8ec0        0x8 /tmp/Shell.dll.y4Q2gW.ltrans1.ltrans.o
 .bss.Flags     0x00000000000f8ec8        0x8 /tmp/Shell.dll.y4Q2gW.ltrans1.ltrans.o
 .bss.GasCount  0x00000000000f8ed0        0x8 /tmp/Shell.dll.y4Q2gW.ltrans1.ltrans.o
 .bss.GtBlockTimerCount
                0x00000000000f8ed8        0x8 /tmp/Shell.dll.y4Q2gW.ltrans1.ltrans.o
 .bss.GtBlockTimerOffset
                0x00000000000f8ee0        0x8 /tmp/Shell.dll.y4Q2gW.ltrans1.ltrans.o
 .bss.GtdtPlatformTimerCount
                0x00000000000f8ee8        0x8 /tmp/Shell.dll.y4Q2gW.ltrans1.ltrans.o
 .bss.GtdtPlatformTimerOffset
                0x00000000000f8ef0        0x8 /tmp/Shell.dll.y4Q2gW.ltrans1.ltrans.o
 .bss.HmatStructureLength
                0x00000000000f8ef8        0x8 /tmp/Shell.dll.y4Q2gW.ltrans1.ltrans.o
 .bss.HmatStructureType
                0x00000000000f8f00        0x8 /tmp/Shell.dll.y4Q2gW.ltrans1.ltrans.o
 .bss.InterruptContextCount
                0x00000000000f8f08        0x8 /tmp/Shell.dll.y4Q2gW.ltrans1.ltrans.o
 .bss.InterruptContextOffset
                0x00000000000f8f10        0x8 /tmp/Shell.dll.y4Q2gW.ltrans1.ltrans.o
 .bss.IortIdMappingCount
                0x00000000000f8f18        0x8 /tmp/Shell.dll.y4Q2gW.ltrans1.ltrans.o
 .bss.IortIdMappingOffset
                0x00000000000f8f20        0x8 /tmp/Shell.dll.y4Q2gW.ltrans1.ltrans.o
 .bss.IortNodeCount
                0x00000000000f8f28        0x8 /tmp/Shell.dll.y4Q2gW.ltrans1.ltrans.o
 .bss.IortNodeLength
                0x00000000000f8f30        0x8 /tmp/Shell.dll.y4Q2gW.ltrans1.ltrans.o
 .bss.IortNodeOffset
                0x00000000000f8f38        0x8 /tmp/Shell.dll.y4Q2gW.ltrans1.ltrans.o
 .bss.IortNodeType
                0x00000000000f8f40        0x8 /tmp/Shell.dll.y4Q2gW.ltrans1.ltrans.o
 .bss.ItsCount  0x00000000000f8f48        0x8 /tmp/Shell.dll.y4Q2gW.ltrans1.ltrans.o
 .bss.MadtInterruptControllerLength
                0x00000000000f8f50        0x8 /tmp/Shell.dll.y4Q2gW.ltrans1.ltrans.o
 .bss.MadtInterruptControllerType
                0x00000000000f8f58        0x8 /tmp/Shell.dll.y4Q2gW.ltrans1.ltrans.o
 .bss.NameSpaceStringLength
                0x00000000000f8f60        0x8 /tmp/Shell.dll.y4Q2gW.ltrans1.ltrans.o
 .bss.NameSpaceStringOffset
                0x00000000000f8f68        0x8 /tmp/Shell.dll.y4Q2gW.ltrans1.ltrans.o
 .bss.NodeDataOffset
                0x00000000000f8f70        0x8 /tmp/Shell.dll.y4Q2gW.ltrans1.ltrans.o
 .bss.NodeInterfaceOffset
                0x00000000000f8f78        0x8 /tmp/Shell.dll.y4Q2gW.ltrans1.ltrans.o
 .bss.NodeInterruptArrayOffset
                0x00000000000f8f80        0x8 /tmp/Shell.dll.y4Q2gW.ltrans1.ltrans.o
 .bss.NodeInterruptCount
                0x00000000000f8f88        0x8 /tmp/Shell.dll.y4Q2gW.ltrans1.ltrans.o
 .bss.NumberDbgDeviceInfo
                0x00000000000f8f90        0x8 /tmp/Shell.dll.y4Q2gW.ltrans1.ltrans.o
 .bss.NumberInitiatorProximityDomain
                0x00000000000f8f98        0x8 /tmp/Shell.dll.y4Q2gW.ltrans1.ltrans.o
 .bss.NumberOfPrivateResources
                0x00000000000f8fa0        0x8 /tmp/Shell.dll.y4Q2gW.ltrans1.ltrans.o
 .bss.NumberSMBIOSHandles
                0x00000000000f8fa8        0x8 /tmp/Shell.dll.y4Q2gW.ltrans1.ltrans.o
 .bss.NumberTargetProximityDomain
                0x00000000000f8fb0        0x8 /tmp/Shell.dll.y4Q2gW.ltrans1.ltrans.o
 .bss.OEMDataLength
                0x00000000000f8fb8        0x8 /tmp/Shell.dll.y4Q2gW.ltrans1.ltrans.o
 .bss.OEMDataOffset
                0x00000000000f8fc0        0x8 /tmp/Shell.dll.y4Q2gW.ltrans1.ltrans.o
 .bss.OffsetDbgDeviceInfo
                0x00000000000f8fc8        0x8 /tmp/Shell.dll.y4Q2gW.ltrans1.ltrans.o
 .bss.PccGlobalFlags
                0x00000000000f8fd0        0x8 /tmp/Shell.dll.y4Q2gW.ltrans1.ltrans.o
 .bss.PccSubspaceLength
                0x00000000000f8fd8        0x8 /tmp/Shell.dll.y4Q2gW.ltrans1.ltrans.o
 .bss.PccSubspaceType
                0x00000000000f8fe0        0x8 /tmp/Shell.dll.y4Q2gW.ltrans1.ltrans.o
 .bss.PlatformTimerLength
                0x00000000000f8fe8        0x8 /tmp/Shell.dll.y4Q2gW.ltrans1.ltrans.o
 .bss.PlatformTimerType
                0x00000000000f8ff0        0x8 /tmp/Shell.dll.y4Q2gW.ltrans1.ltrans.o
 .bss.PmuInterruptCount
                0x00000000000f8ff8        0x8 /tmp/Shell.dll.y4Q2gW.ltrans1.ltrans.o
 .bss.PmuInterruptOffset
                0x00000000000f9000        0x8 /tmp/Shell.dll.y4Q2gW.ltrans1.ltrans.o
 .bss.ProcessorFlags
                0x00000000000f9008        0x8 /tmp/Shell.dll.y4Q2gW.ltrans1.ltrans.o
 .bss.ProcessorId
                0x00000000000f9010        0x8 /tmp/Shell.dll.y4Q2gW.ltrans1.ltrans.o
 .bss.ProcessorResourceType
                0x00000000000f9018        0x8 /tmp/Shell.dll.y4Q2gW.ltrans1.ltrans.o
 .bss.ProcessorTopologyStructureLength
                0x00000000000f9020        0x8 /tmp/Shell.dll.y4Q2gW.ltrans1.ltrans.o
 .bss.ProcessorTopologyStructureType
                0x00000000000f9028        0x8 /tmp/Shell.dll.y4Q2gW.ltrans1.ltrans.o
 .bss.SlitSystemLocalityCount
                0x00000000000f9030        0x8 /tmp/Shell.dll.y4Q2gW.ltrans1.ltrans.o
 .bss.SllbiDataType
                0x00000000000f9038        0x8 /tmp/Shell.dll.y4Q2gW.ltrans1.ltrans.o
 .bss.SllbiFlags
                0x00000000000f9040        0x8 /tmp/Shell.dll.y4Q2gW.ltrans1.ltrans.o
 .bss.X_DsdtAddress
                0x00000000000f9048        0x8 /tmp/Shell.dll.y4Q2gW.ltrans1.ltrans.o
 .bss.X_FirmwareCtrl
                0x00000000000f9050        0x8 /tmp/Shell.dll.y4Q2gW.ltrans1.ltrans.o
 .bss.XsdtAddress
                0x00000000000f9058        0x8 /tmp/Shell.dll.y4Q2gW.ltrans1.ltrans.o
 .bss.gShellAcpiViewHiiHandle
                0x00000000000f9060        0x8 /tmp/Shell.dll.y4Q2gW.ltrans1.ltrans.o
                0x00000000000f9060                gShellAcpiViewHiiHandle
 .bss.gShellNetwork1HiiHandle
                0x00000000000f9068        0x8 /tmp/Shell.dll.y4Q2gW.ltrans1.ltrans.o
                0x00000000000f9068                gShellNetwork1HiiHandle
 .bss.mBinTableCount
                0x00000000000f9070        0x4 /tmp/Shell.dll.y4Q2gW.ltrans1.ltrans.o
 *fill*         0x00000000000f9074        0x4 
 .bss.mDstString
                0x00000000000f9078        0x8 /tmp/Shell.dll.y4Q2gW.ltrans1.ltrans.o
 .bss.mMandatoryTableSpec
                0x00000000000f9080        0x8 /tmp/Shell.dll.y4Q2gW.ltrans1.ltrans.o
 .bss.mMandatoryTableValidate
                0x00000000000f9088        0x1 /tmp/Shell.dll.y4Q2gW.ltrans1.ltrans.o
 *fill*         0x00000000000f9089        0x3 
 .bss.mReportType
                0x00000000000f908c        0x4 /tmp/Shell.dll.y4Q2gW.ltrans1.ltrans.o
 .bss.mSelectedAcpiTable
                0x00000000000f9090       0x18 /tmp/Shell.dll.y4Q2gW.ltrans1.ltrans.o
 .bss.mSrcString
                0x00000000000f90a8        0x8 /tmp/Shell.dll.y4Q2gW.ltrans1.ltrans.o
 .bss.mTableCount
                0x00000000000f90b0        0x4 /tmp/Shell.dll.y4Q2gW.ltrans1.ltrans.o
 *fill*         0x00000000000f90b4        0x4 
 .bss.mTableParserList.lto_priv.0
                0x00000000000f90b8      0x200 /tmp/Shell.dll.y4Q2gW.ltrans1.ltrans.o
                0x00000000000f90b8                mTableParserList.lto_priv.0
 .bss.mTableWarningCount
                0x00000000000f92b8        0x4 /tmp/Shell.dll.y4Q2gW.ltrans1.ltrans.o
 .bss.mZeroIp4Addr
                0x00000000000f92bc        0x4 /tmp/Shell.dll.y4Q2gW.ltrans1.ltrans.o
 .bss.SmbiosMajorVersion
                0x00000000000f92c0        0x1 /tmp/Shell.dll.y4Q2gW.ltrans2.ltrans.o
                0x00000000000f92c0                SmbiosMajorVersion
 .bss.SmbiosMinorVersion
                0x00000000000f92c1        0x1 /tmp/Shell.dll.y4Q2gW.ltrans2.ltrans.o
                0x00000000000f92c1                SmbiosMinorVersion
 *fill*         0x00000000000f92c2        0x2 
 .bss.CPos.10284
                0x00000000000f92c4        0x4 /tmp/Shell.dll.y4Q2gW.ltrans3.ltrans.o
 .bss.ControlBasedMenuFunctions
                0x00000000000f92c8        0x8 /tmp/Shell.dll.y4Q2gW.ltrans3.ltrans.o
                0x00000000000f92c8                ControlBasedMenuFunctions
 .bss.HBufferImageBackupVar
                0x00000000000f92d0       0x78 /tmp/Shell.dll.y4Q2gW.ltrans3.ltrans.o
                0x00000000000f92d0                HBufferImageBackupVar
 .bss.HBufferImageMouseNeedRefresh
                0x00000000000f9348        0x1 /tmp/Shell.dll.y4Q2gW.ltrans3.ltrans.o
                0x00000000000f9348                HBufferImageMouseNeedRefresh
 .bss.HBufferImageNeedRefresh
                0x00000000000f9349        0x1 /tmp/Shell.dll.y4Q2gW.ltrans3.ltrans.o
                0x00000000000f9349                HBufferImageNeedRefresh
 .bss.HBufferImageOnlyLineNeedRefresh
                0x00000000000f934a        0x1 /tmp/Shell.dll.y4Q2gW.ltrans3.ltrans.o
                0x00000000000f934a                HBufferImageOnlyLineNeedRefresh
 *fill*         0x00000000000f934b        0x5 
 .bss.HDiskImage
                0x00000000000f9350       0x20 /tmp/Shell.dll.y4Q2gW.ltrans3.ltrans.o
                0x00000000000f9350                HDiskImage
 .bss.HDiskImageBackupVar
                0x00000000000f9370       0x20 /tmp/Shell.dll.y4Q2gW.ltrans3.ltrans.o
                0x00000000000f9370                HDiskImageBackupVar
 .bss.HEditorFirst
                0x00000000000f9390        0x1 /tmp/Shell.dll.y4Q2gW.ltrans3.ltrans.o
                0x00000000000f9390                HEditorFirst
 .bss.HEditorMouseAction
                0x00000000000f9391        0x1 /tmp/Shell.dll.y4Q2gW.ltrans3.ltrans.o
                0x00000000000f9391                HEditorMouseAction
 *fill*         0x00000000000f9392        0x6 
 .bss.HFileImageBackupVar
                0x00000000000f9398       0x18 /tmp/Shell.dll.y4Q2gW.ltrans3.ltrans.o
                0x00000000000f9398                HFileImageBackupVar
 .bss.HMainEditor
                0x00000000000f93b0       0x50 /tmp/Shell.dll.y4Q2gW.ltrans3.ltrans.o
                0x00000000000f93b0                HMainEditor
 .bss.HMainEditorBackupVar
                0x00000000000f9400       0x50 /tmp/Shell.dll.y4Q2gW.ltrans3.ltrans.o
                0x00000000000f9400                HMainEditorBackupVar
 .bss.HMemImageBackupVar
                0x00000000000f9450       0x18 /tmp/Shell.dll.y4Q2gW.ltrans3.ltrans.o
                0x00000000000f9450                HMemImageBackupVar
 .bss.MenuItems
                0x00000000000f9468        0x8 /tmp/Shell.dll.y4Q2gW.ltrans3.ltrans.o
 .bss.NumItems  0x00000000000f9470        0x8 /tmp/Shell.dll.y4Q2gW.ltrans3.ltrans.o
 .bss.StringSize
                0x00000000000f9478        0x8 /tmp/Shell.dll.y4Q2gW.ltrans3.ltrans.o
                0x00000000000f9478                StringSize
 .bss.Title     0x00000000000f9480        0x8 /tmp/Shell.dll.y4Q2gW.ltrans3.ltrans.o
                0x00000000000f9480                Title
 .bss.m64Init   0x00000000000f9488        0x1 /tmp/Shell.dll.y4Q2gW.ltrans3.ltrans.o
 *fill*         0x00000000000f9489        0x1 
 .bss.mAvail    0x00000000000f948a        0x2 /tmp/Shell.dll.y4Q2gW.ltrans3.ltrans.o
 .bss.mBitCount
                0x00000000000f948c        0x4 /tmp/Shell.dll.y4Q2gW.ltrans3.ltrans.o
 .bss.mBuf      0x00000000000f9490        0x8 /tmp/Shell.dll.y4Q2gW.ltrans3.ltrans.o
 .bss.mBufSiz   0x00000000000f9498        0x4 /tmp/Shell.dll.y4Q2gW.ltrans3.ltrans.o
 .bss.mCCode    0x00000000000f949c      0x3fc /tmp/Shell.dll.y4Q2gW.ltrans3.ltrans.o
 .bss.mCFreq    0x00000000000f9898      0x7f6 /tmp/Shell.dll.y4Q2gW.ltrans3.ltrans.o
 .bss.mCLen     0x00000000000fa08e      0x1fe /tmp/Shell.dll.y4Q2gW.ltrans3.ltrans.o
 *fill*         0x00000000000fa28c        0x4 
 .bss.mChildCount
                0x00000000000fa290        0x8 /tmp/Shell.dll.y4Q2gW.ltrans3.ltrans.o
 .bss.mCompSize
                0x00000000000fa298        0x4 /tmp/Shell.dll.y4Q2gW.ltrans3.ltrans.o
 .bss.mCrc      0x00000000000fa29c        0x4 /tmp/Shell.dll.y4Q2gW.ltrans3.ltrans.o
 .bss.mCrcTable
                0x00000000000fa2a0      0x200 /tmp/Shell.dll.y4Q2gW.ltrans3.ltrans.o
 .bss.mDst      0x00000000000fa4a0        0x8 /tmp/Shell.dll.y4Q2gW.ltrans3.ltrans.o
 .bss.mDstUpperLimit
                0x00000000000fa4a8        0x8 /tmp/Shell.dll.y4Q2gW.ltrans3.ltrans.o
 .bss.mFreq     0x00000000000fa4b0        0x8 /tmp/Shell.dll.y4Q2gW.ltrans3.ltrans.o
 .bss.mHeap     0x00000000000fa4b8      0x3fe /tmp/Shell.dll.y4Q2gW.ltrans3.ltrans.o
 *fill*         0x00000000000fa8b6        0x2 
 .bss.mHeapSize
                0x00000000000fa8b8        0x4 /tmp/Shell.dll.y4Q2gW.ltrans3.ltrans.o
 .bss.mHuffmanDepth
                0x00000000000fa8bc        0x4 /tmp/Shell.dll.y4Q2gW.ltrans3.ltrans.o
 .bss.mInit     0x00000000000fa8c0        0x1 /tmp/Shell.dll.y4Q2gW.ltrans3.ltrans.o
 *fill*         0x00000000000fa8c1        0x1 
 .bss.mLeft     0x00000000000fa8c2      0x7f6 /tmp/Shell.dll.y4Q2gW.ltrans3.ltrans.o
 .bss.mLen      0x00000000000fb0b8        0x8 /tmp/Shell.dll.y4Q2gW.ltrans3.ltrans.o
 .bss.mLenCnt   0x00000000000fb0c0       0x22 /tmp/Shell.dll.y4Q2gW.ltrans3.ltrans.o
 *fill*         0x00000000000fb0e2        0x6 
 .bss.mLevel    0x00000000000fb0e8        0x8 /tmp/Shell.dll.y4Q2gW.ltrans3.ltrans.o
 .bss.mMatchLen
                0x00000000000fb0f0        0x4 /tmp/Shell.dll.y4Q2gW.ltrans3.ltrans.o
 .bss.mMatchPos
                0x00000000000fb0f4        0x2 /tmp/Shell.dll.y4Q2gW.ltrans3.ltrans.o
 *fill*         0x00000000000fb0f6        0x2 
 .bss.mNext     0x00000000000fb0f8        0x8 /tmp/Shell.dll.y4Q2gW.ltrans3.ltrans.o
 .bss.mNumberOfSmbios64BitStructures
                0x00000000000fb100        0x8 /tmp/Shell.dll.y4Q2gW.ltrans3.ltrans.o
 .bss.mOrigSize
                0x00000000000fb108        0x4 /tmp/Shell.dll.y4Q2gW.ltrans3.ltrans.o
 .bss.mOutputMask
                0x00000000000fb10c        0x4 /tmp/Shell.dll.y4Q2gW.ltrans3.ltrans.o
 .bss.mOutputPos
                0x00000000000fb110        0x4 /tmp/Shell.dll.y4Q2gW.ltrans3.ltrans.o
 .bss.mPFreq    0x00000000000fb114       0x36 /tmp/Shell.dll.y4Q2gW.ltrans3.ltrans.o
 .bss.mPTCode   0x00000000000fb14a       0x26 /tmp/Shell.dll.y4Q2gW.ltrans3.ltrans.o
 .bss.mPTLen    0x00000000000fb170       0x13 /tmp/Shell.dll.y4Q2gW.ltrans3.ltrans.o
 *fill*         0x00000000000fb183        0x5 
 .bss.mParent   0x00000000000fb188        0x8 /tmp/Shell.dll.y4Q2gW.ltrans3.ltrans.o
 .bss.mPos      0x00000000000fb190        0x2 /tmp/Shell.dll.y4Q2gW.ltrans3.ltrans.o
 *fill*         0x00000000000fb192        0x6 
 .bss.mPosition
                0x00000000000fb198        0x8 /tmp/Shell.dll.y4Q2gW.ltrans3.ltrans.o
 .bss.mPrev     0x00000000000fb1a0        0x8 /tmp/Shell.dll.y4Q2gW.ltrans3.ltrans.o
 .bss.mPrompt   0x00000000000fb1a8        0x8 /tmp/Shell.dll.y4Q2gW.ltrans3.ltrans.o
                0x00000000000fb1a8                mPrompt
 .bss.mRemainder
                0x00000000000fb1b0        0x4 /tmp/Shell.dll.y4Q2gW.ltrans3.ltrans.o
 *fill*         0x00000000000fb1b4        0x4 
 .bss.mReturnString
                0x00000000000fb1b8        0x8 /tmp/Shell.dll.y4Q2gW.ltrans3.ltrans.o
                0x00000000000fb1b8                mReturnString
 .bss.mRight    0x00000000000fb1c0      0x7f6 /tmp/Shell.dll.y4Q2gW.ltrans3.ltrans.o
 *fill*         0x00000000000fb9b6        0x2 
 .bss.mSmbios64BitStatisticsTable
                0x00000000000fb9b8        0x8 /tmp/Shell.dll.y4Q2gW.ltrans3.ltrans.o
 .bss.mSmbios64BitTable
                0x00000000000fb9c0        0x8 /tmp/Shell.dll.y4Q2gW.ltrans3.ltrans.o
 .bss.mSmbios64BitTableLength
                0x00000000000fb9c8        0x8 /tmp/Shell.dll.y4Q2gW.ltrans3.ltrans.o
 .bss.mSmbiosTable
                0x00000000000fb9d0        0x8 /tmp/Shell.dll.y4Q2gW.ltrans3.ltrans.o
 .bss.mSortPtr  0x00000000000fb9d8        0x8 /tmp/Shell.dll.y4Q2gW.ltrans3.ltrans.o
 .bss.mSrc      0x00000000000fb9e0        0x8 /tmp/Shell.dll.y4Q2gW.ltrans3.ltrans.o
 .bss.mSrcUpperLimit
                0x00000000000fb9e8        0x8 /tmp/Shell.dll.y4Q2gW.ltrans3.ltrans.o
 .bss.mStatisticsTable
                0x00000000000fb9f0        0x8 /tmp/Shell.dll.y4Q2gW.ltrans3.ltrans.o
 .bss.mSubBitBuf
                0x00000000000fb9f8        0x4 /tmp/Shell.dll.y4Q2gW.ltrans3.ltrans.o
 .bss.mTFreq    0x00000000000fb9fc       0x4a /tmp/Shell.dll.y4Q2gW.ltrans3.ltrans.o
 *fill*         0x00000000000fba46        0x2 
 .bss.mTempInt32
                0x00000000000fba48        0x4 /tmp/Shell.dll.y4Q2gW.ltrans3.ltrans.o
 *fill*         0x00000000000fba4c        0x4 
 .bss.mText     0x00000000000fba50        0x8 /tmp/Shell.dll.y4Q2gW.ltrans3.ltrans.o
 .bss.mTextInEx
                0x00000000000fba58        0x8 /tmp/Shell.dll.y4Q2gW.ltrans3.ltrans.o
                0x00000000000fba58                mTextInEx
 .bss.m_Smbios64BitStruct
                0x00000000000fba60        0x8 /tmp/Shell.dll.y4Q2gW.ltrans3.ltrans.o
 .bss.m_SmbiosStruct
                0x00000000000fba68        0x8 /tmp/Shell.dll.y4Q2gW.ltrans3.ltrans.o
 .bss.mConfigSpace
                0x00000000000fba70        0x8 /tmp/Shell.dll.y4Q2gW.ltrans4.ltrans.o
 .bss.EditorExit
                0x00000000000fba78        0x1 /tmp/Shell.dll.y4Q2gW.ltrans5.ltrans.o
 .bss.EditorFirst
                0x00000000000fba79        0x1 /tmp/Shell.dll.y4Q2gW.ltrans5.ltrans.o
 .bss.EditorMouseAction
                0x00000000000fba7a        0x1 /tmp/Shell.dll.y4Q2gW.ltrans5.ltrans.o
 *fill*         0x00000000000fba7b        0x5 
 .bss.FileBuffer
                0x00000000000fba80       0x78 /tmp/Shell.dll.y4Q2gW.ltrans5.ltrans.o
 .bss.FileBufferBackupVar
                0x00000000000fbaf8       0x78 /tmp/Shell.dll.y4Q2gW.ltrans5.ltrans.o
 .bss.FileBufferMouseNeedRefresh
                0x00000000000fbb70        0x1 /tmp/Shell.dll.y4Q2gW.ltrans5.ltrans.o
 .bss.FileBufferNeedRefresh
                0x00000000000fbb71        0x1 /tmp/Shell.dll.y4Q2gW.ltrans5.ltrans.o
 .bss.FileBufferOnlyLineNeedRefresh
                0x00000000000fbb72        0x1 /tmp/Shell.dll.y4Q2gW.ltrans5.ltrans.o
 *fill*         0x00000000000fbb73        0x5 
 .bss.HClipBoard
                0x00000000000fbb78       0x10 /tmp/Shell.dll.y4Q2gW.ltrans5.ltrans.o
 .bss.HClipBoardConst
                0x00000000000fbb88       0x10 /tmp/Shell.dll.y4Q2gW.ltrans5.ltrans.o
 .bss.HDiskImageConst
                0x00000000000fbb98       0x20 /tmp/Shell.dll.y4Q2gW.ltrans5.ltrans.o
 .bss.HEditorExit
                0x00000000000fbbb8        0x1 /tmp/Shell.dll.y4Q2gW.ltrans5.ltrans.o
 *fill*         0x00000000000fbbb9        0x7 
 .bss.HFileImageConst
                0x00000000000fbbc0       0x78 /tmp/Shell.dll.y4Q2gW.ltrans5.ltrans.o
 .bss.HMemImageConst
                0x00000000000fbc38       0x18 /tmp/Shell.dll.y4Q2gW.ltrans5.ltrans.o
 .bss.HOriginalColors
                0x00000000000fbc50        0x4 /tmp/Shell.dll.y4Q2gW.ltrans5.ltrans.o
 *fill*         0x00000000000fbc54        0x4 
 .bss.HOriginalMode
                0x00000000000fbc58        0x8 /tmp/Shell.dll.y4Q2gW.ltrans5.ltrans.o
 .bss.MainEditor
                0x00000000000fbc60       0x48 /tmp/Shell.dll.y4Q2gW.ltrans5.ltrans.o
 .bss.OriginalColors
                0x00000000000fbca8        0x4 /tmp/Shell.dll.y4Q2gW.ltrans5.ltrans.o
 *fill*         0x00000000000fbcac        0x4 
 .bss.OriginalMode
                0x00000000000fbcb0        0x8 /tmp/Shell.dll.y4Q2gW.ltrans5.ltrans.o
 .bss.gShellDriver1HiiHandle
                0x00000000000fbcb8        0x8 /tmp/Shell.dll.y4Q2gW.ltrans5.ltrans.o
                0x00000000000fbcb8                gShellDriver1HiiHandle
 .bss.gInReconnect
                0x00000000000fbcc0        0x1 /tmp/Shell.dll.y4Q2gW.ltrans6.ltrans.o
 *fill*         0x00000000000fbcc1        0x7 
 .bss.gShellLevel1HiiHandle
                0x00000000000fbcc8        0x8 /tmp/Shell.dll.y4Q2gW.ltrans6.ltrans.o
                0x00000000000fbcc8                gShellLevel1HiiHandle
 .bss.gShellLevel3HiiHandle
                0x00000000000fbcd0        0x8 /tmp/Shell.dll.y4Q2gW.ltrans6.ltrans.o
                0x00000000000fbcd0                gShellLevel3HiiHandle
 .bss.gShellLevel2HiiHandle
                0x00000000000fbcd8        0x8 /tmp/Shell.dll.y4Q2gW.ltrans7.ltrans.o
                0x00000000000fbcd8                gShellLevel2HiiHandle
 .bss.gHiiString
                0x00000000000fbce0        0x8 /tmp/Shell.dll.y4Q2gW.ltrans9.ltrans.o
                0x00000000000fbce0                gHiiString
 .bss.gShellCurMapping
                0x00000000000fbce8        0x8 /tmp/Shell.dll.y4Q2gW.ltrans9.ltrans.o
                0x00000000000fbce8                gShellCurMapping
 .bss.mAliasList.lto_priv.0
                0x00000000000fbcf0       0x20 /tmp/Shell.dll.y4Q2gW.ltrans9.ltrans.o
                0x00000000000fbcf0                mAliasList.lto_priv.0
 .bss.mBlkMaxCount
                0x00000000000fbd10        0x8 /tmp/Shell.dll.y4Q2gW.ltrans9.ltrans.o
 .bss.mFileHandleList.lto_priv.0
                0x00000000000fbd18       0x18 /tmp/Shell.dll.y4Q2gW.ltrans9.ltrans.o
                0x00000000000fbd18                mFileHandleList.lto_priv.0
 .bss.mFsMaxCount
                0x00000000000fbd30        0x8 /tmp/Shell.dll.y4Q2gW.ltrans9.ltrans.o
 .bss.mGuidList
                0x00000000000fbd38        0x8 /tmp/Shell.dll.y4Q2gW.ltrans9.ltrans.o
                0x00000000000fbd38                mGuidList
 .bss.mGuidListCount
                0x00000000000fbd40        0x8 /tmp/Shell.dll.y4Q2gW.ltrans9.ltrans.o
                0x00000000000fbd40                mGuidListCount
 .bss.mHandleList
                0x00000000000fbd48       0x28 /tmp/Shell.dll.y4Q2gW.ltrans9.ltrans.o
 .bss.mHandleParsingHiiHandle
                0x00000000000fbd70        0x8 /tmp/Shell.dll.y4Q2gW.ltrans9.ltrans.o
                0x00000000000fbd70                mHandleParsingHiiHandle
 .bss.mProfileList.lto_priv.0
                0x00000000000fbd78        0x8 /tmp/Shell.dll.y4Q2gW.ltrans9.ltrans.o
                0x00000000000fbd78                mProfileList.lto_priv.0
 .bss.mProfileListSize.lto_priv.0
                0x00000000000fbd80        0x8 /tmp/Shell.dll.y4Q2gW.ltrans9.ltrans.o
                0x00000000000fbd80                mProfileListSize.lto_priv.0
 .bss.mScriptList.lto_priv.0
                0x00000000000fbd88       0x18 /tmp/Shell.dll.y4Q2gW.ltrans9.ltrans.o
                0x00000000000fbd88                mScriptList.lto_priv.0
 .bss.mUnicodeCollationProtocol
                0x00000000000fbda0        0x8 /tmp/Shell.dll.y4Q2gW.ltrans9.ltrans.o
                0x00000000000fbda0                mUnicodeCollationProtocol
 .bss.AsciiRedirection
                0x00000000000fbda8        0x1 /tmp/Shell.dll.y4Q2gW.ltrans10.ltrans.o
                0x00000000000fbda8                AsciiRedirection
 *fill*         0x00000000000fbda9        0x7 
 .bss.gShellEnvVarList
                0x00000000000fbdb0       0x28 /tmp/Shell.dll.y4Q2gW.ltrans10.ltrans.o
                0x00000000000fbdb0                gShellEnvVarList
 .bss.mUnicodeCollation
                0x00000000000fbdd8        0x8 /tmp/Shell.dll.y4Q2gW.ltrans10.ltrans.o
 .bss.gDS       0x00000000000fbde0        0x8 /tmp/Shell.dll.y4Q2gW.ltrans12.ltrans.o
 .bss.gHiiConfigRouting
                0x00000000000fbde8        0x8 /tmp/Shell.dll.y4Q2gW.ltrans12.ltrans.o
 .bss.gHiiFont  0x00000000000fbdf0        0x8 /tmp/Shell.dll.y4Q2gW.ltrans12.ltrans.o
 .bss.gHiiImage
                0x00000000000fbdf8        0x8 /tmp/Shell.dll.y4Q2gW.ltrans12.ltrans.o
 .bss.mHobList  0x00000000000fbe00        0x8 /tmp/Shell.dll.y4Q2gW.ltrans12.ltrans.o

.dynbss         0x00000000000fbe08        0x0
 .dynbss        0x00000000000fbe08        0x0 /home/alastair/pftf-rpi4/edk2/ArmPkg/Library/GccLto/liblto-aarch64.a

.eh_frame
 *(.eh_frame)

.rela           0x00000000000fbe08    0x17418
 *(.rela .rela.*)
 .rela.got      0x00000000000fbe08        0x0 /home/alastair/pftf-rpi4/edk2/ArmPkg/Library/GccLto/liblto-aarch64.a
 .rela.plt      0x00000000000fbe08        0x0 /home/alastair/pftf-rpi4/edk2/ArmPkg/Library/GccLto/liblto-aarch64.a
 .rela.bss      0x00000000000fbe08        0x0 /home/alastair/pftf-rpi4/edk2/ArmPkg/Library/GccLto/liblto-aarch64.a
 .rela.data.rel.ro
                0x00000000000fbe08        0x0 /home/alastair/pftf-rpi4/edk2/ArmPkg/Library/GccLto/liblto-aarch64.a
 .rela.ifunc    0x00000000000fbe08        0x0 /home/alastair/pftf-rpi4/edk2/ArmPkg/Library/GccLto/liblto-aarch64.a
 .rela.data.SELSysManagementTypesTable
                0x00000000000fbe08      0x180 /home/alastair/pftf-rpi4/edk2/ArmPkg/Library/GccLto/liblto-aarch64.a
 .rela.rodata.AcpiHeaderParser.lto_priv.0
                0x00000000000fbf88      0x288 /home/alastair/pftf-rpi4/edk2/ArmPkg/Library/GccLto/liblto-aarch64.a
 .rela.rodata.GasParser.lto_priv.0
                0x00000000000fc210       0xf0 /home/alastair/pftf-rpi4/edk2/ArmPkg/Library/GccLto/liblto-aarch64.a
 .rela.rodata.ParamList
                0x00000000000fc300       0xc0 /home/alastair/pftf-rpi4/edk2/ArmPkg/Library/GccLto/liblto-aarch64.a
 .rela.rodata.SratApciSapicAffinityParser
                0x00000000000fc3c0      0x198 /home/alastair/pftf-rpi4/edk2/ArmPkg/Library/GccLto/liblto-aarch64.a
 .rela.rodata.SratGenericInitiatorAffinityParser
                0x00000000000fc558      0x1c8 /home/alastair/pftf-rpi4/edk2/ArmPkg/Library/GccLto/liblto-aarch64.a
 .rela.rodata.SratGicCAffinityParser
                0x00000000000fc720      0x120 /home/alastair/pftf-rpi4/edk2/ArmPkg/Library/GccLto/liblto-aarch64.a
 .rela.rodata.SratGicITSAffinityParser
                0x00000000000fc840       0xf0 /home/alastair/pftf-rpi4/edk2/ArmPkg/Library/GccLto/liblto-aarch64.a
 .rela.rodata.SratMemAffinityParser
                0x00000000000fc930      0x210 /home/alastair/pftf-rpi4/edk2/ArmPkg/Library/GccLto/liblto-aarch64.a
 .rela.rodata.SratParser
                0x00000000000fcb40      0x300 /home/alastair/pftf-rpi4/edk2/ArmPkg/Library/GccLto/liblto-aarch64.a
 .rela.rodata.SratResourceAllocationParser
                0x00000000000fce40       0x60 /home/alastair/pftf-rpi4/edk2/ArmPkg/Library/GccLto/liblto-aarch64.a
 .rela.rodata.SratX2ApciAffinityParser
                0x00000000000fcea0      0x180 /home/alastair/pftf-rpi4/edk2/ArmPkg/Library/GccLto/liblto-aarch64.a
 .rela.rodata.XsdtParser
                0x00000000000fd020      0x288 /home/alastair/pftf-rpi4/edk2/ArmPkg/Library/GccLto/liblto-aarch64.a
 .rela.rodata.mBmLoadOptionName
                0x00000000000fd2a8       0x60 /home/alastair/pftf-rpi4/edk2/ArmPkg/Library/GccLto/liblto-aarch64.a
 .rela.data.McErrorCorrectCapabilityTable
                0x00000000000fd308       0x90 /home/alastair/pftf-rpi4/edk2/ArmPkg/Library/GccLto/liblto-aarch64.a
 .rela.data.McInterleaveSupportTable
                0x00000000000fd398       0xa8 /home/alastair/pftf-rpi4/edk2/ArmPkg/Library/GccLto/liblto-aarch64.a
 .rela.data.MemoryErrorGranularityTable
                0x00000000000fd440       0x60 /home/alastair/pftf-rpi4/edk2/ArmPkg/Library/GccLto/liblto-aarch64.a
 .rela.data.MemoryErrorOperationTable
                0x00000000000fd4a0       0x78 /home/alastair/pftf-rpi4/edk2/ArmPkg/Library/GccLto/liblto-aarch64.a
 .rela.data.MemoryErrorTypeTable
                0x00000000000fd518      0x150 /home/alastair/pftf-rpi4/edk2/ArmPkg/Library/GccLto/liblto-aarch64.a
 .rela.data.MmMemoryTypeTable
                0x00000000000fd668      0x108 /home/alastair/pftf-rpi4/edk2/ArmPkg/Library/GccLto/liblto-aarch64.a
 .rela.data.OnboardDeviceTypesTable
                0x00000000000fd770       0xf0 /home/alastair/pftf-rpi4/edk2/ArmPkg/Library/GccLto/liblto-aarch64.a
 .rela.data.PortConnectorTypeTable
                0x00000000000fd860      0x3f0 /home/alastair/pftf-rpi4/edk2/ArmPkg/Library/GccLto/liblto-aarch64.a
 .rela.data.SELTypesTable
                0x00000000000fdc50      0x288 /home/alastair/pftf-rpi4/edk2/ArmPkg/Library/GccLto/liblto-aarch64.a
 .rela.data.SELVarDataFormatTypeTable
                0x00000000000fded8       0xd8 /home/alastair/pftf-rpi4/edk2/ArmPkg/Library/GccLto/liblto-aarch64.a
 .rela.data.SystemEnclosureStatusTable
                0x00000000000fdfb0       0x90 /home/alastair/pftf-rpi4/edk2/ArmPkg/Library/GccLto/liblto-aarch64.a
 .rela.data.SystemEnclosureTypeTable
                0x00000000000fe040      0x360 /home/alastair/pftf-rpi4/edk2/ArmPkg/Library/GccLto/liblto-aarch64.a
 .rela.data.SystemSlotTypeTable
                0x00000000000fe3a0      0x618 /home/alastair/pftf-rpi4/edk2/ArmPkg/Library/GccLto/liblto-aarch64.a
 .rela.data.mIfConfigCheckList
                0x00000000000fe9b8       0x78 /home/alastair/pftf-rpi4/edk2/ArmPkg/Library/GccLto/liblto-aarch64.a
 .rela.data.mSetCheckList
                0x00000000000fea30       0x48 /home/alastair/pftf-rpi4/edk2/ArmPkg/Library/GccLto/liblto-aarch64.a
 .rela.rodata.AestGicStructure
                0x00000000000fea78       0x78 /home/alastair/pftf-rpi4/edk2/ArmPkg/Library/GccLto/liblto-aarch64.a
 .rela.rodata.AestMemoryControllerStructure
                0x00000000000feaf0       0x30 /home/alastair/pftf-rpi4/edk2/ArmPkg/Library/GccLto/liblto-aarch64.a
 .rela.rodata.AestNodeHeaderParser
                0x00000000000feb20      0x270 /home/alastair/pftf-rpi4/edk2/ArmPkg/Library/GccLto/liblto-aarch64.a
 .rela.rodata.AestNodeInterface
                0x00000000000fed90      0x1e0 /home/alastair/pftf-rpi4/edk2/ArmPkg/Library/GccLto/liblto-aarch64.a
 .rela.rodata.AestNodeInterrupt
                0x00000000000fef70      0x168 /home/alastair/pftf-rpi4/edk2/ArmPkg/Library/GccLto/liblto-aarch64.a
 .rela.rodata.AestParser
                0x00000000000ff0d8      0x288 /home/alastair/pftf-rpi4/edk2/ArmPkg/Library/GccLto/liblto-aarch64.a
 .rela.rodata.AestProcessorCacheResourceSubstructure
                0x00000000000ff360       0x60 /home/alastair/pftf-rpi4/edk2/ArmPkg/Library/GccLto/liblto-aarch64.a
 .rela.rodata.AestProcessorGenericResourceSubstructure
                0x00000000000ff3c0       0x30 /home/alastair/pftf-rpi4/edk2/ArmPkg/Library/GccLto/liblto-aarch64.a
 .rela.rodata.AestProcessorStructure
                0x00000000000ff3f0      0x180 /home/alastair/pftf-rpi4/edk2/ArmPkg/Library/GccLto/liblto-aarch64.a
 .rela.rodata.AestProcessorTlbResourceSubstructure
                0x00000000000ff570       0x60 /home/alastair/pftf-rpi4/edk2/ArmPkg/Library/GccLto/liblto-aarch64.a
 .rela.rodata.AestSmmuStructure
                0x00000000000ff5d0       0x60 /home/alastair/pftf-rpi4/edk2/ArmPkg/Library/GccLto/liblto-aarch64.a
 .rela.rodata.AestVendorDefinedStructure
                0x00000000000ff630       0x90 /home/alastair/pftf-rpi4/edk2/ArmPkg/Library/GccLto/liblto-aarch64.a
 .rela.rodata.ArmSbbrReqs
                0x00000000000ff6c0       0x48 /home/alastair/pftf-rpi4/edk2/ArmPkg/Library/GccLto/liblto-aarch64.a
 .rela.rodata.ArmSbbrVersions
                0x00000000000ff708       0x48 /home/alastair/pftf-rpi4/edk2/ArmPkg/Library/GccLto/liblto-aarch64.a
 .rela.rodata.BgrtParser
                0x00000000000ff750      0x3a8 /home/alastair/pftf-rpi4/edk2/ArmPkg/Library/GccLto/liblto-aarch64.a
 .rela.rodata.CacheTypeStructureParser
                0x00000000000ffaf8      0x240 /home/alastair/pftf-rpi4/edk2/ArmPkg/Library/GccLto/liblto-aarch64.a
 .rela.rodata.Dbg2Parser
                0x00000000000ffd38      0x318 /home/alastair/pftf-rpi4/edk2/ArmPkg/Library/GccLto/liblto-aarch64.a
 .rela.rodata.DbgDevInfoHeaderParser
                0x0000000000100050       0x78 /home/alastair/pftf-rpi4/edk2/ArmPkg/Library/GccLto/liblto-aarch64.a
 .rela.rodata.DbgDevInfoParser
                0x00000000001000c8      0x300 /home/alastair/pftf-rpi4/edk2/ArmPkg/Library/GccLto/liblto-aarch64.a
 .rela.rodata.FacsParser
                0x00000000001003c8      0x2e8 /home/alastair/pftf-rpi4/edk2/ArmPkg/Library/GccLto/liblto-aarch64.a
 .rela.rodata.FadtParser
                0x00000000001006b0      0xdb0 /home/alastair/pftf-rpi4/edk2/ArmPkg/Library/GccLto/liblto-aarch64.a
 .rela.rodata.GicCParser
                0x0000000000101460      0x378 /home/alastair/pftf-rpi4/edk2/ArmPkg/Library/GccLto/liblto-aarch64.a
 .rela.rodata.GicDParser
                0x00000000001017d8      0x1b0 /home/alastair/pftf-rpi4/edk2/ArmPkg/Library/GccLto/liblto-aarch64.a
 .rela.rodata.GicITSParser
                0x0000000000101988      0x120 /home/alastair/pftf-rpi4/edk2/ArmPkg/Library/GccLto/liblto-aarch64.a
 .rela.rodata.GicMSIFrameParser
                0x0000000000101aa8      0x180 /home/alastair/pftf-rpi4/edk2/ArmPkg/Library/GccLto/liblto-aarch64.a
 .rela.rodata.GicRParser
                0x0000000000101c28       0xf0 /home/alastair/pftf-rpi4/edk2/ArmPkg/Library/GccLto/liblto-aarch64.a
 .rela.rodata.GtBlockParser
                0x0000000000101d18      0x168 /home/alastair/pftf-rpi4/edk2/ArmPkg/Library/GccLto/liblto-aarch64.a
 .rela.rodata.GtBlockTimerParser
                0x0000000000101e80      0x1e0 /home/alastair/pftf-rpi4/edk2/ArmPkg/Library/GccLto/liblto-aarch64.a
 .rela.rodata.GtPlatformTimerHeaderParser
                0x0000000000102060       0x78 /home/alastair/pftf-rpi4/edk2/ArmPkg/Library/GccLto/liblto-aarch64.a
 .rela.rodata.GtdtParser
                0x00000000001020d8      0x588 /home/alastair/pftf-rpi4/edk2/ArmPkg/Library/GccLto/liblto-aarch64.a
 .rela.rodata.HmatParser
                0x0000000000102660      0x2a0 /home/alastair/pftf-rpi4/edk2/ArmPkg/Library/GccLto/liblto-aarch64.a
 .rela.rodata.HmatStructureHeaderParser
                0x0000000000102900       0x78 /home/alastair/pftf-rpi4/edk2/ArmPkg/Library/GccLto/liblto-aarch64.a
 .rela.rodata.IdStructureParser
                0x0000000000102978      0x1b0 /home/alastair/pftf-rpi4/edk2/ArmPkg/Library/GccLto/liblto-aarch64.a
 .rela.rodata.InterruptArrayParser
                0x0000000000102b28       0x60 /home/alastair/pftf-rpi4/edk2/ArmPkg/Library/GccLto/liblto-aarch64.a
 .rela.rodata.IortNodeHeaderParser
                0x0000000000102b88      0x180 /home/alastair/pftf-rpi4/edk2/ArmPkg/Library/GccLto/liblto-aarch64.a
 .rela.rodata.IortNodeIdMappingParser
                0x0000000000102d08       0xf0 /home/alastair/pftf-rpi4/edk2/ArmPkg/Library/GccLto/liblto-aarch64.a
 .rela.rodata.IortNodeItsParser
                0x0000000000102df8      0x1f8 /home/alastair/pftf-rpi4/edk2/ArmPkg/Library/GccLto/liblto-aarch64.a
 .rela.rodata.IortNodeNamedComponentParser
                0x0000000000102ff0      0x210 /home/alastair/pftf-rpi4/edk2/ArmPkg/Library/GccLto/liblto-aarch64.a
 .rela.rodata.IortNodePmcgParser
                0x0000000000103200      0x258 /home/alastair/pftf-rpi4/edk2/ArmPkg/Library/GccLto/liblto-aarch64.a
 .rela.rodata.IortNodeRootComplexParser
                0x0000000000103458      0x288 /home/alastair/pftf-rpi4/edk2/ArmPkg/Library/GccLto/liblto-aarch64.a
 .rela.rodata.IortNodeSmmuV1V2Parser
                0x00000000001036e0      0x450 /home/alastair/pftf-rpi4/edk2/ArmPkg/Library/GccLto/liblto-aarch64.a
 .rela.rodata.IortNodeSmmuV3Parser
                0x0000000000103b30      0x390 /home/alastair/pftf-rpi4/edk2/ArmPkg/Library/GccLto/liblto-aarch64.a
 .rela.rodata.IortParser
                0x0000000000103ec0      0x348 /home/alastair/pftf-rpi4/edk2/ArmPkg/Library/GccLto/liblto-aarch64.a
 .rela.rodata.ItsIdParser
                0x0000000000104208       0x30 /home/alastair/pftf-rpi4/edk2/ArmPkg/Library/GccLto/liblto-aarch64.a
 .rela.rodata.MadtInterruptControllerHeaderParser
                0x0000000000104238       0x60 /home/alastair/pftf-rpi4/edk2/ArmPkg/Library/GccLto/liblto-aarch64.a
 .rela.rodata.MadtParser
                0x0000000000104298      0x2e8 /home/alastair/pftf-rpi4/edk2/ArmPkg/Library/GccLto/liblto-aarch64.a
 .rela.rodata.McfgParser
                0x0000000000104580      0x2b8 /home/alastair/pftf-rpi4/edk2/ArmPkg/Library/GccLto/liblto-aarch64.a
 .rela.rodata.MemProximityDomainAttributeParser
                0x0000000000104838      0x1e0 /home/alastair/pftf-rpi4/edk2/ArmPkg/Library/GccLto/liblto-aarch64.a
 .rela.rodata.MemSideCacheInfoParser
                0x0000000000104a18      0x1e0 /home/alastair/pftf-rpi4/edk2/ArmPkg/Library/GccLto/liblto-aarch64.a
 .rela.rodata.PccSubspaceHeaderParser
                0x0000000000104bf8       0x90 /home/alastair/pftf-rpi4/edk2/ArmPkg/Library/GccLto/liblto-aarch64.a
 .rela.rodata.PccSubspaceType0Parser
                0x0000000000104c88      0x288 /home/alastair/pftf-rpi4/edk2/ArmPkg/Library/GccLto/liblto-aarch64.a
 .rela.rodata.PccSubspaceType1Parser
                0x0000000000104f10      0x2d0 /home/alastair/pftf-rpi4/edk2/ArmPkg/Library/GccLto/liblto-aarch64.a
 .rela.rodata.PccSubspaceType2Parser
                0x00000000001051e0      0x378 /home/alastair/pftf-rpi4/edk2/ArmPkg/Library/GccLto/liblto-aarch64.a
 .rela.rodata.PccSubspaceType3Parser
                0x0000000000105558      0x570 /home/alastair/pftf-rpi4/edk2/ArmPkg/Library/GccLto/liblto-aarch64.a
 .rela.rodata.PcctParser
                0x0000000000105ac8      0x2d0 /home/alastair/pftf-rpi4/edk2/ArmPkg/Library/GccLto/liblto-aarch64.a
 .rela.rodata.PciCfgSpaceBaseAddrParser
                0x0000000000105d98       0xf0 /home/alastair/pftf-rpi4/edk2/ArmPkg/Library/GccLto/liblto-aarch64.a
 .rela.rodata.PingParamList
                0x0000000000105e88       0x78 /home/alastair/pftf-rpi4/edk2/ArmPkg/Library/GccLto/liblto-aarch64.a
 .rela.rodata.PpttParser
                0x0000000000105f00      0x288 /home/alastair/pftf-rpi4/edk2/ArmPkg/Library/GccLto/liblto-aarch64.a
 .rela.rodata.ProcessorHierarchyNodeStructureParser
                0x0000000000106188      0x168 /home/alastair/pftf-rpi4/edk2/ArmPkg/Library/GccLto/liblto-aarch64.a
 .rela.rodata.ProcessorTopologyStructureHeaderParser
                0x00000000001062f0       0x78 /home/alastair/pftf-rpi4/edk2/ArmPkg/Library/GccLto/liblto-aarch64.a
 .rela.rodata.RsdpParser
                0x0000000000106368      0x210 /home/alastair/pftf-rpi4/edk2/ArmPkg/Library/GccLto/liblto-aarch64.a
 .rela.rodata.SBSAGenericWatchdogParser
                0x0000000000106578      0x150 /home/alastair/pftf-rpi4/edk2/ArmPkg/Library/GccLto/liblto-aarch64.a
 .rela.rodata.SlitParser
                0x00000000001066c8      0x2d0 /home/alastair/pftf-rpi4/edk2/ArmPkg/Library/GccLto/liblto-aarch64.a
 .rela.rodata.SllbiNames
                0x0000000000106998       0x90 /home/alastair/pftf-rpi4/edk2/ArmPkg/Library/GccLto/liblto-aarch64.a
 .rela.rodata.SllbiParser
                0x0000000000106a28      0x240 /home/alastair/pftf-rpi4/edk2/ArmPkg/Library/GccLto/liblto-aarch64.a
 .rela.rodata.SpcrParser
                0x0000000000106c68      0x690 /home/alastair/pftf-rpi4/edk2/ArmPkg/Library/GccLto/liblto-aarch64.a
 .rela.rodata.SratDeviceHandleAcpiParser
                0x00000000001072f8       0x90 /home/alastair/pftf-rpi4/edk2/ArmPkg/Library/GccLto/liblto-aarch64.a
 .rela.rodata.SratDeviceHandlePciParser
                0x0000000000107388       0xa8 /home/alastair/pftf-rpi4/edk2/ArmPkg/Library/GccLto/liblto-aarch64.a
 .rela.data.BaseBoardBoardTypeTable
                0x0000000000107430      0x138 /home/alastair/pftf-rpi4/edk2/ArmPkg/Library/GccLto/liblto-aarch64.a
 .rela.data.BaseBoardFeatureFlagsTable
                0x0000000000107568       0x78 /home/alastair/pftf-rpi4/edk2/ArmPkg/Library/GccLto/liblto-aarch64.a
 .rela.data.CacheAssociativityTable
                0x00000000001075e0      0x150 /home/alastair/pftf-rpi4/edk2/ArmPkg/Library/GccLto/liblto-aarch64.a
 .rela.data.CacheErrCorrectingTypeTable
                0x0000000000107730       0x90 /home/alastair/pftf-rpi4/edk2/ArmPkg/Library/GccLto/liblto-aarch64.a
 .rela.data.CacheSRAMTypeTable
                0x00000000001077c0       0xa8 /home/alastair/pftf-rpi4/edk2/ArmPkg/Library/GccLto/liblto-aarch64.a
 .rela.data.CacheSystemCacheTypeTable
                0x0000000000107868       0x78 /home/alastair/pftf-rpi4/edk2/ArmPkg/Library/GccLto/liblto-aarch64.a
 .rela.data.CoolingDeviceStatusTable
                0x00000000001078e0       0x90 /home/alastair/pftf-rpi4/edk2/ArmPkg/Library/GccLto/liblto-aarch64.a
 .rela.data.CoolingDeviceTypeTable
                0x0000000000107970      0x108 /home/alastair/pftf-rpi4/edk2/ArmPkg/Library/GccLto/liblto-aarch64.a
 .rela.data.ECPLocTable
                0x0000000000107a78      0x108 /home/alastair/pftf-rpi4/edk2/ArmPkg/Library/GccLto/liblto-aarch64.a
 .rela.data.ECPStatusTable
                0x0000000000107b80       0x90 /home/alastair/pftf-rpi4/edk2/ArmPkg/Library/GccLto/liblto-aarch64.a
 .rela.data.IPMIDIBMCInterfaceTypeTable
                0x0000000000107c10       0x90 /home/alastair/pftf-rpi4/edk2/ArmPkg/Library/GccLto/liblto-aarch64.a
 .rela.data.MCHostInterfaceTypeTable
                0x0000000000107ca0       0x48 /home/alastair/pftf-rpi4/edk2/ArmPkg/Library/GccLto/liblto-aarch64.a
 .rela.data.MDAddressTypeTable
                0x0000000000107ce8       0x78 /home/alastair/pftf-rpi4/edk2/ArmPkg/Library/GccLto/liblto-aarch64.a
 .rela.data.MDTypeTable
                0x0000000000107d60      0x138 /home/alastair/pftf-rpi4/edk2/ArmPkg/Library/GccLto/liblto-aarch64.a
 .rela.data.McErrorDetectMethodTable
                0x0000000000107e98       0xc0 /home/alastair/pftf-rpi4/edk2/ArmPkg/Library/GccLto/liblto-aarch64.a
 .rela.data.McMemorySpeedsTable
                0x0000000000107f58       0x78 /home/alastair/pftf-rpi4/edk2/ArmPkg/Library/GccLto/liblto-aarch64.a
 .rela.data.MemoryChannelTypeTable
                0x0000000000107fd0       0x60 /home/alastair/pftf-rpi4/edk2/ArmPkg/Library/GccLto/liblto-aarch64.a
 .rela.data.MemoryDeviceFormFactorTable
                0x0000000000108030      0x180 /home/alastair/pftf-rpi4/edk2/ArmPkg/Library/GccLto/liblto-aarch64.a
 .rela.data.MemoryDeviceMemoryOperatingModeCapabilityTable
                0x00000000001081b0       0x78 /home/alastair/pftf-rpi4/edk2/ArmPkg/Library/GccLto/liblto-aarch64.a
 .rela.data.MemoryDeviceMemoryTechnologyTable
                0x0000000000108228       0xa8 /home/alastair/pftf-rpi4/edk2/ArmPkg/Library/GccLto/liblto-aarch64.a
 .rela.data.MemoryDeviceTypeDetailTable
                0x00000000001082d0      0x150 /home/alastair/pftf-rpi4/edk2/ArmPkg/Library/GccLto/liblto-aarch64.a
 .rela.data.MemoryDeviceTypeTable
                0x0000000000108420      0x300 /home/alastair/pftf-rpi4/edk2/ArmPkg/Library/GccLto/liblto-aarch64.a
 .rela.data.MemoryModuleVoltageTable
                0x0000000000108720       0x48 /home/alastair/pftf-rpi4/edk2/ArmPkg/Library/GccLto/liblto-aarch64.a
 .rela.data.MmErrorStatusTable
                0x0000000000108768       0x48 /home/alastair/pftf-rpi4/edk2/ArmPkg/Library/GccLto/liblto-aarch64.a
 .rela.data.PBDeviceChemistryTable
                0x00000000001087b0       0xc0 /home/alastair/pftf-rpi4/edk2/ArmPkg/Library/GccLto/liblto-aarch64.a
 .rela.data.PMAErrorCorrectionTypesTable
                0x0000000000108870       0xa8 /home/alastair/pftf-rpi4/edk2/ArmPkg/Library/GccLto/liblto-aarch64.a
 .rela.data.PMALocationTable
                0x0000000000108918      0x168 /home/alastair/pftf-rpi4/edk2/ArmPkg/Library/GccLto/liblto-aarch64.a
 .rela.data.PMAUseTable
                0x0000000000108a80       0xa8 /home/alastair/pftf-rpi4/edk2/ArmPkg/Library/GccLto/liblto-aarch64.a
 .rela.data.PointingDeviceInterfaceTable
                0x0000000000108b28      0x108 /home/alastair/pftf-rpi4/edk2/ArmPkg/Library/GccLto/liblto-aarch64.a
 .rela.data.PointingDeviceTypeTable
                0x0000000000108c30       0xa8 /home/alastair/pftf-rpi4/edk2/ArmPkg/Library/GccLto/liblto-aarch64.a
 .rela.data.PortTypeTable
                0x0000000000108cd8      0x3a8 /home/alastair/pftf-rpi4/edk2/ArmPkg/Library/GccLto/liblto-aarch64.a
 .rela.data.PostResultsBitmapDw1Table
                0x0000000000109080      0x300 /home/alastair/pftf-rpi4/edk2/ArmPkg/Library/GccLto/liblto-aarch64.a
 .rela.data.PostResultsBitmapDw2Table
                0x0000000000109380      0x300 /home/alastair/pftf-rpi4/edk2/ArmPkg/Library/GccLto/liblto-aarch64.a
 .rela.data.ProcessorArchitectureTypesTable
                0x0000000000109680       0xd8 /home/alastair/pftf-rpi4/edk2/ArmPkg/Library/GccLto/liblto-aarch64.a
 .rela.data.ProcessorCharacteristicsTable
                0x0000000000109758       0xd8 /home/alastair/pftf-rpi4/edk2/ArmPkg/Library/GccLto/liblto-aarch64.a
 .rela.data.ProcessorTypeTable
                0x0000000000109830       0x90 /home/alastair/pftf-rpi4/edk2/ArmPkg/Library/GccLto/liblto-aarch64.a
 .rela.data.ProcessorUpgradeTable
                0x00000000001098c0      0x5a0 /home/alastair/pftf-rpi4/edk2/ArmPkg/Library/GccLto/liblto-aarch64.a
 .rela.data.SESecurityStatusTable
                0x0000000000109e60       0x78 /home/alastair/pftf-rpi4/edk2/ArmPkg/Library/GccLto/liblto-aarch64.a
 .rela.data.SlotCharacteristics1Table
                0x0000000000109ed8       0xc0 /home/alastair/pftf-rpi4/edk2/ArmPkg/Library/GccLto/liblto-aarch64.a
 .rela.data.SlotCharacteristics2Table
                0x0000000000109f98       0x60 /home/alastair/pftf-rpi4/edk2/ArmPkg/Library/GccLto/liblto-aarch64.a
 .rela.data.StructureTypeInfoTable
                0x0000000000109ff8      0x468 /home/alastair/pftf-rpi4/edk2/ArmPkg/Library/GccLto/liblto-aarch64.a
 .rela.data.SystemSlotCurrentUsageTable
                0x000000000010a460       0x78 /home/alastair/pftf-rpi4/edk2/ArmPkg/Library/GccLto/liblto-aarch64.a
 .rela.data.SystemSlotDataBusWidthTable
                0x000000000010a4d8      0x150 /home/alastair/pftf-rpi4/edk2/ArmPkg/Library/GccLto/liblto-aarch64.a
 .rela.data.SystemSlotLengthTable
                0x000000000010a628       0x60 /home/alastair/pftf-rpi4/edk2/ArmPkg/Library/GccLto/liblto-aarch64.a
 .rela.data.SystemWakeupTypeTable
                0x000000000010a688       0xc0 /home/alastair/pftf-rpi4/edk2/ArmPkg/Library/GccLto/liblto-aarch64.a
 .rela.data.TemperatureProbeLocTable
                0x000000000010a748      0x108 /home/alastair/pftf-rpi4/edk2/ArmPkg/Library/GccLto/liblto-aarch64.a
 .rela.data.TemperatureProbeStatusTable
                0x000000000010a850       0x90 /home/alastair/pftf-rpi4/edk2/ArmPkg/Library/GccLto/liblto-aarch64.a
 .rela.data.VPLocationTable
                0x000000000010a8e0       0x90 /home/alastair/pftf-rpi4/edk2/ArmPkg/Library/GccLto/liblto-aarch64.a
 .rela.data.VPStatusTable
                0x000000000010a970      0x108 /home/alastair/pftf-rpi4/edk2/ArmPkg/Library/GccLto/liblto-aarch64.a
 .rela.rodata.ASPMCtrlStrTable
                0x000000000010aa78       0x60 /home/alastair/pftf-rpi4/edk2/ArmPkg/Library/GccLto/liblto-aarch64.a
 .rela.rodata.CSWTCH.173
                0x000000000010aad8       0x78 /home/alastair/pftf-rpi4/edk2/ArmPkg/Library/GccLto/liblto-aarch64.a
 .rela.rodata.CSWTCH.360
                0x000000000010ab50       0x78 /home/alastair/pftf-rpi4/edk2/ArmPkg/Library/GccLto/liblto-aarch64.a
 .rela.rodata.CSWTCH.361
                0x000000000010abc8       0x60 /home/alastair/pftf-rpi4/edk2/ArmPkg/Library/GccLto/liblto-aarch64.a
 .rela.rodata.DevicePortTypeTable
                0x000000000010ac28      0x108 /home/alastair/pftf-rpi4/edk2/ArmPkg/Library/GccLto/liblto-aarch64.a
 .rela.rodata.IndicatorTable
                0x000000000010ad30       0x60 /home/alastair/pftf-rpi4/edk2/ArmPkg/Library/GccLto/liblto-aarch64.a
 .rela.rodata.L0sLatencyStrTable
                0x000000000010ad90       0xc0 /home/alastair/pftf-rpi4/edk2/ArmPkg/Library/GccLto/liblto-aarch64.a
 .rela.rodata.L1LatencyStrTable
                0x000000000010ae50       0xc0 /home/alastair/pftf-rpi4/edk2/ArmPkg/Library/GccLto/liblto-aarch64.a
 .rela.rodata.ParamList.lto_priv.0
                0x000000000010af10       0x90 /home/alastair/pftf-rpi4/edk2/ArmPkg/Library/GccLto/liblto-aarch64.a
 .rela.rodata.ParamList.lto_priv.1
                0x000000000010afa0       0x60 /home/alastair/pftf-rpi4/edk2/ArmPkg/Library/GccLto/liblto-aarch64.a
 .rela.rodata.SlotPwrLmtScaleTable
                0x000000000010b000       0x60 /home/alastair/pftf-rpi4/edk2/ArmPkg/Library/GccLto/liblto-aarch64.a
 .rela.data.PCIBlankEntry
                0x000000000010b060       0x30 /home/alastair/pftf-rpi4/edk2/ArmPkg/Library/GccLto/liblto-aarch64.a
 .rela.data.PCIPIFClass_0100
                0x000000000010b090       0xf0 /home/alastair/pftf-rpi4/edk2/ArmPkg/Library/GccLto/liblto-aarch64.a
 .rela.data.PCIPIFClass_0101
                0x000000000010b180      0x600 /home/alastair/pftf-rpi4/edk2/ArmPkg/Library/GccLto/liblto-aarch64.a
 .rela.data.PCIPIFClass_0105
                0x000000000010b780       0x60 /home/alastair/pftf-rpi4/edk2/ArmPkg/Library/GccLto/liblto-aarch64.a
 .rela.data.PCIPIFClass_0106
                0x000000000010b7e0       0x90 /home/alastair/pftf-rpi4/edk2/ArmPkg/Library/GccLto/liblto-aarch64.a
 .rela.data.PCIPIFClass_0107
                0x000000000010b870       0x60 /home/alastair/pftf-rpi4/edk2/ArmPkg/Library/GccLto/liblto-aarch64.a
 .rela.data.PCIPIFClass_0108
                0x000000000010b8d0       0x90 /home/alastair/pftf-rpi4/edk2/ArmPkg/Library/GccLto/liblto-aarch64.a
 .rela.data.PCIPIFClass_0109
                0x000000000010b960       0x60 /home/alastair/pftf-rpi4/edk2/ArmPkg/Library/GccLto/liblto-aarch64.a
 .rela.data.PCIPIFClass_0300
                0x000000000010b9c0       0x60 /home/alastair/pftf-rpi4/edk2/ArmPkg/Library/GccLto/liblto-aarch64.a
 .rela.data.PCIPIFClass_0604
                0x000000000010ba20       0x60 /home/alastair/pftf-rpi4/edk2/ArmPkg/Library/GccLto/liblto-aarch64.a
 .rela.data.PCIPIFClass_0609
                0x000000000010ba80       0x60 /home/alastair/pftf-rpi4/edk2/ArmPkg/Library/GccLto/liblto-aarch64.a
 .rela.data.PCIPIFClass_060b
                0x000000000010bae0       0x60 /home/alastair/pftf-rpi4/edk2/ArmPkg/Library/GccLto/liblto-aarch64.a
 .rela.data.PCIPIFClass_0700
                0x000000000010bb40      0x150 /home/alastair/pftf-rpi4/edk2/ArmPkg/Library/GccLto/liblto-aarch64.a
 .rela.data.PCIPIFClass_0701
                0x000000000010bc90       0xf0 /home/alastair/pftf-rpi4/edk2/ArmPkg/Library/GccLto/liblto-aarch64.a
 .rela.data.PCIPIFClass_0703
                0x000000000010bd80       0xf0 /home/alastair/pftf-rpi4/edk2/ArmPkg/Library/GccLto/liblto-aarch64.a
 .rela.data.PCIPIFClass_0800
                0x000000000010be70       0xf0 /home/alastair/pftf-rpi4/edk2/ArmPkg/Library/GccLto/liblto-aarch64.a
 .rela.data.PCIPIFClass_0801
                0x000000000010bf60       0x90 /home/alastair/pftf-rpi4/edk2/ArmPkg/Library/GccLto/liblto-aarch64.a
 .rela.data.PCIPIFClass_0802
                0x000000000010bff0       0x90 /home/alastair/pftf-rpi4/edk2/ArmPkg/Library/GccLto/liblto-aarch64.a
 .rela.data.PCIPIFClass_0803
                0x000000000010c080       0x90 /home/alastair/pftf-rpi4/edk2/ArmPkg/Library/GccLto/liblto-aarch64.a
 .rela.data.PCIPIFClass_0904
                0x000000000010c110       0x60 /home/alastair/pftf-rpi4/edk2/ArmPkg/Library/GccLto/liblto-aarch64.a
 .rela.data.PCIPIFClass_0c00
                0x000000000010c170       0x60 /home/alastair/pftf-rpi4/edk2/ArmPkg/Library/GccLto/liblto-aarch64.a
 .rela.data.PCIPIFClass_0c03
                0x000000000010c1d0      0x120 /home/alastair/pftf-rpi4/edk2/ArmPkg/Library/GccLto/liblto-aarch64.a
 .rela.data.PCIPIFClass_0c07
                0x000000000010c2f0       0x90 /home/alastair/pftf-rpi4/edk2/ArmPkg/Library/GccLto/liblto-aarch64.a
 .rela.data.PCIPIFClass_0d01
                0x000000000010c380       0x60 /home/alastair/pftf-rpi4/edk2/ArmPkg/Library/GccLto/liblto-aarch64.a
 .rela.data.PCIPIFClass_0e00
                0x000000000010c3e0       0x60 /home/alastair/pftf-rpi4/edk2/ArmPkg/Library/GccLto/liblto-aarch64.a
 .rela.data.PCISubClass_00
                0x000000000010c440       0x60 /home/alastair/pftf-rpi4/edk2/ArmPkg/Library/GccLto/liblto-aarch64.a
 .rela.data.PCISubClass_01
                0x000000000010c4a0      0x210 /home/alastair/pftf-rpi4/edk2/ArmPkg/Library/GccLto/liblto-aarch64.a
 .rela.data.PCISubClass_02
                0x000000000010c6b0      0x1b0 /home/alastair/pftf-rpi4/edk2/ArmPkg/Library/GccLto/liblto-aarch64.a
 .rela.data.PCISubClass_03
                0x000000000010c860       0xd8 /home/alastair/pftf-rpi4/edk2/ArmPkg/Library/GccLto/liblto-aarch64.a
 .rela.data.PCISubClass_04
                0x000000000010c938       0xf0 /home/alastair/pftf-rpi4/edk2/ArmPkg/Library/GccLto/liblto-aarch64.a
 .rela.data.PCISubClass_05
                0x000000000010ca28       0x90 /home/alastair/pftf-rpi4/edk2/ArmPkg/Library/GccLto/liblto-aarch64.a
 .rela.data.PCISubClass_06
                0x000000000010cab8      0x270 /home/alastair/pftf-rpi4/edk2/ArmPkg/Library/GccLto/liblto-aarch64.a
 .rela.data.PCISubClass_07
                0x000000000010cd28      0x150 /home/alastair/pftf-rpi4/edk2/ArmPkg/Library/GccLto/liblto-aarch64.a
 .rela.data.PCISubClass_08
                0x000000000010ce78      0x1b0 /home/alastair/pftf-rpi4/edk2/ArmPkg/Library/GccLto/liblto-aarch64.a
 .rela.data.PCISubClass_09
                0x000000000010d028      0x120 /home/alastair/pftf-rpi4/edk2/ArmPkg/Library/GccLto/liblto-aarch64.a
 .rela.data.PCISubClass_0a
                0x000000000010d148       0x60 /home/alastair/pftf-rpi4/edk2/ArmPkg/Library/GccLto/liblto-aarch64.a
 .rela.data.PCISubClass_0b
                0x000000000010d1a8      0x180 /home/alastair/pftf-rpi4/edk2/ArmPkg/Library/GccLto/liblto-aarch64.a
 .rela.data.PCISubClass_0c
                0x000000000010d328      0x210 /home/alastair/pftf-rpi4/edk2/ArmPkg/Library/GccLto/liblto-aarch64.a
 .rela.data.PCISubClass_0d
                0x000000000010d538      0x180 /home/alastair/pftf-rpi4/edk2/ArmPkg/Library/GccLto/liblto-aarch64.a
 .rela.data.PCISubClass_0e
                0x000000000010d6b8       0x30 /home/alastair/pftf-rpi4/edk2/ArmPkg/Library/GccLto/liblto-aarch64.a
 .rela.data.PCISubClass_0f
                0x000000000010d6e8       0xf0 /home/alastair/pftf-rpi4/edk2/ArmPkg/Library/GccLto/liblto-aarch64.a
 .rela.data.PCISubClass_10
                0x000000000010d7d8       0x90 /home/alastair/pftf-rpi4/edk2/ArmPkg/Library/GccLto/liblto-aarch64.a
 .rela.data.PCISubClass_11
                0x000000000010d868       0xf0 /home/alastair/pftf-rpi4/edk2/ArmPkg/Library/GccLto/liblto-aarch64.a
 .rela.data.PCISubClass_12
                0x000000000010d958       0x30 /home/alastair/pftf-rpi4/edk2/ArmPkg/Library/GccLto/liblto-aarch64.a
 .rela.data.PCISubClass_13
                0x000000000010d988       0x30 /home/alastair/pftf-rpi4/edk2/ArmPkg/Library/GccLto/liblto-aarch64.a
 .rela.data.SfoParamList
                0x000000000010d9b8       0x18 /home/alastair/pftf-rpi4/edk2/ArmPkg/Library/GccLto/liblto-aarch64.a
 .rela.data.gClassStringList
                0x000000000010d9d0      0x3f0 /home/alastair/pftf-rpi4/edk2/ArmPkg/Library/GccLto/liblto-aarch64.a
 .rela.rodata.CSWTCH.69
                0x000000000010ddc0       0x60 /home/alastair/pftf-rpi4/edk2/ArmPkg/Library/GccLto/liblto-aarch64.a
 .rela.rodata.ParamList.lto_priv.2
                0x000000000010de20       0x30 /home/alastair/pftf-rpi4/edk2/ArmPkg/Library/GccLto/liblto-aarch64.a
 .rela.rodata.ParamList.lto_priv.3
                0x000000000010de50       0x18 /home/alastair/pftf-rpi4/edk2/ArmPkg/Library/GccLto/liblto-aarch64.a
 .rela.rodata.ParamList.lto_priv.4
                0x000000000010de68       0x18 /home/alastair/pftf-rpi4/edk2/ArmPkg/Library/GccLto/liblto-aarch64.a
 .rela.rodata.ParamList.lto_priv.5
                0x000000000010de80       0xa8 /home/alastair/pftf-rpi4/edk2/ArmPkg/Library/GccLto/liblto-aarch64.a
 .rela.rodata.ParamList.lto_priv.6
                0x000000000010df28       0x60 /home/alastair/pftf-rpi4/edk2/ArmPkg/Library/GccLto/liblto-aarch64.a
 .rela.rodata.ParamList.lto_priv.7
                0x000000000010df88       0x48 /home/alastair/pftf-rpi4/edk2/ArmPkg/Library/GccLto/liblto-aarch64.a
 .rela.rodata.PcieExplainList
                0x000000000010dfd0      0x138 /home/alastair/pftf-rpi4/edk2/ArmPkg/Library/GccLto/liblto-aarch64.a
 .rela.rodata.mUefiDevicePathLibDevPathFromTextTable
                0x000000000010e108     0x1020 /home/alastair/pftf-rpi4/edk2/ArmPkg/Library/GccLto/liblto-aarch64.a
 .rela.data.CfgGuidList
                0x000000000010f128       0x30 /home/alastair/pftf-rpi4/edk2/ArmPkg/Library/GccLto/liblto-aarch64.a
 .rela.data.HMainEditorConst
                0x000000000010f158       0x18 /home/alastair/pftf-rpi4/edk2/ArmPkg/Library/GccLto/liblto-aarch64.a
 .rela.data.HexMainControlBasedMenuFunctions
                0x000000000010f170      0x108 /home/alastair/pftf-rpi4/edk2/ArmPkg/Library/GccLto/liblto-aarch64.a
 .rela.data.MainControlBasedMenuFunctions
                0x000000000010f278       0xf0 /home/alastair/pftf-rpi4/edk2/ArmPkg/Library/GccLto/liblto-aarch64.a
 .rela.data.MainEditorConst
                0x000000000010f368       0x18 /home/alastair/pftf-rpi4/edk2/ArmPkg/Library/GccLto/liblto-aarch64.a
 .rela.data.MainMenuItems
                0x000000000010f380       0xf0 /home/alastair/pftf-rpi4/edk2/ArmPkg/Library/GccLto/liblto-aarch64.a
 .rela.rodata.HexEditorMenuItems
                0x000000000010f470       0xf0 /home/alastair/pftf-rpi4/edk2/ArmPkg/Library/GccLto/liblto-aarch64.a
 .rela.rodata.ParamList.lto_priv.8
                0x000000000010f560       0x30 /home/alastair/pftf-rpi4/edk2/ArmPkg/Library/GccLto/liblto-aarch64.a
 .rela.rodata.ParamList.lto_priv.9
                0x000000000010f590       0x48 /home/alastair/pftf-rpi4/edk2/ArmPkg/Library/GccLto/liblto-aarch64.a
 .rela.rodata.ParamListHii
                0x000000000010f5d8       0x78 /home/alastair/pftf-rpi4/edk2/ArmPkg/Library/GccLto/liblto-aarch64.a
 .rela.rodata.ParamListPreHii
                0x000000000010f650       0x78 /home/alastair/pftf-rpi4/edk2/ArmPkg/Library/GccLto/liblto-aarch64.a
 .rela.data.DiagGuidList
                0x000000000010f6c8       0x30 /home/alastair/pftf-rpi4/edk2/ArmPkg/Library/GccLto/liblto-aarch64.a
 .rela.rodata.CSWTCH.41
                0x000000000010f6f8      0x480 /home/alastair/pftf-rpi4/edk2/ArmPkg/Library/GccLto/liblto-aarch64.a
 .rela.rodata.ParamList.lto_priv.10
                0x000000000010fb78       0x18 /home/alastair/pftf-rpi4/edk2/ArmPkg/Library/GccLto/liblto-aarch64.a
 .rela.rodata.ParamList.lto_priv.11
                0x000000000010fb90       0x30 /home/alastair/pftf-rpi4/edk2/ArmPkg/Library/GccLto/liblto-aarch64.a
 .rela.rodata.ParamList.lto_priv.12
                0x000000000010fbc0       0x30 /home/alastair/pftf-rpi4/edk2/ArmPkg/Library/GccLto/liblto-aarch64.a
 .rela.rodata.ParamList.lto_priv.13
                0x000000000010fbf0       0x18 /home/alastair/pftf-rpi4/edk2/ArmPkg/Library/GccLto/liblto-aarch64.a
 .rela.rodata.ParamList.lto_priv.14
                0x000000000010fc08       0x60 /home/alastair/pftf-rpi4/edk2/ArmPkg/Library/GccLto/liblto-aarch64.a
 .rela.rodata.ParamList.lto_priv.15
                0x000000000010fc68       0x30 /home/alastair/pftf-rpi4/edk2/ArmPkg/Library/GccLto/liblto-aarch64.a
 .rela.rodata.ParamList.lto_priv.16
                0x000000000010fc98       0x18 /home/alastair/pftf-rpi4/edk2/ArmPkg/Library/GccLto/liblto-aarch64.a
 .rela.rodata.ParamList.lto_priv.17
                0x000000000010fcb0       0x60 /home/alastair/pftf-rpi4/edk2/ArmPkg/Library/GccLto/liblto-aarch64.a
 .rela.rodata.ParamList.lto_priv.18
                0x000000000010fd10       0x30 /home/alastair/pftf-rpi4/edk2/ArmPkg/Library/GccLto/liblto-aarch64.a
 .rela.rodata.ParamList.lto_priv.19
                0x000000000010fd40       0x30 /home/alastair/pftf-rpi4/edk2/ArmPkg/Library/GccLto/liblto-aarch64.a
 .rela.rodata.ParamList.lto_priv.20
                0x000000000010fd70       0x30 /home/alastair/pftf-rpi4/edk2/ArmPkg/Library/GccLto/liblto-aarch64.a
 .rela.rodata.ParamList.lto_priv.21
                0x000000000010fda0       0x18 /home/alastair/pftf-rpi4/edk2/ArmPkg/Library/GccLto/liblto-aarch64.a
 .rela.rodata.ParamList.lto_priv.22
                0x000000000010fdb8       0x48 /home/alastair/pftf-rpi4/edk2/ArmPkg/Library/GccLto/liblto-aarch64.a
 .rela.rodata.ParamList.lto_priv.23
                0x000000000010fe00       0x78 /home/alastair/pftf-rpi4/edk2/ArmPkg/Library/GccLto/liblto-aarch64.a
 .rela.rodata.ParamList.lto_priv.24
                0x000000000010fe78       0x90 /home/alastair/pftf-rpi4/edk2/ArmPkg/Library/GccLto/liblto-aarch64.a
 .rela.rodata.ParamList.lto_priv.25
                0x000000000010ff08       0x30 /home/alastair/pftf-rpi4/edk2/ArmPkg/Library/GccLto/liblto-aarch64.a
 .rela.rodata.AttribParamList
                0x000000000010ff38       0xc0 /home/alastair/pftf-rpi4/edk2/ArmPkg/Library/GccLto/liblto-aarch64.a
 .rela.rodata.ParamList.lto_priv.26
                0x000000000010fff8       0x30 /home/alastair/pftf-rpi4/edk2/ArmPkg/Library/GccLto/liblto-aarch64.a
 .rela.rodata.ParamList.lto_priv.27
                0x0000000000110028       0x30 /home/alastair/pftf-rpi4/edk2/ArmPkg/Library/GccLto/liblto-aarch64.a
 .rela.rodata.ParamList.lto_priv.28
                0x0000000000110058       0x18 /home/alastair/pftf-rpi4/edk2/ArmPkg/Library/GccLto/liblto-aarch64.a
 .rela.rodata.ParamList.lto_priv.29
                0x0000000000110070       0x30 /home/alastair/pftf-rpi4/edk2/ArmPkg/Library/GccLto/liblto-aarch64.a
 .rela.rodata.ParamList.lto_priv.30
                0x00000000001100a0       0x18 /home/alastair/pftf-rpi4/edk2/ArmPkg/Library/GccLto/liblto-aarch64.a
 .rela.rodata.DevPathConsistMappingTable
                0x00000000001100b8      0x3c0 /home/alastair/pftf-rpi4/edk2/ArmPkg/Library/GccLto/liblto-aarch64.a
 .rela.rodata.LoadParamList
                0x0000000000110478       0x18 /home/alastair/pftf-rpi4/edk2/ArmPkg/Library/GccLto/liblto-aarch64.a
 .rela.rodata.LsParamList
                0x0000000000110490       0x48 /home/alastair/pftf-rpi4/edk2/ArmPkg/Library/GccLto/liblto-aarch64.a
 .rela.rodata.MapParamList
                0x00000000001104d8       0xc0 /home/alastair/pftf-rpi4/edk2/ArmPkg/Library/GccLto/liblto-aarch64.a
 .rela.rodata.ResetParamList
                0x0000000000110598       0x60 /home/alastair/pftf-rpi4/edk2/ArmPkg/Library/GccLto/liblto-aarch64.a
 .rela.rodata.SetParamList
                0x00000000001105f8       0x30 /home/alastair/pftf-rpi4/edk2/ArmPkg/Library/GccLto/liblto-aarch64.a
 .rela.rodata.TimeParamList3
                0x0000000000110628       0x30 /home/alastair/pftf-rpi4/edk2/ArmPkg/Library/GccLto/liblto-aarch64.a
 .rela.rodata.TimeZoneParamList3
                0x0000000000110658       0x48 /home/alastair/pftf-rpi4/edk2/ArmPkg/Library/GccLto/liblto-aarch64.a
 .rela.rodata.mMTDName
                0x00000000001106a0       0x60 /home/alastair/pftf-rpi4/edk2/ArmPkg/Library/GccLto/liblto-aarch64.a
 .rela.rodata.mGuidStringList
                0x0000000000110700     0x1ba8 /home/alastair/pftf-rpi4/edk2/ArmPkg/Library/GccLto/liblto-aarch64.a
 .rela.rodata.mGuidStringListNT
                0x00000000001122a8       0x48 /home/alastair/pftf-rpi4/edk2/ArmPkg/Library/GccLto/liblto-aarch64.a
 .rela.rodata.CSWTCH.58
                0x00000000001122f0       0x90 /home/alastair/pftf-rpi4/edk2/ArmPkg/Library/GccLto/liblto-aarch64.a
 .rela.rodata.mUefiDevicePathLibToTextTable
                0x0000000000112380      0x498 /home/alastair/pftf-rpi4/edk2/ArmPkg/Library/GccLto/liblto-aarch64.a
 .rela.rodata.mUefiDevicePathLibToTextTableGeneric
                0x0000000000112818       0x78 /home/alastair/pftf-rpi4/edk2/ArmPkg/Library/GccLto/liblto-aarch64.a
 .rela.data.FileInterfaceNulFile
                0x0000000000112890       0xf0 /home/alastair/pftf-rpi4/edk2/ArmPkg/Library/GccLto/liblto-aarch64.a
 .rela.data.FileInterfaceStdErr
                0x0000000000112980       0xf0 /home/alastair/pftf-rpi4/edk2/ArmPkg/Library/GccLto/liblto-aarch64.a
 .rela.data.FileInterfaceStdOut
                0x0000000000112a70       0xf0 /home/alastair/pftf-rpi4/edk2/ArmPkg/Library/GccLto/liblto-aarch64.a
 .rela.data.FileInterfaceStdIn
                0x0000000000112b60       0xf0 /home/alastair/pftf-rpi4/edk2/ArmPkg/Library/GccLto/liblto-aarch64.a
 .rela.data.mShellProtocol
                0x0000000000112c50      0x408 /home/alastair/pftf-rpi4/edk2/ArmPkg/Library/GccLto/liblto-aarch64.a
 .rela.rodata.ParserList
                0x0000000000113058      0x1c8 /home/alastair/pftf-rpi4/edk2/ArmPkg/Library/GccLto/liblto-aarch64.a

.hii
 *(.hii)

.build-id       0x0000000000113220       0x24
 *(.note.gnu.build-id)
 .note.gnu.build-id
                0x0000000000113220       0x24 /home/alastair/pftf-rpi4/edk2/ArmPkg/Library/GccLto/liblto-aarch64.a

/DISCARD/
 *(.note.GNU-stack)
 *(.gnu_debuglink)
 *(.interp)
 *(.dynsym)
 *(.dynstr)
 *(.dynamic)
 *(.hash .gnu.hash)
 *(.comment)
 *(COMMON)
                0x0000000000000228                PECOFF_HEADER_SIZE = 0x228
OUTPUT(/home/alastair/pftf-rpi4/Build/RPi4/DEBUG_GCC5/AARCH64/ShellPkg/Application/Shell/Shell/DEBUG/Shell.dll elf64-littleaarch64)
LOAD linker stubs

.debug_info     0x0000000000000000   0x22a8fe
 .debug_info    0x0000000000000000     0xe029 /tmp/Shell.dll.y4Q2gW.ltrans0.ltrans.o
 .debug_info    0x000000000000e029     0xa903 /tmp/Shell.dll.y4Q2gW.ltrans1.ltrans.o
 .debug_info    0x000000000001892c     0xe7a2 /tmp/Shell.dll.y4Q2gW.ltrans2.ltrans.o
 .debug_info    0x00000000000270ce     0x9778 /tmp/Shell.dll.y4Q2gW.ltrans3.ltrans.o
 .debug_info    0x0000000000030846     0xa068 /tmp/Shell.dll.y4Q2gW.ltrans4.ltrans.o
 .debug_info    0x000000000003a8ae     0x91da /tmp/Shell.dll.y4Q2gW.ltrans5.ltrans.o
 .debug_info    0x0000000000043a88     0xac67 /tmp/Shell.dll.y4Q2gW.ltrans6.ltrans.o
 .debug_info    0x000000000004e6ef     0x8aa1 /tmp/Shell.dll.y4Q2gW.ltrans7.ltrans.o
 .debug_info    0x0000000000057190     0xa5ee /tmp/Shell.dll.y4Q2gW.ltrans8.ltrans.o
 .debug_info    0x000000000006177e     0xb17f /tmp/Shell.dll.y4Q2gW.ltrans9.ltrans.o
 .debug_info    0x000000000006c8fd    0x12a28 /tmp/Shell.dll.y4Q2gW.ltrans10.ltrans.o
 .debug_info    0x000000000007f325     0xa289 /tmp/Shell.dll.y4Q2gW.ltrans11.ltrans.o
 .debug_info    0x00000000000895ae     0x525a /tmp/Shell.dll.y4Q2gW.ltrans12.ltrans.o
 .debug_info    0x000000000008e808     0x1929 /tmp/cc7pi0HV.debug.temp.o
                0x000000000008e808                ApplicationEntryPoint.c.95c936b6
 .debug_info    0x0000000000090131      0x187 /tmp/cc7WKLeT.debug.temp.o
                0x0000000000090131                BaseStackCheckGcc.c.9918e4ed
 .debug_info    0x00000000000902b8      0x1d7 /tmp/ccMLC2CU.debug.temp.o
                0x00000000000902b8                memcpy.c.992e94b8
 .debug_info    0x000000000009048f      0x188 /tmp/cciWvgCV.debug.temp.o
                0x000000000009048f                memset.c.d190684e
 .debug_info    0x0000000000090617     0x3705 /tmp/cceaCk0T.debug.temp.o
                0x0000000000090617                AutoGen.c.1c228c61
 .debug_info    0x0000000000093d1c     0x61d2 /tmp/ccHCQrUV.debug.temp.o
                0x0000000000093d1c                Shell.c.882b4da4
 .debug_info    0x0000000000099eee     0x5507 /tmp/ccgVca7V.debug.temp.o
                0x0000000000099eee                ShellParametersProtocol.c.f67f7c55
 .debug_info    0x000000000009f3f5     0x64b6 /tmp/ccSoANcW.debug.temp.o
                0x000000000009f3f5                ShellProtocol.c.564c1962
 .debug_info    0x00000000000a58ab     0x5d1c /tmp/cckZCEWS.debug.temp.o
                0x00000000000a58ab                FileHandleWrappers.c.3e813ec3
 .debug_info    0x00000000000ab5c7     0x511b /tmp/cc1oUDJW.debug.temp.o
                0x00000000000ab5c7                ShellEnvVar.c.879e0346
 .debug_info    0x00000000000b06e2     0x51e4 /tmp/ccSrSZ7S.debug.temp.o
                0x00000000000b06e2                ShellManParser.c.a8860c11
 .debug_info    0x00000000000b58c6     0x5616 /tmp/cctymDnS.debug.temp.o
                0x00000000000b58c6                ConsoleLogger.c.e1124779
 .debug_info    0x00000000000baedc     0x51c7 /tmp/cc6UF2TW.debug.temp.o
                0x00000000000baedc                ConsoleWrappers.c.a2be0a4a
 .debug_info    0x00000000000c00a3      0x21d /tmp/ccVMJQJW.debug.temp.o
                0x00000000000c00a3                MemLibGuid.c.2ca06148
 .debug_info    0x00000000000c02c0      0x17a /tmp/cc2N3bmU.debug.temp.o
                0x00000000000c02c0                ZeroMemWrapper.c.8dc042f6
 .debug_info    0x00000000000c043a      0x186 /tmp/ccaPKC5U.debug.temp.o
                0x00000000000c043a                SetMem16Wrapper.c.ab3f09e9
 .debug_info    0x00000000000c05c0      0x1bb /tmp/ccV3HmTU.debug.temp.o
                0x00000000000c05c0                SetMemWrapper.c.36d74bb8
 .debug_info    0x00000000000c077b      0x191 /tmp/ccg2LlnW.debug.temp.o
                0x00000000000c077b                CopyMemWrapper.c.8ed793a8
 .debug_info    0x00000000000c090c      0x1d0 /tmp/ccpSR5GS.debug.temp.o
                0x00000000000c090c                CpuDeadLoop.c.e33e7959
 .debug_info    0x00000000000c0adc      0x428 /tmp/ccpwISAW.debug.temp.o
                0x00000000000c0adc                LinkedList.c.6e13becc
 .debug_info    0x00000000000c0f04     0x1004 /tmp/ccovLV6U.debug.temp.o
                0x00000000000c0f04                SafeString.c.d8550fea
 .debug_info    0x00000000000c1f08      0x7f3 /tmp/ccAZTmyT.debug.temp.o
                0x00000000000c1f08                String.c.753c3495
 .debug_info    0x00000000000c26fb      0x216 /tmp/ccqaOkGT.debug.temp.o
                0x00000000000c26fb                FilePaths.c.82f30bbf
 .debug_info    0x00000000000c2911      0x1db /tmp/cc5PXCZV.debug.temp.o
                0x00000000000c2911                SwapBytes32.c.2bbabdc8
 .debug_info    0x00000000000c2aec      0x1c3 /tmp/ccSgv2mV.debug.temp.o
                0x00000000000c2aec                SwapBytes16.c.00247ae1
 .debug_info    0x00000000000c2caf      0x1db /tmp/ccl5HjXV.debug.temp.o
                0x00000000000c2caf                RShiftU64.c.a990dafe
 .debug_info    0x00000000000c2e8a      0x1db /tmp/ccW4bUiW.debug.temp.o
                0x00000000000c2e8a                MultU64x32.c.c8a7ecd3
 .debug_info    0x00000000000c3065      0x1db /tmp/ccF5S6TT.debug.temp.o
                0x00000000000c3065                LShiftU64.c.b38ec6e2
 .debug_info    0x00000000000c3240      0x1cf /tmp/ccDT2ekU.debug.temp.o
                0x00000000000c3240                DivU64x32.c.5786a729
 .debug_info    0x00000000000c340f      0x43c /tmp/cc6ovEsV.debug.temp.o
                0x00000000000c340f                Math64.c.5e992ad5
 .debug_info    0x00000000000c384b      0x68f /tmp/ccnxzAxW.debug.temp.o
                0x00000000000c384b                PrintLib.c.260a037f
 .debug_info    0x00000000000c3eda      0x79a /tmp/ccZAJdkU.debug.temp.o
                0x00000000000c3eda                PrintLibInternal.c.92769e0a
 .debug_info    0x00000000000c4674      0x3f2 /tmp/ccF0pR8V.debug.temp.o
                0x00000000000c4674                DebugLib.c.0df38b98
 .debug_info    0x00000000000c4a66     0x18e1 /tmp/cctaQZIT.debug.temp.o
                0x00000000000c4a66                UefiBootServicesTableLib.c.c00a3dd8
 .debug_info    0x00000000000c6347     0x1de0 /tmp/cc61M7GU.debug.temp.o
                0x00000000000c6347                MemoryAllocationLib.c.774777c4
 .debug_info    0x00000000000c8127     0x1d7d /tmp/ccpfxNYT.debug.temp.o
                0x00000000000c8127                DevicePathUtilities.c.94f518f0
 .debug_info    0x00000000000c9ea4     0x1953 /tmp/ccrl5OEU.debug.temp.o
                0x00000000000c9ea4                DevicePathUtilitiesDxeSmm.c.e3408512
 .debug_info    0x00000000000cb7f7     0x1afe /tmp/ccdt2FPT.debug.temp.o
                0x00000000000cb7f7                UefiDevicePathLib.c.c981cbf5
 .debug_info    0x00000000000cd2f5     0x3d60 /tmp/cckyXCBS.debug.temp.o
                0x00000000000cd2f5                DevicePathToText.c.c18353b7
 .debug_info    0x00000000000d1055     0x45d4 /tmp/ccMh0lkW.debug.temp.o
                0x00000000000d1055                DevicePathFromText.c.dd79d5f0
 .debug_info    0x00000000000d5629     0x18b2 /tmp/ccE1kPmU.debug.temp.o
                0x00000000000d5629                UefiRuntimeServicesTableLib.c.7b9e7237
 .debug_info    0x00000000000d6edb     0x2966 /tmp/ccGQy2GW.debug.temp.o
                0x00000000000d6edb                UefiHiiServicesLib.c.57cd5a7f
 .debug_info    0x00000000000d9841     0x27ac /tmp/cc83GjQU.debug.temp.o
                0x00000000000d9841                UefiLib.c.2c69044c
 .debug_info    0x00000000000dbfed     0x1bef /tmp/ccU2jZmS.debug.temp.o
                0x00000000000dbfed                UefiSortLib.c.30c97484
 .debug_info    0x00000000000ddbdc     0x50c1 /tmp/ccBU07sT.debug.temp.o
                0x00000000000ddbdc                HiiLib.c.b2279ad8
 .debug_info    0x00000000000e2c9d     0x2b6a /tmp/ccb2vIuW.debug.temp.o
                0x00000000000e2c9d                HiiString.c.d0f43445
 .debug_info    0x00000000000e5807     0x2a1b /tmp/cc6eEBbU.debug.temp.o
                0x00000000000e5807                HiiLanguage.c.1635079f
 .debug_info    0x00000000000e8222      0xddd /tmp/ccuYKzjU.debug.temp.o
                0x00000000000e8222                UefiFileHandleLib.c.584bf77a
 .debug_info    0x00000000000e8fff     0x1eae /tmp/ccPkEYZV.debug.temp.o
                0x00000000000e8fff                DxeServicesTableLib.c.0552c477
 .debug_info    0x00000000000eaead     0x22fe /tmp/cchbue5U.debug.temp.o
                0x00000000000eaead                HobLib.c.fefb3825
 .debug_info    0x00000000000ed1ab     0x4991 /tmp/ccG22RQV.debug.temp.o
                0x00000000000ed1ab                UefiShellLib.c.6ac7558d
 .debug_info    0x00000000000f1b3c     0x8753 /tmp/ccY77A3V.debug.temp.o
                0x00000000000f1b3c                UefiHandleParsingLib.c.27b9cc7f
 .debug_info    0x00000000000fa28f      0xeff /tmp/ccgLjDQU.debug.temp.o
                0x00000000000fa28f                AutoGen.c.48ba4969
 .debug_info    0x00000000000fb18e     0x3b4d /tmp/ccHmHuMV.debug.temp.o
                0x00000000000fb18e                UefiShellCommandLib.c.cdc77995
 .debug_info    0x00000000000fecdb     0x5249 /tmp/cc9sTS7S.debug.temp.o
                0x00000000000fecdb                ConsistMapping.c.86dc1dd1
 .debug_info    0x0000000000103f24     0x2984 /tmp/ccVXLOhV.debug.temp.o
                0x0000000000103f24                UefiShellLevel2CommandsLib.c.17bfdaf4
 .debug_info    0x00000000001068a8     0x2c8e /tmp/ccrvbceU.debug.temp.o
                0x00000000001068a8                TimeDate.c.7b6427e6
 .debug_info    0x0000000000109536     0x2a6a /tmp/cc2iAP5S.debug.temp.o
                0x0000000000109536                Load.c.0744789d
 .debug_info    0x000000000010bfa0     0x303b /tmp/ccAOzO2T.debug.temp.o
                0x000000000010bfa0                Ls.c.947cc128
 .debug_info    0x000000000010efdb     0x3154 /tmp/ccr8mYQS.debug.temp.o
                0x000000000010efdb                Map.c.4d126992
 .debug_info    0x000000000011212f     0x2928 /tmp/cc5il6gT.debug.temp.o
                0x000000000011212f                Reset.c.4b526037
 .debug_info    0x0000000000114a57     0x2923 /tmp/ccKYTeuS.debug.temp.o
                0x0000000000114a57                Set.c.48d67889
 .debug_info    0x000000000011737a     0x2904 /tmp/ccNFEGzU.debug.temp.o
                0x000000000011737a                MkDir.c.3355e5ce
 .debug_info    0x0000000000119c7e     0x29f7 /tmp/ccbu5WVV.debug.temp.o
                0x0000000000119c7e                Cd.c.31e7c4a3
 .debug_info    0x000000000011c675     0x2fce /tmp/ccEcRpTS.debug.temp.o
                0x000000000011c675                Cp.c.7a6f0a08
 .debug_info    0x000000000011f643     0x2a9a /tmp/ccd7faHV.debug.temp.o
                0x000000000011f643                Parse.c.754fe822
 .debug_info    0x00000000001220dd     0x2b00 /tmp/ccsxpLqU.debug.temp.o
                0x00000000001220dd                Rm.c.dcad6623
 .debug_info    0x0000000000124bdd     0x2d22 /tmp/cciun3sU.debug.temp.o
                0x0000000000124bdd                Mv.c.85987e63
 .debug_info    0x00000000001278ff     0x2957 /tmp/ccAIHhKS.debug.temp.o
                0x00000000001278ff                Attrib.c.fb0e6562
 .debug_info    0x000000000012a256     0x2d6a /tmp/cc8CaEwU.debug.temp.o
                0x000000000012a256                Vol.c.9d5b956e
 .debug_info    0x000000000012cfc0      0x2bb /tmp/ccVDyBiT.debug.temp.o
                0x000000000012cfc0                AutoGen.c.f52f3ae9
 .debug_info    0x000000000012d27b     0x2a6f /tmp/cclHUyYT.debug.temp.o
                0x000000000012d27b                UefiShellLevel1CommandsLib.c.3738fd2e
 .debug_info    0x000000000012fcea     0x28b7 /tmp/ccBGw1YU.debug.temp.o
                0x000000000012fcea                Exit.c.af003200
 .debug_info    0x00000000001325a1     0x2976 /tmp/ccx2Y9bU.debug.temp.o
                0x00000000001325a1                Goto.c.72fca3e9
 .debug_info    0x0000000000134f17     0x2d66 /tmp/ccGGYZwV.debug.temp.o
                0x0000000000134f17                If.c.c2633984
 .debug_info    0x0000000000137c7d     0x2c03 /tmp/ccMbrcFT.debug.temp.o
                0x0000000000137c7d                For.c.ac25f541
 .debug_info    0x000000000013a880     0x2946 /tmp/cc23NhOV.debug.temp.o
                0x000000000013a880                Shift.c.9a95c951
 .debug_info    0x000000000013d1c6     0x2885 /tmp/cc1WiBFW.debug.temp.o
                0x000000000013d1c6                Stall.c.b766b43e
 .debug_info    0x000000000013fa4b      0x256 /tmp/ccTLFFEU.debug.temp.o
                0x000000000013fa4b                AutoGen.c.5c4df8cf
 .debug_info    0x000000000013fca1     0x283f /tmp/cc2iJ6aU.debug.temp.o
                0x000000000013fca1                UefiShellLevel3CommandsLib.c.a3fd6046
 .debug_info    0x00000000001424e0     0x2908 /tmp/ccH6a2bW.debug.temp.o
                0x00000000001424e0                Cls.c.44b6ed28
 .debug_info    0x0000000000144de8     0x29ef /tmp/ccgDdtGV.debug.temp.o
                0x0000000000144de8                Alias.c.63b20c6a
 .debug_info    0x00000000001477d7     0x28fc /tmp/ccubYqHS.debug.temp.o
                0x00000000001477d7                Echo.c.8a57961e
 .debug_info    0x000000000014a0d3     0x2975 /tmp/cczC5oAW.debug.temp.o
                0x000000000014a0d3                Pause.c.9e686c5d
 .debug_info    0x000000000014ca48     0x28be /tmp/ccaefLcU.debug.temp.o
                0x000000000014ca48                GetMtc.c.01299e9a
 .debug_info    0x000000000014f306     0x2ba6 /tmp/cczHwnOS.debug.temp.o
                0x000000000014f306                Help.c.69b53468
 .debug_info    0x0000000000151eac      0x2a0 /tmp/cc8MinTV.debug.temp.o
                0x0000000000151eac                AutoGen.c.65f9a843
 .debug_info    0x000000000015214c     0x29b5 /tmp/cc0helvS.debug.temp.o
                0x000000000015214c                Type.c.7df61f32
 .debug_info    0x0000000000154b01     0x29ad /tmp/ccUIL1YV.debug.temp.o
                0x0000000000154b01                Touch.c.f9210750
 .debug_info    0x00000000001574ae     0x28e4 /tmp/cctuIwxS.debug.temp.o
                0x00000000001574ae                Ver.c.ea639eb7
 .debug_info    0x0000000000159d92     0x28d3 /tmp/ccxi2OfT.debug.temp.o
                0x0000000000159d92                UefiShellDriver1CommandsLib.c.d54342bf
 .debug_info    0x000000000015c665      0x2aa /tmp/ccrWZQIS.debug.temp.o
                0x000000000015c665                AutoGen.c.78adc310
 .debug_info    0x000000000015c90f     0x30df /tmp/cceawc4U.debug.temp.o
                0x000000000015c90f                Connect.c.10d1c3f0
 .debug_info    0x000000000015f9ee     0x2aa4 /tmp/ccOegDwS.debug.temp.o
                0x000000000015f9ee                Devices.c.04188768
 .debug_info    0x0000000000162492     0x2a89 /tmp/ccORg2DW.debug.temp.o
                0x0000000000162492                OpenInfo.c.a9fa5a58
 .debug_info    0x0000000000164f1b     0x2a11 /tmp/ccWydsnS.debug.temp.o
                0x0000000000164f1b                Disconnect.c.479dc02a
 .debug_info    0x000000000016792c     0x2970 /tmp/ccCy8huS.debug.temp.o
                0x000000000016792c                Reconnect.c.6f719ec5
 .debug_info    0x000000000016a29c     0x2a4a /tmp/ccZpUuwS.debug.temp.o
                0x000000000016a29c                Unload.c.050eee77
 .debug_info    0x000000000016cce6     0x2ceb /tmp/ccBKlLcT.debug.temp.o
                0x000000000016cce6                DrvDiag.c.60163213
 .debug_info    0x000000000016f9d1     0x3299 /tmp/ccbHxufU.debug.temp.o
                0x000000000016f9d1                Dh.c.f8d94288
 .debug_info    0x0000000000172c6a     0x3088 /tmp/ccDOYTkW.debug.temp.o
                0x0000000000172c6a                Drivers.c.615eaa78
 .debug_info    0x0000000000175cf2     0x2a8f /tmp/ccGr723T.debug.temp.o
                0x0000000000175cf2                DevTree.c.364475e2
 .debug_info    0x0000000000178781     0x34c3 /tmp/cc1IqBQW.debug.temp.o
                0x0000000000178781                DrvCfg.c.2fd98a97
 .debug_info    0x000000000017bc44     0x2ac3 /tmp/cctg2KMV.debug.temp.o
                0x000000000017bc44                UefiShellDebug1CommandsLib.c.f02d6d2a
 .debug_info    0x000000000017e707     0x2fe3 /tmp/cc8ovJqW.debug.temp.o
                0x000000000017e707                Edit.c.85e842e7
 .debug_info    0x00000000001816ea     0x3cac /tmp/ccMhFcyV.debug.temp.o
                0x00000000001816ea                FileBuffer.c.1c050b55
 .debug_info    0x0000000000185396     0x33f6 /tmp/ccL8UzpW.debug.temp.o
                0x0000000000185396                MainTextEditor.c.14d9b945
 .debug_info    0x000000000018878c     0x2eeb /tmp/ccvioZdT.debug.temp.o
                0x000000000018878c                Misc.c.bdd1faa4
 .debug_info    0x000000000018b677     0x31c3 /tmp/ccT3soPT.debug.temp.o
                0x000000000018b677                HexEdit.c.1bd09f48
 .debug_info    0x000000000018e83a     0x36a7 /tmp/cc4nJkrV.debug.temp.o
                0x000000000018e83a                MainHexEditor.c.599d92db
 .debug_info    0x0000000000191ee1     0x31e3 /tmp/cciynRtV.debug.temp.o
                0x0000000000191ee1                Misc.c.a6c65bf7
 .debug_info    0x00000000001950c4      0x2e0 /tmp/cchhOsEW.debug.temp.o
                0x00000000001950c4                AutoGen.c.763a015a
 .debug_info    0x00000000001953a4     0x29ad /tmp/ccqGEDgW.debug.temp.o
                0x00000000001953a4                SetSize.c.acc98281
 .debug_info    0x0000000000197d51     0x2c32 /tmp/cc0GnkNT.debug.temp.o
                0x0000000000197d51                Comp.c.ed3fa221
 .debug_info    0x000000000019a983     0x29d1 /tmp/ccDP1gtU.debug.temp.o
                0x000000000019a983                Mode.c.3a0e2e47
 .debug_info    0x000000000019d354     0x2e20 /tmp/cciaPlAS.debug.temp.o
                0x000000000019d354                MemMap.c.4e1021c0
 .debug_info    0x00000000001a0174     0x2a01 /tmp/ccifzqTW.debug.temp.o
                0x00000000001a0174                EfiCompress.c.ca504e24
 .debug_info    0x00000000001a2b75     0x2adf /tmp/ccj1RO3U.debug.temp.o
                0x00000000001a2b75                EfiDecompress.c.147d9ab2
 .debug_info    0x00000000001a5654     0x2e8a /tmp/cce8yOpW.debug.temp.o
                0x00000000001a5654                Dmem.c.4bd051b8
 .debug_info    0x00000000001a84de     0x2da5 /tmp/ccaVZetW.debug.temp.o
                0x00000000001a84de                LoadPciRom.c.c285de43
 .debug_info    0x00000000001ab283     0x32ef /tmp/ccUI50pU.debug.temp.o
                0x00000000001ab283                Mm.c.90f831a2
 .debug_info    0x00000000001ae572     0x2bbb /tmp/cc690maU.debug.temp.o
                0x00000000001ae572                SetVar.c.a4bfde1a
 .debug_info    0x00000000001b112d     0x2d2d /tmp/ccpl0q2T.debug.temp.o
                0x00000000001b112d                SerMode.c.0161ef74
 .debug_info    0x00000000001b3e5a     0x6133 /tmp/ccBcs4yW.debug.temp.o
                0x00000000001b3e5a                Pci.c.6bd537f7
 .debug_info    0x00000000001b9f8d     0x31a3 /tmp/ccb7z9CV.debug.temp.o
                0x00000000001b9f8d                DmpStore.c.6e8756a1
 .debug_info    0x00000000001bd130     0x2c13 /tmp/ccrZaAoT.debug.temp.o
                0x00000000001bd130                Dblk.c.412a128c
 .debug_info    0x00000000001bfd43     0x5d80 /tmp/ccPADlIU.debug.temp.o
                0x00000000001bfd43                SmbiosView.c.f7ff882e
 .debug_info    0x00000000001c5ac3     0x5a09 /tmp/cc46JdRT.debug.temp.o
                0x00000000001c5ac3                LibSmbiosView.c.75b019c4
 .debug_info    0x00000000001cb4cc     0x2a03 /tmp/ccJhsNtU.debug.temp.o
                0x00000000001cb4cc                EditTitleBar.c.010945d5
 .debug_info    0x00000000001cdecf     0x2c51 /tmp/ccSMLCnT.debug.temp.o
                0x00000000001cdecf                EditInputBar.c.6ee81897
 .debug_info    0x00000000001d0b20     0x29cd /tmp/ccjLMrfV.debug.temp.o
                0x00000000001d0b20                EditStatusBar.c.9ab499b6
 .debug_info    0x00000000001d34ed     0x2abe /tmp/ccNbJpfV.debug.temp.o
                0x00000000001d34ed                EditMenuBar.c.5c07618a
 .debug_info    0x00000000001d5fab     0x3c4a /tmp/ccNE2pkT.debug.temp.o
                0x00000000001d5fab                BufferImage.c.37884259
 .debug_info    0x00000000001d9bf5     0x310d /tmp/ccbOU45T.debug.temp.o
                0x00000000001d9bf5                Clipboard.c.1a6027f4
 .debug_info    0x00000000001dcd02     0x3428 /tmp/ccO8zwbW.debug.temp.o
                0x00000000001dcd02                DiskImage.c.f5d6b4bb
 .debug_info    0x00000000001e012a     0x31f9 /tmp/ccVZMaSV.debug.temp.o
                0x00000000001e012a                FileImage.c.7a7a448a
 .debug_info    0x00000000001e3323     0x31af /tmp/ccOGT5tS.debug.temp.o
                0x00000000001e3323                MemImage.c.52db7b98
 .debug_info    0x00000000001e64d2     0x18f6 /tmp/cc9zLPrS.debug.temp.o
                0x00000000001e64d2                Compress.c.97b72db1
 .debug_info    0x00000000001e7dc8     0x628f /tmp/ccLtp4DW.debug.temp.o
                0x00000000001e7dc8                PrintInfo.c.41bc34bc
 .debug_info    0x00000000001ee057     0x422b /tmp/cceJWmIT.debug.temp.o
                0x00000000001ee057                QueryTable.c.bed2fea3
 .debug_info    0x00000000001f2282     0x2b6c /tmp/cc9WN4lU.debug.temp.o
                0x00000000001f2282                EventLogInfo.c.83d18c1b
 .debug_info    0x00000000001f4dee     0x18f8 /tmp/cc9GooRT.debug.temp.o
                0x00000000001f4dee                UefiShellInstall1CommandsLib.c.2b463caa
 .debug_info    0x00000000001f66e6     0x2918 /tmp/ccUehd3U.debug.temp.o
                0x00000000001f66e6                UefiShellNetwork1CommandsLib.c.594601fe
 .debug_info    0x00000000001f8ffe     0x481a /tmp/ccUta1jU.debug.temp.o
                0x00000000001f8ffe                Ping.c.ca743773
 .debug_info    0x00000000001fd818     0x3338 /tmp/ccoo6QiU.debug.temp.o
                0x00000000001fd818                Ifconfig.c.6b2d30c2
 .debug_info    0x0000000000200b50      0x2b6 /tmp/ccWzyLNS.debug.temp.o
                0x0000000000200b50                AutoGen.c.93545356
 .debug_info    0x0000000000200e06     0x2ab8 /tmp/ccI9JgtS.debug.temp.o
                0x0000000000200e06                UefiShellAcpiViewCommandLib.c.f5fb34ed
 .debug_info    0x00000000002038be      0x262 /tmp/ccC7ZLbW.debug.temp.o
                0x00000000002038be                AutoGen.c.5e0ae831
 .debug_info    0x0000000000203b20      0x4a6 /tmp/ccJaZl3U.debug.temp.o
                0x0000000000203b20                AcpiTableParser.c.18dd06c6
 .debug_info    0x0000000000203fc6     0x2753 /tmp/ccAtpCkV.debug.temp.o
                0x0000000000203fc6                AcpiView.c.c4ae61ff
 .debug_info    0x0000000000206719      0x48b /tmp/ccsR9G7T.debug.temp.o
                0x0000000000206719                AcpiViewConfig.c.8f636964
 .debug_info    0x0000000000206ba4      0x940 /tmp/ccP4YuRV.debug.temp.o
                0x0000000000206ba4                AestParser.c.a912fd39
 .debug_info    0x00000000002074e4      0x4da /tmp/ccEBohlU.debug.temp.o
                0x00000000002074e4                BgrtParser.c.3ac1b3de
 .debug_info    0x00000000002079be      0x636 /tmp/cck37OXU.debug.temp.o
                0x00000000002079be                Dbg2Parser.c.f80f8f01
 .debug_info    0x0000000000207ff4      0x313 /tmp/ccmNQLJT.debug.temp.o
                0x0000000000207ff4                DsdtParser.c.07f5f61d
 .debug_info    0x0000000000208307      0x428 /tmp/cc5lN8CW.debug.temp.o
                0x0000000000208307                FacsParser.c.56b2e667
 .debug_info    0x000000000020872f      0x66a /tmp/ccY8wbZU.debug.temp.o
                0x000000000020872f                FadtParser.c.a457a0d5
 .debug_info    0x0000000000208d99      0x6b2 /tmp/ccUVVXsT.debug.temp.o
                0x0000000000208d99                GtdtParser.c.4b323d4b
 .debug_info    0x000000000020944b      0x83c /tmp/cca5uoFT.debug.temp.o
                0x000000000020944b                HmatParser.c.1665a423
 .debug_info    0x0000000000209c87      0x9b8 /tmp/ccOBtIJV.debug.temp.o
                0x0000000000209c87                IortParser.c.1f254925
 .debug_info    0x000000000020a63f      0x623 /tmp/ccX1rlKU.debug.temp.o
                0x000000000020a63f                MadtParser.c.4053e4f1
 .debug_info    0x000000000020ac62      0x51f /tmp/ccCZpOKV.debug.temp.o
                0x000000000020ac62                McfgParser.c.638629e0
 .debug_info    0x000000000020b181      0x7c7 /tmp/cc8PtiPV.debug.temp.o
                0x000000000020b181                PcctParser.c.b2a0400b
 .debug_info    0x000000000020b948      0x70c /tmp/ccfqZ9rW.debug.temp.o
                0x000000000020b948                PpttParser.c.0cafac42
 .debug_info    0x000000000020c054      0x4ad /tmp/ccuXtMyT.debug.temp.o
                0x000000000020c054                RsdpParser.c.668d7701
 .debug_info    0x000000000020c501      0x549 /tmp/ccDF7kRU.debug.temp.o
                0x000000000020c501                SlitParser.c.4d2646f2
 .debug_info    0x000000000020ca4a      0x53c /tmp/ccEhhcfV.debug.temp.o
                0x000000000020ca4a                SpcrParser.c.d5bb2e5f
 .debug_info    0x000000000020cf86      0x755 /tmp/ccodCLHT.debug.temp.o
                0x000000000020cf86                SratParser.c.f6c84481
 .debug_info    0x000000000020d6db      0x313 /tmp/ccAmeYlV.debug.temp.o
                0x000000000020d6db                SsdtParser.c.23b440e8
 .debug_info    0x000000000020d9ee      0x592 /tmp/ccBwjDDU.debug.temp.o
                0x000000000020d9ee                XsdtParser.c.b0caf743
 .debug_info    0x000000000020df80      0x508 /tmp/ccIjgDwT.debug.temp.o
                0x000000000020df80                SbbrValidator.c.70298e00
 .debug_info    0x000000000020e488     0x1f82 /tmp/cc3vxIWT.debug.temp.o
                0x000000000020e488                AcpiParser.c.b3f173da
 .debug_info    0x000000000021040a      0x1a7 /tmp/ccspgomT.debug.temp.o
                0x000000000021040a                CompareMemWrapper.c.96cbdc30
 .debug_info    0x00000000002105b1      0x183 /tmp/ccZKQSRV.debug.temp.o
                0x00000000002105b1                IsZeroBufferWrapper.c.fee66244
 .debug_info    0x0000000000210734      0x28a /tmp/ccsGqqxV.debug.temp.o
                0x0000000000210734                ScanMemGeneric.c.8b8547a5
 .debug_info    0x00000000002109be      0x1c3 /tmp/ccmqBaKT.debug.temp.o
                0x00000000002109be                SwapBytes64.c.07cf841c
 .debug_info    0x0000000000210b81      0x1db /tmp/ccB83YLU.debug.temp.o
                0x0000000000210b81                MultU64x64.c.7ca72fc3
 .debug_info    0x0000000000210d5c      0x1cf /tmp/ccp96oPU.debug.temp.o
                0x0000000000210d5c                ModU64x32.c.ebee22f5
 .debug_info    0x0000000000210f2b      0x1e5 /tmp/ccNva68V.debug.temp.o
                0x0000000000210f2b                DivU64x64Remainder.c.7224a681
 .debug_info    0x0000000000211110      0x1e5 /tmp/ccQB7PFT.debug.temp.o
                0x0000000000211110                DivU64x32Remainder.c.19070deb
 .debug_info    0x00000000002112f5      0x33d /tmp/ccwjP3xW.debug.temp.o
                0x00000000002112f5                Unaligned.c.4a0798dc
 .debug_info    0x0000000000211632      0x503 /tmp/ccJDOhvV.debug.temp.o
                0x0000000000211632                IoLibNoIo.c.335a48c4
 .debug_info    0x0000000000211b35      0x18d /tmp/cc2sr11S.debug.temp.o
                0x0000000000211b35                BaseDebugPrintErrorLevelLib.c.afda57b5
 .debug_info    0x0000000000211cc2      0x201 /tmp/ccg62DaU.debug.temp.o
                0x0000000000211cc2                DebugDualSerialPortLib.c.3fe30e88
 .debug_info    0x0000000000211ec3      0x2e6 /tmp/cc6OPivS.debug.temp.o
                0x0000000000211ec3                DualSerialPortLibCommon.c.2dc6badf
 .debug_info    0x00000000002121a9     0x2762 /tmp/ccy42MRU.debug.temp.o
                0x00000000002121a9                UefiLibPrint.c.10301016
 .debug_info    0x000000000021490b     0x1c06 /tmp/ccCR9OVT.debug.temp.o
                0x000000000021490b                UefiNotTiano.c.c6756db9
 .debug_info    0x0000000000216511      0xa9b /tmp/ccrbsjdV.debug.temp.o
                0x0000000000216511                PeCoffGetEntryPoint.c.f00ee6ef
 .debug_info    0x0000000000216fac      0x75f /tmp/ccRCyT6V.debug.temp.o
                0x0000000000216fac                BaseOrderedCollectionRedBlackTreeLib.c.0cec7fbf
 .debug_info    0x000000000021770b     0x3506 /tmp/cciNAa2U.debug.temp.o
                0x000000000021770b                UefiShellBcfgCommandLib.c.f336bf17
 .debug_info    0x000000000021ac11      0x239 /tmp/ccs2uZuW.debug.temp.o
                0x000000000021ac11                AutoGen.c.4bef342f
 .debug_info    0x000000000021ae4a     0x7175 /tmp/ccQ1gsgU.debug.temp.o
                0x000000000021ae4a                DxeNetLib.c.1ef1158d
 .debug_info    0x0000000000221fbf     0x2b4a /tmp/cce72MmT.debug.temp.o
                0x0000000000221fbf                NetBuffer.c.0f2301a8
 .debug_info    0x0000000000224b09      0x536 /tmp/ccJs0AqU.debug.temp.o
                0x0000000000224b09                PL011UartLib.c.f54a0051
 .debug_info    0x000000000022503f     0x3384 /tmp/ccXgmS3T.debug.temp.o
                0x000000000022503f                BmLoadOption.c.af141ef8
 .debug_info    0x00000000002283c3     0x253b /tmp/ccBHQORW.debug.temp.o
                0x00000000002283c3                BmMisc.c.65e95ac4

.debug_abbrev   0x0000000000000000    0x18972
 .debug_abbrev  0x0000000000000000      0x354 /tmp/Shell.dll.y4Q2gW.ltrans0.ltrans.o
 .debug_abbrev  0x0000000000000354      0x2d9 /tmp/Shell.dll.y4Q2gW.ltrans1.ltrans.o
 .debug_abbrev  0x000000000000062d      0x153 /tmp/Shell.dll.y4Q2gW.ltrans2.ltrans.o
 .debug_abbrev  0x0000000000000780      0x233 /tmp/Shell.dll.y4Q2gW.ltrans3.ltrans.o
 .debug_abbrev  0x00000000000009b3      0x216 /tmp/Shell.dll.y4Q2gW.ltrans4.ltrans.o
 .debug_abbrev  0x0000000000000bc9      0x2a1 /tmp/Shell.dll.y4Q2gW.ltrans5.ltrans.o
 .debug_abbrev  0x0000000000000e6a      0x1eb /tmp/Shell.dll.y4Q2gW.ltrans6.ltrans.o
 .debug_abbrev  0x0000000000001055      0x1b2 /tmp/Shell.dll.y4Q2gW.ltrans7.ltrans.o
 .debug_abbrev  0x0000000000001207      0x1f5 /tmp/Shell.dll.y4Q2gW.ltrans8.ltrans.o
 .debug_abbrev  0x00000000000013fc      0x211 /tmp/Shell.dll.y4Q2gW.ltrans9.ltrans.o
 .debug_abbrev  0x000000000000160d      0x297 /tmp/Shell.dll.y4Q2gW.ltrans10.ltrans.o
 .debug_abbrev  0x00000000000018a4      0x28b /tmp/Shell.dll.y4Q2gW.ltrans11.ltrans.o
 .debug_abbrev  0x0000000000001b2f      0x220 /tmp/Shell.dll.y4Q2gW.ltrans12.ltrans.o
 .debug_abbrev  0x0000000000001d4f      0x1fc /tmp/cc7pi0HV.debug.temp.o
 .debug_abbrev  0x0000000000001f4b       0xc7 /tmp/cc7WKLeT.debug.temp.o
 .debug_abbrev  0x0000000000002012       0xee /tmp/ccMLC2CU.debug.temp.o
 .debug_abbrev  0x0000000000002100       0xc0 /tmp/cciWvgCV.debug.temp.o
 .debug_abbrev  0x00000000000021c0      0x225 /tmp/cceaCk0T.debug.temp.o
 .debug_abbrev  0x00000000000023e5      0x2da /tmp/ccHCQrUV.debug.temp.o
 .debug_abbrev  0x00000000000026bf      0x2ed /tmp/ccgVca7V.debug.temp.o
 .debug_abbrev  0x00000000000029ac      0x332 /tmp/ccSoANcW.debug.temp.o
 .debug_abbrev  0x0000000000002cde      0x2c6 /tmp/cckZCEWS.debug.temp.o
 .debug_abbrev  0x0000000000002fa4      0x2d2 /tmp/cc1oUDJW.debug.temp.o
 .debug_abbrev  0x0000000000003276      0x2b0 /tmp/ccSrSZ7S.debug.temp.o
 .debug_abbrev  0x0000000000003526      0x2a9 /tmp/cctymDnS.debug.temp.o
 .debug_abbrev  0x00000000000037cf      0x2ae /tmp/cc6UF2TW.debug.temp.o
 .debug_abbrev  0x0000000000003a7d       0xce /tmp/ccVMJQJW.debug.temp.o
 .debug_abbrev  0x0000000000003b4b       0xb1 /tmp/cc2N3bmU.debug.temp.o
 .debug_abbrev  0x0000000000003bfc       0xb1 /tmp/ccaPKC5U.debug.temp.o
 .debug_abbrev  0x0000000000003cad       0xc6 /tmp/ccV3HmTU.debug.temp.o
 .debug_abbrev  0x0000000000003d73       0xb8 /tmp/ccg2LlnW.debug.temp.o
 .debug_abbrev  0x0000000000003e2b       0xb6 /tmp/ccpSR5GS.debug.temp.o
 .debug_abbrev  0x0000000000003ee1      0x139 /tmp/ccpwISAW.debug.temp.o
 .debug_abbrev  0x000000000000401a      0x138 /tmp/ccovLV6U.debug.temp.o
 .debug_abbrev  0x0000000000004152      0x126 /tmp/ccAZTmyT.debug.temp.o
 .debug_abbrev  0x0000000000004278       0xd5 /tmp/ccqaOkGT.debug.temp.o
 .debug_abbrev  0x000000000000434d       0xc0 /tmp/cc5PXCZV.debug.temp.o
 .debug_abbrev  0x000000000000440d       0xb1 /tmp/ccSgv2mV.debug.temp.o
 .debug_abbrev  0x00000000000044be       0xb1 /tmp/ccl5HjXV.debug.temp.o
 .debug_abbrev  0x000000000000456f       0xc0 /tmp/ccW4bUiW.debug.temp.o
 .debug_abbrev  0x000000000000462f       0xb1 /tmp/ccF5S6TT.debug.temp.o
 .debug_abbrev  0x00000000000046e0       0xb1 /tmp/ccDT2ekU.debug.temp.o
 .debug_abbrev  0x0000000000004791       0xf9 /tmp/cc6ovEsV.debug.temp.o
 .debug_abbrev  0x000000000000488a      0x150 /tmp/ccnxzAxW.debug.temp.o
 .debug_abbrev  0x00000000000049da      0x161 /tmp/ccZAJdkU.debug.temp.o
 .debug_abbrev  0x0000000000004b3b      0x165 /tmp/ccF0pR8V.debug.temp.o
 .debug_abbrev  0x0000000000004ca0      0x1dd /tmp/cctaQZIT.debug.temp.o
 .debug_abbrev  0x0000000000004e7d      0x242 /tmp/cc61M7GU.debug.temp.o
 .debug_abbrev  0x00000000000050bf      0x240 /tmp/ccpfxNYT.debug.temp.o
 .debug_abbrev  0x00000000000052ff      0x1d4 /tmp/ccrl5OEU.debug.temp.o
 .debug_abbrev  0x00000000000054d3      0x1fe /tmp/ccdt2FPT.debug.temp.o
 .debug_abbrev  0x00000000000056d1      0x2ca /tmp/cckyXCBS.debug.temp.o
 .debug_abbrev  0x000000000000599b      0x2b0 /tmp/ccMh0lkW.debug.temp.o
 .debug_abbrev  0x0000000000005c4b      0x1c3 /tmp/ccE1kPmU.debug.temp.o
 .debug_abbrev  0x0000000000005e0e      0x216 /tmp/ccGQy2GW.debug.temp.o
 .debug_abbrev  0x0000000000006024      0x267 /tmp/cc83GjQU.debug.temp.o
 .debug_abbrev  0x000000000000628b      0x22d /tmp/ccU2jZmS.debug.temp.o
 .debug_abbrev  0x00000000000064b8      0x315 /tmp/ccBU07sT.debug.temp.o
 .debug_abbrev  0x00000000000067cd      0x249 /tmp/ccb2vIuW.debug.temp.o
 .debug_abbrev  0x0000000000006a16      0x209 /tmp/cc6eEBbU.debug.temp.o
 .debug_abbrev  0x0000000000006c1f      0x1c2 /tmp/ccuYKzjU.debug.temp.o
 .debug_abbrev  0x0000000000006de1      0x1ea /tmp/ccPkEYZV.debug.temp.o
 .debug_abbrev  0x0000000000006fcb      0x25a /tmp/cchbue5U.debug.temp.o
 .debug_abbrev  0x0000000000007225      0x2bb /tmp/ccG22RQV.debug.temp.o
 .debug_abbrev  0x00000000000074e0      0x33a /tmp/ccY77A3V.debug.temp.o
 .debug_abbrev  0x000000000000781a       0xaf /tmp/ccgLjDQU.debug.temp.o
 .debug_abbrev  0x00000000000078c9      0x2d6 /tmp/ccHmHuMV.debug.temp.o
 .debug_abbrev  0x0000000000007b9f      0x309 /tmp/cc9sTS7S.debug.temp.o
 .debug_abbrev  0x0000000000007ea8      0x24f /tmp/ccVXLOhV.debug.temp.o
 .debug_abbrev  0x00000000000080f7      0x26a /tmp/ccrvbceU.debug.temp.o
 .debug_abbrev  0x0000000000008361      0x20a /tmp/cc2iAP5S.debug.temp.o
 .debug_abbrev  0x000000000000856b      0x27f /tmp/ccAOzO2T.debug.temp.o
 .debug_abbrev  0x00000000000087ea      0x290 /tmp/ccr8mYQS.debug.temp.o
 .debug_abbrev  0x0000000000008a7a      0x207 /tmp/cc5il6gT.debug.temp.o
 .debug_abbrev  0x0000000000008c81      0x20a /tmp/ccKYTeuS.debug.temp.o
 .debug_abbrev  0x0000000000008e8b      0x1f5 /tmp/ccNFEGzU.debug.temp.o
 .debug_abbrev  0x0000000000009080      0x228 /tmp/ccbu5WVV.debug.temp.o
 .debug_abbrev  0x00000000000092a8      0x239 /tmp/ccEcRpTS.debug.temp.o
 .debug_abbrev  0x00000000000094e1      0x20a /tmp/ccd7faHV.debug.temp.o
 .debug_abbrev  0x00000000000096eb      0x23d /tmp/ccsxpLqU.debug.temp.o
 .debug_abbrev  0x0000000000009928      0x26a /tmp/cciun3sU.debug.temp.o
 .debug_abbrev  0x0000000000009b92      0x1f5 /tmp/ccAIHhKS.debug.temp.o
 .debug_abbrev  0x0000000000009d87      0x1f7 /tmp/cc8CaEwU.debug.temp.o
 .debug_abbrev  0x0000000000009f7e       0xaf /tmp/ccVDyBiT.debug.temp.o
 .debug_abbrev  0x000000000000a02d      0x217 /tmp/cclHUyYT.debug.temp.o
 .debug_abbrev  0x000000000000a244      0x1f5 /tmp/ccBGw1YU.debug.temp.o
 .debug_abbrev  0x000000000000a439      0x1f7 /tmp/ccx2Y9bU.debug.temp.o
 .debug_abbrev  0x000000000000a630      0x23d /tmp/ccGGYZwV.debug.temp.o
 .debug_abbrev  0x000000000000a86d      0x23d /tmp/ccMbrcFT.debug.temp.o
 .debug_abbrev  0x000000000000aaaa      0x1f7 /tmp/cc23NhOV.debug.temp.o
 .debug_abbrev  0x000000000000aca1      0x1f5 /tmp/cc1WiBFW.debug.temp.o
 .debug_abbrev  0x000000000000ae96       0xaf /tmp/ccTLFFEU.debug.temp.o
 .debug_abbrev  0x000000000000af45      0x219 /tmp/cc2iJ6aU.debug.temp.o
 .debug_abbrev  0x000000000000b15e      0x1f5 /tmp/ccH6a2bW.debug.temp.o
 .debug_abbrev  0x000000000000b353      0x20a /tmp/ccgDdtGV.debug.temp.o
 .debug_abbrev  0x000000000000b55d      0x1f5 /tmp/ccubYqHS.debug.temp.o
 .debug_abbrev  0x000000000000b752      0x1f7 /tmp/cczC5oAW.debug.temp.o
 .debug_abbrev  0x000000000000b949      0x204 /tmp/ccaefLcU.debug.temp.o
 .debug_abbrev  0x000000000000bb4d      0x250 /tmp/cczHwnOS.debug.temp.o
 .debug_abbrev  0x000000000000bd9d       0xaf /tmp/cc8MinTV.debug.temp.o
 .debug_abbrev  0x000000000000be4c      0x20a /tmp/cc0helvS.debug.temp.o
 .debug_abbrev  0x000000000000c056      0x219 /tmp/ccUIL1YV.debug.temp.o
 .debug_abbrev  0x000000000000c26f      0x1f5 /tmp/cctuIwxS.debug.temp.o
 .debug_abbrev  0x000000000000c464      0x217 /tmp/ccxi2OfT.debug.temp.o
 .debug_abbrev  0x000000000000c67b       0xaf /tmp/ccrWZQIS.debug.temp.o
 .debug_abbrev  0x000000000000c72a      0x24c /tmp/cceawc4U.debug.temp.o
 .debug_abbrev  0x000000000000c976      0x215 /tmp/ccOegDwS.debug.temp.o
 .debug_abbrev  0x000000000000cb8b      0x20a /tmp/ccORg2DW.debug.temp.o
 .debug_abbrev  0x000000000000cd95      0x20a /tmp/ccWydsnS.debug.temp.o
 .debug_abbrev  0x000000000000cf9f      0x208 /tmp/ccCy8huS.debug.temp.o
 .debug_abbrev  0x000000000000d1a7      0x20a /tmp/ccZpUuwS.debug.temp.o
 .debug_abbrev  0x000000000000d3b1      0x22a /tmp/ccBKlLcT.debug.temp.o
 .debug_abbrev  0x000000000000d5db      0x270 /tmp/ccbHxufU.debug.temp.o
 .debug_abbrev  0x000000000000d84b      0x228 /tmp/ccDOYTkW.debug.temp.o
 .debug_abbrev  0x000000000000da73      0x1f7 /tmp/ccGr723T.debug.temp.o
 .debug_abbrev  0x000000000000dc6a      0x270 /tmp/cc1IqBQW.debug.temp.o
 .debug_abbrev  0x000000000000deda      0x27b /tmp/cctg2KMV.debug.temp.o
 .debug_abbrev  0x000000000000e155      0x239 /tmp/cc8ovJqW.debug.temp.o
 .debug_abbrev  0x000000000000e38e      0x2e5 /tmp/ccMhFcyV.debug.temp.o
 .debug_abbrev  0x000000000000e673      0x2a1 /tmp/ccL8UzpW.debug.temp.o
 .debug_abbrev  0x000000000000e914      0x23d /tmp/ccvioZdT.debug.temp.o
 .debug_abbrev  0x000000000000eb51      0x22a /tmp/ccT3soPT.debug.temp.o
 .debug_abbrev  0x000000000000ed7b      0x2b2 /tmp/cc4nJkrV.debug.temp.o
 .debug_abbrev  0x000000000000f02d      0x25b /tmp/cciynRtV.debug.temp.o
 .debug_abbrev  0x000000000000f288       0xaf /tmp/cchhOsEW.debug.temp.o
 .debug_abbrev  0x000000000000f337      0x1f5 /tmp/ccqGEDgW.debug.temp.o
 .debug_abbrev  0x000000000000f52c      0x22c /tmp/cc0GnkNT.debug.temp.o
 .debug_abbrev  0x000000000000f758      0x204 /tmp/ccDP1gtU.debug.temp.o
 .debug_abbrev  0x000000000000f95c      0x217 /tmp/cciaPlAS.debug.temp.o
 .debug_abbrev  0x000000000000fb73      0x1f5 /tmp/ccifzqTW.debug.temp.o
 .debug_abbrev  0x000000000000fd68      0x1f5 /tmp/ccj1RO3U.debug.temp.o
 .debug_abbrev  0x000000000000ff5d      0x20a /tmp/cce8yOpW.debug.temp.o
 .debug_abbrev  0x0000000000010167      0x237 /tmp/ccaVZetW.debug.temp.o
 .debug_abbrev  0x000000000001039e      0x284 /tmp/ccUI50pU.debug.temp.o
 .debug_abbrev  0x0000000000010622      0x24c /tmp/cc690maU.debug.temp.o
 .debug_abbrev  0x000000000001086e      0x217 /tmp/ccpl0q2T.debug.temp.o
 .debug_abbrev  0x0000000000010a85      0x2d0 /tmp/ccBcs4yW.debug.temp.o
 .debug_abbrev  0x0000000000010d55      0x24c /tmp/ccb7z9CV.debug.temp.o
 .debug_abbrev  0x0000000000010fa1      0x228 /tmp/ccrZaAoT.debug.temp.o
 .debug_abbrev  0x00000000000111c9      0x2e9 /tmp/ccPADlIU.debug.temp.o
 .debug_abbrev  0x00000000000114b2      0x2f1 /tmp/cc46JdRT.debug.temp.o
 .debug_abbrev  0x00000000000117a3      0x270 /tmp/ccJhsNtU.debug.temp.o
 .debug_abbrev  0x0000000000011a13      0x2c7 /tmp/ccSMLCnT.debug.temp.o
 .debug_abbrev  0x0000000000011cda      0x27f /tmp/ccjLMrfV.debug.temp.o
 .debug_abbrev  0x0000000000011f59      0x237 /tmp/ccNbJpfV.debug.temp.o
 .debug_abbrev  0x0000000000012190      0x2f8 /tmp/ccNE2pkT.debug.temp.o
 .debug_abbrev  0x0000000000012488      0x241 /tmp/ccbOU45T.debug.temp.o
 .debug_abbrev  0x00000000000126c9      0x2a1 /tmp/ccO8zwbW.debug.temp.o
 .debug_abbrev  0x000000000001296a      0x27d /tmp/ccVZMaSV.debug.temp.o
 .debug_abbrev  0x0000000000012be7      0x272 /tmp/ccOGT5tS.debug.temp.o
 .debug_abbrev  0x0000000000012e59      0x260 /tmp/cc9zLPrS.debug.temp.o
 .debug_abbrev  0x00000000000130b9      0x2e8 /tmp/ccLtp4DW.debug.temp.o
 .debug_abbrev  0x00000000000133a1      0x24d /tmp/cceJWmIT.debug.temp.o
 .debug_abbrev  0x00000000000135ee      0x255 /tmp/cc9WN4lU.debug.temp.o
 .debug_abbrev  0x0000000000013843      0x1c7 /tmp/cc9GooRT.debug.temp.o
 .debug_abbrev  0x0000000000013a0a      0x219 /tmp/ccUehd3U.debug.temp.o
 .debug_abbrev  0x0000000000013c23      0x338 /tmp/ccUta1jU.debug.temp.o
 .debug_abbrev  0x0000000000013f5b      0x293 /tmp/ccoo6QiU.debug.temp.o
 .debug_abbrev  0x00000000000141ee       0xaf /tmp/ccWzyLNS.debug.temp.o
 .debug_abbrev  0x000000000001429d      0x271 /tmp/ccI9JgtS.debug.temp.o
 .debug_abbrev  0x000000000001450e       0xaf /tmp/ccC7ZLbW.debug.temp.o
 .debug_abbrev  0x00000000000145bd      0x13a /tmp/ccJaZl3U.debug.temp.o
 .debug_abbrev  0x00000000000146f7      0x22f /tmp/ccAtpCkV.debug.temp.o
 .debug_abbrev  0x0000000000014926      0x155 /tmp/ccsR9G7T.debug.temp.o
 .debug_abbrev  0x0000000000014a7b      0x19b /tmp/ccP4YuRV.debug.temp.o
 .debug_abbrev  0x0000000000014c16      0x128 /tmp/ccEBohlU.debug.temp.o
 .debug_abbrev  0x0000000000014d3e      0x14a /tmp/cck37OXU.debug.temp.o
 .debug_abbrev  0x0000000000014e88       0xd1 /tmp/ccmNQLJT.debug.temp.o
 .debug_abbrev  0x0000000000014f59      0x128 /tmp/cc5lN8CW.debug.temp.o
 .debug_abbrev  0x0000000000015081      0x14a /tmp/ccY8wbZU.debug.temp.o
 .debug_abbrev  0x00000000000151cb      0x177 /tmp/ccUVVXsT.debug.temp.o
 .debug_abbrev  0x0000000000015342      0x1ae /tmp/cca5uoFT.debug.temp.o
 .debug_abbrev  0x00000000000154f0      0x188 /tmp/ccOBtIJV.debug.temp.o
 .debug_abbrev  0x0000000000015678      0x14a /tmp/ccX1rlKU.debug.temp.o
 .debug_abbrev  0x00000000000157c2      0x128 /tmp/ccCZpOKV.debug.temp.o
 .debug_abbrev  0x00000000000158ea      0x188 /tmp/cc8PtiPV.debug.temp.o
 .debug_abbrev  0x0000000000015a72      0x188 /tmp/ccfqZ9rW.debug.temp.o
 .debug_abbrev  0x0000000000015bfa      0x14a /tmp/ccuXtMyT.debug.temp.o
 .debug_abbrev  0x0000000000015d44      0x131 /tmp/ccDF7kRU.debug.temp.o
 .debug_abbrev  0x0000000000015e75      0x159 /tmp/ccEhhcfV.debug.temp.o
 .debug_abbrev  0x0000000000015fce      0x177 /tmp/ccodCLHT.debug.temp.o
 .debug_abbrev  0x0000000000016145       0xd1 /tmp/ccAmeYlV.debug.temp.o
 .debug_abbrev  0x0000000000016216      0x142 /tmp/ccBwjDDU.debug.temp.o
 .debug_abbrev  0x0000000000016358      0x122 /tmp/ccIjgDwT.debug.temp.o
 .debug_abbrev  0x000000000001647a      0x280 /tmp/cc3vxIWT.debug.temp.o
 .debug_abbrev  0x00000000000166fa       0xb1 /tmp/ccspgomT.debug.temp.o
 .debug_abbrev  0x00000000000167ab       0xb1 /tmp/ccZKQSRV.debug.temp.o
 .debug_abbrev  0x000000000001685c       0xc7 /tmp/ccsGqqxV.debug.temp.o
 .debug_abbrev  0x0000000000016923       0xb1 /tmp/ccmqBaKT.debug.temp.o
 .debug_abbrev  0x00000000000169d4       0xc0 /tmp/ccB83YLU.debug.temp.o
 .debug_abbrev  0x0000000000016a94       0xb1 /tmp/ccp96oPU.debug.temp.o
 .debug_abbrev  0x0000000000016b45       0xb3 /tmp/ccNva68V.debug.temp.o
 .debug_abbrev  0x0000000000016bf8       0xb3 /tmp/ccQB7PFT.debug.temp.o
 .debug_abbrev  0x0000000000016cab       0xc9 /tmp/ccwjP3xW.debug.temp.o
 .debug_abbrev  0x0000000000016d74      0x11f /tmp/ccJDOhvV.debug.temp.o
 .debug_abbrev  0x0000000000016e93       0xc6 /tmp/cc2sr11S.debug.temp.o
 .debug_abbrev  0x0000000000016f59       0xc4 /tmp/ccg62DaU.debug.temp.o
 .debug_abbrev  0x000000000001701d      0x108 /tmp/cc6OPivS.debug.temp.o
 .debug_abbrev  0x0000000000017125      0x283 /tmp/ccy42MRU.debug.temp.o
 .debug_abbrev  0x00000000000173a8      0x233 /tmp/ccCR9OVT.debug.temp.o
 .debug_abbrev  0x00000000000175db      0x1a3 /tmp/ccrbsjdV.debug.temp.o
 .debug_abbrev  0x000000000001777e      0x1bb /tmp/ccRCyT6V.debug.temp.o
 .debug_abbrev  0x0000000000017939      0x2d2 /tmp/cciNAa2U.debug.temp.o
 .debug_abbrev  0x0000000000017c0b       0xa8 /tmp/ccs2uZuW.debug.temp.o
 .debug_abbrev  0x0000000000017cb3      0x37e /tmp/ccQ1gsgU.debug.temp.o
 .debug_abbrev  0x0000000000018031      0x2ec /tmp/cce72MmT.debug.temp.o
 .debug_abbrev  0x000000000001831d      0x144 /tmp/ccJs0AqU.debug.temp.o
 .debug_abbrev  0x0000000000018461      0x2b7 /tmp/ccXgmS3T.debug.temp.o
 .debug_abbrev  0x0000000000018718      0x25a /tmp/ccBHQORW.debug.temp.o

.debug_loc      0x0000000000000000    0xa7f71
 .debug_loc     0x0000000000000000    0x148a1 /tmp/Shell.dll.y4Q2gW.ltrans0.ltrans.o
 .debug_loc     0x00000000000148a1     0xdcf5 /tmp/Shell.dll.y4Q2gW.ltrans1.ltrans.o
 .debug_loc     0x0000000000022596     0x579d /tmp/Shell.dll.y4Q2gW.ltrans2.ltrans.o
 .debug_loc     0x0000000000027d33     0xc96c /tmp/Shell.dll.y4Q2gW.ltrans3.ltrans.o
 .debug_loc     0x000000000003469f     0xd48f /tmp/Shell.dll.y4Q2gW.ltrans4.ltrans.o
 .debug_loc     0x0000000000041b2e     0xcda7 /tmp/Shell.dll.y4Q2gW.ltrans5.ltrans.o
 .debug_loc     0x000000000004e8d5     0xb312 /tmp/Shell.dll.y4Q2gW.ltrans6.ltrans.o
 .debug_loc     0x0000000000059be7     0x864e /tmp/Shell.dll.y4Q2gW.ltrans7.ltrans.o
 .debug_loc     0x0000000000062235     0xc6e0 /tmp/Shell.dll.y4Q2gW.ltrans8.ltrans.o
 .debug_loc     0x000000000006e915     0xe0ab /tmp/Shell.dll.y4Q2gW.ltrans9.ltrans.o
 .debug_loc     0x000000000007c9c0    0x1becc /tmp/Shell.dll.y4Q2gW.ltrans10.ltrans.o
 .debug_loc     0x000000000009888c     0xceb9 /tmp/Shell.dll.y4Q2gW.ltrans11.ltrans.o
 .debug_loc     0x00000000000a5745     0x282c /tmp/Shell.dll.y4Q2gW.ltrans12.ltrans.o

.debug_aranges  0x0000000000000000     0x3dc0
 .debug_aranges
                0x0000000000000000      0x720 /tmp/Shell.dll.y4Q2gW.ltrans0.ltrans.o
 .debug_aranges
                0x0000000000000720      0x590 /tmp/Shell.dll.y4Q2gW.ltrans1.ltrans.o
 .debug_aranges
                0x0000000000000cb0       0x30 /tmp/Shell.dll.y4Q2gW.ltrans2.ltrans.o
 .debug_aranges
                0x0000000000000ce0      0x4d0 /tmp/Shell.dll.y4Q2gW.ltrans3.ltrans.o
 .debug_aranges
                0x00000000000011b0      0x1c0 /tmp/Shell.dll.y4Q2gW.ltrans4.ltrans.o
 .debug_aranges
                0x0000000000001370      0x360 /tmp/Shell.dll.y4Q2gW.ltrans5.ltrans.o
 .debug_aranges
                0x00000000000016d0      0x240 /tmp/Shell.dll.y4Q2gW.ltrans6.ltrans.o
 .debug_aranges
                0x0000000000001910      0x1c0 /tmp/Shell.dll.y4Q2gW.ltrans7.ltrans.o
 .debug_aranges
                0x0000000000001ad0      0x390 /tmp/Shell.dll.y4Q2gW.ltrans8.ltrans.o
 .debug_aranges
                0x0000000000001e60      0x700 /tmp/Shell.dll.y4Q2gW.ltrans9.ltrans.o
 .debug_aranges
                0x0000000000002560     0x1310 /tmp/Shell.dll.y4Q2gW.ltrans10.ltrans.o
 .debug_aranges
                0x0000000000003870      0x4e0 /tmp/Shell.dll.y4Q2gW.ltrans11.ltrans.o
 .debug_aranges
                0x0000000000003d50       0x70 /tmp/Shell.dll.y4Q2gW.ltrans12.ltrans.o

.debug_ranges   0x0000000000000000    0x16310
 .debug_ranges  0x0000000000000000     0x28a0 /tmp/Shell.dll.y4Q2gW.ltrans0.ltrans.o
 .debug_ranges  0x00000000000028a0     0x3030 /tmp/Shell.dll.y4Q2gW.ltrans1.ltrans.o
 .debug_ranges  0x00000000000058d0     0x3300 /tmp/Shell.dll.y4Q2gW.ltrans2.ltrans.o
 .debug_ranges  0x0000000000008bd0     0x1970 /tmp/Shell.dll.y4Q2gW.ltrans3.ltrans.o
 .debug_ranges  0x000000000000a540      0xe10 /tmp/Shell.dll.y4Q2gW.ltrans4.ltrans.o
 .debug_ranges  0x000000000000b350     0x1e60 /tmp/Shell.dll.y4Q2gW.ltrans5.ltrans.o
 .debug_ranges  0x000000000000d1b0     0x12e0 /tmp/Shell.dll.y4Q2gW.ltrans6.ltrans.o
 .debug_ranges  0x000000000000e490      0xe30 /tmp/Shell.dll.y4Q2gW.ltrans7.ltrans.o
 .debug_ranges  0x000000000000f2c0      0xed0 /tmp/Shell.dll.y4Q2gW.ltrans8.ltrans.o
 .debug_ranges  0x0000000000010190     0x1070 /tmp/Shell.dll.y4Q2gW.ltrans9.ltrans.o
 .debug_ranges  0x0000000000011200     0x2820 /tmp/Shell.dll.y4Q2gW.ltrans10.ltrans.o
 .debug_ranges  0x0000000000013a20     0x1bd0 /tmp/Shell.dll.y4Q2gW.ltrans11.ltrans.o
 .debug_ranges  0x00000000000155f0      0xd20 /tmp/Shell.dll.y4Q2gW.ltrans12.ltrans.o

.debug_line     0x0000000000000000    0x8804b
 .debug_line    0x0000000000000000     0x78ca /tmp/Shell.dll.y4Q2gW.ltrans0.ltrans.o
 .debug_line    0x00000000000078ca     0x6003 /tmp/Shell.dll.y4Q2gW.ltrans1.ltrans.o
 .debug_line    0x000000000000d8cd     0x3164 /tmp/Shell.dll.y4Q2gW.ltrans2.ltrans.o
 .debug_line    0x0000000000010a31     0x63d4 /tmp/Shell.dll.y4Q2gW.ltrans3.ltrans.o
 .debug_line    0x0000000000016e05     0x58ee /tmp/Shell.dll.y4Q2gW.ltrans4.ltrans.o
 .debug_line    0x000000000001c6f3     0x72fe /tmp/Shell.dll.y4Q2gW.ltrans5.ltrans.o
 .debug_line    0x00000000000239f1     0x56ea /tmp/Shell.dll.y4Q2gW.ltrans6.ltrans.o
 .debug_line    0x00000000000290db     0x50d5 /tmp/Shell.dll.y4Q2gW.ltrans7.ltrans.o
 .debug_line    0x000000000002e1b0     0x5ec2 /tmp/Shell.dll.y4Q2gW.ltrans8.ltrans.o
 .debug_line    0x0000000000034072     0x7294 /tmp/Shell.dll.y4Q2gW.ltrans9.ltrans.o
 .debug_line    0x000000000003b306     0xaed3 /tmp/Shell.dll.y4Q2gW.ltrans10.ltrans.o
 .debug_line    0x00000000000461d9     0x62f1 /tmp/Shell.dll.y4Q2gW.ltrans11.ltrans.o
 .debug_line    0x000000000004c4ca     0x24b1 /tmp/Shell.dll.y4Q2gW.ltrans12.ltrans.o
 .debug_line    0x000000000004e97b      0x34f /tmp/cc7pi0HV.debug.temp.o
 .debug_line    0x000000000004ecca      0x170 /tmp/cc7WKLeT.debug.temp.o
 .debug_line    0x000000000004ee3a      0x171 /tmp/ccMLC2CU.debug.temp.o
 .debug_line    0x000000000004efab      0x171 /tmp/cciWvgCV.debug.temp.o
 .debug_line    0x000000000004f11c      0x2ea /tmp/cceaCk0T.debug.temp.o
 .debug_line    0x000000000004f406      0x56d /tmp/ccHCQrUV.debug.temp.o
 .debug_line    0x000000000004f973      0x57f /tmp/ccgVca7V.debug.temp.o
 .debug_line    0x000000000004fef2      0x589 /tmp/ccSoANcW.debug.temp.o
 .debug_line    0x000000000005047b      0x54c /tmp/cckZCEWS.debug.temp.o
 .debug_line    0x00000000000509c7      0x545 /tmp/cc1oUDJW.debug.temp.o
 .debug_line    0x0000000000050f0c      0x548 /tmp/ccSrSZ7S.debug.temp.o
 .debug_line    0x0000000000051454      0x547 /tmp/cctymDnS.debug.temp.o
 .debug_line    0x000000000005199b      0x549 /tmp/cc6UF2TW.debug.temp.o
 .debug_line    0x0000000000051ee4      0x173 /tmp/ccVMJQJW.debug.temp.o
 .debug_line    0x0000000000052057      0x173 /tmp/cc2N3bmU.debug.temp.o
 .debug_line    0x00000000000521ca      0x174 /tmp/ccaPKC5U.debug.temp.o
 .debug_line    0x000000000005233e      0x172 /tmp/ccV3HmTU.debug.temp.o
 .debug_line    0x00000000000524b0      0x173 /tmp/ccg2LlnW.debug.temp.o
 .debug_line    0x0000000000052623      0x14c /tmp/ccpSR5GS.debug.temp.o
 .debug_line    0x000000000005276f      0x14b /tmp/ccpwISAW.debug.temp.o
 .debug_line    0x00000000000528ba      0x14b /tmp/ccovLV6U.debug.temp.o
 .debug_line    0x0000000000052a05      0x147 /tmp/ccAZTmyT.debug.temp.o
 .debug_line    0x0000000000052b4c      0x14a /tmp/ccqaOkGT.debug.temp.o
 .debug_line    0x0000000000052c96      0x14c /tmp/cc5PXCZV.debug.temp.o
 .debug_line    0x0000000000052de2      0x14c /tmp/ccSgv2mV.debug.temp.o
 .debug_line    0x0000000000052f2e      0x14a /tmp/ccl5HjXV.debug.temp.o
 .debug_line    0x0000000000053078      0x14b /tmp/ccW4bUiW.debug.temp.o
 .debug_line    0x00000000000531c3      0x14a /tmp/ccF5S6TT.debug.temp.o
 .debug_line    0x000000000005330d      0x14a /tmp/ccDT2ekU.debug.temp.o
 .debug_line    0x0000000000053457      0x147 /tmp/cc6ovEsV.debug.temp.o
 .debug_line    0x000000000005359e      0x166 /tmp/ccnxzAxW.debug.temp.o
 .debug_line    0x0000000000053704      0x184 /tmp/ccZAJdkU.debug.temp.o
 .debug_line    0x0000000000053888      0x20c /tmp/ccF0pR8V.debug.temp.o
 .debug_line    0x0000000000053a94      0x330 /tmp/cctaQZIT.debug.temp.o
 .debug_line    0x0000000000053dc4      0x328 /tmp/cc61M7GU.debug.temp.o
 .debug_line    0x00000000000540ec      0x36c /tmp/ccpfxNYT.debug.temp.o
 .debug_line    0x0000000000054458      0x372 /tmp/ccrl5OEU.debug.temp.o
 .debug_line    0x00000000000547ca      0x36a /tmp/ccdt2FPT.debug.temp.o
 .debug_line    0x0000000000054b34      0x3db /tmp/cckyXCBS.debug.temp.o
 .debug_line    0x0000000000054f0f      0x3cf /tmp/ccMh0lkW.debug.temp.o
 .debug_line    0x00000000000552de      0x2e9 /tmp/ccE1kPmU.debug.temp.o
 .debug_line    0x00000000000555c7      0x400 /tmp/ccGQy2GW.debug.temp.o
 .debug_line    0x00000000000559c7      0x36d /tmp/cc83GjQU.debug.temp.o
 .debug_line    0x0000000000055d34      0x366 /tmp/ccU2jZmS.debug.temp.o
 .debug_line    0x000000000005609a      0x515 /tmp/ccBU07sT.debug.temp.o
 .debug_line    0x00000000000565af      0x4f8 /tmp/ccb2vIuW.debug.temp.o
 .debug_line    0x0000000000056aa7      0x4fa /tmp/cc6eEBbU.debug.temp.o
 .debug_line    0x0000000000056fa1      0x32f /tmp/ccuYKzjU.debug.temp.o
 .debug_line    0x00000000000572d0      0x42d /tmp/ccPkEYZV.debug.temp.o
 .debug_line    0x00000000000576fd      0x3c1 /tmp/cchbue5U.debug.temp.o
 .debug_line    0x0000000000057abe      0x524 /tmp/ccG22RQV.debug.temp.o
 .debug_line    0x0000000000057fe2      0x794 /tmp/ccY77A3V.debug.temp.o
 .debug_line    0x0000000000058776      0x27f /tmp/ccgLjDQU.debug.temp.o
 .debug_line    0x00000000000589f5      0x58f /tmp/ccHmHuMV.debug.temp.o
 .debug_line    0x0000000000058f84      0x589 /tmp/cc9sTS7S.debug.temp.o
 .debug_line    0x000000000005950d      0x600 /tmp/ccVXLOhV.debug.temp.o
 .debug_line    0x0000000000059b0d      0x5ee /tmp/ccrvbceU.debug.temp.o
 .debug_line    0x000000000005a0fb      0x5ea /tmp/cc2iAP5S.debug.temp.o
 .debug_line    0x000000000005a6e5      0x612 /tmp/ccAOzO2T.debug.temp.o
 .debug_line    0x000000000005acf7      0x5f6 /tmp/ccr8mYQS.debug.temp.o
 .debug_line    0x000000000005b2ed      0x5eb /tmp/cc5il6gT.debug.temp.o
 .debug_line    0x000000000005b8d8      0x5e9 /tmp/ccKYTeuS.debug.temp.o
 .debug_line    0x000000000005bec1      0x5eb /tmp/ccNFEGzU.debug.temp.o
 .debug_line    0x000000000005c4ac      0x5e8 /tmp/ccbu5WVV.debug.temp.o
 .debug_line    0x000000000005ca94      0x631 /tmp/ccEcRpTS.debug.temp.o
 .debug_line    0x000000000005d0c5      0x5eb /tmp/ccd7faHV.debug.temp.o
 .debug_line    0x000000000005d6b0      0x5e8 /tmp/ccsxpLqU.debug.temp.o
 .debug_line    0x000000000005dc98      0x5e8 /tmp/cciun3sU.debug.temp.o
 .debug_line    0x000000000005e280      0x5ec /tmp/ccAIHhKS.debug.temp.o
 .debug_line    0x000000000005e86c      0x632 /tmp/cc8CaEwU.debug.temp.o
 .debug_line    0x000000000005ee9e      0x291 /tmp/ccVDyBiT.debug.temp.o
 .debug_line    0x000000000005f12f      0x602 /tmp/cclHUyYT.debug.temp.o
 .debug_line    0x000000000005f731      0x5ec /tmp/ccBGw1YU.debug.temp.o
 .debug_line    0x000000000005fd1d      0x5ec /tmp/ccx2Y9bU.debug.temp.o
 .debug_line    0x0000000000060309      0x5ea /tmp/ccGGYZwV.debug.temp.o
 .debug_line    0x00000000000608f3      0x5eb /tmp/ccMbrcFT.debug.temp.o
 .debug_line    0x0000000000060ede      0x5ed /tmp/cc23NhOV.debug.temp.o
 .debug_line    0x00000000000614cb      0x5ed /tmp/cc1WiBFW.debug.temp.o
 .debug_line    0x0000000000061ab8      0x291 /tmp/ccTLFFEU.debug.temp.o
 .debug_line    0x0000000000061d49      0x602 /tmp/cc2iJ6aU.debug.temp.o
 .debug_line    0x000000000006234b      0x5eb /tmp/ccH6a2bW.debug.temp.o
 .debug_line    0x0000000000062936      0x5ed /tmp/ccgDdtGV.debug.temp.o
 .debug_line    0x0000000000062f23      0x5ec /tmp/ccubYqHS.debug.temp.o
 .debug_line    0x000000000006350f      0x5ed /tmp/cczC5oAW.debug.temp.o
 .debug_line    0x0000000000063afc      0x5ee /tmp/ccaefLcU.debug.temp.o
 .debug_line    0x00000000000640ea      0x605 /tmp/cczHwnOS.debug.temp.o
 .debug_line    0x00000000000646ef      0x291 /tmp/cc8MinTV.debug.temp.o
 .debug_line    0x0000000000064980      0x5ec /tmp/cc0helvS.debug.temp.o
 .debug_line    0x0000000000064f6c      0x5ed /tmp/ccUIL1YV.debug.temp.o
 .debug_line    0x0000000000065559      0x5eb /tmp/cctuIwxS.debug.temp.o
 .debug_line    0x0000000000065b44      0x6ba /tmp/ccxi2OfT.debug.temp.o
 .debug_line    0x00000000000661fe      0x294 /tmp/ccrWZQIS.debug.temp.o
 .debug_line    0x0000000000066492      0x6a6 /tmp/cceawc4U.debug.temp.o
 .debug_line    0x0000000000066b38      0x6a6 /tmp/ccOegDwS.debug.temp.o
 .debug_line    0x00000000000671de      0x6a7 /tmp/ccORg2DW.debug.temp.o
 .debug_line    0x0000000000067885      0x6a9 /tmp/ccWydsnS.debug.temp.o
 .debug_line    0x0000000000067f2e      0x6a8 /tmp/ccCy8huS.debug.temp.o
 .debug_line    0x00000000000685d6      0x6a5 /tmp/ccZpUuwS.debug.temp.o
 .debug_line    0x0000000000068c7b      0x6a6 /tmp/ccBKlLcT.debug.temp.o
 .debug_line    0x0000000000069321      0x6a1 /tmp/ccbHxufU.debug.temp.o
 .debug_line    0x00000000000699c2      0x700 /tmp/ccDOYTkW.debug.temp.o
 .debug_line    0x000000000006a0c2      0x6a6 /tmp/ccGr723T.debug.temp.o
 .debug_line    0x000000000006a768      0x6e5 /tmp/cc1IqBQW.debug.temp.o
 .debug_line    0x000000000006ae4d      0x722 /tmp/cctg2KMV.debug.temp.o
 .debug_line    0x000000000006b56f      0x7a5 /tmp/cc8ovJqW.debug.temp.o
 .debug_line    0x000000000006bd14      0x7ab /tmp/ccMhFcyV.debug.temp.o
 .debug_line    0x000000000006c4bf      0x7c0 /tmp/ccL8UzpW.debug.temp.o
 .debug_line    0x000000000006cc7f      0x7a5 /tmp/ccvioZdT.debug.temp.o
 .debug_line    0x000000000006d424      0x7b5 /tmp/ccT3soPT.debug.temp.o
 .debug_line    0x000000000006dbd9      0x7cc /tmp/cc4nJkrV.debug.temp.o
 .debug_line    0x000000000006e3a5      0x7b2 /tmp/cciynRtV.debug.temp.o
 .debug_line    0x000000000006eb57      0x291 /tmp/cchhOsEW.debug.temp.o
 .debug_line    0x000000000006ede8      0x70f /tmp/ccqGEDgW.debug.temp.o
 .debug_line    0x000000000006f4f7      0x70c /tmp/cc0GnkNT.debug.temp.o
 .debug_line    0x000000000006fc03      0x70c /tmp/ccDP1gtU.debug.temp.o
 .debug_line    0x000000000007030f      0x70e /tmp/cciaPlAS.debug.temp.o
 .debug_line    0x0000000000070a1d      0x713 /tmp/ccifzqTW.debug.temp.o
 .debug_line    0x0000000000071130      0x725 /tmp/ccj1RO3U.debug.temp.o
 .debug_line    0x0000000000071855      0x72b /tmp/cce8yOpW.debug.temp.o
 .debug_line    0x0000000000071f80      0x76b /tmp/ccaVZetW.debug.temp.o
 .debug_line    0x00000000000726eb      0x783 /tmp/ccUI50pU.debug.temp.o
 .debug_line    0x0000000000072e6e      0x70e /tmp/cc690maU.debug.temp.o
 .debug_line    0x000000000007357c      0x71d /tmp/ccpl0q2T.debug.temp.o
 .debug_line    0x0000000000073c99      0x7a2 /tmp/ccBcs4yW.debug.temp.o
 .debug_line    0x000000000007443b      0x710 /tmp/ccb7z9CV.debug.temp.o
 .debug_line    0x0000000000074b4b      0x719 /tmp/ccrZaAoT.debug.temp.o
 .debug_line    0x0000000000075264      0x7d0 /tmp/ccPADlIU.debug.temp.o
 .debug_line    0x0000000000075a34      0x7c4 /tmp/cc46JdRT.debug.temp.o
 .debug_line    0x00000000000761f8      0x726 /tmp/ccJhsNtU.debug.temp.o
 .debug_line    0x000000000007691e      0x714 /tmp/ccSMLCnT.debug.temp.o
 .debug_line    0x0000000000077032      0x715 /tmp/ccjLMrfV.debug.temp.o
 .debug_line    0x0000000000077747      0x724 /tmp/ccNbJpfV.debug.temp.o
 .debug_line    0x0000000000077e6b      0x7b9 /tmp/ccNE2pkT.debug.temp.o
 .debug_line    0x0000000000078624      0x7b7 /tmp/ccbOU45T.debug.temp.o
 .debug_line    0x0000000000078ddb      0x7c4 /tmp/ccO8zwbW.debug.temp.o
 .debug_line    0x000000000007959f      0x7b7 /tmp/ccVZMaSV.debug.temp.o
 .debug_line    0x0000000000079d56      0x7b6 /tmp/ccOGT5tS.debug.temp.o
 .debug_line    0x000000000007a50c      0x3df /tmp/cc9zLPrS.debug.temp.o
 .debug_line    0x000000000007a8eb      0x7bf /tmp/ccLtp4DW.debug.temp.o
 .debug_line    0x000000000007b0aa      0x7d0 /tmp/cceJWmIT.debug.temp.o
 .debug_line    0x000000000007b87a      0x78a /tmp/cc9WN4lU.debug.temp.o
 .debug_line    0x000000000007c004      0x2f1 /tmp/cc9GooRT.debug.temp.o
 .debug_line    0x000000000007c2f5      0x682 /tmp/ccUehd3U.debug.temp.o
 .debug_line    0x000000000007c977      0x6af /tmp/ccUta1jU.debug.temp.o
 .debug_line    0x000000000007d026      0x687 /tmp/ccoo6QiU.debug.temp.o
 .debug_line    0x000000000007d6ad      0x297 /tmp/ccWzyLNS.debug.temp.o
 .debug_line    0x000000000007d944      0x5dc /tmp/ccI9JgtS.debug.temp.o
 .debug_line    0x000000000007df20      0x294 /tmp/ccC7ZLbW.debug.temp.o
 .debug_line    0x000000000007e1b4      0x3c2 /tmp/ccJaZl3U.debug.temp.o
 .debug_line    0x000000000007e576      0x593 /tmp/ccAtpCkV.debug.temp.o
 .debug_line    0x000000000007eb09      0x2fa /tmp/ccsR9G7T.debug.temp.o
 .debug_line    0x000000000007ee03      0x410 /tmp/ccP4YuRV.debug.temp.o
 .debug_line    0x000000000007f213      0x410 /tmp/ccEBohlU.debug.temp.o
 .debug_line    0x000000000007f623      0x410 /tmp/cck37OXU.debug.temp.o
 .debug_line    0x000000000007fa33      0x3b5 /tmp/ccmNQLJT.debug.temp.o
 .debug_line    0x000000000007fde8      0x410 /tmp/cc5lN8CW.debug.temp.o
 .debug_line    0x00000000000801f8      0x425 /tmp/ccY8wbZU.debug.temp.o
 .debug_line    0x000000000008061d      0x410 /tmp/ccUVVXsT.debug.temp.o
 .debug_line    0x0000000000080a2d      0x45a /tmp/cca5uoFT.debug.temp.o
 .debug_line    0x0000000000080e87      0x410 /tmp/ccOBtIJV.debug.temp.o
 .debug_line    0x0000000000081297      0x410 /tmp/ccX1rlKU.debug.temp.o
 .debug_line    0x00000000000816a7      0x410 /tmp/ccCZpOKV.debug.temp.o
 .debug_line    0x0000000000081ab7      0x410 /tmp/cc8PtiPV.debug.temp.o
 .debug_line    0x0000000000081ec7      0x410 /tmp/ccfqZ9rW.debug.temp.o
 .debug_line    0x00000000000822d7      0x410 /tmp/ccuXtMyT.debug.temp.o
 .debug_line    0x00000000000826e7      0x410 /tmp/ccDF7kRU.debug.temp.o
 .debug_line    0x0000000000082af7      0x410 /tmp/ccEhhcfV.debug.temp.o
 .debug_line    0x0000000000082f07      0x410 /tmp/ccodCLHT.debug.temp.o
 .debug_line    0x0000000000083317      0x3b5 /tmp/ccAmeYlV.debug.temp.o
 .debug_line    0x00000000000836cc      0x410 /tmp/ccBwjDDU.debug.temp.o
 .debug_line    0x0000000000083adc      0x3c2 /tmp/ccIjgDwT.debug.temp.o
 .debug_line    0x0000000000083e9e      0x42d /tmp/cc3vxIWT.debug.temp.o
 .debug_line    0x00000000000842cb      0x176 /tmp/ccspgomT.debug.temp.o
 .debug_line    0x0000000000084441      0x178 /tmp/ccZKQSRV.debug.temp.o
 .debug_line    0x00000000000845b9      0x177 /tmp/ccsGqqxV.debug.temp.o
 .debug_line    0x0000000000084730      0x14c /tmp/ccmqBaKT.debug.temp.o
 .debug_line    0x000000000008487c      0x14b /tmp/ccB83YLU.debug.temp.o
 .debug_line    0x00000000000849c7      0x14a /tmp/ccp96oPU.debug.temp.o
 .debug_line    0x0000000000084b11      0x153 /tmp/ccNva68V.debug.temp.o
 .debug_line    0x0000000000084c64      0x153 /tmp/ccQB7PFT.debug.temp.o
 .debug_line    0x0000000000084db7      0x14e /tmp/ccwjP3xW.debug.temp.o
 .debug_line    0x0000000000084f05      0x16b /tmp/ccJDOhvV.debug.temp.o
 .debug_line    0x0000000000085070      0x198 /tmp/cc2sr11S.debug.temp.o
 .debug_line    0x0000000000085208      0x228 /tmp/ccg62DaU.debug.temp.o
 .debug_line    0x0000000000085430      0x240 /tmp/cc6OPivS.debug.temp.o
 .debug_line    0x0000000000085670      0x3a1 /tmp/ccy42MRU.debug.temp.o
 .debug_line    0x0000000000085a11      0x341 /tmp/ccCR9OVT.debug.temp.o
 .debug_line    0x0000000000085d52      0x1d8 /tmp/ccrbsjdV.debug.temp.o
 .debug_line    0x0000000000085f2a      0x20b /tmp/ccRCyT6V.debug.temp.o
 .debug_line    0x0000000000086135      0x64c /tmp/cciNAa2U.debug.temp.o
 .debug_line    0x0000000000086781      0x288 /tmp/ccs2uZuW.debug.temp.o
 .debug_line    0x0000000000086a09      0x507 /tmp/ccQ1gsgU.debug.temp.o
 .debug_line    0x0000000000086f10      0x35c /tmp/cce72MmT.debug.temp.o
 .debug_line    0x000000000008726c      0x2a9 /tmp/ccJs0AqU.debug.temp.o
 .debug_line    0x0000000000087515      0x5c8 /tmp/ccXgmS3T.debug.temp.o
 .debug_line    0x0000000000087add      0x56e /tmp/ccBHQORW.debug.temp.o

.debug_str      0x0000000000000000    0x2921b
 .debug_str     0x0000000000000000      0x812 /tmp/Shell.dll.y4Q2gW.ltrans0.ltrans.o
                                        0x819 (size before relaxing)
 .debug_str     0x0000000000000812       0xab /tmp/Shell.dll.y4Q2gW.ltrans1.ltrans.o
                                        0x370 (size before relaxing)
 .debug_str     0x00000000000008bd      0x23a /tmp/Shell.dll.y4Q2gW.ltrans2.ltrans.o
 .debug_str     0x00000000000008bd       0x24 /tmp/Shell.dll.y4Q2gW.ltrans3.ltrans.o
                                        0x29e (size before relaxing)
 .debug_str     0x00000000000008e1       0x65 /tmp/Shell.dll.y4Q2gW.ltrans4.ltrans.o
                                        0x370 (size before relaxing)
 .debug_str     0x0000000000000946       0x14 /tmp/Shell.dll.y4Q2gW.ltrans5.ltrans.o
                                        0x2ee (size before relaxing)
 .debug_str     0x000000000000095a       0x62 /tmp/Shell.dll.y4Q2gW.ltrans6.ltrans.o
                                        0x31e (size before relaxing)
 .debug_str     0x00000000000009bc      0x29e /tmp/Shell.dll.y4Q2gW.ltrans7.ltrans.o
 .debug_str     0x00000000000009bc       0x30 /tmp/Shell.dll.y4Q2gW.ltrans8.ltrans.o
                                        0x302 (size before relaxing)
 .debug_str     0x00000000000009ec       0xc7 /tmp/Shell.dll.y4Q2gW.ltrans9.ltrans.o
                                        0x428 (size before relaxing)
 .debug_str     0x0000000000000ab3      0x12f /tmp/Shell.dll.y4Q2gW.ltrans10.ltrans.o
                                        0x467 (size before relaxing)
 .debug_str     0x0000000000000be2       0x80 /tmp/Shell.dll.y4Q2gW.ltrans11.ltrans.o
                                        0x3f8 (size before relaxing)
 .debug_str     0x0000000000000c62      0x21c /tmp/Shell.dll.y4Q2gW.ltrans12.ltrans.o
 .debug_str     0x0000000000000c62     0x11ac /tmp/cc7pi0HV.debug.temp.o
                                       0x157f (size before relaxing)
 .debug_str     0x0000000000001e0e      0x27a /tmp/cc7WKLeT.debug.temp.o
                                        0x3af (size before relaxing)
 .debug_str     0x0000000000002088       0xd3 /tmp/ccMLC2CU.debug.temp.o
                                        0x34e (size before relaxing)
 .debug_str     0x000000000000215b       0x55 /tmp/cciWvgCV.debug.temp.o
                                        0x342 (size before relaxing)
 .debug_str     0x00000000000021b0     0x2e6d /tmp/cceaCk0T.debug.temp.o
                                       0x439d (size before relaxing)
 .debug_str     0x000000000000501d     0x22d6 /tmp/ccHCQrUV.debug.temp.o
                                       0x6434 (size before relaxing)
 .debug_str     0x00000000000072f3      0x32e /tmp/ccgVca7V.debug.temp.o
                                       0x5b87 (size before relaxing)
 .debug_str     0x0000000000007621      0xa48 /tmp/ccSoANcW.debug.temp.o
                                       0x6579 (size before relaxing)
 .debug_str     0x0000000000008069      0x748 /tmp/cckZCEWS.debug.temp.o
                                       0x5e66 (size before relaxing)
 .debug_str     0x00000000000087b1      0x163 /tmp/cc1oUDJW.debug.temp.o
                                       0x5a08 (size before relaxing)
 .debug_str     0x0000000000008914      0x269 /tmp/ccSrSZ7S.debug.temp.o
                                       0x5959 (size before relaxing)
 .debug_str     0x0000000000008b7d      0x3d6 /tmp/cctymDnS.debug.temp.o
                                       0x5d3a (size before relaxing)
 .debug_str     0x0000000000008f53      0x327 /tmp/cc6UF2TW.debug.temp.o
                                       0x5a0c (size before relaxing)
 .debug_str     0x000000000000927a      0x10c /tmp/ccVMJQJW.debug.temp.o
                                        0x3ad (size before relaxing)
 .debug_str     0x0000000000009386       0x52 /tmp/cc2N3bmU.debug.temp.o
                                        0x358 (size before relaxing)
 .debug_str     0x00000000000093d8       0x53 /tmp/ccaPKC5U.debug.temp.o
                                        0x360 (size before relaxing)
 .debug_str     0x000000000000942b       0x59 /tmp/ccV3HmTU.debug.temp.o
                                        0x364 (size before relaxing)
 .debug_str     0x0000000000009484       0x71 /tmp/ccg2LlnW.debug.temp.o
                                        0x370 (size before relaxing)
 .debug_str     0x00000000000094f5       0xa5 /tmp/ccpSR5GS.debug.temp.o
                                        0x461 (size before relaxing)
 .debug_str     0x000000000000959a      0x11a /tmp/ccpwISAW.debug.temp.o
                                        0x571 (size before relaxing)
 .debug_str     0x00000000000096b4      0x2b5 /tmp/ccovLV6U.debug.temp.o
                                        0x82d (size before relaxing)
 .debug_str     0x0000000000009969      0x2d5 /tmp/ccAZTmyT.debug.temp.o
                                        0x7e2 (size before relaxing)
 .debug_str     0x0000000000009c3e       0x75 /tmp/ccqaOkGT.debug.temp.o
                                        0x499 (size before relaxing)
 .debug_str     0x0000000000009cb3       0x66 /tmp/cc5PXCZV.debug.temp.o
                                        0x472 (size before relaxing)
 .debug_str     0x0000000000009d19       0x4f /tmp/ccSgv2mV.debug.temp.o
                                        0x45b (size before relaxing)
 .debug_str     0x0000000000009d68       0x49 /tmp/ccl5HjXV.debug.temp.o
                                        0x465 (size before relaxing)
 .debug_str     0x0000000000009db1       0x4f /tmp/ccW4bUiW.debug.temp.o
                                        0x472 (size before relaxing)
 .debug_str     0x0000000000009e00       0x41 /tmp/ccF5S6TT.debug.temp.o
                                        0x465 (size before relaxing)
 .debug_str     0x0000000000009e41       0x52 /tmp/ccDT2ekU.debug.temp.o
                                        0x462 (size before relaxing)
 .debug_str     0x0000000000009e93      0x170 /tmp/cc6ovEsV.debug.temp.o
                                        0x5df (size before relaxing)
 .debug_str     0x000000000000a003      0x254 /tmp/ccnxzAxW.debug.temp.o
                                        0x5a2 (size before relaxing)
 .debug_str     0x000000000000a257      0x23e /tmp/ccZAJdkU.debug.temp.o
                                        0x70c (size before relaxing)
 .debug_str     0x000000000000a495      0x1c8 /tmp/ccF0pR8V.debug.temp.o
                                        0x5c4 (size before relaxing)
 .debug_str     0x000000000000a65d       0xfd /tmp/cctaQZIT.debug.temp.o
                                       0x156d (size before relaxing)
 .debug_str     0x000000000000a75a      0x2ee /tmp/cc61M7GU.debug.temp.o
                                       0x17d9 (size before relaxing)
 .debug_str     0x000000000000aa48      0x353 /tmp/ccpfxNYT.debug.temp.o
                                       0x1974 (size before relaxing)
 .debug_str     0x000000000000ad9b       0x70 /tmp/ccrl5OEU.debug.temp.o
                                       0x1658 (size before relaxing)
 .debug_str     0x000000000000ae0b       0x8c /tmp/ccdt2FPT.debug.temp.o
                                       0x17d8 (size before relaxing)
 .debug_str     0x000000000000ae97      0xd47 /tmp/cckyXCBS.debug.temp.o
                                       0x25ec (size before relaxing)
 .debug_str     0x000000000000bbde      0xed5 /tmp/ccMh0lkW.debug.temp.o
                                       0x2f11 (size before relaxing)
 .debug_str     0x000000000000cab3      0x10c /tmp/ccE1kPmU.debug.temp.o
                                       0x156f (size before relaxing)
 .debug_str     0x000000000000cbbf       0xeb /tmp/ccGQy2GW.debug.temp.o
                                       0x21db (size before relaxing)
 .debug_str     0x000000000000ccaa      0x51e /tmp/cc83GjQU.debug.temp.o
                                       0x20b1 (size before relaxing)
 .debug_str     0x000000000000d1c8      0x181 /tmp/ccU2jZmS.debug.temp.o
                                       0x17aa (size before relaxing)
 .debug_str     0x000000000000d349      0xf0b /tmp/ccBU07sT.debug.temp.o
                                       0x35e9 (size before relaxing)
 .debug_str     0x000000000000e254       0xbb /tmp/ccb2vIuW.debug.temp.o
                                       0x2450 (size before relaxing)
 .debug_str     0x000000000000e30f       0x89 /tmp/cc6eEBbU.debug.temp.o
                                       0x23c2 (size before relaxing)
 .debug_str     0x000000000000e398      0x295 /tmp/ccuYKzjU.debug.temp.o
                                        0xb37 (size before relaxing)
 .debug_str     0x000000000000e62d      0x62d /tmp/ccPkEYZV.debug.temp.o
                                       0x1c34 (size before relaxing)
 .debug_str     0x000000000000ec5a      0x5a7 /tmp/cchbue5U.debug.temp.o
                                       0x1c13 (size before relaxing)
 .debug_str     0x000000000000f201      0xf4c /tmp/ccG22RQV.debug.temp.o
                                       0x3881 (size before relaxing)
 .debug_str     0x000000000001014d     0x2f9b /tmp/ccY77A3V.debug.temp.o
                                       0x7ac2 (size before relaxing)
 .debug_str     0x00000000000130e8       0x82 /tmp/ccgLjDQU.debug.temp.o
                                       0x23e8 (size before relaxing)
 .debug_str     0x000000000001316a      0x90f /tmp/ccHmHuMV.debug.temp.o
                                       0x31f4 (size before relaxing)
 .debug_str     0x0000000000013a79      0x54b /tmp/cc9sTS7S.debug.temp.o
                                       0x3b82 (size before relaxing)
 .debug_str     0x0000000000013fc4      0x1f8 /tmp/ccVXLOhV.debug.temp.o
                                       0x258e (size before relaxing)
 .debug_str     0x00000000000141bc      0x1b8 /tmp/ccrvbceU.debug.temp.o
                                       0x27b5 (size before relaxing)
 .debug_str     0x0000000000014374       0xbc /tmp/cc2iAP5S.debug.temp.o
                                       0x2728 (size before relaxing)
 .debug_str     0x0000000000014430      0x246 /tmp/ccAOzO2T.debug.temp.o
                                       0x2aa2 (size before relaxing)
 .debug_str     0x0000000000014676      0x25f /tmp/ccr8mYQS.debug.temp.o
                                       0x2a8f (size before relaxing)
 .debug_str     0x00000000000148d5       0x84 /tmp/cc5il6gT.debug.temp.o
                                       0x2657 (size before relaxing)
 .debug_str     0x0000000000014959       0x9e /tmp/ccKYTeuS.debug.temp.o
                                       0x264b (size before relaxing)
 .debug_str     0x00000000000149f7       0xa8 /tmp/ccNFEGzU.debug.temp.o
                                       0x265a (size before relaxing)
 .debug_str     0x0000000000014a9f       0xc5 /tmp/ccbu5WVV.debug.temp.o
                                       0x26a3 (size before relaxing)
 .debug_str     0x0000000000014b64      0x164 /tmp/ccEcRpTS.debug.temp.o
                                       0x2b69 (size before relaxing)
 .debug_str     0x0000000000014cc8      0x142 /tmp/ccd7faHV.debug.temp.o
                                       0x2763 (size before relaxing)
 .debug_str     0x0000000000014e0a       0x9a /tmp/ccsxpLqU.debug.temp.o
                                       0x289e (size before relaxing)
 .debug_str     0x0000000000014ea4      0x1b3 /tmp/cciun3sU.debug.temp.o
                                       0x29d3 (size before relaxing)
 .debug_str     0x0000000000015057       0xd3 /tmp/ccAIHhKS.debug.temp.o
                                       0x2683 (size before relaxing)
 .debug_str     0x000000000001512a       0x78 /tmp/cc8CaEwU.debug.temp.o
                                       0x28a8 (size before relaxing)
 .debug_str     0x00000000000151a2       0x8e /tmp/ccVDyBiT.debug.temp.o
                                        0x642 (size before relaxing)
 .debug_str     0x0000000000015230      0x216 /tmp/cclHUyYT.debug.temp.o
                                       0x2561 (size before relaxing)
 .debug_str     0x0000000000015446       0x65 /tmp/ccBGw1YU.debug.temp.o
                                       0x25bf (size before relaxing)
 .debug_str     0x00000000000154ab       0x73 /tmp/ccx2Y9bU.debug.temp.o
                                       0x2621 (size before relaxing)
 .debug_str     0x000000000001551e      0x347 /tmp/ccGGYZwV.debug.temp.o
                                       0x2984 (size before relaxing)
 .debug_str     0x0000000000015865      0x13d /tmp/ccMbrcFT.debug.temp.o
                                       0x276b (size before relaxing)
 .debug_str     0x00000000000159a2       0x67 /tmp/cc23NhOV.debug.temp.o
                                       0x25fc (size before relaxing)
 .debug_str     0x0000000000015a09       0x74 /tmp/cc1WiBFW.debug.temp.o
                                       0x25b6 (size before relaxing)
 .debug_str     0x0000000000015a7d       0x8e /tmp/ccTLFFEU.debug.temp.o
                                        0x558 (size before relaxing)
 .debug_str     0x0000000000015b0b      0x196 /tmp/cc2iJ6aU.debug.temp.o
                                       0x24ab (size before relaxing)
 .debug_str     0x0000000000015ca1       0x93 /tmp/ccH6a2bW.debug.temp.o
                                       0x2654 (size before relaxing)
 .debug_str     0x0000000000015d34       0xfd /tmp/ccgDdtGV.debug.temp.o
                                       0x26f2 (size before relaxing)
 .debug_str     0x0000000000015e31       0x71 /tmp/ccubYqHS.debug.temp.o
                                       0x263d (size before relaxing)
 .debug_str     0x0000000000015ea2       0x67 /tmp/cczC5oAW.debug.temp.o
                                       0x27fc (size before relaxing)
 .debug_str     0x0000000000015f09       0x69 /tmp/ccaefLcU.debug.temp.o
                                       0x2620 (size before relaxing)
 .debug_str     0x0000000000015f72      0x133 /tmp/cczHwnOS.debug.temp.o
                                       0x2846 (size before relaxing)
 .debug_str     0x00000000000160a5       0x8e /tmp/cc8MinTV.debug.temp.o
                                        0x5de (size before relaxing)
 .debug_str     0x0000000000016133       0xbd /tmp/cc0helvS.debug.temp.o
                                       0x26bb (size before relaxing)
 .debug_str     0x00000000000161f0       0x89 /tmp/ccUIL1YV.debug.temp.o
                                       0x2682 (size before relaxing)
 .debug_str     0x0000000000016279       0x63 /tmp/cctuIwxS.debug.temp.o
                                       0x262a (size before relaxing)
 .debug_str     0x00000000000162dc      0x19f /tmp/ccxi2OfT.debug.temp.o
                                       0x2636 (size before relaxing)
 .debug_str     0x000000000001647b       0x90 /tmp/ccrWZQIS.debug.temp.o
                                        0x623 (size before relaxing)
 .debug_str     0x000000000001650b      0x1d0 /tmp/cceawc4U.debug.temp.o
                                       0x2ede (size before relaxing)
 .debug_str     0x00000000000166db       0xa1 /tmp/ccOegDwS.debug.temp.o
                                       0x2837 (size before relaxing)
 .debug_str     0x000000000001677c      0x116 /tmp/ccORg2DW.debug.temp.o
                                       0x28db (size before relaxing)
 .debug_str     0x0000000000016892       0xaa /tmp/ccWydsnS.debug.temp.o
                                       0x2846 (size before relaxing)
 .debug_str     0x000000000001693c       0x83 /tmp/ccCy8huS.debug.temp.o
                                       0x27cd (size before relaxing)
 .debug_str     0x00000000000169bf       0x86 /tmp/ccZpUuwS.debug.temp.o
                                       0x29c5 (size before relaxing)
 .debug_str     0x0000000000016a45      0x374 /tmp/ccBKlLcT.debug.temp.o
                                       0x2b90 (size before relaxing)
 .debug_str     0x0000000000016db9      0x2db /tmp/ccbHxufU.debug.temp.o
                                       0x2d94 (size before relaxing)
 .debug_str     0x0000000000017094      0x12c /tmp/ccDOYTkW.debug.temp.o
                                       0x2c96 (size before relaxing)
 .debug_str     0x00000000000171c0       0xb3 /tmp/ccGr723T.debug.temp.o
                                       0x2885 (size before relaxing)
 .debug_str     0x0000000000017273      0x44c /tmp/cc1IqBQW.debug.temp.o
                                       0x320e (size before relaxing)
 .debug_str     0x00000000000176bf      0x219 /tmp/cctg2KMV.debug.temp.o
                                       0x2798 (size before relaxing)
 .debug_str     0x00000000000178d8      0x36b /tmp/cc8ovJqW.debug.temp.o
                                       0x2de6 (size before relaxing)
 .debug_str     0x0000000000017c43      0x565 /tmp/ccMhFcyV.debug.temp.o
                                       0x31f9 (size before relaxing)
 .debug_str     0x00000000000181a8      0x192 /tmp/ccL8UzpW.debug.temp.o
                                       0x2f5d (size before relaxing)
 .debug_str     0x000000000001833a       0x5e /tmp/ccvioZdT.debug.temp.o
                                       0x2bd5 (size before relaxing)
 .debug_str     0x0000000000018398      0x32b /tmp/ccT3soPT.debug.temp.o
                                       0x2f80 (size before relaxing)
 .debug_str     0x00000000000186c3      0x36e /tmp/cc4nJkrV.debug.temp.o
                                       0x3183 (size before relaxing)
 .debug_str     0x0000000000018a31       0xb7 /tmp/cciynRtV.debug.temp.o
                                       0x2dde (size before relaxing)
 .debug_str     0x0000000000018ae8       0x8e /tmp/cchhOsEW.debug.temp.o
                                        0x66a (size before relaxing)
 .debug_str     0x0000000000018b76       0x71 /tmp/ccqGEDgW.debug.temp.o
                                       0x283c (size before relaxing)
 .debug_str     0x0000000000018be7      0x204 /tmp/cc0GnkNT.debug.temp.o
                                       0x2a4a (size before relaxing)
 .debug_str     0x0000000000018deb       0x73 /tmp/ccDP1gtU.debug.temp.o
                                       0x2835 (size before relaxing)
 .debug_str     0x0000000000018e5e      0x4f5 /tmp/cciaPlAS.debug.temp.o
                                       0x2cf7 (size before relaxing)
 .debug_str     0x0000000000019353       0xc1 /tmp/ccifzqTW.debug.temp.o
                                       0x289c (size before relaxing)
 .debug_str     0x0000000000019414      0x10d /tmp/ccj1RO3U.debug.temp.o
                                       0x2946 (size before relaxing)
 .debug_str     0x0000000000019521       0xf0 /tmp/cce8yOpW.debug.temp.o
                                       0x2dcc (size before relaxing)
 .debug_str     0x0000000000019611      0x1f1 /tmp/ccaVZetW.debug.temp.o
                                       0x2b1b (size before relaxing)
 .debug_str     0x0000000000019802      0x1b0 /tmp/ccUI50pU.debug.temp.o
                                       0x323b (size before relaxing)
 .debug_str     0x00000000000199b2      0x149 /tmp/cc690maU.debug.temp.o
                                       0x2987 (size before relaxing)
 .debug_str     0x0000000000019afb      0x1f2 /tmp/ccpl0q2T.debug.temp.o
                                       0x2aa1 (size before relaxing)
 .debug_str     0x0000000000019ced     0x269b /tmp/ccBcs4yW.debug.temp.o
                                       0x573c (size before relaxing)
 .debug_str     0x000000000001c388      0x1b7 /tmp/ccb7z9CV.debug.temp.o
                                       0x2bca (size before relaxing)
 .debug_str     0x000000000001c53f       0xb4 /tmp/ccrZaAoT.debug.temp.o
                                       0x29fc (size before relaxing)
 .debug_str     0x000000000001c5f3     0x222b /tmp/ccPADlIU.debug.temp.o
                                       0x4fa0 (size before relaxing)
 .debug_str     0x000000000001e81e      0x1b2 /tmp/cc46JdRT.debug.temp.o
                                       0x4c9a (size before relaxing)
 .debug_str     0x000000000001e9d0       0xcf /tmp/ccJhsNtU.debug.temp.o
                                       0x275f (size before relaxing)
 .debug_str     0x000000000001ea9f      0x14e /tmp/ccSMLCnT.debug.temp.o
                                       0x28e6 (size before relaxing)
 .debug_str     0x000000000001ebed      0x13a /tmp/ccjLMrfV.debug.temp.o
                                       0x2751 (size before relaxing)
 .debug_str     0x000000000001ed27      0x100 /tmp/ccNbJpfV.debug.temp.o
                                       0x27d7 (size before relaxing)
 .debug_str     0x000000000001ee27      0x52d /tmp/ccNE2pkT.debug.temp.o
                                       0x33ae (size before relaxing)
 .debug_str     0x000000000001f354       0xcc /tmp/ccbOU45T.debug.temp.o
                                       0x2dba (size before relaxing)
 .debug_str     0x000000000001f420      0x107 /tmp/ccO8zwbW.debug.temp.o
                                       0x2ffb (size before relaxing)
 .debug_str     0x000000000001f527       0xd4 /tmp/ccVZMaSV.debug.temp.o
                                       0x2e97 (size before relaxing)
 .debug_str     0x000000000001f5fb       0xc0 /tmp/ccOGT5tS.debug.temp.o
                                       0x2e4d (size before relaxing)
 .debug_str     0x000000000001f6bb      0x396 /tmp/cc9zLPrS.debug.temp.o
                                       0x149f (size before relaxing)
 .debug_str     0x000000000001fa51      0x320 /tmp/ccLtp4DW.debug.temp.o
                                       0x4e95 (size before relaxing)
 .debug_str     0x000000000001fd71     0x1842 /tmp/cceJWmIT.debug.temp.o
                                       0x3eee (size before relaxing)
 .debug_str     0x00000000000215b3      0x1cc /tmp/cc9WN4lU.debug.temp.o
                                       0x27f8 (size before relaxing)
 .debug_str     0x000000000002177f      0x134 /tmp/cc9GooRT.debug.temp.o
                                       0x15ef (size before relaxing)
 .debug_str     0x00000000000218b3      0x1cd /tmp/ccUehd3U.debug.temp.o
                                       0x260f (size before relaxing)
 .debug_str     0x0000000000021a80     0x1147 /tmp/ccUta1jU.debug.temp.o
                                       0x3b22 (size before relaxing)
 .debug_str     0x0000000000022bc7      0x415 /tmp/ccoo6QiU.debug.temp.o
                                       0x2ebf (size before relaxing)
 .debug_str     0x0000000000022fdc       0x92 /tmp/ccWzyLNS.debug.temp.o
                                        0x636 (size before relaxing)
 .debug_str     0x000000000002306e      0x2c0 /tmp/ccI9JgtS.debug.temp.o
                                       0x27ab (size before relaxing)
 .debug_str     0x000000000002332e       0x90 /tmp/ccC7ZLbW.debug.temp.o
                                        0x570 (size before relaxing)
 .debug_str     0x00000000000233be       0xf1 /tmp/ccJaZl3U.debug.temp.o
                                        0x78d (size before relaxing)
 .debug_str     0x00000000000234af      0x1a2 /tmp/ccAtpCkV.debug.temp.o
                                       0x22b7 (size before relaxing)
 .debug_str     0x0000000000023651      0x206 /tmp/ccsR9G7T.debug.temp.o
                                        0x7c2 (size before relaxing)
 .debug_str     0x0000000000023857      0x433 /tmp/ccP4YuRV.debug.temp.o
                                        0xb48 (size before relaxing)
 .debug_str     0x0000000000023c8a       0x7e /tmp/ccEBohlU.debug.temp.o
                                        0x7e2 (size before relaxing)
 .debug_str     0x0000000000023d08      0x178 /tmp/cck37OXU.debug.temp.o
                                        0x8f2 (size before relaxing)
 .debug_str     0x0000000000023e80       0x73 /tmp/ccmNQLJT.debug.temp.o
                                        0x6ac (size before relaxing)
 .debug_str     0x0000000000023ef3       0x7e /tmp/cc5lN8CW.debug.temp.o
                                        0x74c (size before relaxing)
 .debug_str     0x0000000000023f71      0x133 /tmp/ccY8wbZU.debug.temp.o
                                        0x8fd (size before relaxing)
 .debug_str     0x00000000000240a4      0x194 /tmp/ccUVVXsT.debug.temp.o
                                        0x92c (size before relaxing)
 .debug_str     0x0000000000024238      0x344 /tmp/cca5uoFT.debug.temp.o
                                        0xaea (size before relaxing)
 .debug_str     0x000000000002457c      0x2f3 /tmp/ccOBtIJV.debug.temp.o
                                        0xa87 (size before relaxing)
 .debug_str     0x000000000002486f      0x176 /tmp/ccX1rlKU.debug.temp.o
                                        0x8ef (size before relaxing)
 .debug_str     0x00000000000249e5       0xb4 /tmp/ccCZpOKV.debug.temp.o
                                        0x818 (size before relaxing)
 .debug_str     0x0000000000024a99      0x272 /tmp/cc8PtiPV.debug.temp.o
                                        0x9dc (size before relaxing)
 .debug_str     0x0000000000024d0b      0x203 /tmp/ccfqZ9rW.debug.temp.o
                                        0x9bb (size before relaxing)
 .debug_str     0x0000000000024f0e       0xb8 /tmp/ccuXtMyT.debug.temp.o
                                        0x798 (size before relaxing)
 .debug_str     0x0000000000024fc6       0xa2 /tmp/ccDF7kRU.debug.temp.o
                                        0x827 (size before relaxing)
 .debug_str     0x0000000000025068       0x8a /tmp/ccEhhcfV.debug.temp.o
                                        0x812 (size before relaxing)
 .debug_str     0x00000000000250f2      0x287 /tmp/ccodCLHT.debug.temp.o
                                        0xa28 (size before relaxing)
 .debug_str     0x0000000000025379       0x73 /tmp/ccAmeYlV.debug.temp.o
                                        0x6ac (size before relaxing)
 .debug_str     0x00000000000253ec       0xac /tmp/ccBwjDDU.debug.temp.o
                                        0x836 (size before relaxing)
 .debug_str     0x0000000000025498      0x174 /tmp/ccIjgDwT.debug.temp.o
                                        0x83c (size before relaxing)
 .debug_str     0x000000000002560c      0x212 /tmp/cc3vxIWT.debug.temp.o
                                       0x1a00 (size before relaxing)
 .debug_str     0x000000000002581e       0x55 /tmp/ccspgomT.debug.temp.o
                                        0x381 (size before relaxing)
 .debug_str     0x0000000000025873       0x57 /tmp/ccZKQSRV.debug.temp.o
                                        0x362 (size before relaxing)
 .debug_str     0x00000000000258ca       0xb8 /tmp/ccsGqqxV.debug.temp.o
                                        0x3ca (size before relaxing)
 .debug_str     0x0000000000025982       0x43 /tmp/ccmqBaKT.debug.temp.o
                                        0x45b (size before relaxing)
 .debug_str     0x00000000000259c5       0x42 /tmp/ccB83YLU.debug.temp.o
                                        0x472 (size before relaxing)
 .debug_str     0x0000000000025a07       0x41 /tmp/ccp96oPU.debug.temp.o
                                        0x462 (size before relaxing)
 .debug_str     0x0000000000025a48       0x5d /tmp/ccNva68V.debug.temp.o
                                        0x47e (size before relaxing)
 .debug_str     0x0000000000025aa5       0x5d /tmp/ccQB7PFT.debug.temp.o
                                        0x47e (size before relaxing)
 .debug_str     0x0000000000025b02       0xde /tmp/ccwjP3xW.debug.temp.o
                                        0x508 (size before relaxing)
 .debug_str     0x0000000000025be0      0x1ab /tmp/ccJDOhvV.debug.temp.o
                                        0x44d (size before relaxing)
 .debug_str     0x0000000000025d8b      0x115 /tmp/cc2sr11S.debug.temp.o
                                        0x3e0 (size before relaxing)
 .debug_str     0x0000000000025ea0      0x102 /tmp/ccg62DaU.debug.temp.o
                                        0x516 (size before relaxing)
 .debug_str     0x0000000000025fa2       0xf3 /tmp/cc6OPivS.debug.temp.o
                                        0x5b3 (size before relaxing)
 .debug_str     0x0000000000026095      0x270 /tmp/ccy42MRU.debug.temp.o
                                       0x2174 (size before relaxing)
 .debug_str     0x0000000000026305      0x16f /tmp/ccCR9OVT.debug.temp.o
                                       0x1a6f (size before relaxing)
 .debug_str     0x0000000000026474      0x5e5 /tmp/ccrbsjdV.debug.temp.o
                                        0x922 (size before relaxing)
 .debug_str     0x0000000000026a59      0x454 /tmp/ccRCyT6V.debug.temp.o
                                        0x7d7 (size before relaxing)
 .debug_str     0x0000000000026ead      0x691 /tmp/cciNAa2U.debug.temp.o
                                       0x2d96 (size before relaxing)
 .debug_str     0x000000000002753e       0x88 /tmp/ccs2uZuW.debug.temp.o
                                        0x504 (size before relaxing)
 .debug_str     0x00000000000275c6      0xe8a /tmp/ccQ1gsgU.debug.temp.o
                                       0x57b0 (size before relaxing)
 .debug_str     0x0000000000028450      0x446 /tmp/cce72MmT.debug.temp.o
                                       0x1ce5 (size before relaxing)
 .debug_str     0x0000000000028896      0x191 /tmp/ccJs0AqU.debug.temp.o
                                        0x818 (size before relaxing)
 .debug_str     0x0000000000028a27      0x5a0 /tmp/ccXgmS3T.debug.temp.o
                                       0x2d44 (size before relaxing)
 .debug_str     0x0000000000028fc7      0x254 /tmp/ccBHQORW.debug.temp.o
                                       0x251d (size before relaxing)

.debug_frame    0x0000000000000000     0xc298
 .debug_frame   0x0000000000000000     0x15e0 /tmp/Shell.dll.y4Q2gW.ltrans0.ltrans.o
 .debug_frame   0x00000000000015e0     0x1260 /tmp/Shell.dll.y4Q2gW.ltrans1.ltrans.o
 .debug_frame   0x0000000000002840       0x60 /tmp/Shell.dll.y4Q2gW.ltrans2.ltrans.o
 .debug_frame   0x00000000000028a0      0xf58 /tmp/Shell.dll.y4Q2gW.ltrans3.ltrans.o
 .debug_frame   0x00000000000037f8      0x738 /tmp/Shell.dll.y4Q2gW.ltrans4.ltrans.o
 .debug_frame   0x0000000000003f30      0xc28 /tmp/Shell.dll.y4Q2gW.ltrans5.ltrans.o
 .debug_frame   0x0000000000004b58      0x838 /tmp/Shell.dll.y4Q2gW.ltrans6.ltrans.o
 .debug_frame   0x0000000000005390      0x648 /tmp/Shell.dll.y4Q2gW.ltrans7.ltrans.o
 .debug_frame   0x00000000000059d8      0xc48 /tmp/Shell.dll.y4Q2gW.ltrans8.ltrans.o
 .debug_frame   0x0000000000006620     0x1628 /tmp/Shell.dll.y4Q2gW.ltrans9.ltrans.o
 .debug_frame   0x0000000000007c48     0x3618 /tmp/Shell.dll.y4Q2gW.ltrans10.ltrans.o
 .debug_frame   0x000000000000b260      0xf18 /tmp/Shell.dll.y4Q2gW.ltrans11.ltrans.o
 .debug_frame   0x000000000000c178      0x120 /tmp/Shell.dll.y4Q2gW.ltrans12.ltrans.o
