Archive member included to satisfy reference by file (symbol)

/home/alastair/pftf-rpi4/Build/RPi4/DEBUG_GCC5/AARCH64/MdePkg/Library/UefiDriverEntryPoint/UefiDriverEntryPoint/OUTPUT/UefiDriverEntryPoint.lib(DriverEntryPoint.obj)
                              (_ModuleEntryPoint)
/home/alastair/pftf-rpi4/Build/RPi4/DEBUG_GCC5/AARCH64/MdePkg/Library/BaseStackCheckLib/BaseStackCheckLib/OUTPUT/BaseStackCheckLib.lib(BaseStackCheckGcc.obj)
                              /home/alastair/pftf-rpi4/edk2/ArmPkg/Library/GccLto/liblto-aarch64.a (__stack_chk_fail)
/home/alastair/pftf-rpi4/Build/RPi4/DEBUG_GCC5/AARCH64/ArmPkg/Library/CompilerIntrinsicsLib/CompilerIntrinsicsLib/OUTPUT/CompilerIntrinsicsLib.lib(memcpy.obj)
                              /home/alastair/pftf-rpi4/edk2/ArmPkg/Library/GccLto/liblto-aarch64.a (memcpy)
/home/alastair/pftf-rpi4/Build/RPi4/DEBUG_GCC5/AARCH64/ArmPkg/Library/CompilerIntrinsicsLib/CompilerIntrinsicsLib/OUTPUT/CompilerIntrinsicsLib.lib(memset.obj)
                              /home/alastair/pftf-rpi4/edk2/ArmPkg/Library/GccLto/liblto-aarch64.a (memset)
/home/alastair/pftf-rpi4/Build/RPi4/DEBUG_GCC5/AARCH64/MdeModulePkg/Universal/SetupBrowserDxe/SetupBrowserDxe/OUTPUT/SetupBrowser.lib(AutoGen.obj)
                              DriverEntryPoint.obj (symbol from plugin) (ProcessLibraryConstructorList)
/home/alastair/pftf-rpi4/Build/RPi4/DEBUG_GCC5/AARCH64/MdeModulePkg/Universal/SetupBrowserDxe/SetupBrowserDxe/OUTPUT/SetupBrowser.lib(Setup.obj)
                              AutoGen.obj (symbol from plugin) (InitializeSetup)
/home/alastair/pftf-rpi4/Build/RPi4/DEBUG_GCC5/AARCH64/MdeModulePkg/Universal/SetupBrowserDxe/SetupBrowserDxe/OUTPUT/SetupBrowser.lib(IfrParse.obj)
                              Setup.obj (symbol from plugin) (GetFstStgFromVarId)
/home/alastair/pftf-rpi4/Build/RPi4/DEBUG_GCC5/AARCH64/MdeModulePkg/Universal/SetupBrowserDxe/SetupBrowserDxe/OUTPUT/SetupBrowser.lib(Expression.obj)
                              IfrParse.obj (symbol from plugin) (ResetCurrentExpressionStack)
/home/alastair/pftf-rpi4/Build/RPi4/DEBUG_GCC5/AARCH64/MdeModulePkg/Universal/SetupBrowserDxe/SetupBrowserDxe/OUTPUT/SetupBrowser.lib(Presentation.obj)
                              Setup.obj (symbol from plugin) (gCurrentSelection)
/home/alastair/pftf-rpi4/Build/RPi4/DEBUG_GCC5/AARCH64/MdePkg/Library/BaseMemoryLibOptDxe/BaseMemoryLibOptDxe/OUTPUT/BaseMemoryLibOptDxe.lib(MemLibGuid.obj)
                              Setup.obj (symbol from plugin) (CopyGuid)
/home/alastair/pftf-rpi4/Build/RPi4/DEBUG_GCC5/AARCH64/MdePkg/Library/BaseMemoryLibOptDxe/BaseMemoryLibOptDxe/OUTPUT/BaseMemoryLibOptDxe.lib(ZeroMemWrapper.obj)
                              Setup.obj (symbol from plugin) (ZeroMem)
/home/alastair/pftf-rpi4/Build/RPi4/DEBUG_GCC5/AARCH64/MdePkg/Library/BaseMemoryLibOptDxe/BaseMemoryLibOptDxe/OUTPUT/BaseMemoryLibOptDxe.lib(CompareMemWrapper.obj)
                              Setup.obj (symbol from plugin) (CompareMem)
/home/alastair/pftf-rpi4/Build/RPi4/DEBUG_GCC5/AARCH64/MdePkg/Library/BaseMemoryLibOptDxe/BaseMemoryLibOptDxe/OUTPUT/BaseMemoryLibOptDxe.lib(CopyMemWrapper.obj)
                              Setup.obj (symbol from plugin) (CopyMem)
/home/alastair/pftf-rpi4/Build/RPi4/DEBUG_GCC5/AARCH64/MdePkg/Library/BaseMemoryLibOptDxe/BaseMemoryLibOptDxe/OUTPUT/BaseMemoryLibOptDxe.lib(SetMem.obj)
                              ZeroMemWrapper.obj (symbol from plugin) (InternalMemZeroMem)
/home/alastair/pftf-rpi4/Build/RPi4/DEBUG_GCC5/AARCH64/MdePkg/Library/BaseMemoryLibOptDxe/BaseMemoryLibOptDxe/OUTPUT/BaseMemoryLibOptDxe.lib(CopyMem.obj)
                              MemLibGuid.obj (symbol from plugin) (InternalMemCopyMem)
/home/alastair/pftf-rpi4/Build/RPi4/DEBUG_GCC5/AARCH64/MdePkg/Library/BaseMemoryLibOptDxe/BaseMemoryLibOptDxe/OUTPUT/BaseMemoryLibOptDxe.lib(CompareMem.obj)
                              CompareMemWrapper.obj (symbol from plugin) (InternalMemCompareMem)
/home/alastair/pftf-rpi4/Build/RPi4/DEBUG_GCC5/AARCH64/MdePkg/Library/BaseMemoryLibOptDxe/BaseMemoryLibOptDxe/OUTPUT/BaseMemoryLibOptDxe.lib(CompareGuid.obj)
                              MemLibGuid.obj (symbol from plugin) (InternalMemCompareGuid)
/home/alastair/pftf-rpi4/Build/RPi4/DEBUG_GCC5/AARCH64/MdePkg/Library/BaseLib/BaseLib/OUTPUT/BaseLib.lib(RShiftU64.obj)
                              Expression.obj (symbol from plugin) (RShiftU64)
/home/alastair/pftf-rpi4/Build/RPi4/DEBUG_GCC5/AARCH64/MdePkg/Library/BaseLib/BaseLib/OUTPUT/BaseLib.lib(MultU64x32.obj)
                              Expression.obj (symbol from plugin) (MultU64x32)
/home/alastair/pftf-rpi4/Build/RPi4/DEBUG_GCC5/AARCH64/MdePkg/Library/BaseLib/BaseLib/OUTPUT/BaseLib.lib(LShiftU64.obj)
                              Expression.obj (symbol from plugin) (LShiftU64)
/home/alastair/pftf-rpi4/Build/RPi4/DEBUG_GCC5/AARCH64/MdePkg/Library/BaseLib/BaseLib/OUTPUT/BaseLib.lib(DivU64x32Remainder.obj)
                              Expression.obj (symbol from plugin) (DivU64x32Remainder)
/home/alastair/pftf-rpi4/Build/RPi4/DEBUG_GCC5/AARCH64/MdePkg/Library/BaseLib/BaseLib/OUTPUT/BaseLib.lib(DivU64x32.obj)
                              Expression.obj (symbol from plugin) (DivU64x32)
/home/alastair/pftf-rpi4/Build/RPi4/DEBUG_GCC5/AARCH64/MdePkg/Library/BaseLib/BaseLib/OUTPUT/BaseLib.lib(BitField.obj)
                              Setup.obj (symbol from plugin) (BitFieldRead32)
/home/alastair/pftf-rpi4/Build/RPi4/DEBUG_GCC5/AARCH64/MdePkg/Library/BaseLib/BaseLib/OUTPUT/BaseLib.lib(CpuDeadLoop.obj)
                              BaseStackCheckGcc.obj (symbol from plugin) (CpuDeadLoop)
/home/alastair/pftf-rpi4/Build/RPi4/DEBUG_GCC5/AARCH64/MdePkg/Library/BaseLib/BaseLib/OUTPUT/BaseLib.lib(LinkedList.obj)
                              Setup.obj (symbol from plugin) (InitializeListHead)
/home/alastair/pftf-rpi4/Build/RPi4/DEBUG_GCC5/AARCH64/MdePkg/Library/BaseLib/BaseLib/OUTPUT/BaseLib.lib(SafeString.obj)
                              Setup.obj (symbol from plugin) (StrnLenS)
/home/alastair/pftf-rpi4/Build/RPi4/DEBUG_GCC5/AARCH64/MdePkg/Library/BaseLib/BaseLib/OUTPUT/BaseLib.lib(String.obj)
                              Setup.obj (symbol from plugin) (StrLen)
/home/alastair/pftf-rpi4/Build/RPi4/DEBUG_GCC5/AARCH64/MdePkg/Library/BaseLib/BaseLib/OUTPUT/BaseLib.lib(Math64.obj)
                              LShiftU64.obj (symbol from plugin) (InternalMathLShiftU64)
/home/alastair/pftf-rpi4/Build/RPi4/DEBUG_GCC5/AARCH64/MdePkg/Library/BaseLib/BaseLib/OUTPUT/BaseLib.lib(CpuBreakpoint.obj)
                              BaseStackCheckGcc.obj (symbol from plugin) (CpuBreakpoint)
/home/alastair/pftf-rpi4/Build/RPi4/DEBUG_GCC5/AARCH64/MdePkg/Library/BaseLib/BaseLib/OUTPUT/BaseLib.lib(SwapBytes32.obj)
                              SafeString.obj (symbol from plugin) (SwapBytes32)
/home/alastair/pftf-rpi4/Build/RPi4/DEBUG_GCC5/AARCH64/MdePkg/Library/BaseLib/BaseLib/OUTPUT/BaseLib.lib(SwapBytes16.obj)
                              SafeString.obj (symbol from plugin) (SwapBytes16)
/home/alastair/pftf-rpi4/Build/RPi4/DEBUG_GCC5/AARCH64/MdePkg/Library/BasePrintLib/BasePrintLib/OUTPUT/BasePrintLib.lib(PrintLib.obj)
                              Setup.obj (symbol from plugin) (UnicodeSPrint)
/home/alastair/pftf-rpi4/Build/RPi4/DEBUG_GCC5/AARCH64/MdePkg/Library/BasePrintLib/BasePrintLib/OUTPUT/BasePrintLib.lib(PrintLibInternal.obj)
                              PrintLib.obj (symbol from plugin) (BasePrintLibConvertValueToStringS)
/home/alastair/pftf-rpi4/Build/RPi4/DEBUG_GCC5/AARCH64/MdePkg/Library/BaseDebugLibSerialPort/BaseDebugLibSerialPort/OUTPUT/BaseDebugLibSerialPort.lib(DebugLib.obj)
                              AutoGen.obj (symbol from plugin) (BaseDebugLibSerialPortConstructor)
/home/alastair/pftf-rpi4/Build/RPi4/DEBUG_GCC5/AARCH64/MdePkg/Library/UefiBootServicesTableLib/UefiBootServicesTableLib/OUTPUT/UefiBootServicesTableLib.lib(UefiBootServicesTableLib.obj)
                              AutoGen.obj (symbol from plugin) (UefiBootServicesTableLibConstructor)
/home/alastair/pftf-rpi4/Build/RPi4/DEBUG_GCC5/AARCH64/MdePkg/Library/UefiMemoryAllocationLib/UefiMemoryAllocationLib/OUTPUT/UefiMemoryAllocationLib.lib(MemoryAllocationLib.obj)
                              Setup.obj (symbol from plugin) (AllocatePool)
/home/alastair/pftf-rpi4/Build/RPi4/DEBUG_GCC5/AARCH64/MdePkg/Library/UefiDevicePathLib/UefiDevicePathLib/OUTPUT/UefiDevicePathLib.lib(DevicePathUtilities.obj)
                              Presentation.obj (symbol from plugin) (IsDevicePathEnd)
/home/alastair/pftf-rpi4/Build/RPi4/DEBUG_GCC5/AARCH64/MdePkg/Library/UefiDevicePathLib/UefiDevicePathLib/OUTPUT/UefiDevicePathLib.lib(DevicePathUtilitiesDxeSmm.obj)
                              DevicePathUtilities.obj (symbol from plugin) (DevicePathFromHandle)
/home/alastair/pftf-rpi4/Build/RPi4/DEBUG_GCC5/AARCH64/MdePkg/Library/UefiDevicePathLib/UefiDevicePathLib/OUTPUT/UefiDevicePathLib.lib(UefiDevicePathLib.obj)
                              DevicePathUtilities.obj (symbol from plugin) (GetDevicePathSize)
/home/alastair/pftf-rpi4/Build/RPi4/DEBUG_GCC5/AARCH64/MdePkg/Library/UefiDevicePathLib/UefiDevicePathLib/OUTPUT/UefiDevicePathLib.lib(DevicePathToText.obj)
                              UefiDevicePathLib.obj (symbol from plugin) (UefiDevicePathLibConvertDeviceNodeToText)
/home/alastair/pftf-rpi4/Build/RPi4/DEBUG_GCC5/AARCH64/MdePkg/Library/UefiDevicePathLib/UefiDevicePathLib/OUTPUT/UefiDevicePathLib.lib(DevicePathFromText.obj)
                              UefiDevicePathLib.obj (symbol from plugin) (UefiDevicePathLibConvertTextToDeviceNode)
/home/alastair/pftf-rpi4/Build/RPi4/DEBUG_GCC5/AARCH64/MdePkg/Library/UefiRuntimeServicesTableLib/UefiRuntimeServicesTableLib/OUTPUT/UefiRuntimeServicesTableLib.lib(UefiRuntimeServicesTableLib.obj)
                              AutoGen.obj (symbol from plugin) (UefiRuntimeServicesTableLibConstructor)
/home/alastair/pftf-rpi4/Build/RPi4/DEBUG_GCC5/AARCH64/MdeModulePkg/Library/UefiHiiServicesLib/UefiHiiServicesLib/OUTPUT/UefiHiiServicesLib.lib(UefiHiiServicesLib.obj)
                              AutoGen.obj (symbol from plugin) (UefiHiiServicesLibConstructor)
/home/alastair/pftf-rpi4/Build/RPi4/DEBUG_GCC5/AARCH64/MdePkg/Library/UefiLib/UefiLib/OUTPUT/UefiLib.lib(UefiLib.obj)
                              Presentation.obj (symbol from plugin) (EfiEventEmptyFunction)
/home/alastair/pftf-rpi4/Build/RPi4/DEBUG_GCC5/AARCH64/MdeModulePkg/Library/UefiHiiLib/UefiHiiLib/OUTPUT/UefiHiiLib.lib(HiiLib.obj)
                              Setup.obj (symbol from plugin) (HiiGetHiiHandles)
/home/alastair/pftf-rpi4/Build/RPi4/DEBUG_GCC5/AARCH64/MdeModulePkg/Library/UefiHiiLib/UefiHiiLib/OUTPUT/UefiHiiLib.lib(HiiString.obj)
                              Setup.obj (symbol from plugin) (HiiSetString)
/home/alastair/pftf-rpi4/Build/RPi4/DEBUG_GCC5/AARCH64/MdeModulePkg/Library/UefiHiiLib/UefiHiiLib/OUTPUT/UefiHiiLib.lib(HiiLanguage.obj)
                              HiiString.obj (symbol from plugin) (HiiGetSupportedLanguages)
/home/alastair/pftf-rpi4/Build/RPi4/DEBUG_GCC5/AARCH64/MdePkg/Library/BaseMemoryLibOptDxe/BaseMemoryLibOptDxe/OUTPUT/BaseMemoryLibOptDxe.lib(SetMemWrapper.obj)
                              DebugLib.obj (symbol from plugin) (SetMem)
/home/alastair/pftf-rpi4/Build/RPi4/DEBUG_GCC5/AARCH64/MdePkg/Library/BaseMemoryLibOptDxe/BaseMemoryLibOptDxe/OUTPUT/BaseMemoryLibOptDxe.lib(SetMem64Wrapper.obj)
                              SetMemWrapper.obj (symbol from plugin) (SetMem64)
/home/alastair/pftf-rpi4/Build/RPi4/DEBUG_GCC5/AARCH64/MdePkg/Library/BaseLib/BaseLib/OUTPUT/BaseLib.lib(SwapBytes64.obj)
                              DevicePathFromText.obj (symbol from plugin) (SwapBytes64)
/home/alastair/pftf-rpi4/Build/RPi4/DEBUG_GCC5/AARCH64/MdePkg/Library/BaseLib/BaseLib/OUTPUT/BaseLib.lib(Unaligned.obj)
                              PrintLibInternal.obj (symbol from plugin) (ReadUnaligned16)
/home/alastair/pftf-rpi4/Build/RPi4/DEBUG_GCC5/AARCH64/MdePkg/Library/BaseDebugPrintErrorLevelLib/BaseDebugPrintErrorLevelLib/OUTPUT/BaseDebugPrintErrorLevelLib.lib(BaseDebugPrintErrorLevelLib.obj)
                              DebugLib.obj (symbol from plugin) (GetDebugPrintErrorLevel)
/home/alastair/pftf-rpi4/Build/RPi4/DEBUG_GCC5/AARCH64/Platform/RaspberryPi/Library/DualSerialPortLib/DebugDualSerialPortLib/OUTPUT/DebugDualSerialPortLib.lib(DebugDualSerialPortLib.obj)
                              DebugLib.obj (symbol from plugin) (SerialPortInitialize)
/home/alastair/pftf-rpi4/Build/RPi4/DEBUG_GCC5/AARCH64/Platform/RaspberryPi/Library/DualSerialPortLib/DebugDualSerialPortLib/OUTPUT/DebugDualSerialPortLib.lib(DualSerialPortLibCommon.obj)
                              DebugLib.obj (symbol from plugin) (SerialPortWrite)
/home/alastair/pftf-rpi4/Build/RPi4/DEBUG_GCC5/AARCH64/MdePkg/Library/BaseIoLibIntrinsic/BaseIoLibIntrinsic/OUTPUT/BaseIoLibIntrinsic.lib(IoLibNoIo.obj)
                              DualSerialPortLibCommon.obj (symbol from plugin) (MmioRead8)
/home/alastair/pftf-rpi4/Build/RPi4/DEBUG_GCC5/AARCH64/ArmPlatformPkg/Library/PL011UartLib/PL011UartLib/OUTPUT/PL011UartLib.lib(PL011UartLib.obj)
                              DualSerialPortLibCommon.obj (symbol from plugin) (PL011UartWrite)

Discarded input sections

 .text          0x0000000000000000       0x10 /home/alastair/pftf-rpi4/edk2/ArmPkg/Library/GccLto/liblto-aarch64.a
 .data          0x0000000000000000        0x0 /home/alastair/pftf-rpi4/edk2/ArmPkg/Library/GccLto/liblto-aarch64.a
 .bss           0x0000000000000000        0x0 /home/alastair/pftf-rpi4/edk2/ArmPkg/Library/GccLto/liblto-aarch64.a
 .text          0x0000000000000000        0x0 /tmp/SetupBrowser.dll.tlhghj.ltrans0.ltrans.o
 .data          0x0000000000000000        0x0 /tmp/SetupBrowser.dll.tlhghj.ltrans0.ltrans.o
 .bss           0x0000000000000000        0x0 /tmp/SetupBrowser.dll.tlhghj.ltrans0.ltrans.o
 .rodata.IsNodeInList.str1.1
                0x0000000000000000       0x44 /tmp/SetupBrowser.dll.tlhghj.ltrans0.ltrans.o
 .text.IsNodeInList
                0x0000000000000000       0xa0 /tmp/SetupBrowser.dll.tlhghj.ltrans0.ltrans.o
 .rodata._gDriverUnloadImageCount
                0x0000000000000000        0x1 /tmp/SetupBrowser.dll.tlhghj.ltrans0.ltrans.o
 .rodata._gPcd_FixedAtBuild_PcdDebugPropertyMask
                0x0000000000000000        0x1 /tmp/SetupBrowser.dll.tlhghj.ltrans0.ltrans.o
 .rodata._gPcd_FixedAtBuild_PcdFixedDebugPrintErrorLevel
                0x0000000000000000        0x4 /tmp/SetupBrowser.dll.tlhghj.ltrans0.ltrans.o
 .rodata._gUefiDriverRevision
                0x0000000000000000        0x4 /tmp/SetupBrowser.dll.tlhghj.ltrans0.ltrans.o
 .comment       0x0000000000000000       0x2b /tmp/SetupBrowser.dll.tlhghj.ltrans0.ltrans.o
 .note.GNU-stack
                0x0000000000000000        0x0 /tmp/SetupBrowser.dll.tlhghj.ltrans0.ltrans.o
 .text          0x0000000000000000        0x0 /tmp/SetupBrowser.dll.tlhghj.ltrans1.ltrans.o
 .data          0x0000000000000000        0x0 /tmp/SetupBrowser.dll.tlhghj.ltrans1.ltrans.o
 .bss           0x0000000000000000        0x0 /tmp/SetupBrowser.dll.tlhghj.ltrans1.ltrans.o
 .text._DriverUnloadHandler
                0x0000000000000000        0x8 /tmp/SetupBrowser.dll.tlhghj.ltrans1.ltrans.o
 .text.__memset
                0x0000000000000000       0x1c /tmp/SetupBrowser.dll.tlhghj.ltrans1.ltrans.o
 .comment       0x0000000000000000       0x2b /tmp/SetupBrowser.dll.tlhghj.ltrans1.ltrans.o
 .note.GNU-stack
                0x0000000000000000        0x0 /tmp/SetupBrowser.dll.tlhghj.ltrans1.ltrans.o
 .comment       0x0000000000000000       0x2b /tmp/ccW3BGun.debug.temp.o
 .note.GNU-stack
                0x0000000000000000        0x0 /tmp/ccW3BGun.debug.temp.o
 .comment       0x0000000000000000       0x2b /tmp/cc5Ugwjl.debug.temp.o
 .note.GNU-stack
                0x0000000000000000        0x0 /tmp/cc5Ugwjl.debug.temp.o
 .comment       0x0000000000000000       0x2b /tmp/ccU9t26k.debug.temp.o
 .note.GNU-stack
                0x0000000000000000        0x0 /tmp/ccU9t26k.debug.temp.o
 .comment       0x0000000000000000       0x2b /tmp/ccIhRkFj.debug.temp.o
 .note.GNU-stack
                0x0000000000000000        0x0 /tmp/ccIhRkFj.debug.temp.o
 .comment       0x0000000000000000       0x2b /tmp/cc2uEz8l.debug.temp.o
 .note.GNU-stack
                0x0000000000000000        0x0 /tmp/cc2uEz8l.debug.temp.o
 .comment       0x0000000000000000       0x2b /tmp/ccSIu28m.debug.temp.o
 .note.GNU-stack
                0x0000000000000000        0x0 /tmp/ccSIu28m.debug.temp.o
 .comment       0x0000000000000000       0x2b /tmp/ccVbuVNk.debug.temp.o
 .note.GNU-stack
                0x0000000000000000        0x0 /tmp/ccVbuVNk.debug.temp.o
 .comment       0x0000000000000000       0x2b /tmp/ccvYXzWj.debug.temp.o
 .note.GNU-stack
                0x0000000000000000        0x0 /tmp/ccvYXzWj.debug.temp.o
 .comment       0x0000000000000000       0x2b /tmp/ccJYMWUi.debug.temp.o
 .note.GNU-stack
                0x0000000000000000        0x0 /tmp/ccJYMWUi.debug.temp.o
 .comment       0x0000000000000000       0x2b /tmp/ccxV24kj.debug.temp.o
 .note.GNU-stack
                0x0000000000000000        0x0 /tmp/ccxV24kj.debug.temp.o
 .comment       0x0000000000000000       0x2b /tmp/cczqUatm.debug.temp.o
 .note.GNU-stack
                0x0000000000000000        0x0 /tmp/cczqUatm.debug.temp.o
 .comment       0x0000000000000000       0x2b /tmp/ccmIloBk.debug.temp.o
 .note.GNU-stack
                0x0000000000000000        0x0 /tmp/ccmIloBk.debug.temp.o
 .comment       0x0000000000000000       0x2b /tmp/ccd7Pd4l.debug.temp.o
 .note.GNU-stack
                0x0000000000000000        0x0 /tmp/ccd7Pd4l.debug.temp.o
 .comment       0x0000000000000000       0x2b /tmp/ccpvPONk.debug.temp.o
 .note.GNU-stack
                0x0000000000000000        0x0 /tmp/ccpvPONk.debug.temp.o
 .comment       0x0000000000000000       0x2b /tmp/ccOXwS4k.debug.temp.o
 .note.GNU-stack
                0x0000000000000000        0x0 /tmp/ccOXwS4k.debug.temp.o
 .comment       0x0000000000000000       0x2b /tmp/ccsCBrbn.debug.temp.o
 .note.GNU-stack
                0x0000000000000000        0x0 /tmp/ccsCBrbn.debug.temp.o
 .comment       0x0000000000000000       0x2b /tmp/cc3ahQhj.debug.temp.o
 .note.GNU-stack
                0x0000000000000000        0x0 /tmp/cc3ahQhj.debug.temp.o
 .comment       0x0000000000000000       0x2b /tmp/ccicC96m.debug.temp.o
 .note.GNU-stack
                0x0000000000000000        0x0 /tmp/ccicC96m.debug.temp.o
 .comment       0x0000000000000000       0x2b /tmp/ccl6d0Ti.debug.temp.o
 .note.GNU-stack
                0x0000000000000000        0x0 /tmp/ccl6d0Ti.debug.temp.o
 .comment       0x0000000000000000       0x2b /tmp/ccCzvjLj.debug.temp.o
 .note.GNU-stack
                0x0000000000000000        0x0 /tmp/ccCzvjLj.debug.temp.o
 .comment       0x0000000000000000       0x2b /tmp/ccTs2MLk.debug.temp.o
 .note.GNU-stack
                0x0000000000000000        0x0 /tmp/ccTs2MLk.debug.temp.o
 .comment       0x0000000000000000       0x2b /tmp/cc88nAck.debug.temp.o
 .note.GNU-stack
                0x0000000000000000        0x0 /tmp/cc88nAck.debug.temp.o
 .comment       0x0000000000000000       0x2b /tmp/cc3m4xNj.debug.temp.o
 .note.GNU-stack
                0x0000000000000000        0x0 /tmp/cc3m4xNj.debug.temp.o
 .comment       0x0000000000000000       0x2b /tmp/ccRZq7nn.debug.temp.o
 .note.GNU-stack
                0x0000000000000000        0x0 /tmp/ccRZq7nn.debug.temp.o
 .debug_info    0x0000000000000000      0x1db /tmp/ccWBeyXl.debug.temp.o
 .debug_abbrev  0x0000000000000000       0xc0 /tmp/ccWBeyXl.debug.temp.o
 .debug_line    0x0000000000000000      0x14c /tmp/ccWBeyXl.debug.temp.o
 .debug_str     0x0000000000000000      0x472 /tmp/ccWBeyXl.debug.temp.o
 .comment       0x0000000000000000       0x2b /tmp/ccWBeyXl.debug.temp.o
 .note.GNU-stack
                0x0000000000000000        0x0 /tmp/ccWBeyXl.debug.temp.o
 .debug_info    0x0000000000000000      0x1c3 /tmp/ccMTZL9i.debug.temp.o
 .debug_abbrev  0x0000000000000000       0xb1 /tmp/ccMTZL9i.debug.temp.o
 .debug_line    0x0000000000000000      0x14c /tmp/ccMTZL9i.debug.temp.o
 .debug_str     0x0000000000000000      0x45b /tmp/ccMTZL9i.debug.temp.o
 .comment       0x0000000000000000       0x2b /tmp/ccMTZL9i.debug.temp.o
 .note.GNU-stack
                0x0000000000000000        0x0 /tmp/ccMTZL9i.debug.temp.o
 .comment       0x0000000000000000       0x2b /tmp/ccS5dJrl.debug.temp.o
 .note.GNU-stack
                0x0000000000000000        0x0 /tmp/ccS5dJrl.debug.temp.o
 .comment       0x0000000000000000       0x2b /tmp/cc8GLKIl.debug.temp.o
 .note.GNU-stack
                0x0000000000000000        0x0 /tmp/cc8GLKIl.debug.temp.o
 .comment       0x0000000000000000       0x2b /tmp/ccN6QTOj.debug.temp.o
 .note.GNU-stack
                0x0000000000000000        0x0 /tmp/ccN6QTOj.debug.temp.o
 .comment       0x0000000000000000       0x2b /tmp/cc5mvO4j.debug.temp.o
 .note.GNU-stack
                0x0000000000000000        0x0 /tmp/cc5mvO4j.debug.temp.o
 .comment       0x0000000000000000       0x2b /tmp/ccUqGt7k.debug.temp.o
 .note.GNU-stack
                0x0000000000000000        0x0 /tmp/ccUqGt7k.debug.temp.o
 .comment       0x0000000000000000       0x2b /tmp/ccFwjs0m.debug.temp.o
 .note.GNU-stack
                0x0000000000000000        0x0 /tmp/ccFwjs0m.debug.temp.o
 .comment       0x0000000000000000       0x2b /tmp/ccW7TI9k.debug.temp.o
 .note.GNU-stack
                0x0000000000000000        0x0 /tmp/ccW7TI9k.debug.temp.o
 .comment       0x0000000000000000       0x2b /tmp/cc3kSAsk.debug.temp.o
 .note.GNU-stack
                0x0000000000000000        0x0 /tmp/cc3kSAsk.debug.temp.o
 .debug_info    0x0000000000000000     0x3d60 /tmp/ccU3t97j.debug.temp.o
 .debug_abbrev  0x0000000000000000      0x2ca /tmp/ccU3t97j.debug.temp.o
 .debug_line    0x0000000000000000      0x3db /tmp/ccU3t97j.debug.temp.o
 .debug_str     0x0000000000000000     0x25ec /tmp/ccU3t97j.debug.temp.o
 .comment       0x0000000000000000       0x2b /tmp/ccU3t97j.debug.temp.o
 .note.GNU-stack
                0x0000000000000000        0x0 /tmp/ccU3t97j.debug.temp.o
 .debug_info    0x0000000000000000     0x45d4 /tmp/cc7A6inl.debug.temp.o
 .debug_abbrev  0x0000000000000000      0x2b0 /tmp/cc7A6inl.debug.temp.o
 .debug_line    0x0000000000000000      0x3cf /tmp/cc7A6inl.debug.temp.o
 .debug_str     0x0000000000000000     0x2f11 /tmp/cc7A6inl.debug.temp.o
 .comment       0x0000000000000000       0x2b /tmp/cc7A6inl.debug.temp.o
 .note.GNU-stack
                0x0000000000000000        0x0 /tmp/cc7A6inl.debug.temp.o
 .comment       0x0000000000000000       0x2b /tmp/ccSl4Voj.debug.temp.o
 .note.GNU-stack
                0x0000000000000000        0x0 /tmp/ccSl4Voj.debug.temp.o
 .comment       0x0000000000000000       0x2b /tmp/cc9uIhAj.debug.temp.o
 .note.GNU-stack
                0x0000000000000000        0x0 /tmp/cc9uIhAj.debug.temp.o
 .comment       0x0000000000000000       0x2b /tmp/ccLriuZm.debug.temp.o
 .note.GNU-stack
                0x0000000000000000        0x0 /tmp/ccLriuZm.debug.temp.o
 .comment       0x0000000000000000       0x2b /tmp/ccbIeEol.debug.temp.o
 .note.GNU-stack
                0x0000000000000000        0x0 /tmp/ccbIeEol.debug.temp.o
 .comment       0x0000000000000000       0x2b /tmp/ccf3ah1l.debug.temp.o
 .note.GNU-stack
                0x0000000000000000        0x0 /tmp/ccf3ah1l.debug.temp.o
 .comment       0x0000000000000000       0x2b /tmp/ccRsESKk.debug.temp.o
 .note.GNU-stack
                0x0000000000000000        0x0 /tmp/ccRsESKk.debug.temp.o
 .debug_info    0x0000000000000000      0x1bb /tmp/cc7qarAm.debug.temp.o
 .debug_abbrev  0x0000000000000000       0xc6 /tmp/cc7qarAm.debug.temp.o
 .debug_line    0x0000000000000000      0x172 /tmp/cc7qarAm.debug.temp.o
 .debug_str     0x0000000000000000      0x364 /tmp/cc7qarAm.debug.temp.o
 .comment       0x0000000000000000       0x2b /tmp/cc7qarAm.debug.temp.o
 .note.GNU-stack
                0x0000000000000000        0x0 /tmp/cc7qarAm.debug.temp.o
 .debug_info    0x0000000000000000      0x186 /tmp/ccapPTxj.debug.temp.o
 .debug_abbrev  0x0000000000000000       0xb1 /tmp/ccapPTxj.debug.temp.o
 .debug_line    0x0000000000000000      0x174 /tmp/ccapPTxj.debug.temp.o
 .debug_str     0x0000000000000000      0x360 /tmp/ccapPTxj.debug.temp.o
 .comment       0x0000000000000000       0x2b /tmp/ccapPTxj.debug.temp.o
 .note.GNU-stack
                0x0000000000000000        0x0 /tmp/ccapPTxj.debug.temp.o
 .debug_info    0x0000000000000000      0x1c3 /tmp/ccPhnInj.debug.temp.o
 .debug_abbrev  0x0000000000000000       0xb1 /tmp/ccPhnInj.debug.temp.o
 .debug_line    0x0000000000000000      0x14c /tmp/ccPhnInj.debug.temp.o
 .debug_str     0x0000000000000000      0x45b /tmp/ccPhnInj.debug.temp.o
 .comment       0x0000000000000000       0x2b /tmp/ccPhnInj.debug.temp.o
 .note.GNU-stack
                0x0000000000000000        0x0 /tmp/ccPhnInj.debug.temp.o
 .comment       0x0000000000000000       0x2b /tmp/cc6hY71k.debug.temp.o
 .note.GNU-stack
                0x0000000000000000        0x0 /tmp/cc6hY71k.debug.temp.o
 .comment       0x0000000000000000       0x2b /tmp/ccE5jjaj.debug.temp.o
 .note.GNU-stack
                0x0000000000000000        0x0 /tmp/ccE5jjaj.debug.temp.o
 .comment       0x0000000000000000       0x2b /tmp/ccpgHf1i.debug.temp.o
 .note.GNU-stack
                0x0000000000000000        0x0 /tmp/ccpgHf1i.debug.temp.o
 .comment       0x0000000000000000       0x2b /tmp/cc5boqnn.debug.temp.o
 .note.GNU-stack
                0x0000000000000000        0x0 /tmp/cc5boqnn.debug.temp.o
 .comment       0x0000000000000000       0x2b /tmp/ccs6dXfj.debug.temp.o
 .note.GNU-stack
                0x0000000000000000        0x0 /tmp/ccs6dXfj.debug.temp.o
 .comment       0x0000000000000000       0x2b /tmp/ccJRgcqj.debug.temp.o
 .note.GNU-stack
                0x0000000000000000        0x0 /tmp/ccJRgcqj.debug.temp.o
 .data          0x0000000000000000        0x0 /home/alastair/pftf-rpi4/Build/RPi4/DEBUG_GCC5/AARCH64/MdePkg/Library/BaseMemoryLibOptDxe/BaseMemoryLibOptDxe/OUTPUT/BaseMemoryLibOptDxe.lib(SetMem.obj)
 .bss           0x0000000000000000        0x0 /home/alastair/pftf-rpi4/Build/RPi4/DEBUG_GCC5/AARCH64/MdePkg/Library/BaseMemoryLibOptDxe/BaseMemoryLibOptDxe/OUTPUT/BaseMemoryLibOptDxe.lib(SetMem.obj)
 .data          0x0000000000000000        0x0 /home/alastair/pftf-rpi4/Build/RPi4/DEBUG_GCC5/AARCH64/MdePkg/Library/BaseMemoryLibOptDxe/BaseMemoryLibOptDxe/OUTPUT/BaseMemoryLibOptDxe.lib(CopyMem.obj)
 .bss           0x0000000000000000        0x0 /home/alastair/pftf-rpi4/Build/RPi4/DEBUG_GCC5/AARCH64/MdePkg/Library/BaseMemoryLibOptDxe/BaseMemoryLibOptDxe/OUTPUT/BaseMemoryLibOptDxe.lib(CopyMem.obj)
 .data          0x0000000000000000        0x0 /home/alastair/pftf-rpi4/Build/RPi4/DEBUG_GCC5/AARCH64/MdePkg/Library/BaseMemoryLibOptDxe/BaseMemoryLibOptDxe/OUTPUT/BaseMemoryLibOptDxe.lib(CompareMem.obj)
 .bss           0x0000000000000000        0x0 /home/alastair/pftf-rpi4/Build/RPi4/DEBUG_GCC5/AARCH64/MdePkg/Library/BaseMemoryLibOptDxe/BaseMemoryLibOptDxe/OUTPUT/BaseMemoryLibOptDxe.lib(CompareMem.obj)
 .data          0x0000000000000000        0x0 /home/alastair/pftf-rpi4/Build/RPi4/DEBUG_GCC5/AARCH64/MdePkg/Library/BaseMemoryLibOptDxe/BaseMemoryLibOptDxe/OUTPUT/BaseMemoryLibOptDxe.lib(CompareGuid.obj)
 .bss           0x0000000000000000        0x0 /home/alastair/pftf-rpi4/Build/RPi4/DEBUG_GCC5/AARCH64/MdePkg/Library/BaseMemoryLibOptDxe/BaseMemoryLibOptDxe/OUTPUT/BaseMemoryLibOptDxe.lib(CompareGuid.obj)
 .text          0x0000000000000000        0x8 /home/alastair/pftf-rpi4/Build/RPi4/DEBUG_GCC5/AARCH64/MdePkg/Library/BaseLib/BaseLib/OUTPUT/BaseLib.lib(CpuBreakpoint.obj)
 .data          0x0000000000000000        0x0 /home/alastair/pftf-rpi4/Build/RPi4/DEBUG_GCC5/AARCH64/MdePkg/Library/BaseLib/BaseLib/OUTPUT/BaseLib.lib(CpuBreakpoint.obj)
 .bss           0x0000000000000000        0x0 /home/alastair/pftf-rpi4/Build/RPi4/DEBUG_GCC5/AARCH64/MdePkg/Library/BaseLib/BaseLib/OUTPUT/BaseLib.lib(CpuBreakpoint.obj)

Memory Configuration

Name             Origin             Length             Attributes
*default*        0x0000000000000000 0xffffffffffffffff

Linker script and memory map

LOAD /home/alastair/pftf-rpi4/edk2/ArmPkg/Library/GccLto/liblto-aarch64.a
START GROUP
LOAD /tmp/SetupBrowser.dll.tlhghj.ltrans0.ltrans.o
LOAD /tmp/SetupBrowser.dll.tlhghj.ltrans1.ltrans.o
LOAD /tmp/ccW3BGun.debug.temp.o
LOAD /tmp/cc5Ugwjl.debug.temp.o
LOAD /tmp/ccU9t26k.debug.temp.o
LOAD /tmp/ccIhRkFj.debug.temp.o
LOAD /tmp/cc2uEz8l.debug.temp.o
LOAD /tmp/ccSIu28m.debug.temp.o
LOAD /tmp/ccVbuVNk.debug.temp.o
LOAD /tmp/ccvYXzWj.debug.temp.o
LOAD /tmp/ccJYMWUi.debug.temp.o
LOAD /tmp/ccxV24kj.debug.temp.o
LOAD /tmp/cczqUatm.debug.temp.o
LOAD /tmp/ccmIloBk.debug.temp.o
LOAD /tmp/ccd7Pd4l.debug.temp.o
LOAD /tmp/ccpvPONk.debug.temp.o
LOAD /tmp/ccOXwS4k.debug.temp.o
LOAD /tmp/ccsCBrbn.debug.temp.o
LOAD /tmp/cc3ahQhj.debug.temp.o
LOAD /tmp/ccicC96m.debug.temp.o
LOAD /tmp/ccl6d0Ti.debug.temp.o
LOAD /tmp/ccCzvjLj.debug.temp.o
LOAD /tmp/ccTs2MLk.debug.temp.o
LOAD /tmp/cc88nAck.debug.temp.o
LOAD /tmp/cc3m4xNj.debug.temp.o
LOAD /tmp/ccRZq7nn.debug.temp.o
LOAD /tmp/ccWBeyXl.debug.temp.o
LOAD /tmp/ccMTZL9i.debug.temp.o
LOAD /tmp/ccS5dJrl.debug.temp.o
LOAD /tmp/cc8GLKIl.debug.temp.o
LOAD /tmp/ccN6QTOj.debug.temp.o
LOAD /tmp/cc5mvO4j.debug.temp.o
LOAD /tmp/ccUqGt7k.debug.temp.o
LOAD /tmp/ccFwjs0m.debug.temp.o
LOAD /tmp/ccW7TI9k.debug.temp.o
LOAD /tmp/cc3kSAsk.debug.temp.o
LOAD /tmp/ccU3t97j.debug.temp.o
LOAD /tmp/cc7A6inl.debug.temp.o
LOAD /tmp/ccSl4Voj.debug.temp.o
LOAD /tmp/cc9uIhAj.debug.temp.o
LOAD /tmp/ccLriuZm.debug.temp.o
LOAD /tmp/ccbIeEol.debug.temp.o
LOAD /tmp/ccf3ah1l.debug.temp.o
LOAD /tmp/ccRsESKk.debug.temp.o
LOAD /tmp/cc7qarAm.debug.temp.o
LOAD /tmp/ccapPTxj.debug.temp.o
LOAD /tmp/ccPhnInj.debug.temp.o
LOAD /tmp/cc6hY71k.debug.temp.o
LOAD /tmp/ccE5jjaj.debug.temp.o
LOAD /tmp/ccpgHf1i.debug.temp.o
LOAD /tmp/cc5boqnn.debug.temp.o
LOAD /tmp/ccs6dXfj.debug.temp.o
LOAD /tmp/ccJRgcqj.debug.temp.o
LOAD /home/alastair/pftf-rpi4/Build/RPi4/DEBUG_GCC5/AARCH64/MdeModulePkg/Universal/SetupBrowserDxe/SetupBrowserDxe/OUTPUT/SetupBrowser.lib
LOAD /home/alastair/pftf-rpi4/Build/RPi4/DEBUG_GCC5/AARCH64/MdePkg/Library/DxePcdLib/DxePcdLib/OUTPUT/DxePcdLib.lib
LOAD /home/alastair/pftf-rpi4/Build/RPi4/DEBUG_GCC5/AARCH64/MdePkg/Library/BaseMemoryLibOptDxe/BaseMemoryLibOptDxe/OUTPUT/BaseMemoryLibOptDxe.lib
LOAD /home/alastair/pftf-rpi4/Build/RPi4/DEBUG_GCC5/AARCH64/MdePkg/Library/BaseLib/BaseLib/OUTPUT/BaseLib.lib
LOAD /home/alastair/pftf-rpi4/Build/RPi4/DEBUG_GCC5/AARCH64/MdePkg/Library/BaseIoLibIntrinsic/BaseIoLibIntrinsic/OUTPUT/BaseIoLibIntrinsic.lib
LOAD /home/alastair/pftf-rpi4/Build/RPi4/DEBUG_GCC5/AARCH64/ArmPlatformPkg/Library/PL011UartLib/PL011UartLib/OUTPUT/PL011UartLib.lib
LOAD /home/alastair/pftf-rpi4/Build/RPi4/DEBUG_GCC5/AARCH64/MdePkg/Library/BaseDebugPrintErrorLevelLib/BaseDebugPrintErrorLevelLib/OUTPUT/BaseDebugPrintErrorLevelLib.lib
LOAD /home/alastair/pftf-rpi4/Build/RPi4/DEBUG_GCC5/AARCH64/Platform/RaspberryPi/Library/DualSerialPortLib/DebugDualSerialPortLib/OUTPUT/DebugDualSerialPortLib.lib
LOAD /home/alastair/pftf-rpi4/Build/RPi4/DEBUG_GCC5/AARCH64/MdePkg/Library/BasePrintLib/BasePrintLib/OUTPUT/BasePrintLib.lib
LOAD /home/alastair/pftf-rpi4/Build/RPi4/DEBUG_GCC5/AARCH64/MdePkg/Library/BaseDebugLibSerialPort/BaseDebugLibSerialPort/OUTPUT/BaseDebugLibSerialPort.lib
LOAD /home/alastair/pftf-rpi4/Build/RPi4/DEBUG_GCC5/AARCH64/MdePkg/Library/UefiBootServicesTableLib/UefiBootServicesTableLib/OUTPUT/UefiBootServicesTableLib.lib
LOAD /home/alastair/pftf-rpi4/Build/RPi4/DEBUG_GCC5/AARCH64/MdePkg/Library/UefiMemoryAllocationLib/UefiMemoryAllocationLib/OUTPUT/UefiMemoryAllocationLib.lib
LOAD /home/alastair/pftf-rpi4/Build/RPi4/DEBUG_GCC5/AARCH64/MdePkg/Library/UefiDevicePathLib/UefiDevicePathLib/OUTPUT/UefiDevicePathLib.lib
LOAD /home/alastair/pftf-rpi4/Build/RPi4/DEBUG_GCC5/AARCH64/MdePkg/Library/UefiRuntimeServicesTableLib/UefiRuntimeServicesTableLib/OUTPUT/UefiRuntimeServicesTableLib.lib
LOAD /home/alastair/pftf-rpi4/Build/RPi4/DEBUG_GCC5/AARCH64/MdeModulePkg/Library/UefiHiiServicesLib/UefiHiiServicesLib/OUTPUT/UefiHiiServicesLib.lib
LOAD /home/alastair/pftf-rpi4/Build/RPi4/DEBUG_GCC5/AARCH64/MdePkg/Library/UefiLib/UefiLib/OUTPUT/UefiLib.lib
LOAD /home/alastair/pftf-rpi4/Build/RPi4/DEBUG_GCC5/AARCH64/MdePkg/Library/UefiDriverEntryPoint/UefiDriverEntryPoint/OUTPUT/UefiDriverEntryPoint.lib
LOAD /home/alastair/pftf-rpi4/Build/RPi4/DEBUG_GCC5/AARCH64/MdeModulePkg/Library/UefiHiiLib/UefiHiiLib/OUTPUT/UefiHiiLib.lib
LOAD /home/alastair/pftf-rpi4/Build/RPi4/DEBUG_GCC5/AARCH64/MdePkg/Library/BaseStackCheckLib/BaseStackCheckLib/OUTPUT/BaseStackCheckLib.lib
LOAD /home/alastair/pftf-rpi4/Build/RPi4/DEBUG_GCC5/AARCH64/ArmPkg/Library/CompilerIntrinsicsLib/CompilerIntrinsicsLib/OUTPUT/CompilerIntrinsicsLib.lib
END GROUP
                0x0000000000000228                . = PECOFF_HEADER_SIZE

.gnu.version_d  0x0000000000000228        0x0
 .gnu.version_d
                0x0000000000000228        0x0 /home/alastair/pftf-rpi4/edk2/ArmPkg/Library/GccLto/liblto-aarch64.a

.gnu.version    0x0000000000000228        0x0
 .gnu.version   0x0000000000000228        0x0 /home/alastair/pftf-rpi4/edk2/ArmPkg/Library/GccLto/liblto-aarch64.a

.gnu.version_r  0x0000000000000228        0x0
 .gnu.version_r
                0x0000000000000228        0x0 /home/alastair/pftf-rpi4/edk2/ArmPkg/Library/GccLto/liblto-aarch64.a

.text           0x0000000000001000    0x196a0
 *(.text .text.* .stub .gnu.linkonce.t.*)
 .text.SerialPortWritable.constprop.0
                0x0000000000001000        0x8 /tmp/SetupBrowser.dll.tlhghj.ltrans0.ltrans.o
 .text.InternalAllocatePool.constprop.0
                0x0000000000001008       0x6c /tmp/SetupBrowser.dll.tlhghj.ltrans0.ltrans.o
 .text.BasePrintLibFillBuffer
                0x0000000000001074       0x34 /tmp/SetupBrowser.dll.tlhghj.ltrans0.ltrans.o
 .text.MultU64x32
                0x00000000000010a8        0xc /tmp/SetupBrowser.dll.tlhghj.ltrans0.ltrans.o
 .text.AsciiStrnLenS
                0x00000000000010b4       0x3c /tmp/SetupBrowser.dll.tlhghj.ltrans0.ltrans.o
 .text.InternalSafeStringNoStrOverlap
                0x00000000000010f0       0x3c /tmp/SetupBrowser.dll.tlhghj.ltrans0.ltrans.o
 .text.FormUpdateNotify
                0x000000000000112c       0x1c /tmp/SetupBrowser.dll.tlhghj.ltrans0.ltrans.o
                0x000000000000112c                FormUpdateNotify
 .text.RefreshEventNotifyForForm
                0x0000000000001148       0x2c /tmp/SetupBrowser.dll.tlhghj.ltrans0.ltrans.o
                0x0000000000001148                RefreshEventNotifyForForm
 .text.HiiValueToUINT64
                0x0000000000001174       0x50 /tmp/SetupBrowser.dll.tlhghj.ltrans0.ltrans.o
 .text.GetLengthForValue
                0x00000000000011c4       0x50 /tmp/SetupBrowser.dll.tlhghj.ltrans0.ltrans.o
 .text.GetBufferForValue
                0x0000000000001214       0x40 /tmp/SetupBrowser.dll.tlhghj.ltrans0.ltrans.o
 .text.IsTypeInBuffer
                0x0000000000001254       0x2c /tmp/SetupBrowser.dll.tlhghj.ltrans0.ltrans.o
 .text.IfrStrToUpper
                0x0000000000001280       0x2c /tmp/SetupBrowser.dll.tlhghj.ltrans0.ltrans.o
 .text.InitializeUnicodeCollationProtocol
                0x00000000000012ac       0x38 /tmp/SetupBrowser.dll.tlhghj.ltrans0.ltrans.o
 .text.IsResetRequired
                0x00000000000012e4        0xc /tmp/SetupBrowser.dll.tlhghj.ltrans0.ltrans.o
 .text.ProcessChangedData
                0x00000000000012f0       0x80 /tmp/SetupBrowser.dll.tlhghj.ltrans0.ltrans.o
 .text.DebugAssertEnabled
                0x0000000000001370        0x8 /tmp/SetupBrowser.dll.tlhghj.ltrans0.ltrans.o
                0x0000000000001370                DebugAssertEnabled
 .text.ProcessLibraryDestructorList
                0x0000000000001378        0x4 /tmp/SetupBrowser.dll.tlhghj.ltrans0.ltrans.o
                0x0000000000001378                EfiEventEmptyFunction
                0x0000000000001378                ProcessLibraryDestructorList
 .text.AllocatePool
                0x000000000000137c        0x4 /tmp/SetupBrowser.dll.tlhghj.ltrans0.ltrans.o
                0x000000000000137c                AllocatePool
 .text.DebugPrintLevelEnabled
                0x0000000000001380        0x8 /tmp/SetupBrowser.dll.tlhghj.ltrans0.ltrans.o
                0x0000000000001380                DebugPrintLevelEnabled
 .text.DebugPrintEnabled
                0x0000000000001388        0x8 /tmp/SetupBrowser.dll.tlhghj.ltrans0.ltrans.o
                0x0000000000001388                DebugPrintEnabled
 .text.BaseDebugLibSerialPortConstructor
                0x0000000000001390        0x8 /tmp/SetupBrowser.dll.tlhghj.ltrans0.ltrans.o
                0x0000000000001390                BaseDebugLibSerialPortConstructor
 .text.StrnLenS
                0x0000000000001398       0x70 /tmp/SetupBrowser.dll.tlhghj.ltrans0.ltrans.o
                0x0000000000001398                StrnLenS
 .text.BasePrintLibSPrintMarker.constprop.0
                0x0000000000001408      0xe18 /tmp/SetupBrowser.dll.tlhghj.ltrans0.ltrans.o
 .text.BasePrintLibSPrint.constprop.0
                0x0000000000002220       0xa0 /tmp/SetupBrowser.dll.tlhghj.ltrans0.ltrans.o
 .text.AsciiSPrint.constprop.0
                0x00000000000022c0       0xac /tmp/SetupBrowser.dll.tlhghj.ltrans0.ltrans.o
 .text.DebugAssert
                0x000000000000236c       0x8c /tmp/SetupBrowser.dll.tlhghj.ltrans0.ltrans.o
                0x000000000000236c                DebugAssert
 .text.SerialPortWrite
                0x00000000000023f8      0x120 /tmp/SetupBrowser.dll.tlhghj.ltrans0.ltrans.o
 .text.ReadUnaligned16
                0x0000000000002518       0x5c /tmp/SetupBrowser.dll.tlhghj.ltrans0.ltrans.o
 .text.DevicePathNodeLength
                0x0000000000002574       0x50 /tmp/SetupBrowser.dll.tlhghj.ltrans0.ltrans.o
 .text.NextDevicePathNode
                0x00000000000025c4       0x50 /tmp/SetupBrowser.dll.tlhghj.ltrans0.ltrans.o
 .text.DevicePathSubType
                0x0000000000002614       0x48 /tmp/SetupBrowser.dll.tlhghj.ltrans0.ltrans.o
 .text.DevicePathType
                0x000000000000265c       0x48 /tmp/SetupBrowser.dll.tlhghj.ltrans0.ltrans.o
 .text.IsDevicePathEnd
                0x00000000000026a4       0x94 /tmp/SetupBrowser.dll.tlhghj.ltrans0.ltrans.o
 .text.AsciiStrLen
                0x0000000000002738       0x90 /tmp/SetupBrowser.dll.tlhghj.ltrans0.ltrans.o
 .text.DebugPrint
                0x00000000000027c8       0xd0 /tmp/SetupBrowser.dll.tlhghj.ltrans0.ltrans.o
                0x00000000000027c8                DebugPrint
 .text.FreePool
                0x0000000000002898       0x7c /tmp/SetupBrowser.dll.tlhghj.ltrans0.ltrans.o
                0x0000000000002898                FreePool
 .text.AsciiStrSize
                0x0000000000002914       0x18 /tmp/SetupBrowser.dll.tlhghj.ltrans0.ltrans.o
 .text.AsciiStrnCmp
                0x000000000000292c       0xd4 /tmp/SetupBrowser.dll.tlhghj.ltrans0.ltrans.o
 .text.StrLen   0x0000000000002a00       0xa4 /tmp/SetupBrowser.dll.tlhghj.ltrans0.ltrans.o
                0x0000000000002a00                StrLen
 .text.StrSize  0x0000000000002aa4       0x1c /tmp/SetupBrowser.dll.tlhghj.ltrans0.ltrans.o
                0x0000000000002aa4                StrSize
 .text.StrStr   0x0000000000002ac0       0xac /tmp/SetupBrowser.dll.tlhghj.ltrans0.ltrans.o
                0x0000000000002ac0                StrStr
 .text.StrCmp   0x0000000000002b6c       0x88 /tmp/SetupBrowser.dll.tlhghj.ltrans0.ltrans.o
                0x0000000000002b6c                StrCmp
 .text.InternalBaseLibIsListValid
                0x0000000000002bf4       0xac /tmp/SetupBrowser.dll.tlhghj.ltrans0.ltrans.o
 .text.DivU64x32
                0x0000000000002ca0       0x40 /tmp/SetupBrowser.dll.tlhghj.ltrans0.ltrans.o
 .text.DivU64x32Remainder
                0x0000000000002ce0       0x54 /tmp/SetupBrowser.dll.tlhghj.ltrans0.ltrans.o
 .text.BasePrintLibValueToString
                0x0000000000002d34       0x84 /tmp/SetupBrowser.dll.tlhghj.ltrans0.ltrans.o
 .text.UnicodeValueToStringS.constprop.0
                0x0000000000002db8      0x174 /tmp/SetupBrowser.dll.tlhghj.ltrans0.ltrans.o
                0x0000000000002db8                UnicodeValueToStringS.constprop.0
 .text.LShiftU64
                0x0000000000002f2c       0x44 /tmp/SetupBrowser.dll.tlhghj.ltrans0.ltrans.o
 .text.RShiftU64
                0x0000000000002f70       0x44 /tmp/SetupBrowser.dll.tlhghj.ltrans0.ltrans.o
 .text.UnicodeSPrint
                0x0000000000002fb4       0xf0 /tmp/SetupBrowser.dll.tlhghj.ltrans0.ltrans.o
                0x0000000000002fb4                UnicodeSPrint
 .text.StrHexToUint64
                0x00000000000030a4      0x1f0 /tmp/SetupBrowser.dll.tlhghj.ltrans0.ltrans.o
                0x00000000000030a4                StrHexToUint64
 .text.StrDecimalToUint64
                0x0000000000003294      0x14c /tmp/SetupBrowser.dll.tlhghj.ltrans0.ltrans.o
 .text.StrCatS  0x00000000000033e0      0x29c /tmp/SetupBrowser.dll.tlhghj.ltrans0.ltrans.o
                0x00000000000033e0                StrCatS
 .text.StrnCpyS
                0x000000000000367c      0x288 /tmp/SetupBrowser.dll.tlhghj.ltrans0.ltrans.o
                0x000000000000367c                StrnCpyS
 .text.StrCpyS  0x0000000000003904      0x22c /tmp/SetupBrowser.dll.tlhghj.ltrans0.ltrans.o
                0x0000000000003904                StrCpyS
 .text.IsNull   0x0000000000003b30       0x4c /tmp/SetupBrowser.dll.tlhghj.ltrans0.ltrans.o
                0x0000000000003b30                IsNull
 .text.IsListEmpty
                0x0000000000003b7c       0x4c /tmp/SetupBrowser.dll.tlhghj.ltrans0.ltrans.o
                0x0000000000003b7c                IsListEmpty
 .text.RemoveEntryList
                0x0000000000003bc8       0x50 /tmp/SetupBrowser.dll.tlhghj.ltrans0.ltrans.o
                0x0000000000003bc8                RemoveEntryList
 .text.GetNextNode
                0x0000000000003c18       0x44 /tmp/SetupBrowser.dll.tlhghj.ltrans0.ltrans.o
                0x0000000000003c18                GetNextNode
 .text.GetFirstNode
                0x0000000000003c5c       0x44 /tmp/SetupBrowser.dll.tlhghj.ltrans0.ltrans.o
                0x0000000000003c5c                GetFirstNode
 .text.UpdateStatementStatusForForm
                0x0000000000003ca0       0xd8 /tmp/SetupBrowser.dll.tlhghj.ltrans0.ltrans.o
 .text.FreeStatementData
                0x0000000000003d78      0x138 /tmp/SetupBrowser.dll.tlhghj.ltrans0.ltrans.o
 .text.IdToQuestion2
                0x0000000000003eb0       0xc4 /tmp/SetupBrowser.dll.tlhghj.ltrans0.ltrans.o
 .text.IdToQuestion
                0x0000000000003f74      0x114 /tmp/SetupBrowser.dll.tlhghj.ltrans0.ltrans.o
 .text.InsertTailList
                0x0000000000004088       0x5c /tmp/SetupBrowser.dll.tlhghj.ltrans0.ltrans.o
                0x0000000000004088                InsertTailList
 .text.InsertHeadList
                0x00000000000040e4       0x58 /tmp/SetupBrowser.dll.tlhghj.ltrans0.ltrans.o
                0x00000000000040e4                InsertHeadList
 .text.InitializeListHead
                0x000000000000413c       0x40 /tmp/SetupBrowser.dll.tlhghj.ltrans0.ltrans.o
                0x000000000000413c                InitializeListHead
 .text.BitFieldWrite32
                0x000000000000417c      0x154 /tmp/SetupBrowser.dll.tlhghj.ltrans0.ltrans.o
                0x000000000000417c                BitFieldWrite32
 .text.BitFieldRead32
                0x00000000000042d0       0x74 /tmp/SetupBrowser.dll.tlhghj.ltrans0.ltrans.o
                0x00000000000042d0                BitFieldRead32
 .text.CopyMem  0x0000000000004344       0xa4 /tmp/SetupBrowser.dll.tlhghj.ltrans0.ltrans.o
                0x0000000000004344                CopyMem
 .text.AllocateCopyPool
                0x00000000000043e8       0x8c /tmp/SetupBrowser.dll.tlhghj.ltrans0.ltrans.o
                0x00000000000043e8                AllocateCopyPool
 .text.FindParentFormSet
                0x0000000000004474       0x78 /tmp/SetupBrowser.dll.tlhghj.ltrans0.ltrans.o
 .text.PopExpression
                0x00000000000044ec       0x50 /tmp/SetupBrowser.dll.tlhghj.ltrans0.ltrans.o
 .text.PushConditionalStack
                0x000000000000453c       0xe4 /tmp/SetupBrowser.dll.tlhghj.ltrans0.ltrans.o
 .text.CompareMem
                0x0000000000004620       0xd0 /tmp/SetupBrowser.dll.tlhghj.ltrans0.ltrans.o
                0x0000000000004620                CompareMem
 .text.ZeroMem  0x00000000000046f0       0x70 /tmp/SetupBrowser.dll.tlhghj.ltrans0.ltrans.o
                0x00000000000046f0                ZeroMem
 .text.AllocateZeroPool
                0x0000000000004760       0x34 /tmp/SetupBrowser.dll.tlhghj.ltrans0.ltrans.o
                0x0000000000004760                AllocateZeroPool
 .text.HiiGetHiiHandles.constprop.0
                0x0000000000004794       0xc8 /tmp/SetupBrowser.dll.tlhghj.ltrans0.ltrans.o
 .text.GetBestLanguage.constprop.0
                0x000000000000485c      0x1c0 /tmp/SetupBrowser.dll.tlhghj.ltrans0.ltrans.o
 .text.CreateExpression.constprop.0
                0x0000000000004a1c       0x6c /tmp/SetupBrowser.dll.tlhghj.ltrans0.ltrans.o
                0x0000000000004a1c                CreateExpression.constprop.0
 .text.HiiGetSupportedLanguages
                0x0000000000004a88       0xe8 /tmp/SetupBrowser.dll.tlhghj.ltrans0.ltrans.o
 .text.HiiGetStringEx.constprop.0
                0x0000000000004b70      0x254 /tmp/SetupBrowser.dll.tlhghj.ltrans0.ltrans.o
                0x0000000000004b70                HiiGetStringEx.constprop.0
 .text.HiiSetString.constprop.0
                0x0000000000004dc4      0x160 /tmp/SetupBrowser.dll.tlhghj.ltrans0.ltrans.o
                0x0000000000004dc4                HiiSetString.constprop.0
 .text.IsZeroGuid
                0x0000000000004f24       0x40 /tmp/SetupBrowser.dll.tlhghj.ltrans0.ltrans.o
                0x0000000000004f24                IsZeroGuid
 .text.CompareGuid
                0x0000000000004f64       0x60 /tmp/SetupBrowser.dll.tlhghj.ltrans0.ltrans.o
                0x0000000000004f64                CompareGuid
 .text.GetFormsetGuidFromHiiHandle
                0x0000000000004fc4      0x1a4 /tmp/SetupBrowser.dll.tlhghj.ltrans0.ltrans.o
 .text.DevicePathToHiiHandle
                0x0000000000005168      0x130 /tmp/SetupBrowser.dll.tlhghj.ltrans0.ltrans.o
 .text.CopyGuid
                0x0000000000005298       0x64 /tmp/SetupBrowser.dll.tlhghj.ltrans0.ltrans.o
                0x0000000000005298                CopyGuid
 .text.IsNvUpdateRequiredForForm
                0x00000000000052fc       0xbc /tmp/SetupBrowser.dll.tlhghj.ltrans0.ltrans.o
                0x00000000000052fc                IsNvUpdateRequiredForForm
 .text.IsNvUpdateRequiredForFormSet
                0x00000000000053b8       0xc8 /tmp/SetupBrowser.dll.tlhghj.ltrans0.ltrans.o
                0x00000000000053b8                IsNvUpdateRequiredForFormSet
 .text.SaveReminder
                0x0000000000005480      0x120 /tmp/SetupBrowser.dll.tlhghj.ltrans0.ltrans.o
 .text.UpdateStatementStatusForFormSet
                0x00000000000055a0       0xc0 /tmp/SetupBrowser.dll.tlhghj.ltrans0.ltrans.o
                0x00000000000055a0                UpdateStatementStatusForFormSet
 .text.UpdateStatementStatus
                0x0000000000005660       0xe4 /tmp/SetupBrowser.dll.tlhghj.ltrans0.ltrans.o
                0x0000000000005660                UpdateStatementStatus
 .text.GetBrowserStatement
                0x0000000000005744       0xd8 /tmp/SetupBrowser.dll.tlhghj.ltrans0.ltrans.o
                0x0000000000005744                GetBrowserStatement
 .text.FreeDisplayFormData
                0x000000000000581c      0x118 /tmp/SetupBrowser.dll.tlhghj.ltrans0.ltrans.o
                0x000000000000581c                FreeDisplayFormData
 .text.IsTrue   0x0000000000005934       0x60 /tmp/SetupBrowser.dll.tlhghj.ltrans0.ltrans.o
                0x0000000000005934                IsTrue
 .text.CompareHiiValue
                0x0000000000005994      0x1a0 /tmp/SetupBrowser.dll.tlhghj.ltrans0.ltrans.o
                0x0000000000005994                CompareHiiValue
 .text.ExtendValueToU64
                0x0000000000005b34       0x4c /tmp/SetupBrowser.dll.tlhghj.ltrans0.ltrans.o
                0x0000000000005b34                ExtendValueToU64
 .text.IdToForm
                0x0000000000005b80       0xbc /tmp/SetupBrowser.dll.tlhghj.ltrans0.ltrans.o
                0x0000000000005b80                IdToForm
 .text.PopScope
                0x0000000000005c3c       0x88 /tmp/SetupBrowser.dll.tlhghj.ltrans0.ltrans.o
                0x0000000000005c3c                PopScope
 .text.PopConditionalExpression
                0x0000000000005cc4       0xd4 /tmp/SetupBrowser.dll.tlhghj.ltrans0.ltrans.o
                0x0000000000005cc4                PopConditionalExpression
 .text.PushConditionalExpression
                0x0000000000005d98       0x7c /tmp/SetupBrowser.dll.tlhghj.ltrans0.ltrans.o
                0x0000000000005d98                PushConditionalExpression
 .text.GetConditionalExpressionList
                0x0000000000005e14       0x30 /tmp/SetupBrowser.dll.tlhghj.ltrans0.ltrans.o
                0x0000000000005e14                GetConditionalExpressionList
 .text.GetConditionalExpressionCount
                0x0000000000005e44       0x54 /tmp/SetupBrowser.dll.tlhghj.ltrans0.ltrans.o
                0x0000000000005e44                GetConditionalExpressionCount
 .text.PushStack
                0x0000000000005e98      0x144 /tmp/SetupBrowser.dll.tlhghj.ltrans0.ltrans.o
                0x0000000000005e98                PushStack
 .text.PushScope
                0x0000000000005fdc       0x6c /tmp/SetupBrowser.dll.tlhghj.ltrans0.ltrans.o
                0x0000000000005fdc                PushScope
 .text.IsStatementOpCode
                0x0000000000006048       0x68 /tmp/SetupBrowser.dll.tlhghj.ltrans0.ltrans.o
                0x0000000000006048                IsStatementOpCode
 .text.IsExpressionOpCode
                0x00000000000060b0       0x74 /tmp/SetupBrowser.dll.tlhghj.ltrans0.ltrans.o
                0x00000000000060b0                IsExpressionOpCode
 .text.DestroyExpression
                0x0000000000006124      0x13c /tmp/SetupBrowser.dll.tlhghj.ltrans0.ltrans.o
                0x0000000000006124                DestroyExpression
 .text.DestroyFormSet
                0x0000000000006260      0x6c0 /tmp/SetupBrowser.dll.tlhghj.ltrans0.ltrans.o
                0x0000000000006260                DestroyFormSet
 .text.GetQuestionValueFromForm
                0x0000000000006920      0x21c /tmp/SetupBrowser.dll.tlhghj.ltrans0.ltrans.o
 .text.GetFstStgFromBrsStg
                0x0000000000006b3c      0x144 /tmp/SetupBrowser.dll.tlhghj.ltrans0.ltrans.o
                0x0000000000006b3c                GetFstStgFromBrsStg
 .text.StorageToConfigResp.constprop.0
                0x0000000000006c80      0x1c0 /tmp/SetupBrowser.dll.tlhghj.ltrans0.ltrans.o
                0x0000000000006c80                StorageToConfigResp.constprop.0
 .text.GetFstStgFromVarId
                0x0000000000006e40       0xbc /tmp/SetupBrowser.dll.tlhghj.ltrans0.ltrans.o
                0x0000000000006e40                GetFstStgFromVarId
 .text.InitializeRequestElement
                0x0000000000006efc      0x3b8 /tmp/SetupBrowser.dll.tlhghj.ltrans0.ltrans.o
                0x0000000000006efc                InitializeRequestElement
 .text.CreateStorage
                0x00000000000072b4      0x65c /tmp/SetupBrowser.dll.tlhghj.ltrans0.ltrans.o
                0x00000000000072b4                CreateStorage
 .text.CreateStatement
                0x0000000000007910      0x194 /tmp/SetupBrowser.dll.tlhghj.ltrans0.ltrans.o
                0x0000000000007910                CreateStatement
 .text.CreateQuestion
                0x0000000000007aa4      0x314 /tmp/SetupBrowser.dll.tlhghj.ltrans0.ltrans.o
                0x0000000000007aa4                CreateQuestion
 .text.IsHiiHandleInBrowserContext.part.0
                0x0000000000007db8       0xc8 /tmp/SetupBrowser.dll.tlhghj.ltrans0.ltrans.o
                0x0000000000007db8                IsHiiHandleInBrowserContext.part.0
 .text.ValueChangeResetFlagUpdate.part.0
                0x0000000000007e80       0xc8 /tmp/SetupBrowser.dll.tlhghj.ltrans0.ltrans.o
                0x0000000000007e80                ValueChangeResetFlagUpdate.part.0
 .text.ValidateHiiHandle.part.0
                0x0000000000007f48       0x7c /tmp/SetupBrowser.dll.tlhghj.ltrans0.ltrans.o
                0x0000000000007f48                ValidateHiiHandle.part.0
 .text.FindNextMenu
                0x0000000000007fc4      0x138 /tmp/SetupBrowser.dll.tlhghj.ltrans0.ltrans.o
                0x0000000000007fc4                FindNextMenu
 .text.SubmitCallbackForForm.part.0
                0x00000000000080fc      0x13c /tmp/SetupBrowser.dll.tlhghj.ltrans0.ltrans.o
                0x00000000000080fc                SubmitCallbackForForm.part.0
 .text.SubmitCallback.part.0
                0x0000000000008238       0xc8 /tmp/SetupBrowser.dll.tlhghj.ltrans0.ltrans.o
                0x0000000000008238                SubmitCallback.part.0
 .text.SubmitForFormSet.part.0
                0x0000000000008300      0x818 /tmp/SetupBrowser.dll.tlhghj.ltrans0.ltrans.o
                0x0000000000008300                SubmitForFormSet.part.0
 .text.SetValueByName.part.0
                0x0000000000008b18      0x150 /tmp/SetupBrowser.dll.tlhghj.ltrans0.ltrans.o
                0x0000000000008b18                SetValueByName.part.0
 .text.GetValueByName.part.0
                0x0000000000008c68      0x100 /tmp/SetupBrowser.dll.tlhghj.ltrans0.ltrans.o
                0x0000000000008c68                GetValueByName.part.0
 .text.EvaluateExpression
                0x0000000000008d68     0x24b8 /tmp/SetupBrowser.dll.tlhghj.ltrans0.ltrans.o
                0x0000000000008d68                EvaluateExpression
 .text.EvaluateExpressionList
                0x000000000000b220      0x10c /tmp/SetupBrowser.dll.tlhghj.ltrans0.ltrans.o
                0x000000000000b220                EvaluateExpressionList
 .text.ProcessCallBackFunction.constprop.0
                0x000000000000b32c      0x5b0 /tmp/SetupBrowser.dll.tlhghj.ltrans0.ltrans.o
                0x000000000000b32c                ProcessCallBackFunction.constprop.0
 .text.UpdateStatement
                0x000000000000b8dc       0x74 /tmp/SetupBrowser.dll.tlhghj.ltrans0.ltrans.o
 .text.RefreshIntervalProcess
                0x000000000000b950       0xe8 /tmp/SetupBrowser.dll.tlhghj.ltrans0.ltrans.o
                0x000000000000b950                RefreshIntervalProcess
 .text.RefreshEventNotifyForStatement
                0x000000000000ba38       0x30 /tmp/SetupBrowser.dll.tlhghj.ltrans0.ltrans.o
                0x000000000000ba38                RefreshEventNotifyForStatement
 .text.ProcessGotoOpCode
                0x000000000000ba68      0x2e8 /tmp/SetupBrowser.dll.tlhghj.ltrans0.ltrans.o
                0x000000000000ba68                ProcessGotoOpCode
 .text.ExtractDefault.part.0
                0x000000000000bd50      0x998 /tmp/SetupBrowser.dll.tlhghj.ltrans0.ltrans.o
                0x000000000000bd50                ExtractDefault.part.0
 .text.RegiserExitHandler
                0x000000000000c6e8        0xc /tmp/SetupBrowser.dll.tlhghj.ltrans1.ltrans.o
                0x000000000000c6e8                RegiserExitHandler
 .text.FormDisplayCallback
                0x000000000000c6f4       0x34 /tmp/SetupBrowser.dll.tlhghj.ltrans1.ltrans.o
 .text.RegisterHotKey
                0x000000000000c728      0x1cc /tmp/SetupBrowser.dll.tlhghj.ltrans1.ltrans.o
                0x000000000000c728                RegisterHotKey
 .text.SetScope
                0x000000000000c8f4       0x80 /tmp/SetupBrowser.dll.tlhghj.ltrans1.ltrans.o
                0x000000000000c8f4                SetScope
 .text.ConfigRequestAdjust
                0x000000000000c974      0x2d4 /tmp/SetupBrowser.dll.tlhghj.ltrans1.ltrans.o
 .text.CleanBrowserStorage
                0x000000000000cc48      0x1f0 /tmp/SetupBrowser.dll.tlhghj.ltrans1.ltrans.o
 .text.ConfigRespToStorage
                0x000000000000ce38      0x140 /tmp/SetupBrowser.dll.tlhghj.ltrans1.ltrans.o
 .text.SetBitsQuestionValue
                0x000000000000cf78       0xa8 /tmp/SetupBrowser.dll.tlhghj.ltrans1.ltrans.o
 .text.GetBitsQuestionValue
                0x000000000000d020       0x94 /tmp/SetupBrowser.dll.tlhghj.ltrans1.ltrans.o
 .text.BufferToValue
                0x000000000000d0b4      0x1f0 /tmp/SetupBrowser.dll.tlhghj.ltrans1.ltrans.o
 .text.ProcessStorage
                0x000000000000d2a4      0x1e4 /tmp/SetupBrowser.dll.tlhghj.ltrans1.ltrans.o
 .text.BrowserCallback
                0x000000000000d488      0x294 /tmp/SetupBrowser.dll.tlhghj.ltrans1.ltrans.o
                0x000000000000d488                BrowserCallback
 .text.ExtractDefault
                0x000000000000d71c       0x30 /tmp/SetupBrowser.dll.tlhghj.ltrans1.ltrans.o
                0x000000000000d71c                ExtractDefault
 .text.HiiToLower
                0x000000000000d74c       0x94 /tmp/SetupBrowser.dll.tlhghj.ltrans1.ltrans.o
                0x000000000000d74c                HiiToLower
 .text.GetSyncRestoreConfigRequest
                0x000000000000d7e0      0x2bc /tmp/SetupBrowser.dll.tlhghj.ltrans1.ltrans.o
                0x000000000000d7e0                GetSyncRestoreConfigRequest
 .text.ValidateFormSet
                0x000000000000da9c       0x90 /tmp/SetupBrowser.dll.tlhghj.ltrans1.ltrans.o
                0x000000000000da9c                ValidateFormSet
 .text.IsBrowserDataModified
                0x000000000000db2c      0x128 /tmp/SetupBrowser.dll.tlhghj.ltrans1.ltrans.o
                0x000000000000db2c                IsBrowserDataModified
 .text.GetFormSetFromHiiHandle
                0x000000000000dc54       0xdc /tmp/SetupBrowser.dll.tlhghj.ltrans1.ltrans.o
                0x000000000000dc54                GetFormSetFromHiiHandle
 .text.SetQuestionValue
                0x000000000000dd30      0x5cc /tmp/SetupBrowser.dll.tlhghj.ltrans1.ltrans.o
                0x000000000000dd30                SetQuestionValue
 .text.GetQuestionValue
                0x000000000000e2fc      0x5b8 /tmp/SetupBrowser.dll.tlhghj.ltrans1.ltrans.o
                0x000000000000e2fc                GetQuestionValue
 .text.LoadFormSetConfig
                0x000000000000e8b4      0x198 /tmp/SetupBrowser.dll.tlhghj.ltrans1.ltrans.o
                0x000000000000e8b4                LoadFormSetConfig
 .text.IsQuestionValueChanged
                0x000000000000ea4c      0x3d8 /tmp/SetupBrowser.dll.tlhghj.ltrans1.ltrans.o
                0x000000000000ea4c                IsQuestionValueChanged
 .text.UpdateFlagForForm
                0x000000000000ee24      0x11c /tmp/SetupBrowser.dll.tlhghj.ltrans1.ltrans.o
                0x000000000000ee24                UpdateFlagForForm
 .text.SendDiscardInfoToDriver
                0x000000000000ef40      0x188 /tmp/SetupBrowser.dll.tlhghj.ltrans1.ltrans.o
                0x000000000000ef40                SendDiscardInfoToDriver
 .text.NewStringCpy
                0x000000000000f0c8       0x74 /tmp/SetupBrowser.dll.tlhghj.ltrans1.ltrans.o
                0x000000000000f0c8                NewStringCpy
 .text.SynchronizeStorage
                0x000000000000f13c      0x1c8 /tmp/SetupBrowser.dll.tlhghj.ltrans1.ltrans.o
                0x000000000000f13c                SynchronizeStorage
 .text.InitializeCurrentSetting
                0x000000000000f304      0x4cc /tmp/SetupBrowser.dll.tlhghj.ltrans1.ltrans.o
                0x000000000000f304                InitializeCurrentSetting
 .text.DiscardForm
                0x000000000000f7d0      0x368 /tmp/SetupBrowser.dll.tlhghj.ltrans1.ltrans.o
                0x000000000000f7d0                DiscardForm
 .text.NewStringCat
                0x000000000000fb38       0xb4 /tmp/SetupBrowser.dll.tlhghj.ltrans1.ltrans.o
                0x000000000000fb38                NewStringCat
 .text.GetToken
                0x000000000000fbec       0x80 /tmp/SetupBrowser.dll.tlhghj.ltrans1.ltrans.o
                0x000000000000fbec                GetToken
 .text.GetQuestionDefault
                0x000000000000fc6c      0xbf0 /tmp/SetupBrowser.dll.tlhghj.ltrans1.ltrans.o
                0x000000000000fc6c                GetQuestionDefault
 .text.DeleteString
                0x000000000001085c       0x60 /tmp/SetupBrowser.dll.tlhghj.ltrans1.ltrans.o
                0x000000000001085c                DeleteString
 .text.NewString
                0x00000000000108bc       0x5c /tmp/SetupBrowser.dll.tlhghj.ltrans1.ltrans.o
                0x00000000000108bc                NewString
 .text.PasswordCheck
                0x0000000000010918      0x114 /tmp/SetupBrowser.dll.tlhghj.ltrans1.ltrans.o
 .text.InitializeFormSet
                0x0000000000010a2c     0x236c /tmp/SetupBrowser.dll.tlhghj.ltrans1.ltrans.o
                0x0000000000010a2c                InitializeFormSet
 .text.PopupErrorMessage
                0x0000000000012d98       0xfc /tmp/SetupBrowser.dll.tlhghj.ltrans1.ltrans.o
                0x0000000000012d98                PopupErrorMessage
 .text.ConfirmSaveFail
                0x0000000000012e94       0xa8 /tmp/SetupBrowser.dll.tlhghj.ltrans1.ltrans.o
                0x0000000000012e94                ConfirmSaveFail
 .text.ValidateQuestion
                0x0000000000012f3c      0x1f4 /tmp/SetupBrowser.dll.tlhghj.ltrans1.ltrans.o
 .text.NoSubmitCheck
                0x0000000000013130      0x17c /tmp/SetupBrowser.dll.tlhghj.ltrans1.ltrans.o
                0x0000000000013130                NoSubmitCheck
 .text.ValueChangedValidation
                0x00000000000132ac       0x90 /tmp/SetupBrowser.dll.tlhghj.ltrans1.ltrans.o
                0x00000000000132ac                ValueChangedValidation
 .text.UiFreeMenuList
                0x000000000001333c       0x9c /tmp/SetupBrowser.dll.tlhghj.ltrans1.ltrans.o
                0x000000000001333c                UiFreeMenuList
 .text.UiCopyMenuList
                0x00000000000133d8      0x120 /tmp/SetupBrowser.dll.tlhghj.ltrans1.ltrans.o
                0x00000000000133d8                UiCopyMenuList
 .text.SubmitForSystem
                0x00000000000134f8      0x63c /tmp/SetupBrowser.dll.tlhghj.ltrans1.ltrans.o
                0x00000000000134f8                SubmitForSystem
 .text.SubmitForm
                0x0000000000013b34      0x3c4 /tmp/SetupBrowser.dll.tlhghj.ltrans1.ltrans.o
                0x0000000000013b34                SubmitForm
 .text.ExecuteAction
                0x0000000000013ef8      0x13c /tmp/SetupBrowser.dll.tlhghj.ltrans1.ltrans.o
                0x0000000000013ef8                ExecuteAction
 .text.SendForm
                0x0000000000014034     0x2064 /tmp/SetupBrowser.dll.tlhghj.ltrans1.ltrans.o
                0x0000000000014034                SendForm
 .text.SendForm.stub
                0x0000000000016098       0x10 linker stubs
 .text.UiFindParentMenu
                0x0000000000017098       0xf4 /tmp/SetupBrowser.dll.tlhghj.ltrans1.ltrans.o
                0x0000000000017098                UiFindParentMenu
 .text.memcpy   0x000000000001718c       0x20 /tmp/SetupBrowser.dll.tlhghj.ltrans1.ltrans.o
                0x000000000001718c                memcpy
 .text.__stack_chk_fail
                0x00000000000171ac       0x50 /tmp/SetupBrowser.dll.tlhghj.ltrans1.ltrans.o
                0x00000000000171ac                __stack_chk_fail
 .text._ModuleEntryPoint
                0x00000000000171fc      0x77c /tmp/SetupBrowser.dll.tlhghj.ltrans1.ltrans.o
                0x00000000000171fc                _ModuleEntryPoint
 *fill*         0x0000000000017978        0x8 
 .text          0x0000000000017980      0x200 /home/alastair/pftf-rpi4/Build/RPi4/DEBUG_GCC5/AARCH64/MdePkg/Library/BaseMemoryLibOptDxe/BaseMemoryLibOptDxe/OUTPUT/BaseMemoryLibOptDxe.lib(SetMem.obj)
                0x0000000000017980                InternalMemSetMem16
                0x000000000001798c                InternalMemSetMem32
                0x0000000000017998                InternalMemSetMem64
                0x00000000000179a4                InternalMemZeroMem
                0x00000000000179ac                InternalMemSetMem
 .text          0x0000000000017b80      0x218 /home/alastair/pftf-rpi4/Build/RPi4/DEBUG_GCC5/AARCH64/MdePkg/Library/BaseMemoryLibOptDxe/BaseMemoryLibOptDxe/OUTPUT/BaseMemoryLibOptDxe.lib(CopyMem.obj)
                0x0000000000017cec                InternalMemCopyMem
 *fill*         0x0000000000017d98       0x28 
 .text          0x0000000000017dc0       0xe0 /home/alastair/pftf-rpi4/Build/RPi4/DEBUG_GCC5/AARCH64/MdePkg/Library/BaseMemoryLibOptDxe/BaseMemoryLibOptDxe/OUTPUT/BaseMemoryLibOptDxe.lib(CompareMem.obj)
                0x0000000000017dc0                InternalMemCompareMem
 .text          0x0000000000017ea0       0x20 /home/alastair/pftf-rpi4/Build/RPi4/DEBUG_GCC5/AARCH64/MdePkg/Library/BaseMemoryLibOptDxe/BaseMemoryLibOptDxe/OUTPUT/BaseMemoryLibOptDxe.lib(CompareGuid.obj)
                0x0000000000017ea0                InternalMemCompareGuid
 *(.rodata .rodata.* .gnu.linkonce.r.*)
 .rodata.HiiValueToUINT64
                0x0000000000017ec0        0x7 /tmp/SetupBrowser.dll.tlhghj.ltrans0.ltrans.o
 *fill*         0x0000000000017ec7        0x1 
 .rodata.GetLengthForValue
                0x0000000000017ec8        0x8 /tmp/SetupBrowser.dll.tlhghj.ltrans0.ltrans.o
 .rodata.StrnLenS.str1.1
                0x0000000000017ed0       0x65 /tmp/SetupBrowser.dll.tlhghj.ltrans0.ltrans.o
 .rodata.BasePrintLibSPrintMarker.constprop.0.str1.1
                0x0000000000017f35      0x28d /tmp/SetupBrowser.dll.tlhghj.ltrans0.ltrans.o
                                        0x2a4 (size before relaxing)
 *fill*         0x00000000000181c2        0x2 
 .rodata.BasePrintLibSPrintMarker.constprop.0
                0x00000000000181c4       0x5e /tmp/SetupBrowser.dll.tlhghj.ltrans0.ltrans.o
 .rodata.AsciiSPrint.constprop.0.str1.1
                0x0000000000018222       0x18 /tmp/SetupBrowser.dll.tlhghj.ltrans0.ltrans.o
 .rodata.DebugAssert.str1.1
                0x000000000001823a        0xd /tmp/SetupBrowser.dll.tlhghj.ltrans0.ltrans.o
 .rodata.ReadUnaligned16.str1.1
                0x0000000000018247       0x45 /tmp/SetupBrowser.dll.tlhghj.ltrans0.ltrans.o
 .rodata.DevicePathNodeLength.str1.1
                0x000000000001828c       0x55 /tmp/SetupBrowser.dll.tlhghj.ltrans0.ltrans.o
                                         0x6a (size before relaxing)
 .rodata.AsciiStrLen.str1.1
                0x00000000000182e1       0x76 /tmp/SetupBrowser.dll.tlhghj.ltrans0.ltrans.o
                                         0x8d (size before relaxing)
 .rodata.FreePool.str1.1
                0x0000000000018357       0x90 /tmp/SetupBrowser.dll.tlhghj.ltrans0.ltrans.o
 .rodata.AsciiStrnCmp.str1.1
                0x00000000000183e7       0x70 /tmp/SetupBrowser.dll.tlhghj.ltrans0.ltrans.o
 .rodata.StrLen.str1.1
                0x0000000000018457       0x3a /tmp/SetupBrowser.dll.tlhghj.ltrans0.ltrans.o
 .rodata.StrStr.str1.1
                0x0000000000018491       0x32 /tmp/SetupBrowser.dll.tlhghj.ltrans0.ltrans.o
 .rodata.StrCmp.str1.1
                0x00000000000184c3       0x37 /tmp/SetupBrowser.dll.tlhghj.ltrans0.ltrans.o
 .rodata.InternalBaseLibIsListValid.str1.1
                0x00000000000184fa       0x83 /tmp/SetupBrowser.dll.tlhghj.ltrans0.ltrans.o
                                         0x98 (size before relaxing)
 .rodata.DivU64x32.str1.1
                0x000000000001857d       0x4e /tmp/SetupBrowser.dll.tlhghj.ltrans0.ltrans.o
 .rodata.DivU64x32Remainder.str1.1
                0x00000000000185cb       0x4a /tmp/SetupBrowser.dll.tlhghj.ltrans0.ltrans.o
 .rodata.UnicodeValueToStringS.constprop.0.str1.1
                0x0000000000018615       0xe7 /tmp/SetupBrowser.dll.tlhghj.ltrans0.ltrans.o
 .rodata.LShiftU64.str1.1
                0x00000000000186fc       0x4c /tmp/SetupBrowser.dll.tlhghj.ltrans0.ltrans.o
 .rodata.RShiftU64.str1.1
                0x0000000000018748       0x41 /tmp/SetupBrowser.dll.tlhghj.ltrans0.ltrans.o
 .rodata.UnicodeSPrint.str1.1
                0x0000000000018789       0x4f /tmp/SetupBrowser.dll.tlhghj.ltrans0.ltrans.o
 .rodata.StrHexToUint64.str1.1
                0x00000000000187d8       0x81 /tmp/SetupBrowser.dll.tlhghj.ltrans0.ltrans.o
 .rodata.StrCatS.str1.1
                0x0000000000018859      0x114 /tmp/SetupBrowser.dll.tlhghj.ltrans0.ltrans.o
 .rodata.StrnCpyS.str1.1
                0x000000000001896d       0x2c /tmp/SetupBrowser.dll.tlhghj.ltrans0.ltrans.o
 .rodata.IsNull.str1.1
                0x0000000000018999       0x22 /tmp/SetupBrowser.dll.tlhghj.ltrans0.ltrans.o
 .rodata.IsListEmpty.str1.1
                0x00000000000189bb       0x26 /tmp/SetupBrowser.dll.tlhghj.ltrans0.ltrans.o
 .rodata.RemoveEntryList.str1.1
                0x00000000000189e1       0x15 /tmp/SetupBrowser.dll.tlhghj.ltrans0.ltrans.o
 .rodata.UpdateStatementStatusForForm.str1.1
                0x00000000000189f6       0x69 /tmp/SetupBrowser.dll.tlhghj.ltrans0.ltrans.o
 .rodata.IdToQuestion2.str1.1
                0x0000000000018a5f       0x52 /tmp/SetupBrowser.dll.tlhghj.ltrans0.ltrans.o
 .rodata.InitializeListHead.str1.1
                0x0000000000018ab1       0x19 /tmp/SetupBrowser.dll.tlhghj.ltrans0.ltrans.o
 .rodata.BitFieldWrite32.str1.1
                0x0000000000018aca       0xa8 /tmp/SetupBrowser.dll.tlhghj.ltrans0.ltrans.o
 .rodata.CopyMem.str1.1
                0x0000000000018b72       0xd3 /tmp/SetupBrowser.dll.tlhghj.ltrans0.ltrans.o
 .rodata.AllocateCopyPool.str1.1
                0x0000000000018c45       0x3f /tmp/SetupBrowser.dll.tlhghj.ltrans0.ltrans.o
 .rodata.CompareMem.str1.1
                0x0000000000018c84       0x94 /tmp/SetupBrowser.dll.tlhghj.ltrans0.ltrans.o
 .rodata.ZeroMem.str1.1
                0x0000000000018d18       0x88 /tmp/SetupBrowser.dll.tlhghj.ltrans0.ltrans.o
 .rodata.GetBestLanguage.constprop.0.str1.1
                0x0000000000018da0       0x62 /tmp/SetupBrowser.dll.tlhghj.ltrans0.ltrans.o
 .rodata.CreateExpression.constprop.0.str1.1
                0x0000000000018e02       0x50 /tmp/SetupBrowser.dll.tlhghj.ltrans0.ltrans.o
                                         0x6b (size before relaxing)
 .rodata.HiiGetSupportedLanguages.str1.1
                0x0000000000018e52       0x66 /tmp/SetupBrowser.dll.tlhghj.ltrans0.ltrans.o
 .rodata.HiiGetStringEx.constprop.0.str1.1
                0x0000000000018eb8       0x6f /tmp/SetupBrowser.dll.tlhghj.ltrans0.ltrans.o
                                         0x70 (size before relaxing)
 *fill*         0x0000000000018f27        0x1 
 .rodata.HiiGetStringEx.constprop.0.str2.2
                0x0000000000018f28       0x1a /tmp/SetupBrowser.dll.tlhghj.ltrans0.ltrans.o
 .rodata.HiiSetString.constprop.0.str1.1
                0x0000000000018f42        0x7 /tmp/SetupBrowser.dll.tlhghj.ltrans0.ltrans.o
 .rodata.IsZeroGuid.str1.1
                0x0000000000018f49       0x52 /tmp/SetupBrowser.dll.tlhghj.ltrans0.ltrans.o
                                         0x67 (size before relaxing)
 .rodata.CompareGuid.str1.1
                0x0000000000018f9b       0x2c /tmp/SetupBrowser.dll.tlhghj.ltrans0.ltrans.o
 .rodata.GetFormsetGuidFromHiiHandle.str1.1
                0x0000000000018fc7       0x1f /tmp/SetupBrowser.dll.tlhghj.ltrans0.ltrans.o
 .rodata.DevicePathToHiiHandle.str1.1
                0x0000000000018fe6       0x1b /tmp/SetupBrowser.dll.tlhghj.ltrans0.ltrans.o
 .rodata.CopyGuid.str1.1
                0x0000000000019001       0x3b /tmp/SetupBrowser.dll.tlhghj.ltrans0.ltrans.o
 .rodata.SaveReminder.str1.1
                0x000000000001903c       0x4d /tmp/SetupBrowser.dll.tlhghj.ltrans0.ltrans.o
 *fill*         0x0000000000019089        0x3 
 .rodata.IsTrue
                0x000000000001908c        0x5 /tmp/SetupBrowser.dll.tlhghj.ltrans0.ltrans.o
 *fill*         0x0000000000019091        0x3 
 .rodata.ExtendValueToU64
                0x0000000000019094        0x7 /tmp/SetupBrowser.dll.tlhghj.ltrans0.ltrans.o
 .rodata.PushStack.str1.1
                0x000000000001909b       0x24 /tmp/SetupBrowser.dll.tlhghj.ltrans0.ltrans.o
 .rodata.GetQuestionValueFromForm.str1.1
                0x00000000000190bf       0x81 /tmp/SetupBrowser.dll.tlhghj.ltrans0.ltrans.o
                                         0xae (size before relaxing)
 .rodata.StorageToConfigResp.constprop.0.str1.1
                0x0000000000019140       0x1f /tmp/SetupBrowser.dll.tlhghj.ltrans0.ltrans.o
 *fill*         0x000000000001915f        0x1 
 .rodata.StorageToConfigResp.constprop.0.str2.2
                0x0000000000019160        0x4 /tmp/SetupBrowser.dll.tlhghj.ltrans0.ltrans.o
                                          0x8 (size before relaxing)
 .rodata.InitializeRequestElement.str2.2
                0x0000000000019164       0x38 /tmp/SetupBrowser.dll.tlhghj.ltrans0.ltrans.o
 .rodata.InitializeRequestElement.str1.1
                0x000000000001919c       0x5c /tmp/SetupBrowser.dll.tlhghj.ltrans0.ltrans.o
 .rodata.CreateStorage.str1.1
                0x00000000000191f8       0x59 /tmp/SetupBrowser.dll.tlhghj.ltrans0.ltrans.o
                                         0x71 (size before relaxing)
 *fill*         0x0000000000019251        0x1 
 .rodata.CreateStorage.str2.2
                0x0000000000019252       0x1c /tmp/SetupBrowser.dll.tlhghj.ltrans0.ltrans.o
                                         0x28 (size before relaxing)
 .rodata.CreateStatement.str1.1
                0x000000000001926e       0x59 /tmp/SetupBrowser.dll.tlhghj.ltrans0.ltrans.o
 .rodata.CreateQuestion.str1.1
                0x00000000000192c7       0xdb /tmp/SetupBrowser.dll.tlhghj.ltrans0.ltrans.o
 .rodata.ValidateHiiHandle.part.0.str1.1
                0x00000000000193a2       0x1b /tmp/SetupBrowser.dll.tlhghj.ltrans0.ltrans.o
 .rodata.SubmitForFormSet.part.0.str1.1
                0x00000000000193bd       0x5a /tmp/SetupBrowser.dll.tlhghj.ltrans0.ltrans.o
                                         0x71 (size before relaxing)
 *fill*         0x0000000000019417        0x1 
 .rodata.SubmitForFormSet.part.0.str2.2
                0x0000000000019418       0x22 /tmp/SetupBrowser.dll.tlhghj.ltrans0.ltrans.o
                                         0x2e (size before relaxing)
 .rodata.EvaluateExpression.str2.2
                0x000000000001943a       0x38 /tmp/SetupBrowser.dll.tlhghj.ltrans0.ltrans.o
                                         0x3e (size before relaxing)
 .rodata.EvaluateExpression.str1.1
                0x0000000000019472       0xc9 /tmp/SetupBrowser.dll.tlhghj.ltrans0.ltrans.o
 *fill*         0x000000000001953b        0x1 
 .rodata.EvaluateExpression
                0x000000000001953c       0xda /tmp/SetupBrowser.dll.tlhghj.ltrans0.ltrans.o
 .rodata.EvaluateExpressionList.str1.1
                0x0000000000019616       0x4c /tmp/SetupBrowser.dll.tlhghj.ltrans0.ltrans.o
 .rodata.ProcessCallBackFunction.constprop.0.str1.1
                0x0000000000019662       0x77 /tmp/SetupBrowser.dll.tlhghj.ltrans0.ltrans.o
 *fill*         0x00000000000196d9        0x3 
 .rodata.ProcessCallBackFunction.constprop.0
                0x00000000000196dc        0x8 /tmp/SetupBrowser.dll.tlhghj.ltrans0.ltrans.o
 .rodata.ExtractDefault.part.0.str1.1
                0x00000000000196e4       0x1d /tmp/SetupBrowser.dll.tlhghj.ltrans0.ltrans.o
 *fill*         0x0000000000019701        0x1 
 .rodata.str2.2
                0x0000000000019702       0x18 /tmp/SetupBrowser.dll.tlhghj.ltrans0.ltrans.o
 *fill*         0x000000000001971a        0x6 
 .rodata.CSWTCH.244
                0x0000000000019720       0x20 /tmp/SetupBrowser.dll.tlhghj.ltrans0.ltrans.o
 .rodata.__FUNCTION__.1941
                0x0000000000019740        0x8 /tmp/SetupBrowser.dll.tlhghj.ltrans0.ltrans.o
 .rodata.__FUNCTION__.1952
                0x0000000000019748        0x9 /tmp/SetupBrowser.dll.tlhghj.ltrans0.ltrans.o
 .rodata.__FUNCTION__.1964
                0x0000000000019751        0x8 /tmp/SetupBrowser.dll.tlhghj.ltrans0.ltrans.o
 .rodata.__FUNCTION__.2001
                0x0000000000019759       0x14 /tmp/SetupBrowser.dll.tlhghj.ltrans0.ltrans.o
 .rodata.__FUNCTION__.2031
                0x000000000001976d       0x10 /tmp/SetupBrowser.dll.tlhghj.ltrans0.ltrans.o
 .rodata.mErrorString
                0x000000000001977d      0x2b5 /tmp/SetupBrowser.dll.tlhghj.ltrans0.ltrans.o
 .rodata.mHexStr
                0x0000000000019a32       0x10 /tmp/SetupBrowser.dll.tlhghj.ltrans0.ltrans.o
 .rodata.mWarningString
                0x0000000000019a42       0x96 /tmp/SetupBrowser.dll.tlhghj.ltrans0.ltrans.o
 .rodata.RegisterHotKey.str1.1
                0x0000000000019ad8       0x17 /tmp/SetupBrowser.dll.tlhghj.ltrans1.ltrans.o
                                         0x79 (size before relaxing)
 *fill*         0x0000000000019aef        0x1 
 .rodata.ConfigRequestAdjust.str2.2
                0x0000000000019af0       0x28 /tmp/SetupBrowser.dll.tlhghj.ltrans1.ltrans.o
                                         0x2c (size before relaxing)
 .rodata.ConfigRequestAdjust.str1.1
                0x0000000000019b18       0x23 /tmp/SetupBrowser.dll.tlhghj.ltrans1.ltrans.o
                                         0x59 (size before relaxing)
 .rodata.CleanBrowserStorage.str1.1
                0x0000000000019b3b       0x49 /tmp/SetupBrowser.dll.tlhghj.ltrans1.ltrans.o
 .rodata.ConfigRespToStorage.str2.2
                0x0000000000019b84        0x4 /tmp/SetupBrowser.dll.tlhghj.ltrans1.ltrans.o
 .rodata.ProcessStorage.str1.1
                0x0000000000019b84       0x1b /tmp/SetupBrowser.dll.tlhghj.ltrans1.ltrans.o
                                         0x51 (size before relaxing)
 .rodata.HiiToLower.str1.1
                0x0000000000019b9f       0x1d /tmp/SetupBrowser.dll.tlhghj.ltrans1.ltrans.o
 .rodata.GetSyncRestoreConfigRequest.str1.1
                0x0000000000019bbc       0xaf /tmp/SetupBrowser.dll.tlhghj.ltrans1.ltrans.o
                                         0xc6 (size before relaxing)
 .rodata.GetSyncRestoreConfigRequest.str2.2
                0x0000000000019c6b       0x2e /tmp/SetupBrowser.dll.tlhghj.ltrans1.ltrans.o
 .rodata.ValidateFormSet.str1.1
                0x0000000000019c6b       0x18 /tmp/SetupBrowser.dll.tlhghj.ltrans1.ltrans.o
 .rodata.SetQuestionValue.str1.1
                0x0000000000019c6b       0xaf /tmp/SetupBrowser.dll.tlhghj.ltrans1.ltrans.o
                                         0x35 (size before relaxing)
 .rodata.GetQuestionValue.str1.1
                0x0000000000019c6b       0x4d /tmp/SetupBrowser.dll.tlhghj.ltrans1.ltrans.o
                                         0x6b (size before relaxing)
 .rodata.IsQuestionValueChanged.str1.1
                0x0000000000019cb8       0x1e /tmp/SetupBrowser.dll.tlhghj.ltrans1.ltrans.o
                                         0x70 (size before relaxing)
 .rodata.NewStringCpy.str1.1
                0x0000000000019cd6       0x16 /tmp/SetupBrowser.dll.tlhghj.ltrans1.ltrans.o
 .rodata.InitializeCurrentSetting.str2.2
                0x0000000000019cec       0x3c /tmp/SetupBrowser.dll.tlhghj.ltrans1.ltrans.o
 .rodata.NewStringCat.str1.1
                0x0000000000019d28       0x1a /tmp/SetupBrowser.dll.tlhghj.ltrans1.ltrans.o
 .rodata.GetToken.str2.2
                0x0000000000019d28        0x4 /tmp/SetupBrowser.dll.tlhghj.ltrans1.ltrans.o
 .rodata.GetToken.str1.1
                0x0000000000019d2c       0x17 /tmp/SetupBrowser.dll.tlhghj.ltrans1.ltrans.o
 .rodata.GetQuestionDefault.str1.1
                0x0000000000019d2c       0xd0 /tmp/SetupBrowser.dll.tlhghj.ltrans1.ltrans.o
 .rodata.GetQuestionDefault
                0x0000000000019dfc        0x8 /tmp/SetupBrowser.dll.tlhghj.ltrans1.ltrans.o
 .rodata.NewString.str1.1
                0x0000000000019e04        0xe /tmp/SetupBrowser.dll.tlhghj.ltrans1.ltrans.o
 .rodata.PasswordCheck.str1.1
                0x0000000000019e04       0xd0 /tmp/SetupBrowser.dll.tlhghj.ltrans1.ltrans.o
                                         0x19 (size before relaxing)
 .rodata.InitializeFormSet.str1.1
                0x0000000000019e04      0x19c /tmp/SetupBrowser.dll.tlhghj.ltrans1.ltrans.o
                                        0x20b (size before relaxing)
 .rodata.InitializeFormSet
                0x0000000000019fa0      0x185 /tmp/SetupBrowser.dll.tlhghj.ltrans1.ltrans.o
 .rodata.PopupErrorMessage.str1.1
                0x000000000001a125      0x19c /tmp/SetupBrowser.dll.tlhghj.ltrans1.ltrans.o
                                         0x1a (size before relaxing)
 .rodata.ConfirmSaveFail.str1.1
                0x000000000001a125       0x1d /tmp/SetupBrowser.dll.tlhghj.ltrans1.ltrans.o
 .rodata.ConfirmSaveFail.str2.2
                0x000000000001a142       0x34 /tmp/SetupBrowser.dll.tlhghj.ltrans1.ltrans.o
 .rodata.ValidateQuestion.str1.1
                0x000000000001a176       0x12 /tmp/SetupBrowser.dll.tlhghj.ltrans1.ltrans.o
 .rodata.UiCopyMenuList.str1.1
                0x000000000001a188       0x1d /tmp/SetupBrowser.dll.tlhghj.ltrans1.ltrans.o
 *fill*         0x000000000001a1a5        0x1 
 .rodata.SubmitForSystem.str2.2
                0x000000000001a1a6       0x42 /tmp/SetupBrowser.dll.tlhghj.ltrans1.ltrans.o
 .rodata.SendForm.str1.1
                0x000000000001a1e8      0x1ea /tmp/SetupBrowser.dll.tlhghj.ltrans1.ltrans.o
                                        0x23e (size before relaxing)
 .rodata.SendForm.str2.2
                0x000000000001a3d2       0x42 /tmp/SetupBrowser.dll.tlhghj.ltrans1.ltrans.o
                                          0x2 (size before relaxing)
 *fill*         0x000000000001a3d2        0x2 
 .rodata.SendForm
                0x000000000001a3d4        0x8 /tmp/SetupBrowser.dll.tlhghj.ltrans1.ltrans.o
 .rodata.UiFindParentMenu.str1.1
                0x000000000001a3dc       0x3a /tmp/SetupBrowser.dll.tlhghj.ltrans1.ltrans.o
 .rodata.__stack_chk_fail.str1.1
                0x000000000001a416       0x2e /tmp/SetupBrowser.dll.tlhghj.ltrans1.ltrans.o
 .rodata._ModuleEntryPoint.str1.1
                0x000000000001a444      0x235 /tmp/SetupBrowser.dll.tlhghj.ltrans1.ltrans.o
                                        0x274 (size before relaxing)
 .rodata.CSWTCH.155
                0x000000000001a679        0x3 /tmp/SetupBrowser.dll.tlhghj.ltrans1.ltrans.o
 *(.got .got.*)
 *fill*         0x000000000001a67c        0x4 
 .got           0x000000000001a680        0x8 /home/alastair/pftf-rpi4/edk2/ArmPkg/Library/GccLto/liblto-aarch64.a
                0x000000000001a680                _GLOBAL_OFFSET_TABLE_
 .got.plt       0x000000000001a688       0x18 /home/alastair/pftf-rpi4/edk2/ArmPkg/Library/GccLto/liblto-aarch64.a
 *:AutoGen.obj(.data.g*Guid)

.plt            0x000000000001a6a0        0x0
 .plt           0x000000000001a6a0        0x0 /home/alastair/pftf-rpi4/edk2/ArmPkg/Library/GccLto/liblto-aarch64.a

.data           0x000000000001b000      0x49c
 *(.data .data.* .gnu.linkonce.d.*)
 .data.rel.ro   0x000000000001b000        0x0 /home/alastair/pftf-rpi4/edk2/ArmPkg/Library/GccLto/liblto-aarch64.a
 .data.gBrowserContextList
                0x000000000001b000       0x10 /tmp/SetupBrowser.dll.tlhghj.ltrans0.ltrans.o
                0x000000000001b000                gBrowserContextList
 .data.gBrowserFormSetList
                0x000000000001b010       0x10 /tmp/SetupBrowser.dll.tlhghj.ltrans0.ltrans.o
                0x000000000001b010                gBrowserFormSetList
 .data.gBrowserSaveFailFormSetList
                0x000000000001b020       0x10 /tmp/SetupBrowser.dll.tlhghj.ltrans0.ltrans.o
                0x000000000001b020                gBrowserSaveFailFormSetList
 .data.gBrowserSettingScope
                0x000000000001b030        0x4 /tmp/SetupBrowser.dll.tlhghj.ltrans0.ltrans.o
                0x000000000001b030                gBrowserSettingScope
 *fill*         0x000000000001b034        0x4 
 .data.gBrowserStorageList
                0x000000000001b038       0x10 /tmp/SetupBrowser.dll.tlhghj.ltrans0.ltrans.o
                0x000000000001b038                gBrowserStorageList
 .data.gEfiDevicePathProtocolGuid
                0x000000000001b048       0x10 /tmp/SetupBrowser.dll.tlhghj.ltrans0.ltrans.o
 .data.gEfiGlobalVariableGuid
                0x000000000001b058       0x10 /tmp/SetupBrowser.dll.tlhghj.ltrans0.ltrans.o
 .data.gEfiRegularExpressionProtocolGuid
                0x000000000001b068       0x10 /tmp/SetupBrowser.dll.tlhghj.ltrans0.ltrans.o
 .data.gEfiUnicodeCollation2ProtocolGuid
                0x000000000001b078       0x10 /tmp/SetupBrowser.dll.tlhghj.ltrans0.ltrans.o
 .data.gEfiUserManagerProtocolGuid
                0x000000000001b088       0x10 /tmp/SetupBrowser.dll.tlhghj.ltrans0.ltrans.o
 .data.mPrivateData
                0x000000000001b098       0x98 /tmp/SetupBrowser.dll.tlhghj.ltrans0.ltrans.o
                0x000000000001b098                mPrivateData
 .data.mRefreshEventList
                0x000000000001b130       0x10 /tmp/SetupBrowser.dll.tlhghj.ltrans0.ltrans.o
                0x000000000001b130                mRefreshEventList
 .data.__stack_chk_guard
                0x000000000001b140        0x8 /tmp/SetupBrowser.dll.tlhghj.ltrans1.ltrans.o
                0x000000000001b140                __stack_chk_guard
 .data.gBrowserHotKeyList
                0x000000000001b148       0x10 /tmp/SetupBrowser.dll.tlhghj.ltrans1.ltrans.o
 .data.gEdkiiFormBrowserEx2ProtocolGuid
                0x000000000001b158       0x10 /tmp/SetupBrowser.dll.tlhghj.ltrans1.ltrans.o
 .data.gEdkiiFormBrowserExProtocolGuid
                0x000000000001b168       0x10 /tmp/SetupBrowser.dll.tlhghj.ltrans1.ltrans.o
 .data.gEdkiiFormDisplayEngineProtocolGuid
                0x000000000001b178       0x10 /tmp/SetupBrowser.dll.tlhghj.ltrans1.ltrans.o
 .data.gEdkiiIfrBitVarstoreGuid
                0x000000000001b188       0x10 /tmp/SetupBrowser.dll.tlhghj.ltrans1.ltrans.o
 .data.gEfiDevicePathFromTextProtocolGuid
                0x000000000001b198       0x10 /tmp/SetupBrowser.dll.tlhghj.ltrans1.ltrans.o
 .data.gEfiFormBrowser2ProtocolGuid
                0x000000000001b1a8       0x10 /tmp/SetupBrowser.dll.tlhghj.ltrans1.ltrans.o
 .data.gEfiHiiConfigAccessProtocolGuid
                0x000000000001b1b8       0x10 /tmp/SetupBrowser.dll.tlhghj.ltrans1.ltrans.o
 .data.gEfiHiiConfigRoutingProtocolGuid
                0x000000000001b1c8       0x10 /tmp/SetupBrowser.dll.tlhghj.ltrans1.ltrans.o
 .data.gEfiHiiDatabaseProtocolGuid
                0x000000000001b1d8       0x10 /tmp/SetupBrowser.dll.tlhghj.ltrans1.ltrans.o
 .data.gEfiHiiFontProtocolGuid
                0x000000000001b1e8       0x10 /tmp/SetupBrowser.dll.tlhghj.ltrans1.ltrans.o
 .data.gEfiHiiImageProtocolGuid
                0x000000000001b1f8       0x10 /tmp/SetupBrowser.dll.tlhghj.ltrans1.ltrans.o
 .data.gEfiHiiPlatformSetupFormsetGuid
                0x000000000001b208       0x10 /tmp/SetupBrowser.dll.tlhghj.ltrans1.ltrans.o
 .data.gEfiHiiStandardFormGuid
                0x000000000001b218       0x10 /tmp/SetupBrowser.dll.tlhghj.ltrans1.ltrans.o
 .data.gEfiHiiStringProtocolGuid
                0x000000000001b228       0x10 /tmp/SetupBrowser.dll.tlhghj.ltrans1.ltrans.o
 .data.mBrowserScopeFirstSet
                0x000000000001b238        0x1 /tmp/SetupBrowser.dll.tlhghj.ltrans1.ltrans.o
 *(.bss .bss.*)
 .bss.UsePl011Uart
                0x000000000001b239        0x1 /tmp/SetupBrowser.dll.tlhghj.ltrans0.ltrans.o
 .bss.UsePl011UartSet
                0x000000000001b23a        0x1 /tmp/SetupBrowser.dll.tlhghj.ltrans0.ltrans.o
 *fill*         0x000000000001b23b        0x5 
 .bss.gBS       0x000000000001b240        0x8 /tmp/SetupBrowser.dll.tlhghj.ltrans0.ltrans.o
                0x000000000001b240                gBS
 .bss.gCallbackReconnect
                0x000000000001b248        0x1 /tmp/SetupBrowser.dll.tlhghj.ltrans0.ltrans.o
                0x000000000001b248                gCallbackReconnect
 *fill*         0x000000000001b249        0x7 
 .bss.gCurrentSelection
                0x000000000001b250        0x8 /tmp/SetupBrowser.dll.tlhghj.ltrans0.ltrans.o
                0x000000000001b250                gCurrentSelection
 .bss.gDisplayFormData
                0x000000000001b258       0x90 /tmp/SetupBrowser.dll.tlhghj.ltrans0.ltrans.o
                0x000000000001b258                gDisplayFormData
 .bss.gEmptyString
                0x000000000001b2e8        0x8 /tmp/SetupBrowser.dll.tlhghj.ltrans0.ltrans.o
                0x000000000001b2e8                gEmptyString
 .bss.gHiiDatabase
                0x000000000001b2f0        0x8 /tmp/SetupBrowser.dll.tlhghj.ltrans0.ltrans.o
                0x000000000001b2f0                gHiiDatabase
 .bss.gHiiString
                0x000000000001b2f8        0x8 /tmp/SetupBrowser.dll.tlhghj.ltrans0.ltrans.o
                0x000000000001b2f8                gHiiString
 .bss.gRT       0x000000000001b300        0x8 /tmp/SetupBrowser.dll.tlhghj.ltrans0.ltrans.o
                0x000000000001b300                gRT
 .bss.gResetRequiredFormLevel
                0x000000000001b308        0x1 /tmp/SetupBrowser.dll.tlhghj.ltrans0.ltrans.o
                0x000000000001b308                gResetRequiredFormLevel
 .bss.gResetRequiredSystemLevel
                0x000000000001b309        0x1 /tmp/SetupBrowser.dll.tlhghj.ltrans0.ltrans.o
                0x000000000001b309                gResetRequiredSystemLevel
 .bss.mDynamicFormUpdated
                0x000000000001b30a        0x1 /tmp/SetupBrowser.dll.tlhghj.ltrans0.ltrans.o
                0x000000000001b30a                mDynamicFormUpdated
 *fill*         0x000000000001b30b        0x5 
 .bss.mExpressionEvaluationStack
                0x000000000001b310        0x8 /tmp/SetupBrowser.dll.tlhghj.ltrans0.ltrans.o
 .bss.mExpressionEvaluationStackEnd
                0x000000000001b318        0x8 /tmp/SetupBrowser.dll.tlhghj.ltrans0.ltrans.o
 .bss.mExpressionEvaluationStackOffset
                0x000000000001b320        0x8 /tmp/SetupBrowser.dll.tlhghj.ltrans0.ltrans.o
 .bss.mExpressionEvaluationStackPointer
                0x000000000001b328        0x8 /tmp/SetupBrowser.dll.tlhghj.ltrans0.ltrans.o
 .bss.mFormDisplay
                0x000000000001b330        0x8 /tmp/SetupBrowser.dll.tlhghj.ltrans0.ltrans.o
                0x000000000001b330                mFormDisplay
 .bss.mFormExpressionEnd
                0x000000000001b338        0x8 /tmp/SetupBrowser.dll.tlhghj.ltrans0.ltrans.o
 .bss.mFormExpressionPointer
                0x000000000001b340        0x8 /tmp/SetupBrowser.dll.tlhghj.ltrans0.ltrans.o
                0x000000000001b340                mFormExpressionPointer
 .bss.mFormExpressionStack
                0x000000000001b348        0x8 /tmp/SetupBrowser.dll.tlhghj.ltrans0.ltrans.o
                0x000000000001b348                mFormExpressionStack
 .bss.mHiiConfigRouting
                0x000000000001b350        0x8 /tmp/SetupBrowser.dll.tlhghj.ltrans0.ltrans.o
                0x000000000001b350                mHiiConfigRouting
 .bss.mHiiDatabase
                0x000000000001b358        0x8 /tmp/SetupBrowser.dll.tlhghj.ltrans0.ltrans.o
                0x000000000001b358                mHiiDatabase
 .bss.mHiiPackageListUpdated
                0x000000000001b360        0x1 /tmp/SetupBrowser.dll.tlhghj.ltrans0.ltrans.o
                0x000000000001b360                mHiiPackageListUpdated
 *fill*         0x000000000001b361        0x7 
 .bss.mOpCodeScopeStack
                0x000000000001b368        0x8 /tmp/SetupBrowser.dll.tlhghj.ltrans0.ltrans.o
                0x000000000001b368                mOpCodeScopeStack
 .bss.mOpCodeScopeStackEnd
                0x000000000001b370        0x8 /tmp/SetupBrowser.dll.tlhghj.ltrans0.ltrans.o
 .bss.mOpCodeScopeStackPointer
                0x000000000001b378        0x8 /tmp/SetupBrowser.dll.tlhghj.ltrans0.ltrans.o
                0x000000000001b378                mOpCodeScopeStackPointer
 .bss.mOptionExpressionEnd
                0x000000000001b380        0x8 /tmp/SetupBrowser.dll.tlhghj.ltrans0.ltrans.o
 .bss.mOptionExpressionPointer
                0x000000000001b388        0x8 /tmp/SetupBrowser.dll.tlhghj.ltrans0.ltrans.o
                0x000000000001b388                mOptionExpressionPointer
 .bss.mOptionExpressionStack
                0x000000000001b390        0x8 /tmp/SetupBrowser.dll.tlhghj.ltrans0.ltrans.o
                0x000000000001b390                mOptionExpressionStack
 .bss.mPathFromText
                0x000000000001b398        0x8 /tmp/SetupBrowser.dll.tlhghj.ltrans0.ltrans.o
                0x000000000001b398                mPathFromText
 .bss.mStatementExpressionEnd
                0x000000000001b3a0        0x8 /tmp/SetupBrowser.dll.tlhghj.ltrans0.ltrans.o
 .bss.mStatementExpressionPointer
                0x000000000001b3a8        0x8 /tmp/SetupBrowser.dll.tlhghj.ltrans0.ltrans.o
                0x000000000001b3a8                mStatementExpressionPointer
 .bss.mStatementExpressionStack
                0x000000000001b3b0        0x8 /tmp/SetupBrowser.dll.tlhghj.ltrans0.ltrans.o
                0x000000000001b3b0                mStatementExpressionStack
 .bss.mStatementIndex
                0x000000000001b3b8        0x8 /tmp/SetupBrowser.dll.tlhghj.ltrans0.ltrans.o
                0x000000000001b3b8                mStatementIndex
 .bss.mSystemLevelFormSet
                0x000000000001b3c0        0x8 /tmp/SetupBrowser.dll.tlhghj.ltrans0.ltrans.o
                0x000000000001b3c0                mSystemLevelFormSet
 .bss.mUnicodeCollation
                0x000000000001b3c8        0x8 /tmp/SetupBrowser.dll.tlhghj.ltrans0.ltrans.o
 .bss.mUserManager
                0x000000000001b3d0        0x8 /tmp/SetupBrowser.dll.tlhghj.ltrans0.ltrans.o
 .bss.mValueChangedEvent
                0x000000000001b3d8        0x8 /tmp/SetupBrowser.dll.tlhghj.ltrans0.ltrans.o
                0x000000000001b3d8                mValueChangedEvent
 .bss.ExitHandlerFunction
                0x000000000001b3e0        0x8 /tmp/SetupBrowser.dll.tlhghj.ltrans1.ltrans.o
 .bss.gBrowserContextCount
                0x000000000001b3e8        0x8 /tmp/SetupBrowser.dll.tlhghj.ltrans1.ltrans.o
 .bss.gExitRequired
                0x000000000001b3f0        0x1 /tmp/SetupBrowser.dll.tlhghj.ltrans1.ltrans.o
 .bss.gFlagReconnect
                0x000000000001b3f1        0x1 /tmp/SetupBrowser.dll.tlhghj.ltrans1.ltrans.o
 *fill*         0x000000000001b3f2        0x6 
 .bss.gHiiConfigRouting
                0x000000000001b3f8        0x8 /tmp/SetupBrowser.dll.tlhghj.ltrans1.ltrans.o
 .bss.gHiiFont  0x000000000001b400        0x8 /tmp/SetupBrowser.dll.tlhghj.ltrans1.ltrans.o
 .bss.gHiiImage
                0x000000000001b408        0x8 /tmp/SetupBrowser.dll.tlhghj.ltrans1.ltrans.o
 .bss.gImageHandle
                0x000000000001b410        0x8 /tmp/SetupBrowser.dll.tlhghj.ltrans1.ltrans.o
 .bss.gST       0x000000000001b418        0x8 /tmp/SetupBrowser.dll.tlhghj.ltrans1.ltrans.o
 .bss.gZeroGuid
                0x000000000001b420       0x10 /tmp/SetupBrowser.dll.tlhghj.ltrans1.ltrans.o
 .bss.mCurFakeQestId
                0x000000000001b430        0x2 /tmp/SetupBrowser.dll.tlhghj.ltrans1.ltrans.o
 *fill*         0x000000000001b432        0x6 
 .bss.mCurrentExpressionEnd
                0x000000000001b438        0x8 /tmp/SetupBrowser.dll.tlhghj.ltrans1.ltrans.o
 .bss.mCurrentExpressionPointer
                0x000000000001b440        0x8 /tmp/SetupBrowser.dll.tlhghj.ltrans1.ltrans.o
 .bss.mCurrentExpressionStack
                0x000000000001b448        0x8 /tmp/SetupBrowser.dll.tlhghj.ltrans1.ltrans.o
 .bss.mCurrentFormId
                0x000000000001b450        0x2 /tmp/SetupBrowser.dll.tlhghj.ltrans1.ltrans.o
 *fill*         0x000000000001b452        0x2 
 .bss.mCurrentFormSetGuid
                0x000000000001b454       0x10 /tmp/SetupBrowser.dll.tlhghj.ltrans1.ltrans.o
 *fill*         0x000000000001b464        0x4 
 .bss.mCurrentHiiHandle
                0x000000000001b468        0x8 /tmp/SetupBrowser.dll.tlhghj.ltrans1.ltrans.o
 .bss.mExpressionOpCodeIndex
                0x000000000001b470        0x8 /tmp/SetupBrowser.dll.tlhghj.ltrans1.ltrans.o
 .bss.mFinishRetrieveCall
                0x000000000001b478        0x1 /tmp/SetupBrowser.dll.tlhghj.ltrans1.ltrans.o
 *fill*         0x000000000001b479        0x7 
 .bss.mMapExpressionListEnd
                0x000000000001b480        0x8 /tmp/SetupBrowser.dll.tlhghj.ltrans1.ltrans.o
 .bss.mMapExpressionListPointer
                0x000000000001b488        0x8 /tmp/SetupBrowser.dll.tlhghj.ltrans1.ltrans.o
 .bss.mMapExpressionListStack
                0x000000000001b490        0x8 /tmp/SetupBrowser.dll.tlhghj.ltrans1.ltrans.o
 .bss.mSystemSubmit
                0x000000000001b498        0x1 /tmp/SetupBrowser.dll.tlhghj.ltrans1.ltrans.o
 *fill*         0x000000000001b499        0x1 
 .bss.mUsedQuestionId
                0x000000000001b49a        0x2 /tmp/SetupBrowser.dll.tlhghj.ltrans1.ltrans.o

.dynbss         0x000000000001b49c        0x0
 .dynbss        0x000000000001b49c        0x0 /home/alastair/pftf-rpi4/edk2/ArmPkg/Library/GccLto/liblto-aarch64.a

.eh_frame
 *(.eh_frame)

.rela           0x000000000001b4a0      0x2a0
 *(.rela .rela.*)
 .rela.got      0x000000000001b4a0        0x0 /home/alastair/pftf-rpi4/edk2/ArmPkg/Library/GccLto/liblto-aarch64.a
 .rela.plt      0x000000000001b4a0        0x0 /home/alastair/pftf-rpi4/edk2/ArmPkg/Library/GccLto/liblto-aarch64.a
 .rela.bss      0x000000000001b4a0        0x0 /home/alastair/pftf-rpi4/edk2/ArmPkg/Library/GccLto/liblto-aarch64.a
 .rela.data.rel.ro
                0x000000000001b4a0        0x0 /home/alastair/pftf-rpi4/edk2/ArmPkg/Library/GccLto/liblto-aarch64.a
 .rela.ifunc    0x000000000001b4a0        0x0 /home/alastair/pftf-rpi4/edk2/ArmPkg/Library/GccLto/liblto-aarch64.a
 .rela.data.gBrowserContextList
                0x000000000001b4a0       0x30 /home/alastair/pftf-rpi4/edk2/ArmPkg/Library/GccLto/liblto-aarch64.a
 .rela.data.gBrowserFormSetList
                0x000000000001b4d0       0x30 /home/alastair/pftf-rpi4/edk2/ArmPkg/Library/GccLto/liblto-aarch64.a
 .rela.data.gBrowserSaveFailFormSetList
                0x000000000001b500       0x30 /home/alastair/pftf-rpi4/edk2/ArmPkg/Library/GccLto/liblto-aarch64.a
 .rela.data.gBrowserStorageList
                0x000000000001b530       0x30 /home/alastair/pftf-rpi4/edk2/ArmPkg/Library/GccLto/liblto-aarch64.a
 .rela.data.mPrivateData
                0x000000000001b560      0x120 /home/alastair/pftf-rpi4/edk2/ArmPkg/Library/GccLto/liblto-aarch64.a
 .rela.data.mRefreshEventList
                0x000000000001b680       0x30 /home/alastair/pftf-rpi4/edk2/ArmPkg/Library/GccLto/liblto-aarch64.a
 .rela.rodata.CSWTCH.244
                0x000000000001b6b0       0x60 /home/alastair/pftf-rpi4/edk2/ArmPkg/Library/GccLto/liblto-aarch64.a
 .rela.data.gBrowserHotKeyList
                0x000000000001b710       0x30 /home/alastair/pftf-rpi4/edk2/ArmPkg/Library/GccLto/liblto-aarch64.a

.hii
 *(.hii)

.build-id       0x000000000001b740       0x24
 *(.note.gnu.build-id)
 .note.gnu.build-id
                0x000000000001b740       0x24 /home/alastair/pftf-rpi4/edk2/ArmPkg/Library/GccLto/liblto-aarch64.a

/DISCARD/
 *(.note.GNU-stack)
 *(.gnu_debuglink)
 *(.interp)
 *(.dynsym)
 *(.dynstr)
 *(.dynamic)
 *(.hash .gnu.hash)
 *(.comment)
 *(COMMON)
                0x0000000000000228                PECOFF_HEADER_SIZE = 0x228
OUTPUT(/home/alastair/pftf-rpi4/Build/RPi4/DEBUG_GCC5/AARCH64/MdeModulePkg/Universal/SetupBrowserDxe/SetupBrowserDxe/DEBUG/SetupBrowser.dll elf64-littleaarch64)
LOAD linker stubs

.debug_info     0x0000000000000000    0x52784
 .debug_info    0x0000000000000000     0xde70 /tmp/SetupBrowser.dll.tlhghj.ltrans0.ltrans.o
 .debug_info    0x000000000000de70     0xc8aa /tmp/SetupBrowser.dll.tlhghj.ltrans1.ltrans.o
 .debug_info    0x000000000001a71a     0x1a57 /tmp/ccW3BGun.debug.temp.o
                0x000000000001a71a                DriverEntryPoint.c.9519b125
 .debug_info    0x000000000001c171      0x187 /tmp/cc5Ugwjl.debug.temp.o
                0x000000000001c171                BaseStackCheckGcc.c.9918e4ed
 .debug_info    0x000000000001c2f8      0x1d7 /tmp/ccU9t26k.debug.temp.o
                0x000000000001c2f8                memcpy.c.992e94b8
 .debug_info    0x000000000001c4cf      0x188 /tmp/ccIhRkFj.debug.temp.o
                0x000000000001c4cf                memset.c.d190684e
 .debug_info    0x000000000001c657     0x1f05 /tmp/cc2uEz8l.debug.temp.o
                0x000000000001c657                AutoGen.c.f1688647
 .debug_info    0x000000000001e55c     0x6145 /tmp/ccSIu28m.debug.temp.o
                0x000000000001e55c                Setup.c.5f3f8636
 .debug_info    0x00000000000246a1     0x5289 /tmp/ccVbuVNk.debug.temp.o
                0x00000000000246a1                IfrParse.c.9018d2d1
 .debug_info    0x000000000002992a     0x4e8a /tmp/ccvYXzWj.debug.temp.o
                0x000000000002992a                Expression.c.5730910d
 .debug_info    0x000000000002e7b4     0x4654 /tmp/ccJYMWUi.debug.temp.o
                0x000000000002e7b4                Presentation.c.8455788b
 .debug_info    0x0000000000032e08      0x21d /tmp/ccxV24kj.debug.temp.o
                0x0000000000032e08                MemLibGuid.c.2ca06148
 .debug_info    0x0000000000033025      0x17a /tmp/cczqUatm.debug.temp.o
                0x0000000000033025                ZeroMemWrapper.c.8dc042f6
 .debug_info    0x000000000003319f      0x1a7 /tmp/ccmIloBk.debug.temp.o
                0x000000000003319f                CompareMemWrapper.c.96cbdc30
 .debug_info    0x0000000000033346      0x191 /tmp/ccd7Pd4l.debug.temp.o
                0x0000000000033346                CopyMemWrapper.c.8ed793a8
 .debug_info    0x00000000000334d7      0x1db /tmp/ccpvPONk.debug.temp.o
                0x00000000000334d7                RShiftU64.c.a990dafe
 .debug_info    0x00000000000336b2      0x1db /tmp/ccOXwS4k.debug.temp.o
                0x00000000000336b2                MultU64x32.c.c8a7ecd3
 .debug_info    0x000000000003388d      0x1db /tmp/ccsCBrbn.debug.temp.o
                0x000000000003388d                LShiftU64.c.b38ec6e2
 .debug_info    0x0000000000033a68      0x1e5 /tmp/cc3ahQhj.debug.temp.o
                0x0000000000033a68                DivU64x32Remainder.c.19070deb
 .debug_info    0x0000000000033c4d      0x1cf /tmp/ccicC96m.debug.temp.o
                0x0000000000033c4d                DivU64x32.c.5786a729
 .debug_info    0x0000000000033e1c      0x89f /tmp/ccl6d0Ti.debug.temp.o
                0x0000000000033e1c                BitField.c.3a65c514
 .debug_info    0x00000000000346bb      0x1d0 /tmp/ccCzvjLj.debug.temp.o
                0x00000000000346bb                CpuDeadLoop.c.e33e7959
 .debug_info    0x000000000003488b      0x428 /tmp/ccTs2MLk.debug.temp.o
                0x000000000003488b                LinkedList.c.6e13becc
 .debug_info    0x0000000000034cb3     0x1004 /tmp/cc88nAck.debug.temp.o
                0x0000000000034cb3                SafeString.c.d8550fea
 .debug_info    0x0000000000035cb7      0x7f3 /tmp/cc3m4xNj.debug.temp.o
                0x0000000000035cb7                String.c.753c3495
 .debug_info    0x00000000000364aa      0x43c /tmp/ccRZq7nn.debug.temp.o
                0x00000000000364aa                Math64.c.5e992ad5
 .debug_info    0x00000000000368e6      0x68f /tmp/ccS5dJrl.debug.temp.o
                0x00000000000368e6                PrintLib.c.260a037f
 .debug_info    0x0000000000036f75      0x79a /tmp/cc8GLKIl.debug.temp.o
                0x0000000000036f75                PrintLibInternal.c.92769e0a
 .debug_info    0x000000000003770f      0x3f2 /tmp/ccN6QTOj.debug.temp.o
                0x000000000003770f                DebugLib.c.0df38b98
 .debug_info    0x0000000000037b01     0x18e1 /tmp/cc5mvO4j.debug.temp.o
                0x0000000000037b01                UefiBootServicesTableLib.c.c00a3dd8
 .debug_info    0x00000000000393e2     0x1de0 /tmp/ccUqGt7k.debug.temp.o
                0x00000000000393e2                MemoryAllocationLib.c.774777c4
 .debug_info    0x000000000003b1c2     0x1d7d /tmp/ccFwjs0m.debug.temp.o
                0x000000000003b1c2                DevicePathUtilities.c.94f518f0
 .debug_info    0x000000000003cf3f     0x1953 /tmp/ccW7TI9k.debug.temp.o
                0x000000000003cf3f                DevicePathUtilitiesDxeSmm.c.e3408512
 .debug_info    0x000000000003e892     0x1afe /tmp/cc3kSAsk.debug.temp.o
                0x000000000003e892                UefiDevicePathLib.c.c981cbf5
 .debug_info    0x0000000000040390     0x18b2 /tmp/ccSl4Voj.debug.temp.o
                0x0000000000040390                UefiRuntimeServicesTableLib.c.7b9e7237
 .debug_info    0x0000000000041c42     0x2966 /tmp/cc9uIhAj.debug.temp.o
                0x0000000000041c42                UefiHiiServicesLib.c.57cd5a7f
 .debug_info    0x00000000000445a8     0x27ac /tmp/ccLriuZm.debug.temp.o
                0x00000000000445a8                UefiLib.c.2c69044c
 .debug_info    0x0000000000046d54     0x50c1 /tmp/ccbIeEol.debug.temp.o
                0x0000000000046d54                HiiLib.c.b2279ad8
 .debug_info    0x000000000004be15     0x2b6a /tmp/ccf3ah1l.debug.temp.o
                0x000000000004be15                HiiString.c.d0f43445
 .debug_info    0x000000000004e97f     0x2a1b /tmp/ccRsESKk.debug.temp.o
                0x000000000004e97f                HiiLanguage.c.1635079f
 .debug_info    0x000000000005139a      0x33d /tmp/cc6hY71k.debug.temp.o
                0x000000000005139a                Unaligned.c.4a0798dc
 .debug_info    0x00000000000516d7      0x18d /tmp/ccE5jjaj.debug.temp.o
                0x00000000000516d7                BaseDebugPrintErrorLevelLib.c.afda57b5
 .debug_info    0x0000000000051864      0x201 /tmp/ccpgHf1i.debug.temp.o
                0x0000000000051864                DebugDualSerialPortLib.c.3fe30e88
 .debug_info    0x0000000000051a65      0x2e6 /tmp/cc5boqnn.debug.temp.o
                0x0000000000051a65                DualSerialPortLibCommon.c.2dc6badf
 .debug_info    0x0000000000051d4b      0x503 /tmp/ccs6dXfj.debug.temp.o
                0x0000000000051d4b                IoLibNoIo.c.335a48c4
 .debug_info    0x000000000005224e      0x536 /tmp/ccJRgcqj.debug.temp.o
                0x000000000005224e                PL011UartLib.c.f54a0051

.debug_abbrev   0x0000000000000000     0x45e4
 .debug_abbrev  0x0000000000000000      0x2aa /tmp/SetupBrowser.dll.tlhghj.ltrans0.ltrans.o
 .debug_abbrev  0x00000000000002aa      0x231 /tmp/SetupBrowser.dll.tlhghj.ltrans1.ltrans.o
 .debug_abbrev  0x00000000000004db      0x1e9 /tmp/ccW3BGun.debug.temp.o
 .debug_abbrev  0x00000000000006c4       0xc7 /tmp/cc5Ugwjl.debug.temp.o
 .debug_abbrev  0x000000000000078b       0xee /tmp/ccU9t26k.debug.temp.o
 .debug_abbrev  0x0000000000000879       0xc0 /tmp/ccIhRkFj.debug.temp.o
 .debug_abbrev  0x0000000000000939      0x236 /tmp/cc2uEz8l.debug.temp.o
 .debug_abbrev  0x0000000000000b6f      0x325 /tmp/ccSIu28m.debug.temp.o
 .debug_abbrev  0x0000000000000e94      0x2c7 /tmp/ccVbuVNk.debug.temp.o
 .debug_abbrev  0x000000000000115b      0x318 /tmp/ccvYXzWj.debug.temp.o
 .debug_abbrev  0x0000000000001473      0x318 /tmp/ccJYMWUi.debug.temp.o
 .debug_abbrev  0x000000000000178b       0xce /tmp/ccxV24kj.debug.temp.o
 .debug_abbrev  0x0000000000001859       0xb1 /tmp/cczqUatm.debug.temp.o
 .debug_abbrev  0x000000000000190a       0xb1 /tmp/ccmIloBk.debug.temp.o
 .debug_abbrev  0x00000000000019bb       0xb8 /tmp/ccd7Pd4l.debug.temp.o
 .debug_abbrev  0x0000000000001a73       0xb1 /tmp/ccpvPONk.debug.temp.o
 .debug_abbrev  0x0000000000001b24       0xc0 /tmp/ccOXwS4k.debug.temp.o
 .debug_abbrev  0x0000000000001be4       0xb1 /tmp/ccsCBrbn.debug.temp.o
 .debug_abbrev  0x0000000000001c95       0xb3 /tmp/cc3ahQhj.debug.temp.o
 .debug_abbrev  0x0000000000001d48       0xb1 /tmp/ccicC96m.debug.temp.o
 .debug_abbrev  0x0000000000001df9       0xf9 /tmp/ccl6d0Ti.debug.temp.o
 .debug_abbrev  0x0000000000001ef2       0xb6 /tmp/ccCzvjLj.debug.temp.o
 .debug_abbrev  0x0000000000001fa8      0x139 /tmp/ccTs2MLk.debug.temp.o
 .debug_abbrev  0x00000000000020e1      0x138 /tmp/cc88nAck.debug.temp.o
 .debug_abbrev  0x0000000000002219      0x126 /tmp/cc3m4xNj.debug.temp.o
 .debug_abbrev  0x000000000000233f       0xf9 /tmp/ccRZq7nn.debug.temp.o
 .debug_abbrev  0x0000000000002438      0x150 /tmp/ccS5dJrl.debug.temp.o
 .debug_abbrev  0x0000000000002588      0x161 /tmp/cc8GLKIl.debug.temp.o
 .debug_abbrev  0x00000000000026e9      0x165 /tmp/ccN6QTOj.debug.temp.o
 .debug_abbrev  0x000000000000284e      0x1dd /tmp/cc5mvO4j.debug.temp.o
 .debug_abbrev  0x0000000000002a2b      0x242 /tmp/ccUqGt7k.debug.temp.o
 .debug_abbrev  0x0000000000002c6d      0x240 /tmp/ccFwjs0m.debug.temp.o
 .debug_abbrev  0x0000000000002ead      0x1d4 /tmp/ccW7TI9k.debug.temp.o
 .debug_abbrev  0x0000000000003081      0x1fe /tmp/cc3kSAsk.debug.temp.o
 .debug_abbrev  0x000000000000327f      0x1c3 /tmp/ccSl4Voj.debug.temp.o
 .debug_abbrev  0x0000000000003442      0x216 /tmp/cc9uIhAj.debug.temp.o
 .debug_abbrev  0x0000000000003658      0x267 /tmp/ccLriuZm.debug.temp.o
 .debug_abbrev  0x00000000000038bf      0x315 /tmp/ccbIeEol.debug.temp.o
 .debug_abbrev  0x0000000000003bd4      0x249 /tmp/ccf3ah1l.debug.temp.o
 .debug_abbrev  0x0000000000003e1d      0x209 /tmp/ccRsESKk.debug.temp.o
 .debug_abbrev  0x0000000000004026       0xc9 /tmp/cc6hY71k.debug.temp.o
 .debug_abbrev  0x00000000000040ef       0xc6 /tmp/ccE5jjaj.debug.temp.o
 .debug_abbrev  0x00000000000041b5       0xc4 /tmp/ccpgHf1i.debug.temp.o
 .debug_abbrev  0x0000000000004279      0x108 /tmp/cc5boqnn.debug.temp.o
 .debug_abbrev  0x0000000000004381      0x11f /tmp/ccs6dXfj.debug.temp.o
 .debug_abbrev  0x00000000000044a0      0x144 /tmp/ccJRgcqj.debug.temp.o

.debug_loc      0x0000000000000000    0x2758d
 .debug_loc     0x0000000000000000    0x167ad /tmp/SetupBrowser.dll.tlhghj.ltrans0.ltrans.o
 .debug_loc     0x00000000000167ad    0x10de0 /tmp/SetupBrowser.dll.tlhghj.ltrans1.ltrans.o

.debug_aranges  0x0000000000000000      0xc10
 .debug_aranges
                0x0000000000000000      0x8b0 /tmp/SetupBrowser.dll.tlhghj.ltrans0.ltrans.o
 .debug_aranges
                0x00000000000008b0      0x360 /tmp/SetupBrowser.dll.tlhghj.ltrans1.ltrans.o

.debug_ranges   0x0000000000000000     0x3a10
 .debug_ranges  0x0000000000000000     0x1f70 /tmp/SetupBrowser.dll.tlhghj.ltrans0.ltrans.o
 .debug_ranges  0x0000000000001f70     0x1aa0 /tmp/SetupBrowser.dll.tlhghj.ltrans1.ltrans.o

.debug_line     0x0000000000000000    0x1751d
 .debug_line    0x0000000000000000     0x920a /tmp/SetupBrowser.dll.tlhghj.ltrans0.ltrans.o
 .debug_line    0x000000000000920a     0x75b3 /tmp/SetupBrowser.dll.tlhghj.ltrans1.ltrans.o
 .debug_line    0x00000000000107bd      0x347 /tmp/ccW3BGun.debug.temp.o
 .debug_line    0x0000000000010b04      0x170 /tmp/cc5Ugwjl.debug.temp.o
 .debug_line    0x0000000000010c74      0x171 /tmp/ccU9t26k.debug.temp.o
 .debug_line    0x0000000000010de5      0x171 /tmp/ccIhRkFj.debug.temp.o
 .debug_line    0x0000000000010f56      0x2fb /tmp/cc2uEz8l.debug.temp.o
 .debug_line    0x0000000000011251      0x519 /tmp/ccSIu28m.debug.temp.o
 .debug_line    0x000000000001176a      0x51c /tmp/ccVbuVNk.debug.temp.o
 .debug_line    0x0000000000011c86      0x51e /tmp/ccvYXzWj.debug.temp.o
 .debug_line    0x00000000000121a4      0x520 /tmp/ccJYMWUi.debug.temp.o
 .debug_line    0x00000000000126c4      0x173 /tmp/ccxV24kj.debug.temp.o
 .debug_line    0x0000000000012837      0x173 /tmp/cczqUatm.debug.temp.o
 .debug_line    0x00000000000129aa      0x176 /tmp/ccmIloBk.debug.temp.o
 .debug_line    0x0000000000012b20      0x173 /tmp/ccd7Pd4l.debug.temp.o
 .debug_line    0x0000000000012c93      0x14a /tmp/ccpvPONk.debug.temp.o
 .debug_line    0x0000000000012ddd      0x14b /tmp/ccOXwS4k.debug.temp.o
 .debug_line    0x0000000000012f28      0x14a /tmp/ccsCBrbn.debug.temp.o
 .debug_line    0x0000000000013072      0x153 /tmp/cc3ahQhj.debug.temp.o
 .debug_line    0x00000000000131c5      0x14a /tmp/ccicC96m.debug.temp.o
 .debug_line    0x000000000001330f      0x149 /tmp/ccl6d0Ti.debug.temp.o
 .debug_line    0x0000000000013458      0x14c /tmp/ccCzvjLj.debug.temp.o
 .debug_line    0x00000000000135a4      0x14b /tmp/ccTs2MLk.debug.temp.o
 .debug_line    0x00000000000136ef      0x14b /tmp/cc88nAck.debug.temp.o
 .debug_line    0x000000000001383a      0x147 /tmp/cc3m4xNj.debug.temp.o
 .debug_line    0x0000000000013981      0x147 /tmp/ccRZq7nn.debug.temp.o
 .debug_line    0x0000000000013ac8      0x166 /tmp/ccS5dJrl.debug.temp.o
 .debug_line    0x0000000000013c2e      0x184 /tmp/cc8GLKIl.debug.temp.o
 .debug_line    0x0000000000013db2      0x20c /tmp/ccN6QTOj.debug.temp.o
 .debug_line    0x0000000000013fbe      0x330 /tmp/cc5mvO4j.debug.temp.o
 .debug_line    0x00000000000142ee      0x328 /tmp/ccUqGt7k.debug.temp.o
 .debug_line    0x0000000000014616      0x36c /tmp/ccFwjs0m.debug.temp.o
 .debug_line    0x0000000000014982      0x372 /tmp/ccW7TI9k.debug.temp.o
 .debug_line    0x0000000000014cf4      0x36a /tmp/cc3kSAsk.debug.temp.o
 .debug_line    0x000000000001505e      0x2e9 /tmp/ccSl4Voj.debug.temp.o
 .debug_line    0x0000000000015347      0x400 /tmp/cc9uIhAj.debug.temp.o
 .debug_line    0x0000000000015747      0x36d /tmp/ccLriuZm.debug.temp.o
 .debug_line    0x0000000000015ab4      0x515 /tmp/ccbIeEol.debug.temp.o
 .debug_line    0x0000000000015fc9      0x4f8 /tmp/ccf3ah1l.debug.temp.o
 .debug_line    0x00000000000164c1      0x4fa /tmp/ccRsESKk.debug.temp.o
 .debug_line    0x00000000000169bb      0x14e /tmp/cc6hY71k.debug.temp.o
 .debug_line    0x0000000000016b09      0x198 /tmp/ccE5jjaj.debug.temp.o
 .debug_line    0x0000000000016ca1      0x228 /tmp/ccpgHf1i.debug.temp.o
 .debug_line    0x0000000000016ec9      0x240 /tmp/cc5boqnn.debug.temp.o
 .debug_line    0x0000000000017109      0x16b /tmp/ccs6dXfj.debug.temp.o
 .debug_line    0x0000000000017274      0x2a9 /tmp/ccJRgcqj.debug.temp.o

.debug_str      0x0000000000000000     0xa1f7
 .debug_str     0x0000000000000000      0x33f /tmp/SetupBrowser.dll.tlhghj.ltrans0.ltrans.o
                                        0x346 (size before relaxing)
 .debug_str     0x000000000000033f       0x8d /tmp/SetupBrowser.dll.tlhghj.ltrans1.ltrans.o
                                        0x348 (size before relaxing)
 .debug_str     0x00000000000003cc     0x1530 /tmp/ccW3BGun.debug.temp.o
                                       0x1690 (size before relaxing)
 .debug_str     0x00000000000018fc      0x27a /tmp/cc5Ugwjl.debug.temp.o
                                        0x3af (size before relaxing)
 .debug_str     0x0000000000001b76       0xd3 /tmp/ccU9t26k.debug.temp.o
                                        0x34e (size before relaxing)
 .debug_str     0x0000000000001c49       0x55 /tmp/ccIhRkFj.debug.temp.o
                                        0x342 (size before relaxing)
 .debug_str     0x0000000000001c9e      0xa34 /tmp/cc2uEz8l.debug.temp.o
                                       0x1fbd (size before relaxing)
 .debug_str     0x00000000000026d2     0x2039 /tmp/ccSIu28m.debug.temp.o
                                       0x4023 (size before relaxing)
 .debug_str     0x000000000000470b      0x82b /tmp/ccVbuVNk.debug.temp.o
                                       0x3d3a (size before relaxing)
 .debug_str     0x0000000000004f36      0xbf1 /tmp/ccvYXzWj.debug.temp.o
                                       0x3dbe (size before relaxing)
 .debug_str     0x0000000000005b27      0x570 /tmp/ccJYMWUi.debug.temp.o
                                       0x3844 (size before relaxing)
 .debug_str     0x0000000000006097      0x10c /tmp/ccxV24kj.debug.temp.o
                                        0x3ad (size before relaxing)
 .debug_str     0x00000000000061a3       0x52 /tmp/cczqUatm.debug.temp.o
                                        0x358 (size before relaxing)
 .debug_str     0x00000000000061f5       0x74 /tmp/ccmIloBk.debug.temp.o
                                        0x381 (size before relaxing)
 .debug_str     0x0000000000006269       0x52 /tmp/ccd7Pd4l.debug.temp.o
                                        0x370 (size before relaxing)
 .debug_str     0x00000000000062bb       0x97 /tmp/ccpvPONk.debug.temp.o
                                        0x465 (size before relaxing)
 .debug_str     0x0000000000006352       0x5a /tmp/ccOXwS4k.debug.temp.o
                                        0x472 (size before relaxing)
 .debug_str     0x00000000000063ac       0x41 /tmp/ccsCBrbn.debug.temp.o
                                        0x465 (size before relaxing)
 .debug_str     0x00000000000063ed       0x6e /tmp/cc3ahQhj.debug.temp.o
                                        0x47e (size before relaxing)
 .debug_str     0x000000000000645b       0x41 /tmp/ccicC96m.debug.temp.o
                                        0x462 (size before relaxing)
 .debug_str     0x000000000000649c      0x207 /tmp/ccl6d0Ti.debug.temp.o
                                        0x64e (size before relaxing)
 .debug_str     0x00000000000066a3       0x4f /tmp/ccCzvjLj.debug.temp.o
                                        0x461 (size before relaxing)
 .debug_str     0x00000000000066f2      0x11a /tmp/ccTs2MLk.debug.temp.o
                                        0x571 (size before relaxing)
 .debug_str     0x000000000000680c      0x2e5 /tmp/cc88nAck.debug.temp.o
                                        0x82d (size before relaxing)
 .debug_str     0x0000000000006af1      0x2da /tmp/cc3m4xNj.debug.temp.o
                                        0x7e2 (size before relaxing)
 .debug_str     0x0000000000006dcb      0x187 /tmp/ccRZq7nn.debug.temp.o
                                        0x5df (size before relaxing)
 .debug_str     0x0000000000006f52      0x261 /tmp/ccS5dJrl.debug.temp.o
                                        0x5a2 (size before relaxing)
 .debug_str     0x00000000000071b3      0x23e /tmp/cc8GLKIl.debug.temp.o
                                        0x70c (size before relaxing)
 .debug_str     0x00000000000073f1      0x1f6 /tmp/ccN6QTOj.debug.temp.o
                                        0x5c4 (size before relaxing)
 .debug_str     0x00000000000075e7       0xfd /tmp/cc5mvO4j.debug.temp.o
                                       0x156d (size before relaxing)
 .debug_str     0x00000000000076e4      0x30a /tmp/ccUqGt7k.debug.temp.o
                                       0x17d9 (size before relaxing)
 .debug_str     0x00000000000079ee      0x3e7 /tmp/ccFwjs0m.debug.temp.o
                                       0x1974 (size before relaxing)
 .debug_str     0x0000000000007dd5       0x70 /tmp/ccW7TI9k.debug.temp.o
                                       0x1658 (size before relaxing)
 .debug_str     0x0000000000007e45       0xbc /tmp/cc3kSAsk.debug.temp.o
                                       0x17d8 (size before relaxing)
 .debug_str     0x0000000000007f01      0x10c /tmp/ccSl4Voj.debug.temp.o
                                       0x156f (size before relaxing)
 .debug_str     0x000000000000800d      0x741 /tmp/cc9uIhAj.debug.temp.o
                                       0x21db (size before relaxing)
 .debug_str     0x000000000000874e      0x70e /tmp/ccLriuZm.debug.temp.o
                                       0x20b1 (size before relaxing)
 .debug_str     0x0000000000008e5c      0xa6e /tmp/ccbIeEol.debug.temp.o
                                       0x35e9 (size before relaxing)
 .debug_str     0x00000000000098ca       0xc6 /tmp/ccf3ah1l.debug.temp.o
                                       0x2450 (size before relaxing)
 .debug_str     0x0000000000009990       0x89 /tmp/ccRsESKk.debug.temp.o
                                       0x23c2 (size before relaxing)
 .debug_str     0x0000000000009a19       0xde /tmp/cc6hY71k.debug.temp.o
                                        0x508 (size before relaxing)
 .debug_str     0x0000000000009af7      0x115 /tmp/ccE5jjaj.debug.temp.o
                                        0x3e0 (size before relaxing)
 .debug_str     0x0000000000009c0c      0x102 /tmp/ccpgHf1i.debug.temp.o
                                        0x516 (size before relaxing)
 .debug_str     0x0000000000009d0e      0x101 /tmp/cc5boqnn.debug.temp.o
                                        0x5b3 (size before relaxing)
 .debug_str     0x0000000000009e0f      0x1ab /tmp/ccs6dXfj.debug.temp.o
                                        0x44d (size before relaxing)
 .debug_str     0x0000000000009fba      0x23d /tmp/ccJRgcqj.debug.temp.o
                                        0x818 (size before relaxing)

.debug_frame    0x0000000000000000     0x2780
 .debug_frame   0x0000000000000000     0x1af0 /tmp/SetupBrowser.dll.tlhghj.ltrans0.ltrans.o
 .debug_frame   0x0000000000001af0      0xc90 /tmp/SetupBrowser.dll.tlhghj.ltrans1.ltrans.o
