Archive member included to satisfy reference by file (symbol)

/home/alastair/pftf-rpi4/Build/RPi4/DEBUG_GCC5/AARCH64/MdePkg/Library/UefiDriverEntryPoint/UefiDriverEntryPoint/OUTPUT/UefiDriverEntryPoint.lib(DriverEntryPoint.obj)
                              (_ModuleEntryPoint)
/home/alastair/pftf-rpi4/Build/RPi4/DEBUG_GCC5/AARCH64/MdePkg/Library/BaseStackCheckLib/BaseStackCheckLib/OUTPUT/BaseStackCheckLib.lib(BaseStackCheckGcc.obj)
                              /home/alastair/pftf-rpi4/edk2/ArmPkg/Library/GccLto/liblto-aarch64.a (__stack_chk_fail)
/home/alastair/pftf-rpi4/Build/RPi4/DEBUG_GCC5/AARCH64/ArmPkg/Library/CompilerIntrinsicsLib/CompilerIntrinsicsLib/OUTPUT/CompilerIntrinsicsLib.lib(memcpy.obj)
                              /home/alastair/pftf-rpi4/edk2/ArmPkg/Library/GccLto/liblto-aarch64.a (memcpy)
/home/alastair/pftf-rpi4/Build/RPi4/DEBUG_GCC5/AARCH64/ArmPkg/Library/CompilerIntrinsicsLib/CompilerIntrinsicsLib/OUTPUT/CompilerIntrinsicsLib.lib(memset.obj)
                              /home/alastair/pftf-rpi4/edk2/ArmPkg/Library/GccLto/liblto-aarch64.a (memset)
/home/alastair/pftf-rpi4/Build/RPi4/DEBUG_GCC5/AARCH64/NetworkPkg/Ip4Dxe/Ip4Dxe/OUTPUT/Ip4Dxe.lib(AutoGen.obj)
                              DriverEntryPoint.obj (symbol from plugin) (ProcessLibraryConstructorList)
/home/alastair/pftf-rpi4/Build/RPi4/DEBUG_GCC5/AARCH64/NetworkPkg/Ip4Dxe/Ip4Dxe/OUTPUT/Ip4Dxe.lib(Ip4Driver.obj)
                              AutoGen.obj (symbol from plugin) (Ip4DriverEntryPoint)
/home/alastair/pftf-rpi4/Build/RPi4/DEBUG_GCC5/AARCH64/NetworkPkg/Ip4Dxe/Ip4Dxe/OUTPUT/Ip4Dxe.lib(Ip4If.obj)
                              Ip4Driver.obj (symbol from plugin) (Ip4CreateInterface)
/home/alastair/pftf-rpi4/Build/RPi4/DEBUG_GCC5/AARCH64/NetworkPkg/Ip4Dxe/Ip4Dxe/OUTPUT/Ip4Dxe.lib(Ip4Output.obj)
                              Ip4Driver.obj (symbol from plugin) (mIp4Id)
/home/alastair/pftf-rpi4/Build/RPi4/DEBUG_GCC5/AARCH64/NetworkPkg/Ip4Dxe/Ip4Dxe/OUTPUT/Ip4Dxe.lib(Ip4Igmp.obj)
                              Ip4Driver.obj (symbol from plugin) (Ip4InitIgmp)
/home/alastair/pftf-rpi4/Build/RPi4/DEBUG_GCC5/AARCH64/NetworkPkg/Ip4Dxe/Ip4Dxe/OUTPUT/Ip4Dxe.lib(Ip4Impl.obj)
                              Ip4Driver.obj (symbol from plugin) (Ip4ServiceConfigMnp)
/home/alastair/pftf-rpi4/Build/RPi4/DEBUG_GCC5/AARCH64/NetworkPkg/Ip4Dxe/Ip4Dxe/OUTPUT/Ip4Dxe.lib(Ip4Common.obj)
                              Ip4Output.obj (symbol from plugin) (Ip4GetNetCast)
/home/alastair/pftf-rpi4/Build/RPi4/DEBUG_GCC5/AARCH64/NetworkPkg/Ip4Dxe/Ip4Dxe/OUTPUT/Ip4Dxe.lib(Ip4Option.obj)
                              Ip4Impl.obj (symbol from plugin) (Ip4OptionIsValid)
/home/alastair/pftf-rpi4/Build/RPi4/DEBUG_GCC5/AARCH64/NetworkPkg/Ip4Dxe/Ip4Dxe/OUTPUT/Ip4Dxe.lib(ComponentName.obj)
                              Ip4Driver.obj (symbol from plugin) (gIp4ComponentName)
/home/alastair/pftf-rpi4/Build/RPi4/DEBUG_GCC5/AARCH64/NetworkPkg/Ip4Dxe/Ip4Dxe/OUTPUT/Ip4Dxe.lib(Ip4Route.obj)
                              Ip4If.obj (symbol from plugin) (Ip4FreeRouteCacheEntry)
/home/alastair/pftf-rpi4/Build/RPi4/DEBUG_GCC5/AARCH64/NetworkPkg/Ip4Dxe/Ip4Dxe/OUTPUT/Ip4Dxe.lib(Ip4Input.obj)
                              Ip4Driver.obj (symbol from plugin) (Ip4InitAssembleTable)
/home/alastair/pftf-rpi4/Build/RPi4/DEBUG_GCC5/AARCH64/NetworkPkg/Ip4Dxe/Ip4Dxe/OUTPUT/Ip4Dxe.lib(Ip4Config2Impl.obj)
                              Ip4Driver.obj (symbol from plugin) (Ip4Config2DestroyDhcp4)
/home/alastair/pftf-rpi4/Build/RPi4/DEBUG_GCC5/AARCH64/NetworkPkg/Ip4Dxe/Ip4Dxe/OUTPUT/Ip4Dxe.lib(Ip4Config2Nv.obj)
                              Ip4Config2Impl.obj (symbol from plugin) (Ip4Config2FormUnload)
/home/alastair/pftf-rpi4/Build/RPi4/DEBUG_GCC5/AARCH64/NetworkPkg/Ip4Dxe/Ip4Dxe/OUTPUT/Ip4Dxe.lib(Ip4Icmp.obj)
                              Ip4Input.obj (symbol from plugin) (Ip4IcmpHandle)
/home/alastair/pftf-rpi4/Build/RPi4/DEBUG_GCC5/AARCH64/NetworkPkg/Ip4Dxe/Ip4Dxe/OUTPUT/Ip4Dxe.lib(Ip4Config2.obj)
                              Ip4Config2Nv.obj (symbol from plugin) (Ip4Config2Bin)
/home/alastair/pftf-rpi4/Build/RPi4/DEBUG_GCC5/AARCH64/MdePkg/Library/BaseMemoryLibOptDxe/BaseMemoryLibOptDxe/OUTPUT/BaseMemoryLibOptDxe.lib(MemLibGuid.obj)
                              Ip4Config2Nv.obj (symbol from plugin) (CopyGuid)
/home/alastair/pftf-rpi4/Build/RPi4/DEBUG_GCC5/AARCH64/MdePkg/Library/BaseMemoryLibOptDxe/BaseMemoryLibOptDxe/OUTPUT/BaseMemoryLibOptDxe.lib(ZeroMemWrapper.obj)
                              Ip4Driver.obj (symbol from plugin) (ZeroMem)
/home/alastair/pftf-rpi4/Build/RPi4/DEBUG_GCC5/AARCH64/MdePkg/Library/BaseMemoryLibOptDxe/BaseMemoryLibOptDxe/OUTPUT/BaseMemoryLibOptDxe.lib(CompareMemWrapper.obj)
                              Ip4If.obj (symbol from plugin) (CompareMem)
/home/alastair/pftf-rpi4/Build/RPi4/DEBUG_GCC5/AARCH64/MdePkg/Library/BaseMemoryLibOptDxe/BaseMemoryLibOptDxe/OUTPUT/BaseMemoryLibOptDxe.lib(CopyMemWrapper.obj)
                              Ip4If.obj (symbol from plugin) (CopyMem)
/home/alastair/pftf-rpi4/Build/RPi4/DEBUG_GCC5/AARCH64/MdePkg/Library/BaseMemoryLibOptDxe/BaseMemoryLibOptDxe/OUTPUT/BaseMemoryLibOptDxe.lib(SetMem.obj)
                              ZeroMemWrapper.obj (symbol from plugin) (InternalMemZeroMem)
/home/alastair/pftf-rpi4/Build/RPi4/DEBUG_GCC5/AARCH64/MdePkg/Library/BaseMemoryLibOptDxe/BaseMemoryLibOptDxe/OUTPUT/BaseMemoryLibOptDxe.lib(CopyMem.obj)
                              MemLibGuid.obj (symbol from plugin) (InternalMemCopyMem)
/home/alastair/pftf-rpi4/Build/RPi4/DEBUG_GCC5/AARCH64/MdePkg/Library/BaseMemoryLibOptDxe/BaseMemoryLibOptDxe/OUTPUT/BaseMemoryLibOptDxe.lib(CompareMem.obj)
                              CompareMemWrapper.obj (symbol from plugin) (InternalMemCompareMem)
/home/alastair/pftf-rpi4/Build/RPi4/DEBUG_GCC5/AARCH64/MdePkg/Library/BaseMemoryLibOptDxe/BaseMemoryLibOptDxe/OUTPUT/BaseMemoryLibOptDxe.lib(CompareGuid.obj)
                              MemLibGuid.obj (symbol from plugin) (InternalMemCompareGuid)
/home/alastair/pftf-rpi4/Build/RPi4/DEBUG_GCC5/AARCH64/MdePkg/Library/BaseLib/BaseLib/OUTPUT/BaseLib.lib(SwapBytes32.obj)
                              Ip4If.obj (symbol from plugin) (SwapBytes32)
/home/alastair/pftf-rpi4/Build/RPi4/DEBUG_GCC5/AARCH64/MdePkg/Library/BaseLib/BaseLib/OUTPUT/BaseLib.lib(SwapBytes16.obj)
                              Ip4Output.obj (symbol from plugin) (SwapBytes16)
/home/alastair/pftf-rpi4/Build/RPi4/DEBUG_GCC5/AARCH64/MdePkg/Library/BaseLib/BaseLib/OUTPUT/BaseLib.lib(CpuDeadLoop.obj)
                              BaseStackCheckGcc.obj (symbol from plugin) (CpuDeadLoop)
/home/alastair/pftf-rpi4/Build/RPi4/DEBUG_GCC5/AARCH64/MdePkg/Library/BaseLib/BaseLib/OUTPUT/BaseLib.lib(LinkedList.obj)
                              Ip4Driver.obj (symbol from plugin) (InitializeListHead)
/home/alastair/pftf-rpi4/Build/RPi4/DEBUG_GCC5/AARCH64/MdePkg/Library/BaseLib/BaseLib/OUTPUT/BaseLib.lib(String.obj)
                              Ip4Config2Nv.obj (symbol from plugin) (StrLen)
/home/alastair/pftf-rpi4/Build/RPi4/DEBUG_GCC5/AARCH64/MdePkg/Library/BaseLib/BaseLib/OUTPUT/BaseLib.lib(CpuBreakpoint.obj)
                              BaseStackCheckGcc.obj (symbol from plugin) (CpuBreakpoint)
/home/alastair/pftf-rpi4/Build/RPi4/DEBUG_GCC5/AARCH64/MdePkg/Library/BaseLib/BaseLib/OUTPUT/BaseLib.lib(SafeString.obj)
                              String.obj (symbol from plugin) (StrDecimalToUintnS)
/home/alastair/pftf-rpi4/Build/RPi4/DEBUG_GCC5/AARCH64/MdePkg/Library/BaseLib/BaseLib/OUTPUT/BaseLib.lib(RShiftU64.obj)
                              SafeString.obj (symbol from plugin) (RShiftU64)
/home/alastair/pftf-rpi4/Build/RPi4/DEBUG_GCC5/AARCH64/MdePkg/Library/BaseLib/BaseLib/OUTPUT/BaseLib.lib(MultU64x32.obj)
                              SafeString.obj (symbol from plugin) (MultU64x32)
/home/alastair/pftf-rpi4/Build/RPi4/DEBUG_GCC5/AARCH64/MdePkg/Library/BaseLib/BaseLib/OUTPUT/BaseLib.lib(LShiftU64.obj)
                              SafeString.obj (symbol from plugin) (LShiftU64)
/home/alastair/pftf-rpi4/Build/RPi4/DEBUG_GCC5/AARCH64/MdePkg/Library/BaseLib/BaseLib/OUTPUT/BaseLib.lib(DivU64x32.obj)
                              SafeString.obj (symbol from plugin) (DivU64x32)
/home/alastair/pftf-rpi4/Build/RPi4/DEBUG_GCC5/AARCH64/MdePkg/Library/BaseLib/BaseLib/OUTPUT/BaseLib.lib(Math64.obj)
                              LShiftU64.obj (symbol from plugin) (InternalMathLShiftU64)
/home/alastair/pftf-rpi4/Build/RPi4/DEBUG_GCC5/AARCH64/MdePkg/Library/BasePrintLib/BasePrintLib/OUTPUT/BasePrintLib.lib(PrintLib.obj)
                              ComponentName.obj (symbol from plugin) (UnicodeSPrint)
/home/alastair/pftf-rpi4/Build/RPi4/DEBUG_GCC5/AARCH64/MdePkg/Library/BasePrintLib/BasePrintLib/OUTPUT/BasePrintLib.lib(PrintLibInternal.obj)
                              PrintLib.obj (symbol from plugin) (BasePrintLibConvertValueToStringS)
/home/alastair/pftf-rpi4/Build/RPi4/DEBUG_GCC5/AARCH64/MdePkg/Library/BaseDebugLibSerialPort/BaseDebugLibSerialPort/OUTPUT/BaseDebugLibSerialPort.lib(DebugLib.obj)
                              AutoGen.obj (symbol from plugin) (BaseDebugLibSerialPortConstructor)
/home/alastair/pftf-rpi4/Build/RPi4/DEBUG_GCC5/AARCH64/MdePkg/Library/UefiBootServicesTableLib/UefiBootServicesTableLib/OUTPUT/UefiBootServicesTableLib.lib(UefiBootServicesTableLib.obj)
                              AutoGen.obj (symbol from plugin) (UefiBootServicesTableLibConstructor)
/home/alastair/pftf-rpi4/Build/RPi4/DEBUG_GCC5/AARCH64/MdePkg/Library/UefiMemoryAllocationLib/UefiMemoryAllocationLib/OUTPUT/UefiMemoryAllocationLib.lib(MemoryAllocationLib.obj)
                              Ip4Driver.obj (symbol from plugin) (AllocatePool)
/home/alastair/pftf-rpi4/Build/RPi4/DEBUG_GCC5/AARCH64/MdePkg/Library/UefiDevicePathLib/UefiDevicePathLib/OUTPUT/UefiDevicePathLib.lib(DevicePathUtilities.obj)
                              Ip4Config2Nv.obj (symbol from plugin) (SetDevicePathNodeLength)
/home/alastair/pftf-rpi4/Build/RPi4/DEBUG_GCC5/AARCH64/MdePkg/Library/UefiDevicePathLib/UefiDevicePathLib/OUTPUT/UefiDevicePathLib.lib(DevicePathUtilitiesDxeSmm.obj)
                              DevicePathUtilities.obj (symbol from plugin) (DevicePathFromHandle)
/home/alastair/pftf-rpi4/Build/RPi4/DEBUG_GCC5/AARCH64/MdePkg/Library/UefiDevicePathLib/UefiDevicePathLib/OUTPUT/UefiDevicePathLib.lib(UefiDevicePathLib.obj)
                              DevicePathUtilities.obj (symbol from plugin) (GetDevicePathSize)
/home/alastair/pftf-rpi4/Build/RPi4/DEBUG_GCC5/AARCH64/MdePkg/Library/UefiDevicePathLib/UefiDevicePathLib/OUTPUT/UefiDevicePathLib.lib(DevicePathToText.obj)
                              UefiDevicePathLib.obj (symbol from plugin) (UefiDevicePathLibConvertDeviceNodeToText)
/home/alastair/pftf-rpi4/Build/RPi4/DEBUG_GCC5/AARCH64/MdePkg/Library/UefiDevicePathLib/UefiDevicePathLib/OUTPUT/UefiDevicePathLib.lib(DevicePathFromText.obj)
                              UefiDevicePathLib.obj (symbol from plugin) (UefiDevicePathLibConvertTextToDeviceNode)
/home/alastair/pftf-rpi4/Build/RPi4/DEBUG_GCC5/AARCH64/MdePkg/Library/UefiRuntimeServicesTableLib/UefiRuntimeServicesTableLib/OUTPUT/UefiRuntimeServicesTableLib.lib(UefiRuntimeServicesTableLib.obj)
                              AutoGen.obj (symbol from plugin) (UefiRuntimeServicesTableLibConstructor)
/home/alastair/pftf-rpi4/Build/RPi4/DEBUG_GCC5/AARCH64/MdePkg/Library/UefiLib/UefiLib/OUTPUT/UefiLib.lib(UefiDriverModel.obj)
                              Ip4Driver.obj (symbol from plugin) (EfiLibInstallDriverBindingComponentName2)
/home/alastair/pftf-rpi4/Build/RPi4/DEBUG_GCC5/AARCH64/MdePkg/Library/UefiLib/UefiLib/OUTPUT/UefiLib.lib(Console.obj)
                              Ip4Config2Nv.obj (symbol from plugin) (CreatePopUp)
/home/alastair/pftf-rpi4/Build/RPi4/DEBUG_GCC5/AARCH64/MdePkg/Library/UefiLib/UefiLib/OUTPUT/UefiLib.lib(UefiLib.obj)
                              AutoGen.obj (symbol from plugin) (UefiLibConstructor)
/home/alastair/pftf-rpi4/Build/RPi4/DEBUG_GCC5/AARCH64/MdeModulePkg/Library/UefiHiiServicesLib/UefiHiiServicesLib/OUTPUT/UefiHiiServicesLib.lib(UefiHiiServicesLib.obj)
                              AutoGen.obj (symbol from plugin) (UefiHiiServicesLibConstructor)
/home/alastair/pftf-rpi4/Build/RPi4/DEBUG_GCC5/AARCH64/NetworkPkg/Library/DxeNetLib/DxeNetLib/OUTPUT/DxeNetLib.lib(DxeNetLib.obj)
                              Ip4Impl.obj (symbol from plugin) (NetGetMaskLength)
/home/alastair/pftf-rpi4/Build/RPi4/DEBUG_GCC5/AARCH64/NetworkPkg/Library/DxeNetLib/DxeNetLib/OUTPUT/DxeNetLib.lib(NetBuffer.obj)
                              Ip4Igmp.obj (symbol from plugin) (NetbufAlloc)
/home/alastair/pftf-rpi4/Build/RPi4/DEBUG_GCC5/AARCH64/NetworkPkg/Library/DxeDpcLib/DxeDpcLib/OUTPUT/DxeDpcLib.lib(DpcLib.obj)
                              AutoGen.obj (symbol from plugin) (DpcLibConstructor)
/home/alastair/pftf-rpi4/Build/RPi4/DEBUG_GCC5/AARCH64/MdeModulePkg/Library/UefiHiiLib/UefiHiiLib/OUTPUT/UefiHiiLib.lib(HiiLib.obj)
                              Ip4Config2Nv.obj (symbol from plugin) (HiiAddPackages)
/home/alastair/pftf-rpi4/Build/RPi4/DEBUG_GCC5/AARCH64/MdeModulePkg/Library/UefiHiiLib/UefiHiiLib/OUTPUT/UefiHiiLib.lib(HiiString.obj)
                              Ip4Config2Nv.obj (symbol from plugin) (HiiSetString)
/home/alastair/pftf-rpi4/Build/RPi4/DEBUG_GCC5/AARCH64/MdeModulePkg/Library/UefiHiiLib/UefiHiiLib/OUTPUT/UefiHiiLib.lib(HiiLanguage.obj)
                              HiiString.obj (symbol from plugin) (HiiGetSupportedLanguages)
/home/alastair/pftf-rpi4/Build/RPi4/DEBUG_GCC5/AARCH64/MdePkg/Library/BaseMemoryLibOptDxe/BaseMemoryLibOptDxe/OUTPUT/BaseMemoryLibOptDxe.lib(SetMem16Wrapper.obj)
                              Console.obj (symbol from plugin) (SetMem16)
/home/alastair/pftf-rpi4/Build/RPi4/DEBUG_GCC5/AARCH64/MdePkg/Library/BaseMemoryLibOptDxe/BaseMemoryLibOptDxe/OUTPUT/BaseMemoryLibOptDxe.lib(SetMemWrapper.obj)
                              DebugLib.obj (symbol from plugin) (SetMem)
/home/alastair/pftf-rpi4/Build/RPi4/DEBUG_GCC5/AARCH64/MdePkg/Library/BaseMemoryLibOptDxe/BaseMemoryLibOptDxe/OUTPUT/BaseMemoryLibOptDxe.lib(SetMem64Wrapper.obj)
                              SetMemWrapper.obj (symbol from plugin) (SetMem64)
/home/alastair/pftf-rpi4/Build/RPi4/DEBUG_GCC5/AARCH64/MdePkg/Library/BaseLib/BaseLib/OUTPUT/BaseLib.lib(SwapBytes64.obj)
                              DevicePathFromText.obj (symbol from plugin) (SwapBytes64)
/home/alastair/pftf-rpi4/Build/RPi4/DEBUG_GCC5/AARCH64/MdePkg/Library/BaseLib/BaseLib/OUTPUT/BaseLib.lib(DivU64x32Remainder.obj)
                              PrintLibInternal.obj (symbol from plugin) (DivU64x32Remainder)
/home/alastair/pftf-rpi4/Build/RPi4/DEBUG_GCC5/AARCH64/MdePkg/Library/BaseLib/BaseLib/OUTPUT/BaseLib.lib(BitField.obj)
                              HiiLib.obj (symbol from plugin) (BitFieldRead32)
/home/alastair/pftf-rpi4/Build/RPi4/DEBUG_GCC5/AARCH64/MdePkg/Library/BaseLib/BaseLib/OUTPUT/BaseLib.lib(Unaligned.obj)
                              PrintLibInternal.obj (symbol from plugin) (ReadUnaligned16)
/home/alastair/pftf-rpi4/Build/RPi4/DEBUG_GCC5/AARCH64/MdePkg/Library/BaseDebugPrintErrorLevelLib/BaseDebugPrintErrorLevelLib/OUTPUT/BaseDebugPrintErrorLevelLib.lib(BaseDebugPrintErrorLevelLib.obj)
                              DebugLib.obj (symbol from plugin) (GetDebugPrintErrorLevel)
/home/alastair/pftf-rpi4/Build/RPi4/DEBUG_GCC5/AARCH64/Platform/RaspberryPi/Library/DualSerialPortLib/DebugDualSerialPortLib/OUTPUT/DebugDualSerialPortLib.lib(DebugDualSerialPortLib.obj)
                              DebugLib.obj (symbol from plugin) (SerialPortInitialize)
/home/alastair/pftf-rpi4/Build/RPi4/DEBUG_GCC5/AARCH64/Platform/RaspberryPi/Library/DualSerialPortLib/DebugDualSerialPortLib/OUTPUT/DebugDualSerialPortLib.lib(DualSerialPortLibCommon.obj)
                              DebugLib.obj (symbol from plugin) (SerialPortWrite)
/home/alastair/pftf-rpi4/Build/RPi4/DEBUG_GCC5/AARCH64/MdePkg/Library/BaseIoLibIntrinsic/BaseIoLibIntrinsic/OUTPUT/BaseIoLibIntrinsic.lib(IoLibNoIo.obj)
                              DualSerialPortLibCommon.obj (symbol from plugin) (MmioRead8)
/home/alastair/pftf-rpi4/Build/RPi4/DEBUG_GCC5/AARCH64/ArmPlatformPkg/Library/PL011UartLib/PL011UartLib/OUTPUT/PL011UartLib.lib(PL011UartLib.obj)
                              DualSerialPortLibCommon.obj (symbol from plugin) (PL011UartWrite)

Discarded input sections

 .text          0x0000000000000000       0x10 /home/alastair/pftf-rpi4/edk2/ArmPkg/Library/GccLto/liblto-aarch64.a
 .data          0x0000000000000000        0x0 /home/alastair/pftf-rpi4/edk2/ArmPkg/Library/GccLto/liblto-aarch64.a
 .bss           0x0000000000000000        0x0 /home/alastair/pftf-rpi4/edk2/ArmPkg/Library/GccLto/liblto-aarch64.a
 .text          0x0000000000000000        0x0 /tmp/Ip4Dxe.dll.v1Cwes.ltrans0.ltrans.o
 .data          0x0000000000000000        0x0 /tmp/Ip4Dxe.dll.v1Cwes.ltrans0.ltrans.o
 .bss           0x0000000000000000        0x0 /tmp/Ip4Dxe.dll.v1Cwes.ltrans0.ltrans.o
 .rodata.IsNodeInList.str1.1
                0x0000000000000000       0x44 /tmp/Ip4Dxe.dll.v1Cwes.ltrans0.ltrans.o
 .text.IsNodeInList
                0x0000000000000000       0xa0 /tmp/Ip4Dxe.dll.v1Cwes.ltrans0.ltrans.o
 .rodata._gPcd_FixedAtBuild_PcdComponentName2Disable
                0x0000000000000000        0x1 /tmp/Ip4Dxe.dll.v1Cwes.ltrans0.ltrans.o
 .rodata._gPcd_FixedAtBuild_PcdDebugPropertyMask
                0x0000000000000000        0x1 /tmp/Ip4Dxe.dll.v1Cwes.ltrans0.ltrans.o
 .rodata._gPcd_FixedAtBuild_PcdFixedDebugPrintErrorLevel
                0x0000000000000000        0x4 /tmp/Ip4Dxe.dll.v1Cwes.ltrans0.ltrans.o
 .rodata._gUefiDriverRevision
                0x0000000000000000        0x4 /tmp/Ip4Dxe.dll.v1Cwes.ltrans0.ltrans.o
 .comment       0x0000000000000000       0x2b /tmp/Ip4Dxe.dll.v1Cwes.ltrans0.ltrans.o
 .note.GNU-stack
                0x0000000000000000        0x0 /tmp/Ip4Dxe.dll.v1Cwes.ltrans0.ltrans.o
 .text          0x0000000000000000        0x0 /tmp/Ip4Dxe.dll.v1Cwes.ltrans1.ltrans.o
 .data          0x0000000000000000        0x0 /tmp/Ip4Dxe.dll.v1Cwes.ltrans1.ltrans.o
 .bss           0x0000000000000000        0x0 /tmp/Ip4Dxe.dll.v1Cwes.ltrans1.ltrans.o
 .text.__memset
                0x0000000000000000       0x1c /tmp/Ip4Dxe.dll.v1Cwes.ltrans1.ltrans.o
 .comment       0x0000000000000000       0x2b /tmp/Ip4Dxe.dll.v1Cwes.ltrans1.ltrans.o
 .note.GNU-stack
                0x0000000000000000        0x0 /tmp/Ip4Dxe.dll.v1Cwes.ltrans1.ltrans.o
 .comment       0x0000000000000000       0x2b /tmp/ccV2P7Gp.debug.temp.o
 .note.GNU-stack
                0x0000000000000000        0x0 /tmp/ccV2P7Gp.debug.temp.o
 .comment       0x0000000000000000       0x2b /tmp/ccOKp0Cq.debug.temp.o
 .note.GNU-stack
                0x0000000000000000        0x0 /tmp/ccOKp0Cq.debug.temp.o
 .comment       0x0000000000000000       0x2b /tmp/ccn3uKqt.debug.temp.o
 .note.GNU-stack
                0x0000000000000000        0x0 /tmp/ccn3uKqt.debug.temp.o
 .comment       0x0000000000000000       0x2b /tmp/ccyxDBxr.debug.temp.o
 .note.GNU-stack
                0x0000000000000000        0x0 /tmp/ccyxDBxr.debug.temp.o
 .comment       0x0000000000000000       0x2b /tmp/ccbI080r.debug.temp.o
 .note.GNU-stack
                0x0000000000000000        0x0 /tmp/ccbI080r.debug.temp.o
 .comment       0x0000000000000000       0x2b /tmp/cc1mrjlp.debug.temp.o
 .note.GNU-stack
                0x0000000000000000        0x0 /tmp/cc1mrjlp.debug.temp.o
 .comment       0x0000000000000000       0x2b /tmp/cciSA5qp.debug.temp.o
 .note.GNU-stack
                0x0000000000000000        0x0 /tmp/cciSA5qp.debug.temp.o
 .comment       0x0000000000000000       0x2b /tmp/cckWRvmp.debug.temp.o
 .note.GNU-stack
                0x0000000000000000        0x0 /tmp/cckWRvmp.debug.temp.o
 .comment       0x0000000000000000       0x2b /tmp/ccmiL6Gr.debug.temp.o
 .note.GNU-stack
                0x0000000000000000        0x0 /tmp/ccmiL6Gr.debug.temp.o
 .comment       0x0000000000000000       0x2b /tmp/cc2VKSVr.debug.temp.o
 .note.GNU-stack
                0x0000000000000000        0x0 /tmp/cc2VKSVr.debug.temp.o
 .comment       0x0000000000000000       0x2b /tmp/ccftK3Qt.debug.temp.o
 .note.GNU-stack
                0x0000000000000000        0x0 /tmp/ccftK3Qt.debug.temp.o
 .comment       0x0000000000000000       0x2b /tmp/ccjyczys.debug.temp.o
 .note.GNU-stack
                0x0000000000000000        0x0 /tmp/ccjyczys.debug.temp.o
 .comment       0x0000000000000000       0x2b /tmp/ccACdw9r.debug.temp.o
 .note.GNU-stack
                0x0000000000000000        0x0 /tmp/ccACdw9r.debug.temp.o
 .comment       0x0000000000000000       0x2b /tmp/ccc1Uloq.debug.temp.o
 .note.GNU-stack
                0x0000000000000000        0x0 /tmp/ccc1Uloq.debug.temp.o
 .comment       0x0000000000000000       0x2b /tmp/cctbwcRr.debug.temp.o
 .note.GNU-stack
                0x0000000000000000        0x0 /tmp/cctbwcRr.debug.temp.o
 .comment       0x0000000000000000       0x2b /tmp/ccbZv36r.debug.temp.o
 .note.GNU-stack
                0x0000000000000000        0x0 /tmp/ccbZv36r.debug.temp.o
 .comment       0x0000000000000000       0x2b /tmp/cc41gsjp.debug.temp.o
 .note.GNU-stack
                0x0000000000000000        0x0 /tmp/cc41gsjp.debug.temp.o
 .comment       0x0000000000000000       0x2b /tmp/ccRcrvsp.debug.temp.o
 .note.GNU-stack
                0x0000000000000000        0x0 /tmp/ccRcrvsp.debug.temp.o
 .comment       0x0000000000000000       0x2b /tmp/cczz3O1r.debug.temp.o
 .note.GNU-stack
                0x0000000000000000        0x0 /tmp/cczz3O1r.debug.temp.o
 .comment       0x0000000000000000       0x2b /tmp/ccoHqkqr.debug.temp.o
 .note.GNU-stack
                0x0000000000000000        0x0 /tmp/ccoHqkqr.debug.temp.o
 .comment       0x0000000000000000       0x2b /tmp/ccgkWvXp.debug.temp.o
 .note.GNU-stack
                0x0000000000000000        0x0 /tmp/ccgkWvXp.debug.temp.o
 .comment       0x0000000000000000       0x2b /tmp/ccMVIL0r.debug.temp.o
 .note.GNU-stack
                0x0000000000000000        0x0 /tmp/ccMVIL0r.debug.temp.o
 .comment       0x0000000000000000       0x2b /tmp/ccIsCJnq.debug.temp.o
 .note.GNU-stack
                0x0000000000000000        0x0 /tmp/ccIsCJnq.debug.temp.o
 .comment       0x0000000000000000       0x2b /tmp/ccb0VKEq.debug.temp.o
 .note.GNU-stack
                0x0000000000000000        0x0 /tmp/ccb0VKEq.debug.temp.o
 .comment       0x0000000000000000       0x2b /tmp/cc5CDqlq.debug.temp.o
 .note.GNU-stack
                0x0000000000000000        0x0 /tmp/cc5CDqlq.debug.temp.o
 .comment       0x0000000000000000       0x2b /tmp/ccqn37Aq.debug.temp.o
 .note.GNU-stack
                0x0000000000000000        0x0 /tmp/ccqn37Aq.debug.temp.o
 .comment       0x0000000000000000       0x2b /tmp/ccfvmv3q.debug.temp.o
 .note.GNU-stack
                0x0000000000000000        0x0 /tmp/ccfvmv3q.debug.temp.o
 .comment       0x0000000000000000       0x2b /tmp/ccXBb9gr.debug.temp.o
 .note.GNU-stack
                0x0000000000000000        0x0 /tmp/ccXBb9gr.debug.temp.o
 .comment       0x0000000000000000       0x2b /tmp/ccgwsoyp.debug.temp.o
 .note.GNU-stack
                0x0000000000000000        0x0 /tmp/ccgwsoyp.debug.temp.o
 .debug_info    0x0000000000000000      0x1db /tmp/cca5veDs.debug.temp.o
 .debug_abbrev  0x0000000000000000       0xb1 /tmp/cca5veDs.debug.temp.o
 .debug_line    0x0000000000000000      0x14a /tmp/cca5veDs.debug.temp.o
 .debug_str     0x0000000000000000      0x465 /tmp/cca5veDs.debug.temp.o
 .comment       0x0000000000000000       0x2b /tmp/cca5veDs.debug.temp.o
 .note.GNU-stack
                0x0000000000000000        0x0 /tmp/cca5veDs.debug.temp.o
 .debug_info    0x0000000000000000      0x1db /tmp/ccmlfCYp.debug.temp.o
 .debug_abbrev  0x0000000000000000       0xc0 /tmp/ccmlfCYp.debug.temp.o
 .debug_line    0x0000000000000000      0x14b /tmp/ccmlfCYp.debug.temp.o
 .debug_str     0x0000000000000000      0x472 /tmp/ccmlfCYp.debug.temp.o
 .comment       0x0000000000000000       0x2b /tmp/ccmlfCYp.debug.temp.o
 .note.GNU-stack
                0x0000000000000000        0x0 /tmp/ccmlfCYp.debug.temp.o
 .debug_info    0x0000000000000000      0x1db /tmp/cc7UQryp.debug.temp.o
 .debug_abbrev  0x0000000000000000       0xb1 /tmp/cc7UQryp.debug.temp.o
 .debug_line    0x0000000000000000      0x14a /tmp/cc7UQryp.debug.temp.o
 .debug_str     0x0000000000000000      0x465 /tmp/cc7UQryp.debug.temp.o
 .comment       0x0000000000000000       0x2b /tmp/cc7UQryp.debug.temp.o
 .note.GNU-stack
                0x0000000000000000        0x0 /tmp/cc7UQryp.debug.temp.o
 .debug_info    0x0000000000000000      0x1cf /tmp/cc2n2bwp.debug.temp.o
 .debug_abbrev  0x0000000000000000       0xb1 /tmp/cc2n2bwp.debug.temp.o
 .debug_line    0x0000000000000000      0x14a /tmp/cc2n2bwp.debug.temp.o
 .debug_str     0x0000000000000000      0x462 /tmp/cc2n2bwp.debug.temp.o
 .comment       0x0000000000000000       0x2b /tmp/cc2n2bwp.debug.temp.o
 .note.GNU-stack
                0x0000000000000000        0x0 /tmp/cc2n2bwp.debug.temp.o
 .comment       0x0000000000000000       0x2b /tmp/ccthnLQr.debug.temp.o
 .note.GNU-stack
                0x0000000000000000        0x0 /tmp/ccthnLQr.debug.temp.o
 .comment       0x0000000000000000       0x2b /tmp/ccLWwFbt.debug.temp.o
 .note.GNU-stack
                0x0000000000000000        0x0 /tmp/ccLWwFbt.debug.temp.o
 .comment       0x0000000000000000       0x2b /tmp/ccRGbk2p.debug.temp.o
 .note.GNU-stack
                0x0000000000000000        0x0 /tmp/ccRGbk2p.debug.temp.o
 .comment       0x0000000000000000       0x2b /tmp/ccEDvQlt.debug.temp.o
 .note.GNU-stack
                0x0000000000000000        0x0 /tmp/ccEDvQlt.debug.temp.o
 .comment       0x0000000000000000       0x2b /tmp/ccqysowr.debug.temp.o
 .note.GNU-stack
                0x0000000000000000        0x0 /tmp/ccqysowr.debug.temp.o
 .comment       0x0000000000000000       0x2b /tmp/ccobIVZr.debug.temp.o
 .note.GNU-stack
                0x0000000000000000        0x0 /tmp/ccobIVZr.debug.temp.o
 .comment       0x0000000000000000       0x2b /tmp/ccsSHNws.debug.temp.o
 .note.GNU-stack
                0x0000000000000000        0x0 /tmp/ccsSHNws.debug.temp.o
 .comment       0x0000000000000000       0x2b /tmp/ccSATrqt.debug.temp.o
 .note.GNU-stack
                0x0000000000000000        0x0 /tmp/ccSATrqt.debug.temp.o
 .comment       0x0000000000000000       0x2b /tmp/ccNBbVPs.debug.temp.o
 .note.GNU-stack
                0x0000000000000000        0x0 /tmp/ccNBbVPs.debug.temp.o
 .comment       0x0000000000000000       0x2b /tmp/ccTcHcDp.debug.temp.o
 .note.GNU-stack
                0x0000000000000000        0x0 /tmp/ccTcHcDp.debug.temp.o
 .debug_info    0x0000000000000000     0x45d4 /tmp/ccG2D4mr.debug.temp.o
 .debug_abbrev  0x0000000000000000      0x2b0 /tmp/ccG2D4mr.debug.temp.o
 .debug_line    0x0000000000000000      0x3cf /tmp/ccG2D4mr.debug.temp.o
 .debug_str     0x0000000000000000     0x2f11 /tmp/ccG2D4mr.debug.temp.o
 .comment       0x0000000000000000       0x2b /tmp/ccG2D4mr.debug.temp.o
 .note.GNU-stack
                0x0000000000000000        0x0 /tmp/ccG2D4mr.debug.temp.o
 .comment       0x0000000000000000       0x2b /tmp/ccWtiaMr.debug.temp.o
 .note.GNU-stack
                0x0000000000000000        0x0 /tmp/ccWtiaMr.debug.temp.o
 .comment       0x0000000000000000       0x2b /tmp/cczQ3gjq.debug.temp.o
 .note.GNU-stack
                0x0000000000000000        0x0 /tmp/cczQ3gjq.debug.temp.o
 .comment       0x0000000000000000       0x2b /tmp/ccFLXG7r.debug.temp.o
 .note.GNU-stack
                0x0000000000000000        0x0 /tmp/ccFLXG7r.debug.temp.o
 .comment       0x0000000000000000       0x2b /tmp/ccvz10Jt.debug.temp.o
 .note.GNU-stack
                0x0000000000000000        0x0 /tmp/ccvz10Jt.debug.temp.o
 .comment       0x0000000000000000       0x2b /tmp/ccSCyR9q.debug.temp.o
 .note.GNU-stack
                0x0000000000000000        0x0 /tmp/ccSCyR9q.debug.temp.o
 .comment       0x0000000000000000       0x2b /tmp/cc7erc4q.debug.temp.o
 .note.GNU-stack
                0x0000000000000000        0x0 /tmp/cc7erc4q.debug.temp.o
 .comment       0x0000000000000000       0x2b /tmp/cc6pqFGt.debug.temp.o
 .note.GNU-stack
                0x0000000000000000        0x0 /tmp/cc6pqFGt.debug.temp.o
 .comment       0x0000000000000000       0x2b /tmp/cczLTHIq.debug.temp.o
 .note.GNU-stack
                0x0000000000000000        0x0 /tmp/cczLTHIq.debug.temp.o
 .comment       0x0000000000000000       0x2b /tmp/ccESvKes.debug.temp.o
 .note.GNU-stack
                0x0000000000000000        0x0 /tmp/ccESvKes.debug.temp.o
 .comment       0x0000000000000000       0x2b /tmp/ccDItNbt.debug.temp.o
 .note.GNU-stack
                0x0000000000000000        0x0 /tmp/ccDItNbt.debug.temp.o
 .comment       0x0000000000000000       0x2b /tmp/cc59JZAr.debug.temp.o
 .note.GNU-stack
                0x0000000000000000        0x0 /tmp/cc59JZAr.debug.temp.o
 .comment       0x0000000000000000       0x2b /tmp/ccQI8oAs.debug.temp.o
 .note.GNU-stack
                0x0000000000000000        0x0 /tmp/ccQI8oAs.debug.temp.o
 .debug_info    0x0000000000000000      0x1bb /tmp/ccOdg4Ct.debug.temp.o
 .debug_abbrev  0x0000000000000000       0xc6 /tmp/ccOdg4Ct.debug.temp.o
 .debug_line    0x0000000000000000      0x172 /tmp/ccOdg4Ct.debug.temp.o
 .debug_str     0x0000000000000000      0x364 /tmp/ccOdg4Ct.debug.temp.o
 .comment       0x0000000000000000       0x2b /tmp/ccOdg4Ct.debug.temp.o
 .note.GNU-stack
                0x0000000000000000        0x0 /tmp/ccOdg4Ct.debug.temp.o
 .debug_info    0x0000000000000000      0x186 /tmp/ccjm1eft.debug.temp.o
 .debug_abbrev  0x0000000000000000       0xb1 /tmp/ccjm1eft.debug.temp.o
 .debug_line    0x0000000000000000      0x174 /tmp/ccjm1eft.debug.temp.o
 .debug_str     0x0000000000000000      0x360 /tmp/ccjm1eft.debug.temp.o
 .comment       0x0000000000000000       0x2b /tmp/ccjm1eft.debug.temp.o
 .note.GNU-stack
                0x0000000000000000        0x0 /tmp/ccjm1eft.debug.temp.o
 .debug_info    0x0000000000000000      0x1c3 /tmp/ccOm4ZHt.debug.temp.o
 .debug_abbrev  0x0000000000000000       0xb1 /tmp/ccOm4ZHt.debug.temp.o
 .debug_line    0x0000000000000000      0x14c /tmp/ccOm4ZHt.debug.temp.o
 .debug_str     0x0000000000000000      0x45b /tmp/ccOm4ZHt.debug.temp.o
 .comment       0x0000000000000000       0x2b /tmp/ccOm4ZHt.debug.temp.o
 .note.GNU-stack
                0x0000000000000000        0x0 /tmp/ccOm4ZHt.debug.temp.o
 .comment       0x0000000000000000       0x2b /tmp/ccJJbw4q.debug.temp.o
 .note.GNU-stack
                0x0000000000000000        0x0 /tmp/ccJJbw4q.debug.temp.o
 .debug_info    0x0000000000000000      0x89f /tmp/ccljY0zt.debug.temp.o
 .debug_abbrev  0x0000000000000000       0xf9 /tmp/ccljY0zt.debug.temp.o
 .debug_line    0x0000000000000000      0x149 /tmp/ccljY0zt.debug.temp.o
 .debug_str     0x0000000000000000      0x64e /tmp/ccljY0zt.debug.temp.o
 .comment       0x0000000000000000       0x2b /tmp/ccljY0zt.debug.temp.o
 .note.GNU-stack
                0x0000000000000000        0x0 /tmp/ccljY0zt.debug.temp.o
 .comment       0x0000000000000000       0x2b /tmp/ccP1S3Qt.debug.temp.o
 .note.GNU-stack
                0x0000000000000000        0x0 /tmp/ccP1S3Qt.debug.temp.o
 .comment       0x0000000000000000       0x2b /tmp/ccnmjoRr.debug.temp.o
 .note.GNU-stack
                0x0000000000000000        0x0 /tmp/ccnmjoRr.debug.temp.o
 .comment       0x0000000000000000       0x2b /tmp/ccrBDalq.debug.temp.o
 .note.GNU-stack
                0x0000000000000000        0x0 /tmp/ccrBDalq.debug.temp.o
 .comment       0x0000000000000000       0x2b /tmp/ccEoXYjq.debug.temp.o
 .note.GNU-stack
                0x0000000000000000        0x0 /tmp/ccEoXYjq.debug.temp.o
 .comment       0x0000000000000000       0x2b /tmp/ccHcN9Vp.debug.temp.o
 .note.GNU-stack
                0x0000000000000000        0x0 /tmp/ccHcN9Vp.debug.temp.o
 .comment       0x0000000000000000       0x2b /tmp/ccda83Fp.debug.temp.o
 .note.GNU-stack
                0x0000000000000000        0x0 /tmp/ccda83Fp.debug.temp.o
 .data          0x0000000000000000        0x0 /home/alastair/pftf-rpi4/Build/RPi4/DEBUG_GCC5/AARCH64/MdePkg/Library/BaseMemoryLibOptDxe/BaseMemoryLibOptDxe/OUTPUT/BaseMemoryLibOptDxe.lib(SetMem.obj)
 .bss           0x0000000000000000        0x0 /home/alastair/pftf-rpi4/Build/RPi4/DEBUG_GCC5/AARCH64/MdePkg/Library/BaseMemoryLibOptDxe/BaseMemoryLibOptDxe/OUTPUT/BaseMemoryLibOptDxe.lib(SetMem.obj)
 .data          0x0000000000000000        0x0 /home/alastair/pftf-rpi4/Build/RPi4/DEBUG_GCC5/AARCH64/MdePkg/Library/BaseMemoryLibOptDxe/BaseMemoryLibOptDxe/OUTPUT/BaseMemoryLibOptDxe.lib(CopyMem.obj)
 .bss           0x0000000000000000        0x0 /home/alastair/pftf-rpi4/Build/RPi4/DEBUG_GCC5/AARCH64/MdePkg/Library/BaseMemoryLibOptDxe/BaseMemoryLibOptDxe/OUTPUT/BaseMemoryLibOptDxe.lib(CopyMem.obj)
 .data          0x0000000000000000        0x0 /home/alastair/pftf-rpi4/Build/RPi4/DEBUG_GCC5/AARCH64/MdePkg/Library/BaseMemoryLibOptDxe/BaseMemoryLibOptDxe/OUTPUT/BaseMemoryLibOptDxe.lib(CompareMem.obj)
 .bss           0x0000000000000000        0x0 /home/alastair/pftf-rpi4/Build/RPi4/DEBUG_GCC5/AARCH64/MdePkg/Library/BaseMemoryLibOptDxe/BaseMemoryLibOptDxe/OUTPUT/BaseMemoryLibOptDxe.lib(CompareMem.obj)
 .text          0x0000000000000000       0x20 /home/alastair/pftf-rpi4/Build/RPi4/DEBUG_GCC5/AARCH64/MdePkg/Library/BaseMemoryLibOptDxe/BaseMemoryLibOptDxe/OUTPUT/BaseMemoryLibOptDxe.lib(CompareGuid.obj)
 .data          0x0000000000000000        0x0 /home/alastair/pftf-rpi4/Build/RPi4/DEBUG_GCC5/AARCH64/MdePkg/Library/BaseMemoryLibOptDxe/BaseMemoryLibOptDxe/OUTPUT/BaseMemoryLibOptDxe.lib(CompareGuid.obj)
 .bss           0x0000000000000000        0x0 /home/alastair/pftf-rpi4/Build/RPi4/DEBUG_GCC5/AARCH64/MdePkg/Library/BaseMemoryLibOptDxe/BaseMemoryLibOptDxe/OUTPUT/BaseMemoryLibOptDxe.lib(CompareGuid.obj)
 .text          0x0000000000000000        0x8 /home/alastair/pftf-rpi4/Build/RPi4/DEBUG_GCC5/AARCH64/MdePkg/Library/BaseLib/BaseLib/OUTPUT/BaseLib.lib(CpuBreakpoint.obj)
 .data          0x0000000000000000        0x0 /home/alastair/pftf-rpi4/Build/RPi4/DEBUG_GCC5/AARCH64/MdePkg/Library/BaseLib/BaseLib/OUTPUT/BaseLib.lib(CpuBreakpoint.obj)
 .bss           0x0000000000000000        0x0 /home/alastair/pftf-rpi4/Build/RPi4/DEBUG_GCC5/AARCH64/MdePkg/Library/BaseLib/BaseLib/OUTPUT/BaseLib.lib(CpuBreakpoint.obj)

Memory Configuration

Name             Origin             Length             Attributes
*default*        0x0000000000000000 0xffffffffffffffff

Linker script and memory map

LOAD /home/alastair/pftf-rpi4/edk2/ArmPkg/Library/GccLto/liblto-aarch64.a
START GROUP
LOAD /tmp/Ip4Dxe.dll.v1Cwes.ltrans0.ltrans.o
LOAD /tmp/Ip4Dxe.dll.v1Cwes.ltrans1.ltrans.o
LOAD /tmp/ccV2P7Gp.debug.temp.o
LOAD /tmp/ccOKp0Cq.debug.temp.o
LOAD /tmp/ccn3uKqt.debug.temp.o
LOAD /tmp/ccyxDBxr.debug.temp.o
LOAD /tmp/ccbI080r.debug.temp.o
LOAD /tmp/cc1mrjlp.debug.temp.o
LOAD /tmp/cciSA5qp.debug.temp.o
LOAD /tmp/cckWRvmp.debug.temp.o
LOAD /tmp/ccmiL6Gr.debug.temp.o
LOAD /tmp/cc2VKSVr.debug.temp.o
LOAD /tmp/ccftK3Qt.debug.temp.o
LOAD /tmp/ccjyczys.debug.temp.o
LOAD /tmp/ccACdw9r.debug.temp.o
LOAD /tmp/ccc1Uloq.debug.temp.o
LOAD /tmp/cctbwcRr.debug.temp.o
LOAD /tmp/ccbZv36r.debug.temp.o
LOAD /tmp/cc41gsjp.debug.temp.o
LOAD /tmp/ccRcrvsp.debug.temp.o
LOAD /tmp/cczz3O1r.debug.temp.o
LOAD /tmp/ccoHqkqr.debug.temp.o
LOAD /tmp/ccgkWvXp.debug.temp.o
LOAD /tmp/ccMVIL0r.debug.temp.o
LOAD /tmp/ccIsCJnq.debug.temp.o
LOAD /tmp/ccb0VKEq.debug.temp.o
LOAD /tmp/cc5CDqlq.debug.temp.o
LOAD /tmp/ccqn37Aq.debug.temp.o
LOAD /tmp/ccfvmv3q.debug.temp.o
LOAD /tmp/ccXBb9gr.debug.temp.o
LOAD /tmp/ccgwsoyp.debug.temp.o
LOAD /tmp/cca5veDs.debug.temp.o
LOAD /tmp/ccmlfCYp.debug.temp.o
LOAD /tmp/cc7UQryp.debug.temp.o
LOAD /tmp/cc2n2bwp.debug.temp.o
LOAD /tmp/ccthnLQr.debug.temp.o
LOAD /tmp/ccLWwFbt.debug.temp.o
LOAD /tmp/ccRGbk2p.debug.temp.o
LOAD /tmp/ccEDvQlt.debug.temp.o
LOAD /tmp/ccqysowr.debug.temp.o
LOAD /tmp/ccobIVZr.debug.temp.o
LOAD /tmp/ccsSHNws.debug.temp.o
LOAD /tmp/ccSATrqt.debug.temp.o
LOAD /tmp/ccNBbVPs.debug.temp.o
LOAD /tmp/ccTcHcDp.debug.temp.o
LOAD /tmp/ccG2D4mr.debug.temp.o
LOAD /tmp/ccWtiaMr.debug.temp.o
LOAD /tmp/cczQ3gjq.debug.temp.o
LOAD /tmp/ccFLXG7r.debug.temp.o
LOAD /tmp/ccvz10Jt.debug.temp.o
LOAD /tmp/ccSCyR9q.debug.temp.o
LOAD /tmp/cc7erc4q.debug.temp.o
LOAD /tmp/cc6pqFGt.debug.temp.o
LOAD /tmp/cczLTHIq.debug.temp.o
LOAD /tmp/ccESvKes.debug.temp.o
LOAD /tmp/ccDItNbt.debug.temp.o
LOAD /tmp/cc59JZAr.debug.temp.o
LOAD /tmp/ccQI8oAs.debug.temp.o
LOAD /tmp/ccOdg4Ct.debug.temp.o
LOAD /tmp/ccjm1eft.debug.temp.o
LOAD /tmp/ccOm4ZHt.debug.temp.o
LOAD /tmp/ccJJbw4q.debug.temp.o
LOAD /tmp/ccljY0zt.debug.temp.o
LOAD /tmp/ccP1S3Qt.debug.temp.o
LOAD /tmp/ccnmjoRr.debug.temp.o
LOAD /tmp/ccrBDalq.debug.temp.o
LOAD /tmp/ccEoXYjq.debug.temp.o
LOAD /tmp/ccHcN9Vp.debug.temp.o
LOAD /tmp/ccda83Fp.debug.temp.o
LOAD /home/alastair/pftf-rpi4/Build/RPi4/DEBUG_GCC5/AARCH64/NetworkPkg/Ip4Dxe/Ip4Dxe/OUTPUT/Ip4Dxe.lib
LOAD /home/alastair/pftf-rpi4/Build/RPi4/DEBUG_GCC5/AARCH64/MdePkg/Library/DxePcdLib/DxePcdLib/OUTPUT/DxePcdLib.lib
LOAD /home/alastair/pftf-rpi4/Build/RPi4/DEBUG_GCC5/AARCH64/MdePkg/Library/BaseMemoryLibOptDxe/BaseMemoryLibOptDxe/OUTPUT/BaseMemoryLibOptDxe.lib
LOAD /home/alastair/pftf-rpi4/Build/RPi4/DEBUG_GCC5/AARCH64/MdePkg/Library/BaseLib/BaseLib/OUTPUT/BaseLib.lib
LOAD /home/alastair/pftf-rpi4/Build/RPi4/DEBUG_GCC5/AARCH64/MdePkg/Library/BaseIoLibIntrinsic/BaseIoLibIntrinsic/OUTPUT/BaseIoLibIntrinsic.lib
LOAD /home/alastair/pftf-rpi4/Build/RPi4/DEBUG_GCC5/AARCH64/ArmPlatformPkg/Library/PL011UartLib/PL011UartLib/OUTPUT/PL011UartLib.lib
LOAD /home/alastair/pftf-rpi4/Build/RPi4/DEBUG_GCC5/AARCH64/MdePkg/Library/BaseDebugPrintErrorLevelLib/BaseDebugPrintErrorLevelLib/OUTPUT/BaseDebugPrintErrorLevelLib.lib
LOAD /home/alastair/pftf-rpi4/Build/RPi4/DEBUG_GCC5/AARCH64/Platform/RaspberryPi/Library/DualSerialPortLib/DebugDualSerialPortLib/OUTPUT/DebugDualSerialPortLib.lib
LOAD /home/alastair/pftf-rpi4/Build/RPi4/DEBUG_GCC5/AARCH64/MdePkg/Library/BasePrintLib/BasePrintLib/OUTPUT/BasePrintLib.lib
LOAD /home/alastair/pftf-rpi4/Build/RPi4/DEBUG_GCC5/AARCH64/MdePkg/Library/BaseDebugLibSerialPort/BaseDebugLibSerialPort/OUTPUT/BaseDebugLibSerialPort.lib
LOAD /home/alastair/pftf-rpi4/Build/RPi4/DEBUG_GCC5/AARCH64/MdePkg/Library/UefiBootServicesTableLib/UefiBootServicesTableLib/OUTPUT/UefiBootServicesTableLib.lib
LOAD /home/alastair/pftf-rpi4/Build/RPi4/DEBUG_GCC5/AARCH64/MdePkg/Library/UefiMemoryAllocationLib/UefiMemoryAllocationLib/OUTPUT/UefiMemoryAllocationLib.lib
LOAD /home/alastair/pftf-rpi4/Build/RPi4/DEBUG_GCC5/AARCH64/MdePkg/Library/UefiDevicePathLib/UefiDevicePathLib/OUTPUT/UefiDevicePathLib.lib
LOAD /home/alastair/pftf-rpi4/Build/RPi4/DEBUG_GCC5/AARCH64/MdePkg/Library/UefiRuntimeServicesTableLib/UefiRuntimeServicesTableLib/OUTPUT/UefiRuntimeServicesTableLib.lib
LOAD /home/alastair/pftf-rpi4/Build/RPi4/DEBUG_GCC5/AARCH64/MdePkg/Library/UefiLib/UefiLib/OUTPUT/UefiLib.lib
LOAD /home/alastair/pftf-rpi4/Build/RPi4/DEBUG_GCC5/AARCH64/MdeModulePkg/Library/UefiHiiServicesLib/UefiHiiServicesLib/OUTPUT/UefiHiiServicesLib.lib
LOAD /home/alastair/pftf-rpi4/Build/RPi4/DEBUG_GCC5/AARCH64/MdePkg/Library/UefiDriverEntryPoint/UefiDriverEntryPoint/OUTPUT/UefiDriverEntryPoint.lib
LOAD /home/alastair/pftf-rpi4/Build/RPi4/DEBUG_GCC5/AARCH64/NetworkPkg/Library/DxeNetLib/DxeNetLib/OUTPUT/DxeNetLib.lib
LOAD /home/alastair/pftf-rpi4/Build/RPi4/DEBUG_GCC5/AARCH64/NetworkPkg/Library/DxeDpcLib/DxeDpcLib/OUTPUT/DxeDpcLib.lib
LOAD /home/alastair/pftf-rpi4/Build/RPi4/DEBUG_GCC5/AARCH64/MdeModulePkg/Library/UefiHiiLib/UefiHiiLib/OUTPUT/UefiHiiLib.lib
LOAD /home/alastair/pftf-rpi4/Build/RPi4/DEBUG_GCC5/AARCH64/MdePkg/Library/BaseStackCheckLib/BaseStackCheckLib/OUTPUT/BaseStackCheckLib.lib
LOAD /home/alastair/pftf-rpi4/Build/RPi4/DEBUG_GCC5/AARCH64/ArmPkg/Library/CompilerIntrinsicsLib/CompilerIntrinsicsLib/OUTPUT/CompilerIntrinsicsLib.lib
END GROUP
                0x0000000000000228                . = PECOFF_HEADER_SIZE

.gnu.version_d  0x0000000000000228        0x0
 .gnu.version_d
                0x0000000000000228        0x0 /home/alastair/pftf-rpi4/edk2/ArmPkg/Library/GccLto/liblto-aarch64.a

.gnu.version    0x0000000000000228        0x0
 .gnu.version   0x0000000000000228        0x0 /home/alastair/pftf-rpi4/edk2/ArmPkg/Library/GccLto/liblto-aarch64.a

.gnu.version_r  0x0000000000000228        0x0
 .gnu.version_r
                0x0000000000000228        0x0 /home/alastair/pftf-rpi4/edk2/ArmPkg/Library/GccLto/liblto-aarch64.a

.text           0x0000000000001000    0x13b48
 *(.text .text.* .stub .gnu.linkonce.t.*)
 .text.SerialPortWritable.constprop.0
                0x0000000000001000        0x8 /tmp/Ip4Dxe.dll.v1Cwes.ltrans0.ltrans.o
 .text.InternalAllocatePool.constprop.0
                0x0000000000001008       0x6c /tmp/Ip4Dxe.dll.v1Cwes.ltrans0.ltrans.o
 .text.UefiLibGetStringWidth.part.0
                0x0000000000001074       0x84 /tmp/Ip4Dxe.dll.v1Cwes.ltrans0.ltrans.o
 .text.DevicePathFromHandle
                0x00000000000010f8       0x6c /tmp/Ip4Dxe.dll.v1Cwes.ltrans0.ltrans.o
 .text.DebugCodeEnabled
                0x0000000000001164        0x8 /tmp/Ip4Dxe.dll.v1Cwes.ltrans0.ltrans.o
 .text.BasePrintLibFillBuffer
                0x000000000000116c       0x34 /tmp/Ip4Dxe.dll.v1Cwes.ltrans0.ltrans.o
 .text.AsciiStrnLenS
                0x00000000000011a0       0x3c /tmp/Ip4Dxe.dll.v1Cwes.ltrans0.ltrans.o
 .text.InternalSafeStringNoStrOverlap
                0x00000000000011dc       0x3c /tmp/Ip4Dxe.dll.v1Cwes.ltrans0.ltrans.o
 .text.Ip4Config2ManualAddressNotify
                0x0000000000001218        0xc /tmp/Ip4Dxe.dll.v1Cwes.ltrans0.ltrans.o
 .text.Ip4Config2StrToIp
                0x0000000000001224       0x88 /tmp/Ip4Dxe.dll.v1Cwes.ltrans0.ltrans.o
 .text.Ip4Config2SignalEvent
                0x00000000000012ac       0x28 /tmp/Ip4Dxe.dll.v1Cwes.ltrans0.ltrans.o
 .text.DebugAssertEnabled
                0x00000000000012d4        0x8 /tmp/Ip4Dxe.dll.v1Cwes.ltrans0.ltrans.o
                0x00000000000012d4                DebugAssertEnabled
 .text.QueueDpc.constprop.0
                0x00000000000012dc       0x20 /tmp/Ip4Dxe.dll.v1Cwes.ltrans0.ltrans.o
                0x00000000000012dc                QueueDpc.constprop.0
 .text.Ip4AutoReconfigCallBack
                0x00000000000012fc        0xc /tmp/Ip4Dxe.dll.v1Cwes.ltrans0.ltrans.o
                0x00000000000012fc                Ip4AutoReconfigCallBack
 .text.DebugPrintLevelEnabled
                0x0000000000001308        0x8 /tmp/Ip4Dxe.dll.v1Cwes.ltrans0.ltrans.o
                0x0000000000001308                DebugPrintLevelEnabled
 .text.DispatchDpc
                0x0000000000001310       0x14 /tmp/Ip4Dxe.dll.v1Cwes.ltrans0.ltrans.o
                0x0000000000001310                DispatchDpc
 .text.NetblockChecksum
                0x0000000000001324       0x4c /tmp/Ip4Dxe.dll.v1Cwes.ltrans0.ltrans.o
                0x0000000000001324                NetblockChecksum
 .text.NetbufBuildExt
                0x0000000000001370       0x70 /tmp/Ip4Dxe.dll.v1Cwes.ltrans0.ltrans.o
                0x0000000000001370                NetbufBuildExt
 .text.NetGetIpClass
                0x00000000000013e0       0x4c /tmp/Ip4Dxe.dll.v1Cwes.ltrans0.ltrans.o
                0x00000000000013e0                NetGetIpClass
 .text.NetGetMaskLength
                0x000000000000142c       0x2c /tmp/Ip4Dxe.dll.v1Cwes.ltrans0.ltrans.o
                0x000000000000142c                NetGetMaskLength
 .text.AllocatePool
                0x0000000000001458        0x4 /tmp/Ip4Dxe.dll.v1Cwes.ltrans0.ltrans.o
                0x0000000000001458                AllocatePool
 .text.DebugPrintEnabled
                0x000000000000145c        0x8 /tmp/Ip4Dxe.dll.v1Cwes.ltrans0.ltrans.o
                0x000000000000145c                DebugPrintEnabled
 .text.DebugAssert
                0x0000000000001464       0x8c /tmp/Ip4Dxe.dll.v1Cwes.ltrans0.ltrans.o
                0x0000000000001464                DebugAssert
 .text.SerialPortWrite
                0x00000000000014f0      0x120 /tmp/Ip4Dxe.dll.v1Cwes.ltrans0.ltrans.o
 .text.WriteUnaligned16
                0x0000000000001610       0x18 /tmp/Ip4Dxe.dll.v1Cwes.ltrans0.ltrans.o
 .text.ReadUnaligned16
                0x0000000000001628       0x5c /tmp/Ip4Dxe.dll.v1Cwes.ltrans0.ltrans.o
 .text.ReadUnaligned32
                0x0000000000001684       0x50 /tmp/Ip4Dxe.dll.v1Cwes.ltrans0.ltrans.o
 .text.ReadUnaligned24
                0x00000000000016d4       0x4c /tmp/Ip4Dxe.dll.v1Cwes.ltrans0.ltrans.o
 .text.SetMem16
                0x0000000000001720       0xa0 /tmp/Ip4Dxe.dll.v1Cwes.ltrans0.ltrans.o
 .text.NetblockTrim
                0x00000000000017c0       0x88 /tmp/Ip4Dxe.dll.v1Cwes.ltrans0.ltrans.o
 .text.NetbufTrim
                0x0000000000001848      0x108 /tmp/Ip4Dxe.dll.v1Cwes.ltrans0.ltrans.o
                0x0000000000001848                NetbufTrim
 .text.NetbufReserve
                0x0000000000001950      0x138 /tmp/Ip4Dxe.dll.v1Cwes.ltrans0.ltrans.o
                0x0000000000001950                NetbufReserve
 .text.NetbufSetBlockOp
                0x0000000000001a88       0xa8 /tmp/Ip4Dxe.dll.v1Cwes.ltrans0.ltrans.o
                0x0000000000001a88                NetbufSetBlockOp
 .text.NetbufSetBlock
                0x0000000000001b30       0xf4 /tmp/Ip4Dxe.dll.v1Cwes.ltrans0.ltrans.o
                0x0000000000001b30                NetbufSetBlock
 .text.NetbufGetByte
                0x0000000000001c24       0xcc /tmp/Ip4Dxe.dll.v1Cwes.ltrans0.ltrans.o
 .text.NetbufAllocSpace
                0x0000000000001cf0      0x230 /tmp/Ip4Dxe.dll.v1Cwes.ltrans0.ltrans.o
                0x0000000000001cf0                NetbufAllocSpace
 .text.NetLibGetNicHandle
                0x0000000000001f20       0xb8 /tmp/Ip4Dxe.dll.v1Cwes.ltrans0.ltrans.o
                0x0000000000001f20                NetLibGetNicHandle
 .text.NetLibDestroyServiceChild
                0x0000000000001fd8       0x84 /tmp/Ip4Dxe.dll.v1Cwes.ltrans0.ltrans.o
                0x0000000000001fd8                NetLibDestroyServiceChild
 .text.NetLibCreateServiceChild
                0x000000000000205c       0x84 /tmp/Ip4Dxe.dll.v1Cwes.ltrans0.ltrans.o
                0x000000000000205c                NetLibCreateServiceChild
 .text.NetMapFindKey
                0x00000000000020e0       0x74 /tmp/Ip4Dxe.dll.v1Cwes.ltrans0.ltrans.o
                0x00000000000020e0                NetMapFindKey
 .text.NetMapIsEmpty
                0x0000000000002154       0x10 /tmp/Ip4Dxe.dll.v1Cwes.ltrans0.ltrans.o
                0x0000000000002154                NetMapIsEmpty
 .text.NetListInsertBefore
                0x0000000000002164       0x5c /tmp/Ip4Dxe.dll.v1Cwes.ltrans0.ltrans.o
                0x0000000000002164                NetListInsertBefore
 .text.NetIp4IsUnicast
                0x00000000000021c0       0xb4 /tmp/Ip4Dxe.dll.v1Cwes.ltrans0.ltrans.o
                0x00000000000021c0                NetIp4IsUnicast
 .text.EfiReleaseLock
                0x0000000000002274       0x6c /tmp/Ip4Dxe.dll.v1Cwes.ltrans0.ltrans.o
 .text.EfiAcquireLockOrFail
                0x00000000000022e0       0x84 /tmp/Ip4Dxe.dll.v1Cwes.ltrans0.ltrans.o
 .text.DevicePathNodeLength
                0x0000000000002364       0x50 /tmp/Ip4Dxe.dll.v1Cwes.ltrans0.ltrans.o
 .text.NextDevicePathNode
                0x00000000000023b4       0x50 /tmp/Ip4Dxe.dll.v1Cwes.ltrans0.ltrans.o
 .text.DevicePathSubType
                0x0000000000002404       0x48 /tmp/Ip4Dxe.dll.v1Cwes.ltrans0.ltrans.o
 .text.DevicePathType
                0x000000000000244c       0x48 /tmp/Ip4Dxe.dll.v1Cwes.ltrans0.ltrans.o
 .text.IsDevicePathEnd
                0x0000000000002494       0x94 /tmp/Ip4Dxe.dll.v1Cwes.ltrans0.ltrans.o
 .text.IsDevicePathValid.part.0.constprop.0
                0x0000000000002528       0xbc /tmp/Ip4Dxe.dll.v1Cwes.ltrans0.ltrans.o
 .text.NetLibGetVlanId
                0x00000000000025e4       0x5c /tmp/Ip4Dxe.dll.v1Cwes.ltrans0.ltrans.o
                0x00000000000025e4                NetLibGetVlanId
 .text.UefiDevicePathLibGetDevicePathSize
                0x0000000000002640       0x6c /tmp/Ip4Dxe.dll.v1Cwes.ltrans0.ltrans.o
 .text.BasePrintLibValueToString
                0x00000000000026ac       0x2c /tmp/Ip4Dxe.dll.v1Cwes.ltrans0.ltrans.o
 .text.UnicodeValueToStringS.constprop.0
                0x00000000000026d8      0x16c /tmp/Ip4Dxe.dll.v1Cwes.ltrans0.ltrans.o
 .text.StrnLenS
                0x0000000000002844       0x70 /tmp/Ip4Dxe.dll.v1Cwes.ltrans0.ltrans.o
 .text.BasePrintLibSPrintMarker.constprop.0
                0x00000000000028b4      0xde0 /tmp/Ip4Dxe.dll.v1Cwes.ltrans0.ltrans.o
 .text.BasePrintLibSPrint.constprop.0
                0x0000000000003694       0xa0 /tmp/Ip4Dxe.dll.v1Cwes.ltrans0.ltrans.o
 .text.AsciiSPrint.constprop.0
                0x0000000000003734       0xac /tmp/Ip4Dxe.dll.v1Cwes.ltrans0.ltrans.o
 .text.AsciiStrLen
                0x00000000000037e0       0x90 /tmp/Ip4Dxe.dll.v1Cwes.ltrans0.ltrans.o
 .text.AsciiStrSize
                0x0000000000003870       0x18 /tmp/Ip4Dxe.dll.v1Cwes.ltrans0.ltrans.o
 .text.AsciiStrnCmp
                0x0000000000003888       0xd4 /tmp/Ip4Dxe.dll.v1Cwes.ltrans0.ltrans.o
 .text.IsLanguageSupported
                0x000000000000395c       0x8c /tmp/Ip4Dxe.dll.v1Cwes.ltrans0.ltrans.o
 .text.LookupUnicodeString2
                0x00000000000039e8       0xf8 /tmp/Ip4Dxe.dll.v1Cwes.ltrans0.ltrans.o
                0x00000000000039e8                LookupUnicodeString2
 .text.StrLen   0x0000000000003ae0       0xa4 /tmp/Ip4Dxe.dll.v1Cwes.ltrans0.ltrans.o
 .text.StrSize  0x0000000000003b84       0x1c /tmp/Ip4Dxe.dll.v1Cwes.ltrans0.ltrans.o
 .text.StrStr   0x0000000000003ba0       0xac /tmp/Ip4Dxe.dll.v1Cwes.ltrans0.ltrans.o
 .text.StrnCmp  0x0000000000003c4c       0xd4 /tmp/Ip4Dxe.dll.v1Cwes.ltrans0.ltrans.o
 .text.InternalHiiCompareSubString
                0x0000000000003d20       0xf8 /tmp/Ip4Dxe.dll.v1Cwes.ltrans0.ltrans.o
 .text.InternalBaseLibIsListValid
                0x0000000000003e18       0xac /tmp/Ip4Dxe.dll.v1Cwes.ltrans0.ltrans.o
 .text.CopyGuid
                0x0000000000003ec4        0x8 /tmp/Ip4Dxe.dll.v1Cwes.ltrans0.ltrans.o
 .text.Ip4TrimPacket
                0x0000000000003ecc      0x100 /tmp/Ip4Dxe.dll.v1Cwes.ltrans0.ltrans.o
 .text.DebugPrint
                0x0000000000003fcc       0xd0 /tmp/Ip4Dxe.dll.v1Cwes.ltrans0.ltrans.o
                0x0000000000003fcc                DebugPrint
 .text.EfiCreateProtocolNotifyEvent.constprop.0
                0x000000000000409c      0x154 /tmp/Ip4Dxe.dll.v1Cwes.ltrans0.ltrans.o
                0x000000000000409c                EfiCreateProtocolNotifyEvent.constprop.0
 .text.StrCpyS.constprop.0
                0x00000000000041f0      0x1dc /tmp/Ip4Dxe.dll.v1Cwes.ltrans0.ltrans.o
 .text.FreePool
                0x00000000000043cc       0x7c /tmp/Ip4Dxe.dll.v1Cwes.ltrans0.ltrans.o
                0x00000000000043cc                FreePool
 .text.Ip4ReceiveFrame.constprop.0
                0x0000000000004448      0x12c /tmp/Ip4Dxe.dll.v1Cwes.ltrans0.ltrans.o
                0x0000000000004448                Ip4ReceiveFrame.constprop.0
 .text.NetbufFreeVector
                0x0000000000004574      0x12c /tmp/Ip4Dxe.dll.v1Cwes.ltrans0.ltrans.o
 .text.NetbufGetFragmentFree
                0x00000000000046a0        0x4 /tmp/Ip4Dxe.dll.v1Cwes.ltrans0.ltrans.o
                0x00000000000046a0                NetbufGetFragmentFree
 .text.NetbufFree
                0x00000000000046a4       0xc0 /tmp/Ip4Dxe.dll.v1Cwes.ltrans0.ltrans.o
                0x00000000000046a4                NetbufFree
 .text.FreeUnicodeStringTable
                0x0000000000004764       0x58 /tmp/Ip4Dxe.dll.v1Cwes.ltrans0.ltrans.o
                0x0000000000004764                FreeUnicodeStringTable
 .text.Ip4IpSecFree
                0x00000000000047bc       0x40 /tmp/Ip4Dxe.dll.v1Cwes.ltrans0.ltrans.o
 .text.Ip4FreeRouteEntry
                0x00000000000047fc       0x6c /tmp/Ip4Dxe.dll.v1Cwes.ltrans0.ltrans.o
 .text.StrCatS  0x0000000000004868      0x250 /tmp/Ip4Dxe.dll.v1Cwes.ltrans0.ltrans.o
 .text.StrnCpyS
                0x0000000000004ab8      0x288 /tmp/Ip4Dxe.dll.v1Cwes.ltrans0.ltrans.o
 .text.BaseDebugLibSerialPortConstructor
                0x0000000000004d40        0x8 /tmp/Ip4Dxe.dll.v1Cwes.ltrans0.ltrans.o
                0x0000000000004d40                BaseDebugLibSerialPortConstructor
 .text.UnicodeSPrint
                0x0000000000004d48       0xd4 /tmp/Ip4Dxe.dll.v1Cwes.ltrans0.ltrans.o
                0x0000000000004d48                UnicodeSPrint
 .text.Ip4Config2IpToStr
                0x0000000000004e1c       0x28 /tmp/Ip4Dxe.dll.v1Cwes.ltrans0.ltrans.o
 .text.IsNull   0x0000000000004e44       0x4c /tmp/Ip4Dxe.dll.v1Cwes.ltrans0.ltrans.o
                0x0000000000004e44                IsNull
 .text.IsListEmpty
                0x0000000000004e90       0x4c /tmp/Ip4Dxe.dll.v1Cwes.ltrans0.ltrans.o
                0x0000000000004e90                IsListEmpty
 .text.NetMapIterate
                0x0000000000004edc       0x94 /tmp/Ip4Dxe.dll.v1Cwes.ltrans0.ltrans.o
                0x0000000000004edc                NetMapIterate
 .text.RemoveEntryList
                0x0000000000004f70       0x50 /tmp/Ip4Dxe.dll.v1Cwes.ltrans0.ltrans.o
                0x0000000000004f70                RemoveEntryList
 .text.NetMapClean
                0x0000000000004fc0      0x144 /tmp/Ip4Dxe.dll.v1Cwes.ltrans0.ltrans.o
                0x0000000000004fc0                NetMapClean
 .text.Ip4OnRecyclePacket
                0x0000000000005104       0xa0 /tmp/Ip4Dxe.dll.v1Cwes.ltrans0.ltrans.o
 .text.GetNextNode
                0x00000000000051a4       0x44 /tmp/Ip4Dxe.dll.v1Cwes.ltrans0.ltrans.o
                0x00000000000051a4                GetNextNode
 .text.GetFirstNode
                0x00000000000051e8       0x44 /tmp/Ip4Dxe.dll.v1Cwes.ltrans0.ltrans.o
                0x00000000000051e8                GetFirstNode
 .text.InsertTailList
                0x000000000000522c       0x5c /tmp/Ip4Dxe.dll.v1Cwes.ltrans0.ltrans.o
                0x000000000000522c                InsertTailList
 .text.InsertHeadList
                0x0000000000005288       0x58 /tmp/Ip4Dxe.dll.v1Cwes.ltrans0.ltrans.o
                0x0000000000005288                InsertHeadList
 .text.NetMapRemoveItem.constprop.0
                0x00000000000052e0       0xc8 /tmp/Ip4Dxe.dll.v1Cwes.ltrans0.ltrans.o
                0x00000000000052e0                NetMapRemoveItem.constprop.0
 .text.EfiIp4Config2UnregisterDataNotify
                0x00000000000053a8      0x100 /tmp/Ip4Dxe.dll.v1Cwes.ltrans0.ltrans.o
                0x00000000000053a8                EfiIp4Config2UnregisterDataNotify
 .text.NetMapInsertTail
                0x00000000000054a8      0x124 /tmp/Ip4Dxe.dll.v1Cwes.ltrans0.ltrans.o
                0x00000000000054a8                NetMapInsertTail
 .text.EfiIp4Config2RegisterDataNotify
                0x00000000000055cc      0x110 /tmp/Ip4Dxe.dll.v1Cwes.ltrans0.ltrans.o
                0x00000000000055cc                EfiIp4Config2RegisterDataNotify
 .text.InitializeListHead
                0x00000000000056dc       0x40 /tmp/Ip4Dxe.dll.v1Cwes.ltrans0.ltrans.o
                0x00000000000056dc                InitializeListHead
 .text.NetMapInit
                0x000000000000571c       0x2c /tmp/Ip4Dxe.dll.v1Cwes.ltrans0.ltrans.o
                0x000000000000571c                NetMapInit
 .text.SwapBytes16
                0x0000000000005748        0x8 /tmp/Ip4Dxe.dll.v1Cwes.ltrans0.ltrans.o
                0x0000000000005748                SwapBytes16
 .text.NetbufChecksum
                0x0000000000005750       0xc4 /tmp/Ip4Dxe.dll.v1Cwes.ltrans0.ltrans.o
 .text.SwapBytes32
                0x0000000000005814       0x20 /tmp/Ip4Dxe.dll.v1Cwes.ltrans0.ltrans.o
                0x0000000000005814                SwapBytes32
 .text.GetSubnetMaskPrefixLength
                0x0000000000005834       0x54 /tmp/Ip4Dxe.dll.v1Cwes.ltrans0.ltrans.o
 .text.CopyMem  0x0000000000005888       0xa4 /tmp/Ip4Dxe.dll.v1Cwes.ltrans0.ltrans.o
                0x0000000000005888                CopyMem
 .text.InternalAllocateCopyPool.constprop.0
                0x000000000000592c       0x8c /tmp/Ip4Dxe.dll.v1Cwes.ltrans0.ltrans.o
 .text.UefiDevicePathLibDuplicateDevicePath
                0x00000000000059b8       0x34 /tmp/Ip4Dxe.dll.v1Cwes.ltrans0.ltrans.o
 .text.NetbufCopy.constprop.0
                0x00000000000059ec      0x178 /tmp/Ip4Dxe.dll.v1Cwes.ltrans0.ltrans.o
 .text.AddUnicodeString2.part.0.constprop.0
                0x0000000000005b64      0x150 /tmp/Ip4Dxe.dll.v1Cwes.ltrans0.ltrans.o
 .text.Ip4ComponentNameGetControllerName
                0x0000000000005cb4      0x274 /tmp/Ip4Dxe.dll.v1Cwes.ltrans0.ltrans.o
 .text.NetLibGetMacAddress
                0x0000000000005f28      0x1cc /tmp/Ip4Dxe.dll.v1Cwes.ltrans0.ltrans.o
 .text.EfiIp4Config2GetData
                0x00000000000060f4      0x138 /tmp/Ip4Dxe.dll.v1Cwes.ltrans0.ltrans.o
                0x00000000000060f4                EfiIp4Config2GetData
 .text.Ip4Config2GetIfInfo
                0x000000000000622c      0x1cc /tmp/Ip4Dxe.dll.v1Cwes.ltrans0.ltrans.o
                0x000000000000622c                Ip4Config2GetIfInfo
 .text.CompareMem
                0x00000000000063f8       0xd0 /tmp/Ip4Dxe.dll.v1Cwes.ltrans0.ltrans.o
                0x00000000000063f8                CompareMem
 .text.Ip4Config2SetDnsServerWorker.part.0
                0x00000000000064c8      0x17c /tmp/Ip4Dxe.dll.v1Cwes.ltrans0.ltrans.o
 .text.Ip4Config2SetDnsServer
                0x0000000000006644       0x8c /tmp/Ip4Dxe.dll.v1Cwes.ltrans0.ltrans.o
                0x0000000000006644                Ip4Config2SetDnsServer
 .text.ZeroMem  0x00000000000066d0       0x70 /tmp/Ip4Dxe.dll.v1Cwes.ltrans0.ltrans.o
                0x00000000000066d0                ZeroMem
 .text.AllocateZeroPool
                0x0000000000006740       0x34 /tmp/Ip4Dxe.dll.v1Cwes.ltrans0.ltrans.o
                0x0000000000006740                AllocateZeroPool
 .text.GetBestLanguage.constprop.0
                0x0000000000006774      0x1c0 /tmp/Ip4Dxe.dll.v1Cwes.ltrans0.ltrans.o
 .text.NetLibGetMacString.constprop.0
                0x0000000000006934      0x14c /tmp/Ip4Dxe.dll.v1Cwes.ltrans0.ltrans.o
                0x0000000000006934                NetLibGetMacString.constprop.0
 .text.HiiAddPackages.constprop.0
                0x0000000000006a80      0x1c0 /tmp/Ip4Dxe.dll.v1Cwes.ltrans0.ltrans.o
 .text.HiiConstructConfigHdr.constprop.0
                0x0000000000006c40      0x1fc /tmp/Ip4Dxe.dll.v1Cwes.ltrans0.ltrans.o
 .text.HiiIsConfigHdrMatch.constprop.0
                0x0000000000006e3c       0xb4 /tmp/Ip4Dxe.dll.v1Cwes.ltrans0.ltrans.o
 .text.CreatePopUp.constprop.0
                0x0000000000006ef0      0x524 /tmp/Ip4Dxe.dll.v1Cwes.ltrans0.ltrans.o
 .text.HiiGetSupportedLanguages
                0x0000000000007414       0xe8 /tmp/Ip4Dxe.dll.v1Cwes.ltrans0.ltrans.o
 .text.HiiSetString.constprop.0
                0x00000000000074fc      0x144 /tmp/Ip4Dxe.dll.v1Cwes.ltrans0.ltrans.o
 .text.NetbufAllocStruct
                0x0000000000007640       0xd0 /tmp/Ip4Dxe.dll.v1Cwes.ltrans0.ltrans.o
                0x0000000000007640                NetbufAllocStruct
 .text.NetbufFromExt
                0x0000000000007710      0x294 /tmp/Ip4Dxe.dll.v1Cwes.ltrans0.ltrans.o
                0x0000000000007710                NetbufFromExt
 .text.NetbufAlloc
                0x00000000000079a4       0xa4 /tmp/Ip4Dxe.dll.v1Cwes.ltrans0.ltrans.o
                0x00000000000079a4                NetbufAlloc
 .text.NetbufDuplicate.constprop.0
                0x0000000000007a48       0xb8 /tmp/Ip4Dxe.dll.v1Cwes.ltrans0.ltrans.o
 .text.Ip4FormExtractConfig
                0x0000000000007b00      0x518 /tmp/Ip4Dxe.dll.v1Cwes.ltrans0.ltrans.o
 .text.Ip4Config2StrToIpList
                0x0000000000008018      0x1d4 /tmp/Ip4Dxe.dll.v1Cwes.ltrans0.ltrans.o
 .text.Ip4Config2ConvertIfrNvDataToConfigNvData
                0x00000000000081ec      0x4b0 /tmp/Ip4Dxe.dll.v1Cwes.ltrans0.ltrans.o
 .text.Ip4FormCallback
                0x000000000000869c      0x438 /tmp/Ip4Dxe.dll.v1Cwes.ltrans0.ltrans.o
 .text.Ip4FormRouteConfig
                0x0000000000008ad4      0x1a4 /tmp/Ip4Dxe.dll.v1Cwes.ltrans0.ltrans.o
 .text.Ip4WrapRxData
                0x0000000000008c78      0x140 /tmp/Ip4Dxe.dll.v1Cwes.ltrans0.ltrans.o
 .text.Ip4Config2FormUnload
                0x0000000000008db8      0x164 /tmp/Ip4Dxe.dll.v1Cwes.ltrans0.ltrans.o
                0x0000000000008db8                Ip4Config2FormUnload
 .text.Ip4Config2FormInit
                0x0000000000008f1c      0x538 /tmp/Ip4Dxe.dll.v1Cwes.ltrans0.ltrans.o
                0x0000000000008f1c                Ip4Config2FormInit
 .text.Ip4Config2WriteConfigData
                0x0000000000009454      0x13c /tmp/Ip4Dxe.dll.v1Cwes.ltrans0.ltrans.o
                0x0000000000009454                Ip4Config2WriteConfigData
 .text.EfiIp4Config2SetData
                0x0000000000009590      0x1f8 /tmp/Ip4Dxe.dll.v1Cwes.ltrans0.ltrans.o
                0x0000000000009590                EfiIp4Config2SetData
 .text.Ip4Config2ReadConfigData
                0x0000000000009788      0x1bc /tmp/Ip4Dxe.dll.v1Cwes.ltrans0.ltrans.o
                0x0000000000009788                Ip4Config2ReadConfigData
 .text.Ip4Config2DestroyDhcp4
                0x0000000000009944       0xec /tmp/Ip4Dxe.dll.v1Cwes.ltrans0.ltrans.o
                0x0000000000009944                Ip4Config2DestroyDhcp4
 .text.Ip4IpSecProcessPacket.part.0
                0x0000000000009a30      0x418 /tmp/Ip4Dxe.dll.v1Cwes.ltrans0.ltrans.o
                0x0000000000009a30                Ip4IpSecProcessPacket.part.0
 .text.Ip4InstanceDeliverPacket
                0x0000000000009e48      0x21c /tmp/Ip4Dxe.dll.v1Cwes.ltrans0.ltrans.o
                0x0000000000009e48                Ip4InstanceDeliverPacket
 .text.Ip4Demultiplex
                0x000000000000a064      0x43c /tmp/Ip4Dxe.dll.v1Cwes.ltrans0.ltrans.o
 .text.Ip4FreeAssembleEntry
                0x000000000000a4a0       0x58 /tmp/Ip4Dxe.dll.v1Cwes.ltrans0.ltrans.o
                0x000000000000a4a0                Ip4FreeAssembleEntry
 .text.Ip4PreProcessPacket
                0x000000000000a4f8      0x654 /tmp/Ip4Dxe.dll.v1Cwes.ltrans0.ltrans.o
 .text.Ip4OnFreeFragments
                0x000000000000ab4c        0x4 /tmp/Ip4Dxe.dll.v1Cwes.ltrans0.ltrans.o
 .text.Ip4CleanAssembleTable
                0x000000000000ab50       0x60 /tmp/Ip4Dxe.dll.v1Cwes.ltrans0.ltrans.o
                0x000000000000ab50                Ip4CleanAssembleTable
 .text.Ip4FindRouteCache
                0x000000000000abb0       0x68 /tmp/Ip4Dxe.dll.v1Cwes.ltrans0.ltrans.o
                0x000000000000abb0                Ip4FindRouteCache
 .text.Ip4AccpetFrame
                0x000000000000ac18      0x594 /tmp/Ip4Dxe.dll.v1Cwes.ltrans0.ltrans.o
                0x000000000000ac18                Ip4AccpetFrame
 .text.Ip4AddRoute
                0x000000000000b1ac       0xdc /tmp/Ip4Dxe.dll.v1Cwes.ltrans0.ltrans.o
                0x000000000000b1ac                Ip4AddRoute
 .text.Ip4CreateRouteTable
                0x000000000000b288       0x7c /tmp/Ip4Dxe.dll.v1Cwes.ltrans0.ltrans.o
                0x000000000000b288                Ip4CreateRouteTable
 .text.Ip4FreeRouteCacheEntry
                0x000000000000b304       0x6c /tmp/Ip4Dxe.dll.v1Cwes.ltrans0.ltrans.o
                0x000000000000b304                Ip4FreeRouteCacheEntry
 .text.Ip4Route
                0x000000000000b370      0x1dc /tmp/Ip4Dxe.dll.v1Cwes.ltrans0.ltrans.o
                0x000000000000b370                Ip4Route
 .text.Ip4DelRoute
                0x000000000000b54c       0xfc /tmp/Ip4Dxe.dll.v1Cwes.ltrans0.ltrans.o
                0x000000000000b54c                Ip4DelRoute
 .text.Ip4Config2SetGateway
                0x000000000000b648      0x294 /tmp/Ip4Dxe.dll.v1Cwes.ltrans0.ltrans.o
                0x000000000000b648                Ip4Config2SetGateway
 .text.Ip4FreeRouteTable
                0x000000000000b8dc      0x108 /tmp/Ip4Dxe.dll.v1Cwes.ltrans0.ltrans.o
                0x000000000000b8dc                Ip4FreeRouteTable
 .text.Ip4Config2SetDefaultAddr
                0x000000000000b9e4      0x22c /tmp/Ip4Dxe.dll.v1Cwes.ltrans0.ltrans.o
 .text.Ip4Config2SetManualAddress
                0x000000000000bc10      0x250 /tmp/Ip4Dxe.dll.v1Cwes.ltrans0.ltrans.o
                0x000000000000bc10                Ip4Config2SetManualAddress
 .text.Ip4Config2OnDhcp4Complete
                0x000000000000be60      0x2b8 /tmp/Ip4Dxe.dll.v1Cwes.ltrans0.ltrans.o
 .text.Ip4StartAutoConfig
                0x000000000000c118      0x2a0 /tmp/Ip4Dxe.dll.v1Cwes.ltrans0.ltrans.o
 .text.Ip4AutoReconfigCallBackDpc
                0x000000000000c3b8       0x74 /tmp/Ip4Dxe.dll.v1Cwes.ltrans0.ltrans.o
 .text.Ip4Config2SetPolicy
                0x000000000000c42c      0x248 /tmp/Ip4Dxe.dll.v1Cwes.ltrans0.ltrans.o
                0x000000000000c42c                Ip4Config2SetPolicy
 .text.Ip4Config2OnDhcp4SbInstalled
                0x000000000000c674       0x20 /tmp/Ip4Dxe.dll.v1Cwes.ltrans0.ltrans.o
 .text.Ip4CancelPacketFragments
                0x000000000000c694       0x24 /tmp/Ip4Dxe.dll.v1Cwes.ltrans1.ltrans.o
 .text.Ip4TokenExist
                0x000000000000c6b8       0x2c /tmp/Ip4Dxe.dll.v1Cwes.ltrans1.ltrans.o
 .text.Ip4CancelInstanceFrame
                0x000000000000c6e4       0x10 /tmp/Ip4Dxe.dll.v1Cwes.ltrans1.ltrans.o
 .text.Ip4DriverBindingSupported
                0x000000000000c6f4       0x90 /tmp/Ip4Dxe.dll.v1Cwes.ltrans1.ltrans.o
                0x000000000000c6f4                Ip4DriverBindingSupported
 .text.IpSec2InstalledCallback
                0x000000000000c784       0x70 /tmp/Ip4Dxe.dll.v1Cwes.ltrans1.ltrans.o
 .text._DriverUnloadHandler
                0x000000000000c7f4      0x1b8 /tmp/Ip4Dxe.dll.v1Cwes.ltrans1.ltrans.o
 .text.Ip4ComponentNameGetDriverName
                0x000000000000c9ac       0x2c /tmp/Ip4Dxe.dll.v1Cwes.ltrans1.ltrans.o
                0x000000000000c9ac                Ip4ComponentNameGetDriverName
 .text.Ip4CopyOption
                0x000000000000c9d8      0x174 /tmp/Ip4Dxe.dll.v1Cwes.ltrans1.ltrans.o
 .text.EfiIp4Poll
                0x000000000000cb4c       0x98 /tmp/Ip4Dxe.dll.v1Cwes.ltrans1.ltrans.o
 .text.Ip4DestroyChildEntryInHandleBuffer
                0x000000000000cbe4       0xc4 /tmp/Ip4Dxe.dll.v1Cwes.ltrans1.ltrans.o
 .text.Ip4GetMulticastMac
                0x000000000000cca8       0x78 /tmp/Ip4Dxe.dll.v1Cwes.ltrans1.ltrans.o
 .text.Ip4TimerReconfigChecking
                0x000000000000cd20       0xf8 /tmp/Ip4Dxe.dll.v1Cwes.ltrans1.ltrans.o
 .text.Ip4OnPacketSent
                0x000000000000ce18       0x60 /tmp/Ip4Dxe.dll.v1Cwes.ltrans1.ltrans.o
 .text.Ip4SysPacketSent
                0x000000000000ce78        0x8 /tmp/Ip4Dxe.dll.v1Cwes.ltrans1.ltrans.o
                0x000000000000ce78                Ip4SysPacketSent
 .text.Ip4Cancel
                0x000000000000ce80       0xc0 /tmp/Ip4Dxe.dll.v1Cwes.ltrans1.ltrans.o
 .text.EfiIp4Cancel
                0x000000000000cf40       0xe8 /tmp/Ip4Dxe.dll.v1Cwes.ltrans1.ltrans.o
 .text.Ip4CancelRxTokens
                0x000000000000d028       0x68 /tmp/Ip4Dxe.dll.v1Cwes.ltrans1.ltrans.o
 .text.EfiIp4Receive
                0x000000000000d090      0x120 /tmp/Ip4Dxe.dll.v1Cwes.ltrans1.ltrans.o
 .text.Ip4FreeLinkTxToken
                0x000000000000d1b0       0x70 /tmp/Ip4Dxe.dll.v1Cwes.ltrans1.ltrans.o
 .text.Ip4OnFrameSentDpc
                0x000000000000d220       0x78 /tmp/Ip4Dxe.dll.v1Cwes.ltrans1.ltrans.o
 .text.Ip4CancelFrameArp
                0x000000000000d298       0xa0 /tmp/Ip4Dxe.dll.v1Cwes.ltrans1.ltrans.o
 .text.Ip4FreeArpQue
                0x000000000000d338       0x88 /tmp/Ip4Dxe.dll.v1Cwes.ltrans1.ltrans.o
 .text.Ip4FreeTxToken
                0x000000000000d3c0       0x7c /tmp/Ip4Dxe.dll.v1Cwes.ltrans1.ltrans.o
                0x000000000000d3c0                Ip4FreeTxToken
 .text.EfiIp4GetModeData
                0x000000000000d43c      0x2d4 /tmp/Ip4Dxe.dll.v1Cwes.ltrans1.ltrans.o
 .text.Ip4CancelFrames
                0x000000000000d710       0xe0 /tmp/Ip4Dxe.dll.v1Cwes.ltrans1.ltrans.o
 .text.Ip4SentPacketTicking
                0x000000000000d7f0       0x80 /tmp/Ip4Dxe.dll.v1Cwes.ltrans1.ltrans.o
 .text.Ip4CancelTxTokens
                0x000000000000d870       0x8c /tmp/Ip4Dxe.dll.v1Cwes.ltrans1.ltrans.o
 .text.Ip4OnFrameReceived
                0x000000000000d8fc        0xc /tmp/Ip4Dxe.dll.v1Cwes.ltrans1.ltrans.o
                0x000000000000d8fc                Ip4OnFrameReceived
 .text.Ip4OnArpResolved
                0x000000000000d908        0xc /tmp/Ip4Dxe.dll.v1Cwes.ltrans1.ltrans.o
 .text.Ip4OnFrameSent
                0x000000000000d914        0xc /tmp/Ip4Dxe.dll.v1Cwes.ltrans1.ltrans.o
 .text.Ip4SendFrame
                0x000000000000d920      0x3b0 /tmp/Ip4Dxe.dll.v1Cwes.ltrans1.ltrans.o
 .text.Ip4OnArpResolvedDpc
                0x000000000000dcd0      0x260 /tmp/Ip4Dxe.dll.v1Cwes.ltrans1.ltrans.o
 .text.Ip4OptionIsValid
                0x000000000000df30       0xdc /tmp/Ip4Dxe.dll.v1Cwes.ltrans1.ltrans.o
                0x000000000000df30                Ip4OptionIsValid
 .text.Ip4StationAddressValid
                0x000000000000e00c       0x68 /tmp/Ip4Dxe.dll.v1Cwes.ltrans1.ltrans.o
                0x000000000000e00c                Ip4StationAddressValid
 .text.Ip4NtohHead
                0x000000000000e074       0x5c /tmp/Ip4Dxe.dll.v1Cwes.ltrans1.ltrans.o
                0x000000000000e074                Ip4NtohHead
 .text.Ip4FindNet
                0x000000000000e0d0       0x3c /tmp/Ip4Dxe.dll.v1Cwes.ltrans1.ltrans.o
                0x000000000000e0d0                Ip4FindNet
 .text.Ip4GetNetCast
                0x000000000000e10c       0x3c /tmp/Ip4Dxe.dll.v1Cwes.ltrans1.ltrans.o
                0x000000000000e10c                Ip4GetNetCast
 .text.EfiIp4Routes
                0x000000000000e148      0x204 /tmp/Ip4Dxe.dll.v1Cwes.ltrans1.ltrans.o
 .text.Ip4FindGroup
                0x000000000000e34c       0x2c /tmp/Ip4Dxe.dll.v1Cwes.ltrans1.ltrans.o
                0x000000000000e34c                Ip4FindGroup
 .text.Ip4PrependHead
                0x000000000000e378      0x188 /tmp/Ip4Dxe.dll.v1Cwes.ltrans1.ltrans.o
                0x000000000000e378                Ip4PrependHead
 .text.Ip4Output
                0x000000000000e500      0x63c /tmp/Ip4Dxe.dll.v1Cwes.ltrans1.ltrans.o
                0x000000000000e500                Ip4Output
 .text.EfiIp4Transmit
                0x000000000000eb3c      0x568 /tmp/Ip4Dxe.dll.v1Cwes.ltrans1.ltrans.o
 .text.Ip4SendIgmpMessage
                0x000000000000f0a4      0x11c /tmp/Ip4Dxe.dll.v1Cwes.ltrans1.ltrans.o
 .text.Ip4SendIgmpReport
                0x000000000000f1c0       0x1c /tmp/Ip4Dxe.dll.v1Cwes.ltrans1.ltrans.o
 .text.Ip4TimerTicking
                0x000000000000f1dc      0x1c8 /tmp/Ip4Dxe.dll.v1Cwes.ltrans1.ltrans.o
 .text.Ip4Groups
                0x000000000000f3a4      0x40c /tmp/Ip4Dxe.dll.v1Cwes.ltrans1.ltrans.o
 .text.EfiIp4Groups
                0x000000000000f7b0      0x160 /tmp/Ip4Dxe.dll.v1Cwes.ltrans1.ltrans.o
 .text.Ip4CancelReceive
                0x000000000000f910       0x78 /tmp/Ip4Dxe.dll.v1Cwes.ltrans1.ltrans.o
                0x000000000000f910                Ip4CancelReceive
 .text.Ip4FreeInterface
                0x000000000000f988      0x1a8 /tmp/Ip4Dxe.dll.v1Cwes.ltrans1.ltrans.o
                0x000000000000f988                Ip4FreeInterface
 .text.Ip4CleanProtocol
                0x000000000000fb30       0xfc /tmp/Ip4Dxe.dll.v1Cwes.ltrans1.ltrans.o
 .text.Ip4ServiceBindingDestroyChild
                0x000000000000fc2c      0x290 /tmp/Ip4Dxe.dll.v1Cwes.ltrans1.ltrans.o
 .text.Ip4ServiceBindingCreateChild
                0x000000000000febc      0x238 /tmp/Ip4Dxe.dll.v1Cwes.ltrans1.ltrans.o
 .text.Ip4CleanService
                0x00000000000100f4      0x1cc /tmp/Ip4Dxe.dll.v1Cwes.ltrans1.ltrans.o
 .text.Ip4SetAddress
                0x00000000000102c0      0x1d0 /tmp/Ip4Dxe.dll.v1Cwes.ltrans1.ltrans.o
                0x00000000000102c0                Ip4SetAddress
 .text.Ip4CreateInterface
                0x0000000000010490      0x11c /tmp/Ip4Dxe.dll.v1Cwes.ltrans1.ltrans.o
                0x0000000000010490                Ip4CreateInterface
 .text.EfiIp4Configure
                0x00000000000105ac      0x4cc /tmp/Ip4Dxe.dll.v1Cwes.ltrans1.ltrans.o
 .text.Ip4DriverBindingStop
                0x0000000000010a78      0x324 /tmp/Ip4Dxe.dll.v1Cwes.ltrans1.ltrans.o
                0x0000000000010a78                Ip4DriverBindingStop
 .text.Ip4DriverBindingStart
                0x0000000000010d9c      0x7bc /tmp/Ip4Dxe.dll.v1Cwes.ltrans1.ltrans.o
                0x0000000000010d9c                Ip4DriverBindingStart
 .text.Ip4FreeFrameRxToken
                0x0000000000011558       0x70 /tmp/Ip4Dxe.dll.v1Cwes.ltrans1.ltrans.o
                0x0000000000011558                Ip4FreeFrameRxToken
 .text.Ip4OnFrameReceivedDpc
                0x00000000000115c8      0x160 /tmp/Ip4Dxe.dll.v1Cwes.ltrans1.ltrans.o
 .text.Ip4RecycleFrame
                0x0000000000011728       0x74 /tmp/Ip4Dxe.dll.v1Cwes.ltrans1.ltrans.o
 .text.memcpy   0x000000000001179c       0x20 /tmp/Ip4Dxe.dll.v1Cwes.ltrans1.ltrans.o
                0x000000000001179c                memcpy
 .text.__stack_chk_fail
                0x00000000000117bc       0x50 /tmp/Ip4Dxe.dll.v1Cwes.ltrans1.ltrans.o
                0x00000000000117bc                __stack_chk_fail
 .text._ModuleEntryPoint
                0x000000000001180c      0x4fc /tmp/Ip4Dxe.dll.v1Cwes.ltrans1.ltrans.o
                0x000000000001180c                _ModuleEntryPoint
 *fill*         0x0000000000011d08        0x8 
 .text          0x0000000000011d10      0x200 /home/alastair/pftf-rpi4/Build/RPi4/DEBUG_GCC5/AARCH64/MdePkg/Library/BaseMemoryLibOptDxe/BaseMemoryLibOptDxe/OUTPUT/BaseMemoryLibOptDxe.lib(SetMem.obj)
                0x0000000000011d10                InternalMemSetMem16
                0x0000000000011d1c                InternalMemSetMem32
                0x0000000000011d28                InternalMemSetMem64
                0x0000000000011d34                InternalMemZeroMem
                0x0000000000011d3c                InternalMemSetMem
 .text          0x0000000000011f10      0x218 /home/alastair/pftf-rpi4/Build/RPi4/DEBUG_GCC5/AARCH64/MdePkg/Library/BaseMemoryLibOptDxe/BaseMemoryLibOptDxe/OUTPUT/BaseMemoryLibOptDxe.lib(CopyMem.obj)
                0x000000000001207c                InternalMemCopyMem
 *fill*         0x0000000000012128       0x18 
 .text          0x0000000000012140       0xe0 /home/alastair/pftf-rpi4/Build/RPi4/DEBUG_GCC5/AARCH64/MdePkg/Library/BaseMemoryLibOptDxe/BaseMemoryLibOptDxe/OUTPUT/BaseMemoryLibOptDxe.lib(CompareMem.obj)
                0x0000000000012140                InternalMemCompareMem
 *(.rodata .rodata.* .gnu.linkonce.r.*)
 .rodata.DebugAssert.str1.1
                0x0000000000012220       0x1f /tmp/Ip4Dxe.dll.v1Cwes.ltrans0.ltrans.o
 .rodata.ReadUnaligned16.str1.1
                0x000000000001223f       0x45 /tmp/Ip4Dxe.dll.v1Cwes.ltrans0.ltrans.o
                                         0x5c (size before relaxing)
 .rodata.SetMem16.str1.1
                0x0000000000012284       0xb9 /tmp/Ip4Dxe.dll.v1Cwes.ltrans0.ltrans.o
 .rodata.NetblockTrim.str1.1
                0x000000000001233d       0x7b /tmp/Ip4Dxe.dll.v1Cwes.ltrans0.ltrans.o
 .rodata.NetbufTrim.str1.1
                0x00000000000123b8       0x6b /tmp/Ip4Dxe.dll.v1Cwes.ltrans0.ltrans.o
 .rodata.NetbufReserve.str1.1
                0x0000000000012423      0x124 /tmp/Ip4Dxe.dll.v1Cwes.ltrans0.ltrans.o
 .rodata.NetbufSetBlockOp.str1.1
                0x0000000000012547       0x19 /tmp/Ip4Dxe.dll.v1Cwes.ltrans0.ltrans.o
 .rodata.NetbufAllocSpace.str1.1
                0x0000000000012560        0x8 /tmp/Ip4Dxe.dll.v1Cwes.ltrans0.ltrans.o
 .rodata.NetMapFindKey.str1.1
                0x0000000000012568       0x72 /tmp/Ip4Dxe.dll.v1Cwes.ltrans0.ltrans.o
 .rodata.NetListInsertBefore.str1.1
                0x00000000000125da       0x36 /tmp/Ip4Dxe.dll.v1Cwes.ltrans0.ltrans.o
 .rodata.NetIp4IsUnicast.str1.1
                0x0000000000012610       0x35 /tmp/Ip4Dxe.dll.v1Cwes.ltrans0.ltrans.o
 .rodata.EfiReleaseLock.str1.1
                0x0000000000012645       0x5d /tmp/Ip4Dxe.dll.v1Cwes.ltrans0.ltrans.o
 .rodata.EfiAcquireLockOrFail.str1.1
                0x00000000000126a2       0x23 /tmp/Ip4Dxe.dll.v1Cwes.ltrans0.ltrans.o
 .rodata.DevicePathNodeLength.str1.1
                0x00000000000126c5       0x6a /tmp/Ip4Dxe.dll.v1Cwes.ltrans0.ltrans.o
 .rodata.UnicodeValueToStringS.constprop.0.str1.1
                0x000000000001272f      0x14d /tmp/Ip4Dxe.dll.v1Cwes.ltrans0.ltrans.o
 .rodata.StrnLenS.str1.1
                0x000000000001287c       0x65 /tmp/Ip4Dxe.dll.v1Cwes.ltrans0.ltrans.o
 .rodata.BasePrintLibSPrintMarker.constprop.0.str1.1
                0x00000000000128e1      0x227 /tmp/Ip4Dxe.dll.v1Cwes.ltrans0.ltrans.o
 .rodata.BasePrintLibSPrintMarker.constprop.0
                0x0000000000012b08       0x5e /tmp/Ip4Dxe.dll.v1Cwes.ltrans0.ltrans.o
 .rodata.AsciiStrLen.str1.1
                0x0000000000012b66       0x76 /tmp/Ip4Dxe.dll.v1Cwes.ltrans0.ltrans.o
                                         0x8d (size before relaxing)
 .rodata.AsciiStrnCmp.str1.1
                0x0000000000012bdc       0x70 /tmp/Ip4Dxe.dll.v1Cwes.ltrans0.ltrans.o
 .rodata.StrLen.str1.1
                0x0000000000012c4c       0x3a /tmp/Ip4Dxe.dll.v1Cwes.ltrans0.ltrans.o
 .rodata.StrStr.str1.1
                0x0000000000012c86       0x32 /tmp/Ip4Dxe.dll.v1Cwes.ltrans0.ltrans.o
 .rodata.StrnCmp.str1.1
                0x0000000000012cb8       0x72 /tmp/Ip4Dxe.dll.v1Cwes.ltrans0.ltrans.o
 .rodata.InternalHiiCompareSubString.str1.1
                0x0000000000012d2a       0x80 /tmp/Ip4Dxe.dll.v1Cwes.ltrans0.ltrans.o
 .rodata.InternalBaseLibIsListValid.str1.1
                0x0000000000012daa       0x98 /tmp/Ip4Dxe.dll.v1Cwes.ltrans0.ltrans.o
 .rodata.Ip4TrimPacket.str1.1
                0x0000000000012e42       0x8e /tmp/Ip4Dxe.dll.v1Cwes.ltrans0.ltrans.o
 .rodata.EfiCreateProtocolNotifyEvent.constprop.0.str1.1
                0x0000000000012ed0       0x35 /tmp/Ip4Dxe.dll.v1Cwes.ltrans0.ltrans.o
 *fill*         0x0000000000012f05        0x1 
 .rodata.StrCpyS.constprop.0.str2.2
                0x0000000000012f06        0xc /tmp/Ip4Dxe.dll.v1Cwes.ltrans0.ltrans.o
 .rodata.StrCpyS.constprop.0.str1.1
                0x0000000000012f12      0x111 /tmp/Ip4Dxe.dll.v1Cwes.ltrans0.ltrans.o
 .rodata.FreePool.str1.1
                0x0000000000013023       0x5b /tmp/Ip4Dxe.dll.v1Cwes.ltrans0.ltrans.o
 .rodata.Ip4ReceiveFrame.constprop.0.str1.1
                0x000000000001307e       0xad /tmp/Ip4Dxe.dll.v1Cwes.ltrans0.ltrans.o
 .rodata.NetbufFreeVector.str1.1
                0x000000000001312b       0x86 /tmp/Ip4Dxe.dll.v1Cwes.ltrans0.ltrans.o
                                         0x99 (size before relaxing)
 .rodata.NetbufFree.str1.1
                0x00000000000131b1       0x26 /tmp/Ip4Dxe.dll.v1Cwes.ltrans0.ltrans.o
 .rodata.Ip4FreeRouteEntry.str1.1
                0x00000000000131d7       0x4f /tmp/Ip4Dxe.dll.v1Cwes.ltrans0.ltrans.o
 .rodata.StrCatS.str1.1
                0x0000000000013226       0x25 /tmp/Ip4Dxe.dll.v1Cwes.ltrans0.ltrans.o
 .rodata.StrnCpyS.str1.1
                0x000000000001324b       0x4a /tmp/Ip4Dxe.dll.v1Cwes.ltrans0.ltrans.o
 .rodata.UnicodeSPrint.str1.1
                0x0000000000013295       0x28 /tmp/Ip4Dxe.dll.v1Cwes.ltrans0.ltrans.o
 *fill*         0x00000000000132bd        0x1 
 .rodata.Ip4Config2IpToStr.str2.2
                0x00000000000132be       0x18 /tmp/Ip4Dxe.dll.v1Cwes.ltrans0.ltrans.o
 .rodata.IsNull.str1.1
                0x00000000000132d6       0x22 /tmp/Ip4Dxe.dll.v1Cwes.ltrans0.ltrans.o
 .rodata.IsListEmpty.str1.1
                0x00000000000132f8       0x26 /tmp/Ip4Dxe.dll.v1Cwes.ltrans0.ltrans.o
 .rodata.NetMapIterate.str1.1
                0x000000000001331e       0x34 /tmp/Ip4Dxe.dll.v1Cwes.ltrans0.ltrans.o
 .rodata.RemoveEntryList.str1.1
                0x0000000000013352       0x15 /tmp/Ip4Dxe.dll.v1Cwes.ltrans0.ltrans.o
 .rodata.NetMapClean.str1.1
                0x0000000000013367       0x5f /tmp/Ip4Dxe.dll.v1Cwes.ltrans0.ltrans.o
 .rodata.Ip4OnRecyclePacket.str1.1
                0x00000000000133c6       0x48 /tmp/Ip4Dxe.dll.v1Cwes.ltrans0.ltrans.o
 .rodata.NetMapRemoveItem.constprop.0.str1.1
                0x000000000001340e       0x75 /tmp/Ip4Dxe.dll.v1Cwes.ltrans0.ltrans.o
 .rodata.EfiIp4Config2UnregisterDataNotify.str1.1
                0x0000000000013483       0x56 /tmp/Ip4Dxe.dll.v1Cwes.ltrans0.ltrans.o
 .rodata.InitializeListHead.str1.1
                0x00000000000134d9       0x19 /tmp/Ip4Dxe.dll.v1Cwes.ltrans0.ltrans.o
 .rodata.CopyMem.str1.1
                0x00000000000134f2       0xd3 /tmp/Ip4Dxe.dll.v1Cwes.ltrans0.ltrans.o
 .rodata.InternalAllocateCopyPool.constprop.0.str1.1
                0x00000000000135c5       0x3f /tmp/Ip4Dxe.dll.v1Cwes.ltrans0.ltrans.o
 .rodata.NetbufCopy.constprop.0.str1.1
                0x0000000000013604        0x5 /tmp/Ip4Dxe.dll.v1Cwes.ltrans0.ltrans.o
 *fill*         0x0000000000013609        0x1 
 .rodata.Ip4ComponentNameGetControllerName.str2.2
                0x000000000001360a       0x58 /tmp/Ip4Dxe.dll.v1Cwes.ltrans0.ltrans.o
 .rodata.Ip4ComponentNameGetControllerName.str1.1
                0x0000000000013662        0x4 /tmp/Ip4Dxe.dll.v1Cwes.ltrans0.ltrans.o
                                          0x7 (size before relaxing)
 .rodata.CompareMem.str1.1
                0x0000000000013666       0x94 /tmp/Ip4Dxe.dll.v1Cwes.ltrans0.ltrans.o
 .rodata.ZeroMem.str1.1
                0x00000000000136fa       0x88 /tmp/Ip4Dxe.dll.v1Cwes.ltrans0.ltrans.o
 .rodata.GetBestLanguage.constprop.0.str1.1
                0x0000000000013782       0x23 /tmp/Ip4Dxe.dll.v1Cwes.ltrans0.ltrans.o
 *fill*         0x00000000000137a5        0x1 
 .rodata.HiiConstructConfigHdr.constprop.0.str2.2
                0x00000000000137a6       0x1c /tmp/Ip4Dxe.dll.v1Cwes.ltrans0.ltrans.o
 .rodata.HiiIsConfigHdrMatch.constprop.0.str1.1
                0x00000000000137c2       0x1a /tmp/Ip4Dxe.dll.v1Cwes.ltrans0.ltrans.o
 .rodata.CreatePopUp.constprop.0.str1.1
                0x00000000000137dc       0x90 /tmp/Ip4Dxe.dll.v1Cwes.ltrans0.ltrans.o
 .rodata.CreatePopUp.constprop.0.str2.2
                0x000000000001386c        0x8 /tmp/Ip4Dxe.dll.v1Cwes.ltrans0.ltrans.o
 .rodata.HiiGetSupportedLanguages.str1.1
                0x0000000000013874       0x66 /tmp/Ip4Dxe.dll.v1Cwes.ltrans0.ltrans.o
 .rodata.HiiSetString.constprop.0.str1.1
                0x00000000000138da       0x51 /tmp/Ip4Dxe.dll.v1Cwes.ltrans0.ltrans.o
 .rodata.NetbufAllocStruct.str1.1
                0x000000000001392b       0x10 /tmp/Ip4Dxe.dll.v1Cwes.ltrans0.ltrans.o
 .rodata.NetbufFromExt.str1.1
                0x000000000001393b       0x4b /tmp/Ip4Dxe.dll.v1Cwes.ltrans0.ltrans.o
 .rodata.Ip4FormExtractConfig.str1.1
                0x0000000000013986       0xb2 /tmp/Ip4Dxe.dll.v1Cwes.ltrans0.ltrans.o
 .rodata.Ip4FormExtractConfig.str2.2
                0x0000000000013a38       0x40 /tmp/Ip4Dxe.dll.v1Cwes.ltrans0.ltrans.o
 .rodata.Ip4Config2ConvertIfrNvDataToConfigNvData.str2.2
                0x0000000000013a78       0x9c /tmp/Ip4Dxe.dll.v1Cwes.ltrans0.ltrans.o
 .rodata.Ip4FormCallback.str2.2
                0x0000000000013b14        0xc /tmp/Ip4Dxe.dll.v1Cwes.ltrans0.ltrans.o
 .rodata.Ip4FormCallback
                0x0000000000013b20        0xa /tmp/Ip4Dxe.dll.v1Cwes.ltrans0.ltrans.o
 .rodata.Ip4WrapRxData.str1.1
                0x0000000000013b2a       0x3a /tmp/Ip4Dxe.dll.v1Cwes.ltrans0.ltrans.o
 .rodata.Ip4Config2FormInit.str1.1
                0x0000000000013b64       0x17 /tmp/Ip4Dxe.dll.v1Cwes.ltrans0.ltrans.o
                                         0x18 (size before relaxing)
 *fill*         0x0000000000013b7b        0x1 
 .rodata.Ip4Config2FormInit.str2.2
                0x0000000000013b7c       0x40 /tmp/Ip4Dxe.dll.v1Cwes.ltrans0.ltrans.o
 .rodata.EfiIp4Config2SetData.str1.1
                0x0000000000013bbc       0x6b /tmp/Ip4Dxe.dll.v1Cwes.ltrans0.ltrans.o
 .rodata.Ip4Config2DestroyDhcp4.str1.1
                0x0000000000013c27       0x6b /tmp/Ip4Dxe.dll.v1Cwes.ltrans0.ltrans.o
                                         0x16 (size before relaxing)
 .rodata.Ip4IpSecProcessPacket.part.0.str1.1
                0x0000000000013c27       0x30 /tmp/Ip4Dxe.dll.v1Cwes.ltrans0.ltrans.o
 .rodata.Ip4InstanceDeliverPacket.str1.1
                0x0000000000013c57       0x21 /tmp/Ip4Dxe.dll.v1Cwes.ltrans0.ltrans.o
                                         0x36 (size before relaxing)
 .rodata.Ip4Demultiplex.str1.1
                0x0000000000013c78       0x77 /tmp/Ip4Dxe.dll.v1Cwes.ltrans0.ltrans.o
 .rodata.Ip4PreProcessPacket.str1.1
                0x0000000000013cef       0x55 /tmp/Ip4Dxe.dll.v1Cwes.ltrans0.ltrans.o
 .rodata.Ip4AccpetFrame.str1.1
                0x0000000000013d44       0x66 /tmp/Ip4Dxe.dll.v1Cwes.ltrans0.ltrans.o
 .rodata.Ip4FreeRouteCacheEntry.str1.1
                0x0000000000013daa       0x19 /tmp/Ip4Dxe.dll.v1Cwes.ltrans0.ltrans.o
 .rodata.Ip4Route.str1.1
                0x0000000000013dc3       0x18 /tmp/Ip4Dxe.dll.v1Cwes.ltrans0.ltrans.o
 .rodata.Ip4FreeRouteTable.str1.1
                0x0000000000013ddb       0x14 /tmp/Ip4Dxe.dll.v1Cwes.ltrans0.ltrans.o
 .rodata.Ip4Config2SetDefaultAddr.str1.1
                0x0000000000013def       0x15 /tmp/Ip4Dxe.dll.v1Cwes.ltrans0.ltrans.o
 .rodata.Ip4Config2SetManualAddress.str1.1
                0x0000000000013e04       0x6d /tmp/Ip4Dxe.dll.v1Cwes.ltrans0.ltrans.o
 .rodata.Ip4Config2OnDhcp4Complete.str1.1
                0x0000000000013e71       0x20 /tmp/Ip4Dxe.dll.v1Cwes.ltrans0.ltrans.o
 .rodata.__FUNCTION__.1941
                0x0000000000013e91        0x8 /tmp/Ip4Dxe.dll.v1Cwes.ltrans0.ltrans.o
 .rodata.__FUNCTION__.1952
                0x0000000000013e99        0x9 /tmp/Ip4Dxe.dll.v1Cwes.ltrans0.ltrans.o
 .rodata.__FUNCTION__.1964
                0x0000000000013ea2        0x8 /tmp/Ip4Dxe.dll.v1Cwes.ltrans0.ltrans.o
 *fill*         0x0000000000013eaa        0x2 
 .rodata.gIp4AllMasks
                0x0000000000013eac       0x84 /tmp/Ip4Dxe.dll.v1Cwes.ltrans0.ltrans.o
 .rodata.mConfigHdrTemplate
                0x0000000000013f30       0x70 /tmp/Ip4Dxe.dll.v1Cwes.ltrans0.ltrans.o
 .rodata.mEndOfPakageList
                0x0000000000013fa0        0x4 /tmp/Ip4Dxe.dll.v1Cwes.ltrans0.ltrans.o
 .rodata.mErrorString
                0x0000000000013fa4      0x2b5 /tmp/Ip4Dxe.dll.v1Cwes.ltrans0.ltrans.o
 .rodata.mHexStr
                0x0000000000014259       0x10 /tmp/Ip4Dxe.dll.v1Cwes.ltrans0.ltrans.o
 .rodata.mIcmpClass
                0x0000000000014269       0x22 /tmp/Ip4Dxe.dll.v1Cwes.ltrans0.ltrans.o
 .rodata.mUefiDevicePathLibEndDevicePath
                0x000000000001428b        0x4 /tmp/Ip4Dxe.dll.v1Cwes.ltrans0.ltrans.o
 .rodata.mWarningString
                0x000000000001428f       0x96 /tmp/Ip4Dxe.dll.v1Cwes.ltrans0.ltrans.o
 .rodata.Ip4CopyOption.str1.1
                0x0000000000014325       0x6a /tmp/Ip4Dxe.dll.v1Cwes.ltrans1.ltrans.o
 .rodata.EfiIp4Poll.str1.1
                0x000000000001438f       0x3a /tmp/Ip4Dxe.dll.v1Cwes.ltrans1.ltrans.o
                                         0x4f (size before relaxing)
 .rodata.Ip4DestroyChildEntryInHandleBuffer.str1.1
                0x00000000000143c9       0x3c /tmp/Ip4Dxe.dll.v1Cwes.ltrans1.ltrans.o
 .rodata.Ip4TimerReconfigChecking.str1.1
                0x0000000000014405       0x6b /tmp/Ip4Dxe.dll.v1Cwes.ltrans1.ltrans.o
 .rodata.Ip4OnPacketSent.str1.1
                0x0000000000014405       0x1c /tmp/Ip4Dxe.dll.v1Cwes.ltrans1.ltrans.o
 .rodata.Ip4FreeLinkTxToken.str1.1
                0x0000000000014421       0x6d /tmp/Ip4Dxe.dll.v1Cwes.ltrans1.ltrans.o
                                         0xa5 (size before relaxing)
 .rodata.Ip4FreeArpQue.str1.1
                0x000000000001448e       0x6f /tmp/Ip4Dxe.dll.v1Cwes.ltrans1.ltrans.o
 .rodata.Ip4SentPacketTicking.str1.1
                0x00000000000144fd       0x15 /tmp/Ip4Dxe.dll.v1Cwes.ltrans1.ltrans.o
 .rodata.Ip4SendFrame.str1.1
                0x0000000000014512       0x16 /tmp/Ip4Dxe.dll.v1Cwes.ltrans1.ltrans.o
 .rodata.Ip4OnArpResolvedDpc.str1.1
                0x0000000000014528       0x2c /tmp/Ip4Dxe.dll.v1Cwes.ltrans1.ltrans.o
 .rodata.Ip4PrependHead.str1.1
                0x0000000000014554       0x60 /tmp/Ip4Dxe.dll.v1Cwes.ltrans1.ltrans.o
 .rodata.Ip4Output.str1.1
                0x00000000000145b4        0xe /tmp/Ip4Dxe.dll.v1Cwes.ltrans1.ltrans.o
                                         0xc0 (size before relaxing)
 .rodata.Ip4TimerTicking.str1.1
                0x00000000000145c2       0x50 /tmp/Ip4Dxe.dll.v1Cwes.ltrans1.ltrans.o
 .rodata.Ip4Groups.str1.1
                0x0000000000014612       0x4b /tmp/Ip4Dxe.dll.v1Cwes.ltrans1.ltrans.o
 .rodata.Ip4FreeInterface.str1.1
                0x000000000001465d       0x83 /tmp/Ip4Dxe.dll.v1Cwes.ltrans1.ltrans.o
                                         0xf8 (size before relaxing)
 .rodata.Ip4DriverBindingStart.str1.1
                0x00000000000146e0       0x41 /tmp/Ip4Dxe.dll.v1Cwes.ltrans1.ltrans.o
 .rodata.Ip4DriverBindingStart.str2.2
                0x00000000000146e0        0xc /tmp/Ip4Dxe.dll.v1Cwes.ltrans1.ltrans.o
 .rodata.Ip4FreeFrameRxToken.str1.1
                0x00000000000146ec       0x6d /tmp/Ip4Dxe.dll.v1Cwes.ltrans1.ltrans.o
 .rodata.Ip4RecycleFrame.str1.1
                0x0000000000014759       0x6d /tmp/Ip4Dxe.dll.v1Cwes.ltrans1.ltrans.o
 .rodata.__stack_chk_fail.str1.1
                0x00000000000147c6       0x2e /tmp/Ip4Dxe.dll.v1Cwes.ltrans1.ltrans.o
 .rodata._ModuleEntryPoint.str1.1
                0x00000000000147f4      0x2f7 /tmp/Ip4Dxe.dll.v1Cwes.ltrans1.ltrans.o
                                        0x32c (size before relaxing)
 .rodata.str1.1
                0x0000000000014aeb        0x7 /tmp/Ip4Dxe.dll.v1Cwes.ltrans1.ltrans.o
 .rodata.str2.2
                0x0000000000014af2       0x36 /tmp/Ip4Dxe.dll.v1Cwes.ltrans1.ltrans.o
 *(.got .got.*)
 .got           0x0000000000014b28        0x8 /home/alastair/pftf-rpi4/edk2/ArmPkg/Library/GccLto/liblto-aarch64.a
                0x0000000000014b28                _GLOBAL_OFFSET_TABLE_
 .got.plt       0x0000000000014b30       0x18 /home/alastair/pftf-rpi4/edk2/ArmPkg/Library/GccLto/liblto-aarch64.a
 *:AutoGen.obj(.data.g*Guid)

.plt            0x0000000000014b48        0x0
 .plt           0x0000000000014b48        0x0 /home/alastair/pftf-rpi4/edk2/ArmPkg/Library/GccLto/liblto-aarch64.a

.data           0x0000000000015000      0x92a
 *(.data .data.* .gnu.linkonce.d.*)
 .data.rel.ro   0x0000000000015000        0x0 /home/alastair/pftf-rpi4/edk2/ArmPkg/Library/GccLto/liblto-aarch64.a
 .data.Ip4Config2Bin
                0x0000000000015000      0x13c /tmp/Ip4Dxe.dll.v1Cwes.ltrans0.ltrans.o
 .data.Ip4DxeStrings
                0x000000000001513c      0x469 /tmp/Ip4Dxe.dll.v1Cwes.ltrans0.ltrans.o
 *fill*         0x00000000000155a5        0x3 
 .data.gEfiArpProtocolGuid
                0x00000000000155a8       0x10 /tmp/Ip4Dxe.dll.v1Cwes.ltrans0.ltrans.o
                0x00000000000155a8                gEfiArpProtocolGuid
 .data.gEfiCallerIdGuid
                0x00000000000155b8       0x10 /tmp/Ip4Dxe.dll.v1Cwes.ltrans0.ltrans.o
 .data.gEfiDevicePathProtocolGuid
                0x00000000000155c8       0x10 /tmp/Ip4Dxe.dll.v1Cwes.ltrans0.ltrans.o
 .data.gEfiDhcp4ProtocolGuid
                0x00000000000155d8       0x10 /tmp/Ip4Dxe.dll.v1Cwes.ltrans0.ltrans.o
                0x00000000000155d8                gEfiDhcp4ProtocolGuid
 .data.gEfiDhcp4ServiceBindingProtocolGuid
                0x00000000000155e8       0x10 /tmp/Ip4Dxe.dll.v1Cwes.ltrans0.ltrans.o
 .data.gEfiFormBrowser2ProtocolGuid
                0x00000000000155f8       0x10 /tmp/Ip4Dxe.dll.v1Cwes.ltrans0.ltrans.o
 .data.gEfiGlobalVariableGuid
                0x0000000000015608       0x10 /tmp/Ip4Dxe.dll.v1Cwes.ltrans0.ltrans.o
 .data.gEfiHiiConfigAccessProtocolGuid
                0x0000000000015618       0x10 /tmp/Ip4Dxe.dll.v1Cwes.ltrans0.ltrans.o
 .data.gEfiIp4Config2ProtocolGuid
                0x0000000000015628       0x10 /tmp/Ip4Dxe.dll.v1Cwes.ltrans0.ltrans.o
                0x0000000000015628                gEfiIp4Config2ProtocolGuid
 .data.gEfiIp4ProtocolGuid
                0x0000000000015638       0x10 /tmp/Ip4Dxe.dll.v1Cwes.ltrans0.ltrans.o
                0x0000000000015638                gEfiIp4ProtocolGuid
 .data.gEfiManagedNetworkProtocolGuid
                0x0000000000015648       0x10 /tmp/Ip4Dxe.dll.v1Cwes.ltrans0.ltrans.o
                0x0000000000015648                gEfiManagedNetworkProtocolGuid
 .data.gEfiManagedNetworkServiceBindingProtocolGuid
                0x0000000000015658       0x10 /tmp/Ip4Dxe.dll.v1Cwes.ltrans0.ltrans.o
                0x0000000000015658                gEfiManagedNetworkServiceBindingProtocolGuid
 .data.gEfiSimpleNetworkProtocolGuid
                0x0000000000015668       0x10 /tmp/Ip4Dxe.dll.v1Cwes.ltrans0.ltrans.o
 .data.gIp4ComponentName
                0x0000000000015678       0x18 /tmp/Ip4Dxe.dll.v1Cwes.ltrans0.ltrans.o
                0x0000000000015678                gIp4ComponentName
 .data.gIp4ComponentName2
                0x0000000000015690       0x18 /tmp/Ip4Dxe.dll.v1Cwes.ltrans0.ltrans.o
                0x0000000000015690                gIp4ComponentName2
 .data.gIp4Config2NvDataGuid
                0x00000000000156a8       0x10 /tmp/Ip4Dxe.dll.v1Cwes.ltrans0.ltrans.o
 .data.gIp4DriverBinding
                0x00000000000156b8       0x30 /tmp/Ip4Dxe.dll.v1Cwes.ltrans0.ltrans.o
                0x00000000000156b8                gIp4DriverBinding
 .data.mIp4Config2StorageName
                0x00000000000156e8       0x2e /tmp/Ip4Dxe.dll.v1Cwes.ltrans0.ltrans.o
 *fill*         0x0000000000015716        0x2 
 .data.__stack_chk_guard
                0x0000000000015718        0x8 /tmp/Ip4Dxe.dll.v1Cwes.ltrans1.ltrans.o
                0x0000000000015718                __stack_chk_guard
 .data.gEfiArpServiceBindingProtocolGuid
                0x0000000000015720       0x10 /tmp/Ip4Dxe.dll.v1Cwes.ltrans1.ltrans.o
 .data.gEfiComponentName2ProtocolGuid
                0x0000000000015730       0x10 /tmp/Ip4Dxe.dll.v1Cwes.ltrans1.ltrans.o
 .data.gEfiComponentNameProtocolGuid
                0x0000000000015740       0x10 /tmp/Ip4Dxe.dll.v1Cwes.ltrans1.ltrans.o
 .data.gEfiDpcProtocolGuid
                0x0000000000015750       0x10 /tmp/Ip4Dxe.dll.v1Cwes.ltrans1.ltrans.o
 .data.gEfiDriverBindingProtocolGuid
                0x0000000000015760       0x10 /tmp/Ip4Dxe.dll.v1Cwes.ltrans1.ltrans.o
 .data.gEfiHiiConfigRoutingProtocolGuid
                0x0000000000015770       0x10 /tmp/Ip4Dxe.dll.v1Cwes.ltrans1.ltrans.o
 .data.gEfiHiiDatabaseProtocolGuid
                0x0000000000015780       0x10 /tmp/Ip4Dxe.dll.v1Cwes.ltrans1.ltrans.o
 .data.gEfiHiiFontProtocolGuid
                0x0000000000015790       0x10 /tmp/Ip4Dxe.dll.v1Cwes.ltrans1.ltrans.o
 .data.gEfiHiiImageProtocolGuid
                0x00000000000157a0       0x10 /tmp/Ip4Dxe.dll.v1Cwes.ltrans1.ltrans.o
 .data.gEfiHiiStringProtocolGuid
                0x00000000000157b0       0x10 /tmp/Ip4Dxe.dll.v1Cwes.ltrans1.ltrans.o
 .data.gEfiIp4ServiceBindingProtocolGuid
                0x00000000000157c0       0x10 /tmp/Ip4Dxe.dll.v1Cwes.ltrans1.ltrans.o
 .data.gEfiIpSec2ProtocolGuid
                0x00000000000157d0       0x10 /tmp/Ip4Dxe.dll.v1Cwes.ltrans1.ltrans.o
 .data.gEfiLoadedImageProtocolGuid
                0x00000000000157e0       0x10 /tmp/Ip4Dxe.dll.v1Cwes.ltrans1.ltrans.o
 .data.mEfiIp4ProtocolTemplete
                0x00000000000157f0       0x40 /tmp/Ip4Dxe.dll.v1Cwes.ltrans1.ltrans.o
 .data.mIp4Config2InstanceList
                0x0000000000015830       0x10 /tmp/Ip4Dxe.dll.v1Cwes.ltrans1.ltrans.o
 .data.mIp4DriverNameTable
                0x0000000000015840       0x20 /tmp/Ip4Dxe.dll.v1Cwes.ltrans1.ltrans.o
 .data.mIp4SupportedIcmp
                0x0000000000015860       0x2e /tmp/Ip4Dxe.dll.v1Cwes.ltrans1.ltrans.o
 *fill*         0x000000000001588e        0x2 
 .data.mRouteAlertOption
                0x0000000000015890        0x4 /tmp/Ip4Dxe.dll.v1Cwes.ltrans1.ltrans.o
 *(.bss .bss.*)
 .bss.UsePl011Uart
                0x0000000000015894        0x1 /tmp/Ip4Dxe.dll.v1Cwes.ltrans0.ltrans.o
 .bss.UsePl011UartSet
                0x0000000000015895        0x1 /tmp/Ip4Dxe.dll.v1Cwes.ltrans0.ltrans.o
 *fill*         0x0000000000015896        0x2 
 .bss.gBS       0x0000000000015898        0x8 /tmp/Ip4Dxe.dll.v1Cwes.ltrans0.ltrans.o
                0x0000000000015898                gBS
 .bss.gHiiConfigRouting
                0x00000000000158a0        0x8 /tmp/Ip4Dxe.dll.v1Cwes.ltrans0.ltrans.o
                0x00000000000158a0                gHiiConfigRouting
 .bss.gHiiDatabase
                0x00000000000158a8        0x8 /tmp/Ip4Dxe.dll.v1Cwes.ltrans0.ltrans.o
                0x00000000000158a8                gHiiDatabase
 .bss.gHiiString
                0x00000000000158b0        0x8 /tmp/Ip4Dxe.dll.v1Cwes.ltrans0.ltrans.o
                0x00000000000158b0                gHiiString
 .bss.gIp4ControllerNameTable
                0x00000000000158b8        0x8 /tmp/Ip4Dxe.dll.v1Cwes.ltrans0.ltrans.o
                0x00000000000158b8                gIp4ControllerNameTable
 .bss.gRT       0x00000000000158c0        0x8 /tmp/Ip4Dxe.dll.v1Cwes.ltrans0.ltrans.o
                0x00000000000158c0                gRT
 .bss.gST       0x00000000000158c8        0x8 /tmp/Ip4Dxe.dll.v1Cwes.ltrans0.ltrans.o
                0x00000000000158c8                gST
 .bss.mDpc      0x00000000000158d0        0x8 /tmp/Ip4Dxe.dll.v1Cwes.ltrans0.ltrans.o
                0x00000000000158d0                mDpc
 .bss.mIpSec    0x00000000000158d8        0x8 /tmp/Ip4Dxe.dll.v1Cwes.ltrans0.ltrans.o
                0x00000000000158d8                mIpSec
 .bss.mIpSec2Installed
                0x00000000000158e0        0x1 /tmp/Ip4Dxe.dll.v1Cwes.ltrans0.ltrans.o
                0x00000000000158e0                mIpSec2Installed
 *fill*         0x00000000000158e1        0x7 
 .bss.mUefiFormBrowser2
                0x00000000000158e8        0x8 /tmp/Ip4Dxe.dll.v1Cwes.ltrans0.ltrans.o
 .bss.gHiiFont  0x00000000000158f0        0x8 /tmp/Ip4Dxe.dll.v1Cwes.ltrans1.ltrans.o
 .bss.gHiiImage
                0x00000000000158f8        0x8 /tmp/Ip4Dxe.dll.v1Cwes.ltrans1.ltrans.o
 .bss.gImageHandle
                0x0000000000015900        0x8 /tmp/Ip4Dxe.dll.v1Cwes.ltrans1.ltrans.o
 .bss.mIp4Id    0x0000000000015908        0x2 /tmp/Ip4Dxe.dll.v1Cwes.ltrans1.ltrans.o
 .bss.mZeroMacAddress
                0x000000000001590a       0x20 /tmp/Ip4Dxe.dll.v1Cwes.ltrans1.ltrans.o

.dynbss         0x000000000001592a        0x0
 .dynbss        0x000000000001592a        0x0 /home/alastair/pftf-rpi4/edk2/ArmPkg/Library/GccLto/liblto-aarch64.a

.eh_frame
 *(.eh_frame)

.rela           0x0000000000015930      0x1f8
 *(.rela .rela.*)
 .rela.got      0x0000000000015930        0x0 /home/alastair/pftf-rpi4/edk2/ArmPkg/Library/GccLto/liblto-aarch64.a
 .rela.plt      0x0000000000015930        0x0 /home/alastair/pftf-rpi4/edk2/ArmPkg/Library/GccLto/liblto-aarch64.a
 .rela.bss      0x0000000000015930        0x0 /home/alastair/pftf-rpi4/edk2/ArmPkg/Library/GccLto/liblto-aarch64.a
 .rela.data.rel.ro
                0x0000000000015930        0x0 /home/alastair/pftf-rpi4/edk2/ArmPkg/Library/GccLto/liblto-aarch64.a
 .rela.ifunc    0x0000000000015930        0x0 /home/alastair/pftf-rpi4/edk2/ArmPkg/Library/GccLto/liblto-aarch64.a
 .rela.data.gIp4ComponentName
                0x0000000000015930       0x48 /home/alastair/pftf-rpi4/edk2/ArmPkg/Library/GccLto/liblto-aarch64.a
 .rela.data.gIp4ComponentName2
                0x0000000000015978       0x48 /home/alastair/pftf-rpi4/edk2/ArmPkg/Library/GccLto/liblto-aarch64.a
 .rela.data.gIp4DriverBinding
                0x00000000000159c0       0x48 /home/alastair/pftf-rpi4/edk2/ArmPkg/Library/GccLto/liblto-aarch64.a
 .rela.data.mEfiIp4ProtocolTemplete
                0x0000000000015a08       0xc0 /home/alastair/pftf-rpi4/edk2/ArmPkg/Library/GccLto/liblto-aarch64.a
 .rela.data.mIp4Config2InstanceList
                0x0000000000015ac8       0x30 /home/alastair/pftf-rpi4/edk2/ArmPkg/Library/GccLto/liblto-aarch64.a
 .rela.data.mIp4DriverNameTable
                0x0000000000015af8       0x30 /home/alastair/pftf-rpi4/edk2/ArmPkg/Library/GccLto/liblto-aarch64.a

.hii
 *(.hii)

.build-id       0x0000000000015b28       0x24
 *(.note.gnu.build-id)
 .note.gnu.build-id
                0x0000000000015b28       0x24 /home/alastair/pftf-rpi4/edk2/ArmPkg/Library/GccLto/liblto-aarch64.a

/DISCARD/
 *(.note.GNU-stack)
 *(.gnu_debuglink)
 *(.interp)
 *(.dynsym)
 *(.dynstr)
 *(.dynamic)
 *(.hash .gnu.hash)
 *(.comment)
 *(COMMON)
                0x0000000000000228                PECOFF_HEADER_SIZE = 0x228
OUTPUT(/home/alastair/pftf-rpi4/Build/RPi4/DEBUG_GCC5/AARCH64/NetworkPkg/Ip4Dxe/Ip4Dxe/DEBUG/Ip4Dxe.dll elf64-littleaarch64)
LOAD linker stubs

.debug_info     0x0000000000000000    0x95cd4
 .debug_info    0x0000000000000000     0xea74 /tmp/Ip4Dxe.dll.v1Cwes.ltrans0.ltrans.o
 .debug_info    0x000000000000ea74     0x6e33 /tmp/Ip4Dxe.dll.v1Cwes.ltrans1.ltrans.o
 .debug_info    0x00000000000158a7     0x1a57 /tmp/ccV2P7Gp.debug.temp.o
                0x00000000000158a7                DriverEntryPoint.c.9519b125
 .debug_info    0x00000000000172fe      0x187 /tmp/ccOKp0Cq.debug.temp.o
                0x00000000000172fe                BaseStackCheckGcc.c.9918e4ed
 .debug_info    0x0000000000017485      0x1d7 /tmp/ccn3uKqt.debug.temp.o
                0x0000000000017485                memcpy.c.992e94b8
 .debug_info    0x000000000001765c      0x188 /tmp/ccyxDBxr.debug.temp.o
                0x000000000001765c                memset.c.d190684e
 .debug_info    0x00000000000177e4     0x1fb1 /tmp/ccbI080r.debug.temp.o
                0x00000000000177e4                AutoGen.c.572f35cd
 .debug_info    0x0000000000019795     0x5e4e /tmp/cc1mrjlp.debug.temp.o
                0x0000000000019795                Ip4Driver.c.d921430f
 .debug_info    0x000000000001f5e3     0x6399 /tmp/cciSA5qp.debug.temp.o
                0x000000000001f5e3                Ip4If.c.b195d2eb
 .debug_info    0x000000000002597c     0x5dd8 /tmp/cckWRvmp.debug.temp.o
                0x000000000002597c                Ip4Output.c.31b2d784
 .debug_info    0x000000000002b754     0x5e8c /tmp/ccmiL6Gr.debug.temp.o
                0x000000000002b754                Ip4Igmp.c.aea6f009
 .debug_info    0x00000000000315e0     0x646c /tmp/cc2VKSVr.debug.temp.o
                0x00000000000315e0                Ip4Impl.c.1ef3512f
 .debug_info    0x0000000000037a4c     0x5c07 /tmp/ccftK3Qt.debug.temp.o
                0x0000000000037a4c                Ip4Common.c.b9575a2b
 .debug_info    0x000000000003d653     0x39b8 /tmp/ccjyczys.debug.temp.o
                0x000000000003d653                Ip4Option.c.da6cd9d0
 .debug_info    0x000000000004100b     0x3a38 /tmp/ccACdw9r.debug.temp.o
                0x000000000004100b                ComponentName.c.5674edce
 .debug_info    0x0000000000044a43     0x5fc9 /tmp/ccc1Uloq.debug.temp.o
                0x0000000000044a43                Ip4Route.c.06120021
 .debug_info    0x000000000004aa0c     0x6546 /tmp/cctbwcRr.debug.temp.o
                0x000000000004aa0c                Ip4Input.c.81c334ed
 .debug_info    0x0000000000050f52     0x66b9 /tmp/ccbZv36r.debug.temp.o
                0x0000000000050f52                Ip4Config2Impl.c.ac5d3939
 .debug_info    0x000000000005760b     0x61d7 /tmp/cc41gsjp.debug.temp.o
                0x000000000005760b                Ip4Config2Nv.c.a8bffab9
 .debug_info    0x000000000005d7e2     0x5dbb /tmp/ccRcrvsp.debug.temp.o
                0x000000000005d7e2                Ip4Icmp.c.b91ad07a
 .debug_info    0x000000000006359d      0x49a /tmp/cczz3O1r.debug.temp.o
                0x000000000006359d                Ip4Config2.c.a2a71779
 .debug_info    0x0000000000063a37      0x21d /tmp/ccoHqkqr.debug.temp.o
                0x0000000000063a37                MemLibGuid.c.2ca06148
 .debug_info    0x0000000000063c54      0x17a /tmp/ccgkWvXp.debug.temp.o
                0x0000000000063c54                ZeroMemWrapper.c.8dc042f6
 .debug_info    0x0000000000063dce      0x1a7 /tmp/ccMVIL0r.debug.temp.o
                0x0000000000063dce                CompareMemWrapper.c.96cbdc30
 .debug_info    0x0000000000063f75      0x191 /tmp/ccIsCJnq.debug.temp.o
                0x0000000000063f75                CopyMemWrapper.c.8ed793a8
 .debug_info    0x0000000000064106      0x1db /tmp/ccb0VKEq.debug.temp.o
                0x0000000000064106                SwapBytes32.c.2bbabdc8
 .debug_info    0x00000000000642e1      0x1c3 /tmp/cc5CDqlq.debug.temp.o
                0x00000000000642e1                SwapBytes16.c.00247ae1
 .debug_info    0x00000000000644a4      0x1d0 /tmp/ccqn37Aq.debug.temp.o
                0x00000000000644a4                CpuDeadLoop.c.e33e7959
 .debug_info    0x0000000000064674      0x428 /tmp/ccfvmv3q.debug.temp.o
                0x0000000000064674                LinkedList.c.6e13becc
 .debug_info    0x0000000000064a9c      0x7f3 /tmp/ccXBb9gr.debug.temp.o
                0x0000000000064a9c                String.c.753c3495
 .debug_info    0x000000000006528f     0x1004 /tmp/ccgwsoyp.debug.temp.o
                0x000000000006528f                SafeString.c.d8550fea
 .debug_info    0x0000000000066293      0x43c /tmp/ccthnLQr.debug.temp.o
                0x0000000000066293                Math64.c.5e992ad5
 .debug_info    0x00000000000666cf      0x68f /tmp/ccLWwFbt.debug.temp.o
                0x00000000000666cf                PrintLib.c.260a037f
 .debug_info    0x0000000000066d5e      0x79a /tmp/ccRGbk2p.debug.temp.o
                0x0000000000066d5e                PrintLibInternal.c.92769e0a
 .debug_info    0x00000000000674f8      0x3f2 /tmp/ccEDvQlt.debug.temp.o
                0x00000000000674f8                DebugLib.c.0df38b98
 .debug_info    0x00000000000678ea     0x18e1 /tmp/ccqysowr.debug.temp.o
                0x00000000000678ea                UefiBootServicesTableLib.c.c00a3dd8
 .debug_info    0x00000000000691cb     0x1de0 /tmp/ccobIVZr.debug.temp.o
                0x00000000000691cb                MemoryAllocationLib.c.774777c4
 .debug_info    0x000000000006afab     0x1d7d /tmp/ccsSHNws.debug.temp.o
                0x000000000006afab                DevicePathUtilities.c.94f518f0
 .debug_info    0x000000000006cd28     0x1953 /tmp/ccSATrqt.debug.temp.o
                0x000000000006cd28                DevicePathUtilitiesDxeSmm.c.e3408512
 .debug_info    0x000000000006e67b     0x1afe /tmp/ccNBbVPs.debug.temp.o
                0x000000000006e67b                UefiDevicePathLib.c.c981cbf5
 .debug_info    0x0000000000070179     0x3d60 /tmp/ccTcHcDp.debug.temp.o
                0x0000000000070179                DevicePathToText.c.c18353b7
 .debug_info    0x0000000000073ed9     0x18b2 /tmp/ccWtiaMr.debug.temp.o
                0x0000000000073ed9                UefiRuntimeServicesTableLib.c.7b9e7237
 .debug_info    0x000000000007578b     0x2307 /tmp/cczQ3gjq.debug.temp.o
                0x000000000007578b                UefiDriverModel.c.bb92ab9b
 .debug_info    0x0000000000077a92     0x1cda /tmp/ccFLXG7r.debug.temp.o
                0x0000000000077a92                Console.c.85380a39
 .debug_info    0x000000000007976c     0x27ac /tmp/ccvz10Jt.debug.temp.o
                0x000000000007976c                UefiLib.c.2c69044c
 .debug_info    0x000000000007bf18     0x2966 /tmp/ccSCyR9q.debug.temp.o
                0x000000000007bf18                UefiHiiServicesLib.c.57cd5a7f
 .debug_info    0x000000000007e87e     0x7175 /tmp/cc7erc4q.debug.temp.o
                0x000000000007e87e                DxeNetLib.c.1ef1158d
 .debug_info    0x00000000000859f3     0x2b4a /tmp/cc6pqFGt.debug.temp.o
                0x00000000000859f3                NetBuffer.c.0f2301a8
 .debug_info    0x000000000008853d     0x19fc /tmp/cczLTHIq.debug.temp.o
                0x000000000008853d                DpcLib.c.b85740e8
 .debug_info    0x0000000000089f39     0x50c1 /tmp/ccESvKes.debug.temp.o
                0x0000000000089f39                HiiLib.c.b2279ad8
 .debug_info    0x000000000008effa     0x2b6a /tmp/ccDItNbt.debug.temp.o
                0x000000000008effa                HiiString.c.d0f43445
 .debug_info    0x0000000000091b64     0x2a1b /tmp/cc59JZAr.debug.temp.o
                0x0000000000091b64                HiiLanguage.c.1635079f
 .debug_info    0x000000000009457f      0x186 /tmp/ccQI8oAs.debug.temp.o
                0x000000000009457f                SetMem16Wrapper.c.ab3f09e9
 .debug_info    0x0000000000094705      0x1e5 /tmp/ccJJbw4q.debug.temp.o
                0x0000000000094705                DivU64x32Remainder.c.19070deb
 .debug_info    0x00000000000948ea      0x33d /tmp/ccP1S3Qt.debug.temp.o
                0x00000000000948ea                Unaligned.c.4a0798dc
 .debug_info    0x0000000000094c27      0x18d /tmp/ccnmjoRr.debug.temp.o
                0x0000000000094c27                BaseDebugPrintErrorLevelLib.c.afda57b5
 .debug_info    0x0000000000094db4      0x201 /tmp/ccrBDalq.debug.temp.o
                0x0000000000094db4                DebugDualSerialPortLib.c.3fe30e88
 .debug_info    0x0000000000094fb5      0x2e6 /tmp/ccEoXYjq.debug.temp.o
                0x0000000000094fb5                DualSerialPortLibCommon.c.2dc6badf
 .debug_info    0x000000000009529b      0x503 /tmp/ccHcN9Vp.debug.temp.o
                0x000000000009529b                IoLibNoIo.c.335a48c4
 .debug_info    0x000000000009579e      0x536 /tmp/ccda83Fp.debug.temp.o
                0x000000000009579e                PL011UartLib.c.f54a0051

.debug_abbrev   0x0000000000000000     0x724f
 .debug_abbrev  0x0000000000000000      0x30e /tmp/Ip4Dxe.dll.v1Cwes.ltrans0.ltrans.o
 .debug_abbrev  0x000000000000030e      0x256 /tmp/Ip4Dxe.dll.v1Cwes.ltrans1.ltrans.o
 .debug_abbrev  0x0000000000000564      0x1e9 /tmp/ccV2P7Gp.debug.temp.o
 .debug_abbrev  0x000000000000074d       0xc7 /tmp/ccOKp0Cq.debug.temp.o
 .debug_abbrev  0x0000000000000814       0xee /tmp/ccn3uKqt.debug.temp.o
 .debug_abbrev  0x0000000000000902       0xc0 /tmp/ccyxDBxr.debug.temp.o
 .debug_abbrev  0x00000000000009c2      0x236 /tmp/ccbI080r.debug.temp.o
 .debug_abbrev  0x0000000000000bf8      0x32f /tmp/cc1mrjlp.debug.temp.o
 .debug_abbrev  0x0000000000000f27      0x35f /tmp/cciSA5qp.debug.temp.o
 .debug_abbrev  0x0000000000001286      0x34c /tmp/cckWRvmp.debug.temp.o
 .debug_abbrev  0x00000000000015d2      0x368 /tmp/ccmiL6Gr.debug.temp.o
 .debug_abbrev  0x000000000000193a      0x322 /tmp/cc2VKSVr.debug.temp.o
 .debug_abbrev  0x0000000000001c5c      0x30c /tmp/ccftK3Qt.debug.temp.o
 .debug_abbrev  0x0000000000001f68      0x26b /tmp/ccjyczys.debug.temp.o
 .debug_abbrev  0x00000000000021d3      0x2bc /tmp/ccACdw9r.debug.temp.o
 .debug_abbrev  0x000000000000248f      0x341 /tmp/ccc1Uloq.debug.temp.o
 .debug_abbrev  0x00000000000027d0      0x36c /tmp/cctbwcRr.debug.temp.o
 .debug_abbrev  0x0000000000002b3c      0x35f /tmp/ccbZv36r.debug.temp.o
 .debug_abbrev  0x0000000000002e9b      0x36a /tmp/cc41gsjp.debug.temp.o
 .debug_abbrev  0x0000000000003205      0x313 /tmp/ccRcrvsp.debug.temp.o
 .debug_abbrev  0x0000000000003518       0xb5 /tmp/cczz3O1r.debug.temp.o
 .debug_abbrev  0x00000000000035cd       0xce /tmp/ccoHqkqr.debug.temp.o
 .debug_abbrev  0x000000000000369b       0xb1 /tmp/ccgkWvXp.debug.temp.o
 .debug_abbrev  0x000000000000374c       0xb1 /tmp/ccMVIL0r.debug.temp.o
 .debug_abbrev  0x00000000000037fd       0xb8 /tmp/ccIsCJnq.debug.temp.o
 .debug_abbrev  0x00000000000038b5       0xc0 /tmp/ccb0VKEq.debug.temp.o
 .debug_abbrev  0x0000000000003975       0xb1 /tmp/cc5CDqlq.debug.temp.o
 .debug_abbrev  0x0000000000003a26       0xb6 /tmp/ccqn37Aq.debug.temp.o
 .debug_abbrev  0x0000000000003adc      0x139 /tmp/ccfvmv3q.debug.temp.o
 .debug_abbrev  0x0000000000003c15      0x126 /tmp/ccXBb9gr.debug.temp.o
 .debug_abbrev  0x0000000000003d3b      0x138 /tmp/ccgwsoyp.debug.temp.o
 .debug_abbrev  0x0000000000003e73       0xf9 /tmp/ccthnLQr.debug.temp.o
 .debug_abbrev  0x0000000000003f6c      0x150 /tmp/ccLWwFbt.debug.temp.o
 .debug_abbrev  0x00000000000040bc      0x161 /tmp/ccRGbk2p.debug.temp.o
 .debug_abbrev  0x000000000000421d      0x165 /tmp/ccEDvQlt.debug.temp.o
 .debug_abbrev  0x0000000000004382      0x1dd /tmp/ccqysowr.debug.temp.o
 .debug_abbrev  0x000000000000455f      0x242 /tmp/ccobIVZr.debug.temp.o
 .debug_abbrev  0x00000000000047a1      0x240 /tmp/ccsSHNws.debug.temp.o
 .debug_abbrev  0x00000000000049e1      0x1d4 /tmp/ccSATrqt.debug.temp.o
 .debug_abbrev  0x0000000000004bb5      0x1fe /tmp/ccNBbVPs.debug.temp.o
 .debug_abbrev  0x0000000000004db3      0x2ca /tmp/ccTcHcDp.debug.temp.o
 .debug_abbrev  0x000000000000507d      0x1c3 /tmp/ccWtiaMr.debug.temp.o
 .debug_abbrev  0x0000000000005240      0x21c /tmp/cczQ3gjq.debug.temp.o
 .debug_abbrev  0x000000000000545c      0x276 /tmp/ccFLXG7r.debug.temp.o
 .debug_abbrev  0x00000000000056d2      0x267 /tmp/ccvz10Jt.debug.temp.o
 .debug_abbrev  0x0000000000005939      0x216 /tmp/ccSCyR9q.debug.temp.o
 .debug_abbrev  0x0000000000005b4f      0x37e /tmp/cc7erc4q.debug.temp.o
 .debug_abbrev  0x0000000000005ecd      0x2ec /tmp/cc6pqFGt.debug.temp.o
 .debug_abbrev  0x00000000000061b9      0x20d /tmp/cczLTHIq.debug.temp.o
 .debug_abbrev  0x00000000000063c6      0x315 /tmp/ccESvKes.debug.temp.o
 .debug_abbrev  0x00000000000066db      0x249 /tmp/ccDItNbt.debug.temp.o
 .debug_abbrev  0x0000000000006924      0x209 /tmp/cc59JZAr.debug.temp.o
 .debug_abbrev  0x0000000000006b2d       0xb1 /tmp/ccQI8oAs.debug.temp.o
 .debug_abbrev  0x0000000000006bde       0xb3 /tmp/ccJJbw4q.debug.temp.o
 .debug_abbrev  0x0000000000006c91       0xc9 /tmp/ccP1S3Qt.debug.temp.o
 .debug_abbrev  0x0000000000006d5a       0xc6 /tmp/ccnmjoRr.debug.temp.o
 .debug_abbrev  0x0000000000006e20       0xc4 /tmp/ccrBDalq.debug.temp.o
 .debug_abbrev  0x0000000000006ee4      0x108 /tmp/ccEoXYjq.debug.temp.o
 .debug_abbrev  0x0000000000006fec      0x11f /tmp/ccHcN9Vp.debug.temp.o
 .debug_abbrev  0x000000000000710b      0x144 /tmp/ccda83Fp.debug.temp.o

.debug_loc      0x0000000000000000    0x273ba
 .debug_loc     0x0000000000000000    0x1b50a /tmp/Ip4Dxe.dll.v1Cwes.ltrans0.ltrans.o
 .debug_loc     0x000000000001b50a     0xbeb0 /tmp/Ip4Dxe.dll.v1Cwes.ltrans1.ltrans.o

.debug_aranges  0x0000000000000000      0xef0
 .debug_aranges
                0x0000000000000000      0xac0 /tmp/Ip4Dxe.dll.v1Cwes.ltrans0.ltrans.o
 .debug_aranges
                0x0000000000000ac0      0x430 /tmp/Ip4Dxe.dll.v1Cwes.ltrans1.ltrans.o

.debug_ranges   0x0000000000000000     0x3bf0
 .debug_ranges  0x0000000000000000     0x2810 /tmp/Ip4Dxe.dll.v1Cwes.ltrans0.ltrans.o
 .debug_ranges  0x0000000000002810     0x13e0 /tmp/Ip4Dxe.dll.v1Cwes.ltrans1.ltrans.o

.debug_line     0x0000000000000000    0x195f8
 .debug_line    0x0000000000000000     0x91b4 /tmp/Ip4Dxe.dll.v1Cwes.ltrans0.ltrans.o
 .debug_line    0x00000000000091b4     0x4790 /tmp/Ip4Dxe.dll.v1Cwes.ltrans1.ltrans.o
 .debug_line    0x000000000000d944      0x347 /tmp/ccV2P7Gp.debug.temp.o
 .debug_line    0x000000000000dc8b      0x170 /tmp/ccOKp0Cq.debug.temp.o
 .debug_line    0x000000000000ddfb      0x171 /tmp/ccn3uKqt.debug.temp.o
 .debug_line    0x000000000000df6c      0x171 /tmp/ccyxDBxr.debug.temp.o
 .debug_line    0x000000000000e0dd      0x2de /tmp/ccbI080r.debug.temp.o
 .debug_line    0x000000000000e3bb      0x60b /tmp/cc1mrjlp.debug.temp.o
 .debug_line    0x000000000000e9c6      0x607 /tmp/cciSA5qp.debug.temp.o
 .debug_line    0x000000000000efcd      0x60b /tmp/cckWRvmp.debug.temp.o
 .debug_line    0x000000000000f5d8      0x609 /tmp/ccmiL6Gr.debug.temp.o
 .debug_line    0x000000000000fbe1      0x609 /tmp/cc2VKSVr.debug.temp.o
 .debug_line    0x00000000000101ea      0x60b /tmp/ccftK3Qt.debug.temp.o
 .debug_line    0x00000000000107f5      0x555 /tmp/ccjyczys.debug.temp.o
 .debug_line    0x0000000000010d4a      0x569 /tmp/ccACdw9r.debug.temp.o
 .debug_line    0x00000000000112b3      0x60a /tmp/ccc1Uloq.debug.temp.o
 .debug_line    0x00000000000118bd      0x60a /tmp/cctbwcRr.debug.temp.o
 .debug_line    0x0000000000011ec7      0x610 /tmp/ccbZv36r.debug.temp.o
 .debug_line    0x00000000000124d7      0x61d /tmp/cc41gsjp.debug.temp.o
 .debug_line    0x0000000000012af4      0x609 /tmp/ccRcrvsp.debug.temp.o
 .debug_line    0x00000000000130fd      0x252 /tmp/cczz3O1r.debug.temp.o
 .debug_line    0x000000000001334f      0x173 /tmp/ccoHqkqr.debug.temp.o
 .debug_line    0x00000000000134c2      0x173 /tmp/ccgkWvXp.debug.temp.o
 .debug_line    0x0000000000013635      0x176 /tmp/ccMVIL0r.debug.temp.o
 .debug_line    0x00000000000137ab      0x173 /tmp/ccIsCJnq.debug.temp.o
 .debug_line    0x000000000001391e      0x14c /tmp/ccb0VKEq.debug.temp.o
 .debug_line    0x0000000000013a6a      0x14c /tmp/cc5CDqlq.debug.temp.o
 .debug_line    0x0000000000013bb6      0x14c /tmp/ccqn37Aq.debug.temp.o
 .debug_line    0x0000000000013d02      0x14b /tmp/ccfvmv3q.debug.temp.o
 .debug_line    0x0000000000013e4d      0x147 /tmp/ccXBb9gr.debug.temp.o
 .debug_line    0x0000000000013f94      0x14b /tmp/ccgwsoyp.debug.temp.o
 .debug_line    0x00000000000140df      0x147 /tmp/ccthnLQr.debug.temp.o
 .debug_line    0x0000000000014226      0x166 /tmp/ccLWwFbt.debug.temp.o
 .debug_line    0x000000000001438c      0x184 /tmp/ccRGbk2p.debug.temp.o
 .debug_line    0x0000000000014510      0x20c /tmp/ccEDvQlt.debug.temp.o
 .debug_line    0x000000000001471c      0x330 /tmp/ccqysowr.debug.temp.o
 .debug_line    0x0000000000014a4c      0x328 /tmp/ccobIVZr.debug.temp.o
 .debug_line    0x0000000000014d74      0x36c /tmp/ccsSHNws.debug.temp.o
 .debug_line    0x00000000000150e0      0x372 /tmp/ccSATrqt.debug.temp.o
 .debug_line    0x0000000000015452      0x36a /tmp/ccNBbVPs.debug.temp.o
 .debug_line    0x00000000000157bc      0x3db /tmp/ccTcHcDp.debug.temp.o
 .debug_line    0x0000000000015b97      0x2e9 /tmp/ccWtiaMr.debug.temp.o
 .debug_line    0x0000000000015e80      0x3e0 /tmp/cczQ3gjq.debug.temp.o
 .debug_line    0x0000000000016260      0x34a /tmp/ccFLXG7r.debug.temp.o
 .debug_line    0x00000000000165aa      0x36d /tmp/ccvz10Jt.debug.temp.o
 .debug_line    0x0000000000016917      0x400 /tmp/ccSCyR9q.debug.temp.o
 .debug_line    0x0000000000016d17      0x507 /tmp/cc7erc4q.debug.temp.o
 .debug_line    0x000000000001721e      0x35c /tmp/cc6pqFGt.debug.temp.o
 .debug_line    0x000000000001757a      0x34e /tmp/cczLTHIq.debug.temp.o
 .debug_line    0x00000000000178c8      0x515 /tmp/ccESvKes.debug.temp.o
 .debug_line    0x0000000000017ddd      0x4f8 /tmp/ccDItNbt.debug.temp.o
 .debug_line    0x00000000000182d5      0x4fa /tmp/cc59JZAr.debug.temp.o
 .debug_line    0x00000000000187cf      0x174 /tmp/ccQI8oAs.debug.temp.o
 .debug_line    0x0000000000018943      0x153 /tmp/ccJJbw4q.debug.temp.o
 .debug_line    0x0000000000018a96      0x14e /tmp/ccP1S3Qt.debug.temp.o
 .debug_line    0x0000000000018be4      0x198 /tmp/ccnmjoRr.debug.temp.o
 .debug_line    0x0000000000018d7c      0x228 /tmp/ccrBDalq.debug.temp.o
 .debug_line    0x0000000000018fa4      0x240 /tmp/ccEoXYjq.debug.temp.o
 .debug_line    0x00000000000191e4      0x16b /tmp/ccHcN9Vp.debug.temp.o
 .debug_line    0x000000000001934f      0x2a9 /tmp/ccda83Fp.debug.temp.o

.debug_str      0x0000000000000000     0xe89b
 .debug_str     0x0000000000000000      0x2fd /tmp/Ip4Dxe.dll.v1Cwes.ltrans0.ltrans.o
                                        0x323 (size before relaxing)
 .debug_str     0x00000000000002fd       0x72 /tmp/Ip4Dxe.dll.v1Cwes.ltrans1.ltrans.o
                                        0x2f2 (size before relaxing)
 .debug_str     0x000000000000036f     0x14f4 /tmp/ccV2P7Gp.debug.temp.o
                                       0x1690 (size before relaxing)
 .debug_str     0x0000000000001863      0x27a /tmp/ccOKp0Cq.debug.temp.o
                                        0x3af (size before relaxing)
 .debug_str     0x0000000000001add       0xd3 /tmp/ccn3uKqt.debug.temp.o
                                        0x34e (size before relaxing)
 .debug_str     0x0000000000001bb0       0x55 /tmp/ccyxDBxr.debug.temp.o
                                        0x342 (size before relaxing)
 .debug_str     0x0000000000001c05      0xacb /tmp/ccbI080r.debug.temp.o
                                       0x2036 (size before relaxing)
 .debug_str     0x00000000000026d0     0x26a5 /tmp/cc1mrjlp.debug.temp.o
                                       0x4845 (size before relaxing)
 .debug_str     0x0000000000004d75      0x2dd /tmp/cciSA5qp.debug.temp.o
                                       0x496f (size before relaxing)
 .debug_str     0x0000000000005052       0xf2 /tmp/cckWRvmp.debug.temp.o
                                       0x47c8 (size before relaxing)
 .debug_str     0x0000000000005144      0x12e /tmp/ccmiL6Gr.debug.temp.o
                                       0x479c (size before relaxing)
 .debug_str     0x0000000000005272      0x291 /tmp/cc2VKSVr.debug.temp.o
                                       0x499f (size before relaxing)
 .debug_str     0x0000000000005503       0xd1 /tmp/ccftK3Qt.debug.temp.o
                                       0x473f (size before relaxing)
 .debug_str     0x00000000000055d4       0x78 /tmp/ccjyczys.debug.temp.o
                                       0x3233 (size before relaxing)
 .debug_str     0x000000000000564c       0xaa /tmp/ccACdw9r.debug.temp.o
                                       0x3330 (size before relaxing)
 .debug_str     0x00000000000056f6      0x174 /tmp/ccc1Uloq.debug.temp.o
                                       0x481f (size before relaxing)
 .debug_str     0x000000000000586a      0x30a /tmp/cctbwcRr.debug.temp.o
                                       0x4a11 (size before relaxing)
 .debug_str     0x0000000000005b74      0x433 /tmp/ccbZv36r.debug.temp.o
                                       0x4b1d (size before relaxing)
 .debug_str     0x0000000000005fa7      0x323 /tmp/cc41gsjp.debug.temp.o
                                       0x49ee (size before relaxing)
 .debug_str     0x00000000000062ca       0xb6 /tmp/ccRcrvsp.debug.temp.o
                                       0x47b0 (size before relaxing)
 .debug_str     0x0000000000006380       0x63 /tmp/cczz3O1r.debug.temp.o
                                        0x9ff (size before relaxing)
 .debug_str     0x00000000000063e3      0x118 /tmp/ccoHqkqr.debug.temp.o
                                        0x3ad (size before relaxing)
 .debug_str     0x00000000000064fb       0x52 /tmp/ccgkWvXp.debug.temp.o
                                        0x358 (size before relaxing)
 .debug_str     0x000000000000654d       0x74 /tmp/ccMVIL0r.debug.temp.o
                                        0x381 (size before relaxing)
 .debug_str     0x00000000000065c1       0x52 /tmp/ccIsCJnq.debug.temp.o
                                        0x370 (size before relaxing)
 .debug_str     0x0000000000006613       0xbc /tmp/ccb0VKEq.debug.temp.o
                                        0x472 (size before relaxing)
 .debug_str     0x00000000000066cf       0x4f /tmp/cc5CDqlq.debug.temp.o
                                        0x45b (size before relaxing)
 .debug_str     0x000000000000671e       0x4f /tmp/ccqn37Aq.debug.temp.o
                                        0x461 (size before relaxing)
 .debug_str     0x000000000000676d      0x11a /tmp/ccfvmv3q.debug.temp.o
                                        0x571 (size before relaxing)
 .debug_str     0x0000000000006887      0x2e6 /tmp/ccXBb9gr.debug.temp.o
                                        0x7e2 (size before relaxing)
 .debug_str     0x0000000000006b6d      0x2bf /tmp/ccgwsoyp.debug.temp.o
                                        0x82d (size before relaxing)
 .debug_str     0x0000000000006e2c      0x196 /tmp/ccthnLQr.debug.temp.o
                                        0x5df (size before relaxing)
 .debug_str     0x0000000000006fc2      0x261 /tmp/ccLWwFbt.debug.temp.o
                                        0x5a2 (size before relaxing)
 .debug_str     0x0000000000007223      0x243 /tmp/ccRGbk2p.debug.temp.o
                                        0x70c (size before relaxing)
 .debug_str     0x0000000000007466      0x1f8 /tmp/ccEDvQlt.debug.temp.o
                                        0x5c4 (size before relaxing)
 .debug_str     0x000000000000765e       0xfd /tmp/ccqysowr.debug.temp.o
                                       0x156d (size before relaxing)
 .debug_str     0x000000000000775b      0x30a /tmp/ccobIVZr.debug.temp.o
                                       0x17d9 (size before relaxing)
 .debug_str     0x0000000000007a65      0x3ed /tmp/ccsSHNws.debug.temp.o
                                       0x1974 (size before relaxing)
 .debug_str     0x0000000000007e52       0x70 /tmp/ccSATrqt.debug.temp.o
                                       0x1658 (size before relaxing)
 .debug_str     0x0000000000007ec2       0xbc /tmp/ccNBbVPs.debug.temp.o
                                       0x17d8 (size before relaxing)
 .debug_str     0x0000000000007f7e      0xd41 /tmp/ccTcHcDp.debug.temp.o
                                       0x25ec (size before relaxing)
 .debug_str     0x0000000000008cbf      0x10c /tmp/ccWtiaMr.debug.temp.o
                                       0x156f (size before relaxing)
 .debug_str     0x0000000000008dcb      0x637 /tmp/cczQ3gjq.debug.temp.o
                                       0x20aa (size before relaxing)
 .debug_str     0x0000000000009402      0x128 /tmp/ccFLXG7r.debug.temp.o
                                       0x1a3a (size before relaxing)
 .debug_str     0x000000000000952a      0x5ae /tmp/ccvz10Jt.debug.temp.o
                                       0x20b1 (size before relaxing)
 .debug_str     0x0000000000009ad8       0xeb /tmp/ccSCyR9q.debug.temp.o
                                       0x21db (size before relaxing)
 .debug_str     0x0000000000009bc3     0x2fbb /tmp/cc7erc4q.debug.temp.o
                                       0x57b0 (size before relaxing)
 .debug_str     0x000000000000cb7e      0x3a4 /tmp/cc6pqFGt.debug.temp.o
                                       0x1ce5 (size before relaxing)
 .debug_str     0x000000000000cf22      0x138 /tmp/cczLTHIq.debug.temp.o
                                       0x15fc (size before relaxing)
 .debug_str     0x000000000000d05a      0xe6d /tmp/ccESvKes.debug.temp.o
                                       0x35e9 (size before relaxing)
 .debug_str     0x000000000000dec7       0xc6 /tmp/ccDItNbt.debug.temp.o
                                       0x2450 (size before relaxing)
 .debug_str     0x000000000000df8d       0x89 /tmp/cc59JZAr.debug.temp.o
                                       0x23c2 (size before relaxing)
 .debug_str     0x000000000000e016       0x53 /tmp/ccQI8oAs.debug.temp.o
                                        0x360 (size before relaxing)
 .debug_str     0x000000000000e069       0x5d /tmp/ccJJbw4q.debug.temp.o
                                        0x47e (size before relaxing)
 .debug_str     0x000000000000e0c6       0xde /tmp/ccP1S3Qt.debug.temp.o
                                        0x508 (size before relaxing)
 .debug_str     0x000000000000e1a4      0x115 /tmp/ccnmjoRr.debug.temp.o
                                        0x3e0 (size before relaxing)
 .debug_str     0x000000000000e2b9      0x102 /tmp/ccrBDalq.debug.temp.o
                                        0x516 (size before relaxing)
 .debug_str     0x000000000000e3bb      0x101 /tmp/ccEoXYjq.debug.temp.o
                                        0x5b3 (size before relaxing)
 .debug_str     0x000000000000e4bc      0x1ab /tmp/ccHcN9Vp.debug.temp.o
                                        0x44d (size before relaxing)
 .debug_str     0x000000000000e667      0x234 /tmp/ccda83Fp.debug.temp.o
                                        0x818 (size before relaxing)

.debug_frame    0x0000000000000000     0x2ec0
 .debug_frame   0x0000000000000000     0x21a8 /tmp/Ip4Dxe.dll.v1Cwes.ltrans0.ltrans.o
 .debug_frame   0x00000000000021a8      0xd18 /tmp/Ip4Dxe.dll.v1Cwes.ltrans1.ltrans.o
