Archive member included to satisfy reference by file (symbol)

/home/alastair/pftf-rpi4/Build/RPi4/DEBUG_GCC5/AARCH64/MdePkg/Library/UefiApplicationEntryPoint/UefiApplicationEntryPoint/OUTPUT/UefiApplicationEntryPoint.lib(ApplicationEntryPoint.obj)
                              (_ModuleEntryPoint)
/home/alastair/pftf-rpi4/Build/RPi4/DEBUG_GCC5/AARCH64/MdePkg/Library/BaseStackCheckLib/BaseStackCheckLib/OUTPUT/BaseStackCheckLib.lib(BaseStackCheckGcc.obj)
                              /home/alastair/pftf-rpi4/edk2/ArmPkg/Library/GccLto/liblto-aarch64.a (__stack_chk_fail)
/home/alastair/pftf-rpi4/Build/RPi4/DEBUG_GCC5/AARCH64/ArmPkg/Library/CompilerIntrinsicsLib/CompilerIntrinsicsLib/OUTPUT/CompilerIntrinsicsLib.lib(memcpy.obj)
                              /home/alastair/pftf-rpi4/edk2/ArmPkg/Library/GccLto/liblto-aarch64.a (memcpy)
/home/alastair/pftf-rpi4/Build/RPi4/DEBUG_GCC5/AARCH64/ArmPkg/Library/CompilerIntrinsicsLib/CompilerIntrinsicsLib/OUTPUT/CompilerIntrinsicsLib.lib(memset.obj)
                              /home/alastair/pftf-rpi4/edk2/ArmPkg/Library/GccLto/liblto-aarch64.a (memset)
/home/alastair/pftf-rpi4/Build/RPi4/DEBUG_GCC5/AARCH64/MdeModulePkg/Application/UiApp/UiApp/OUTPUT/UiApp.lib(AutoGen.obj)
                              ApplicationEntryPoint.obj (symbol from plugin) (ProcessLibraryConstructorList)
/home/alastair/pftf-rpi4/Build/RPi4/DEBUG_GCC5/AARCH64/MdeModulePkg/Application/UiApp/UiApp/OUTPUT/UiApp.lib(FrontPage.obj)
                              AutoGen.obj (symbol from plugin) (InitializeUserInterface)
/home/alastair/pftf-rpi4/Build/RPi4/DEBUG_GCC5/AARCH64/MdeModulePkg/Application/UiApp/UiApp/OUTPUT/UiApp.lib(String.obj)
                              FrontPage.obj (symbol from plugin) (InitializeStringSupport)
/home/alastair/pftf-rpi4/Build/RPi4/DEBUG_GCC5/AARCH64/MdeModulePkg/Application/UiApp/UiApp/OUTPUT/UiApp.lib(FrontPageCustomizedUi.obj)
                              FrontPage.obj (symbol from plugin) (UiCustomizeFrontPage)
/home/alastair/pftf-rpi4/Build/RPi4/DEBUG_GCC5/AARCH64/MdeModulePkg/Application/UiApp/UiApp/OUTPUT/UiApp.lib(FrontPageCustomizedUiSupport.obj)
                              FrontPageCustomizedUi.obj (symbol from plugin) (UiSupportLibCallbackHandler)
/home/alastair/pftf-rpi4/Build/RPi4/DEBUG_GCC5/AARCH64/MdeModulePkg/Application/UiApp/UiApp/OUTPUT/UiApp.lib(FrontPageVfr.obj)
                              FrontPage.obj (symbol from plugin) (FrontPageVfrBin)
/home/alastair/pftf-rpi4/Build/RPi4/DEBUG_GCC5/AARCH64/MdePkg/Library/DxePcdLib/DxePcdLib/OUTPUT/DxePcdLib.lib(DxePcdLib.obj)
                              FrontPage.obj (symbol from plugin) (LibPcdGet32)
/home/alastair/pftf-rpi4/Build/RPi4/DEBUG_GCC5/AARCH64/MdePkg/Library/BaseMemoryLibOptDxe/BaseMemoryLibOptDxe/OUTPUT/BaseMemoryLibOptDxe.lib(MemLibGuid.obj)
                              FrontPageCustomizedUiSupport.obj (symbol from plugin) (CompareGuid)
/home/alastair/pftf-rpi4/Build/RPi4/DEBUG_GCC5/AARCH64/MdePkg/Library/BaseMemoryLibOptDxe/BaseMemoryLibOptDxe/OUTPUT/BaseMemoryLibOptDxe.lib(CopyMemWrapper.obj)
                              FrontPageCustomizedUiSupport.obj (symbol from plugin) (CopyMem)
/home/alastair/pftf-rpi4/Build/RPi4/DEBUG_GCC5/AARCH64/MdePkg/Library/BaseMemoryLibOptDxe/BaseMemoryLibOptDxe/OUTPUT/BaseMemoryLibOptDxe.lib(CopyMem.obj)
                              MemLibGuid.obj (symbol from plugin) (InternalMemCopyMem)
/home/alastair/pftf-rpi4/Build/RPi4/DEBUG_GCC5/AARCH64/MdePkg/Library/BaseMemoryLibOptDxe/BaseMemoryLibOptDxe/OUTPUT/BaseMemoryLibOptDxe.lib(CompareGuid.obj)
                              MemLibGuid.obj (symbol from plugin) (InternalMemCompareGuid)
/home/alastair/pftf-rpi4/Build/RPi4/DEBUG_GCC5/AARCH64/MdePkg/Library/BaseLib/BaseLib/OUTPUT/BaseLib.lib(RShiftU64.obj)
                              FrontPage.obj (symbol from plugin) (RShiftU64)
/home/alastair/pftf-rpi4/Build/RPi4/DEBUG_GCC5/AARCH64/MdePkg/Library/BaseLib/BaseLib/OUTPUT/BaseLib.lib(CpuDeadLoop.obj)
                              BaseStackCheckGcc.obj (symbol from plugin) (CpuDeadLoop)
/home/alastair/pftf-rpi4/Build/RPi4/DEBUG_GCC5/AARCH64/MdePkg/Library/BaseLib/BaseLib/OUTPUT/BaseLib.lib(SafeString.obj)
                              FrontPage.obj (symbol from plugin) (StrnLenS)
/home/alastair/pftf-rpi4/Build/RPi4/DEBUG_GCC5/AARCH64/MdePkg/Library/BaseLib/BaseLib/OUTPUT/BaseLib.lib(String.obj)
                              SafeString.obj (symbol from plugin) (InternalIsDecimalDigitCharacter)
/home/alastair/pftf-rpi4/Build/RPi4/DEBUG_GCC5/AARCH64/MdePkg/Library/BaseLib/BaseLib/OUTPUT/BaseLib.lib(Math64.obj)
                              RShiftU64.obj (symbol from plugin) (InternalMathRShiftU64)
/home/alastair/pftf-rpi4/Build/RPi4/DEBUG_GCC5/AARCH64/MdePkg/Library/BaseLib/BaseLib/OUTPUT/BaseLib.lib(CpuBreakpoint.obj)
                              BaseStackCheckGcc.obj (symbol from plugin) (CpuBreakpoint)
/home/alastair/pftf-rpi4/Build/RPi4/DEBUG_GCC5/AARCH64/MdePkg/Library/BaseLib/BaseLib/OUTPUT/BaseLib.lib(SwapBytes32.obj)
                              SafeString.obj (symbol from plugin) (SwapBytes32)
/home/alastair/pftf-rpi4/Build/RPi4/DEBUG_GCC5/AARCH64/MdePkg/Library/BaseLib/BaseLib/OUTPUT/BaseLib.lib(SwapBytes16.obj)
                              SafeString.obj (symbol from plugin) (SwapBytes16)
/home/alastair/pftf-rpi4/Build/RPi4/DEBUG_GCC5/AARCH64/MdePkg/Library/BaseLib/BaseLib/OUTPUT/BaseLib.lib(MultU64x32.obj)
                              SafeString.obj (symbol from plugin) (MultU64x32)
/home/alastair/pftf-rpi4/Build/RPi4/DEBUG_GCC5/AARCH64/MdePkg/Library/BaseLib/BaseLib/OUTPUT/BaseLib.lib(LShiftU64.obj)
                              SafeString.obj (symbol from plugin) (LShiftU64)
/home/alastair/pftf-rpi4/Build/RPi4/DEBUG_GCC5/AARCH64/MdePkg/Library/BaseLib/BaseLib/OUTPUT/BaseLib.lib(DivU64x32.obj)
                              SafeString.obj (symbol from plugin) (DivU64x32)
/home/alastair/pftf-rpi4/Build/RPi4/DEBUG_GCC5/AARCH64/MdePkg/Library/BasePrintLib/BasePrintLib/OUTPUT/BasePrintLib.lib(PrintLib.obj)
                              FrontPage.obj (symbol from plugin) (UnicodeValueToStringS)
/home/alastair/pftf-rpi4/Build/RPi4/DEBUG_GCC5/AARCH64/MdePkg/Library/BasePrintLib/BasePrintLib/OUTPUT/BasePrintLib.lib(PrintLibInternal.obj)
                              PrintLib.obj (symbol from plugin) (BasePrintLibConvertValueToStringS)
/home/alastair/pftf-rpi4/Build/RPi4/DEBUG_GCC5/AARCH64/MdePkg/Library/BaseDebugLibSerialPort/BaseDebugLibSerialPort/OUTPUT/BaseDebugLibSerialPort.lib(DebugLib.obj)
                              AutoGen.obj (symbol from plugin) (BaseDebugLibSerialPortConstructor)
/home/alastair/pftf-rpi4/Build/RPi4/DEBUG_GCC5/AARCH64/MdePkg/Library/UefiBootServicesTableLib/UefiBootServicesTableLib/OUTPUT/UefiBootServicesTableLib.lib(UefiBootServicesTableLib.obj)
                              AutoGen.obj (symbol from plugin) (UefiBootServicesTableLibConstructor)
/home/alastair/pftf-rpi4/Build/RPi4/DEBUG_GCC5/AARCH64/MdePkg/Library/UefiMemoryAllocationLib/UefiMemoryAllocationLib/OUTPUT/UefiMemoryAllocationLib.lib(MemoryAllocationLib.obj)
                              FrontPage.obj (symbol from plugin) (AllocatePool)
/home/alastair/pftf-rpi4/Build/RPi4/DEBUG_GCC5/AARCH64/MdePkg/Library/UefiRuntimeServicesTableLib/UefiRuntimeServicesTableLib/OUTPUT/UefiRuntimeServicesTableLib.lib(UefiRuntimeServicesTableLib.obj)
                              AutoGen.obj (symbol from plugin) (UefiRuntimeServicesTableLibConstructor)
/home/alastair/pftf-rpi4/Build/RPi4/DEBUG_GCC5/AARCH64/MdePkg/Library/UefiDevicePathLib/UefiDevicePathLib/OUTPUT/UefiDevicePathLib.lib(DevicePathUtilitiesDxeSmm.obj)
                              FrontPageCustomizedUiSupport.obj (symbol from plugin) (DevicePathFromHandle)
/home/alastair/pftf-rpi4/Build/RPi4/DEBUG_GCC5/AARCH64/MdePkg/Library/UefiDevicePathLib/UefiDevicePathLib/OUTPUT/UefiDevicePathLib.lib(UefiDevicePathLib.obj)
                              FrontPageCustomizedUiSupport.obj (symbol from plugin) (ConvertDevicePathToText)
/home/alastair/pftf-rpi4/Build/RPi4/DEBUG_GCC5/AARCH64/MdePkg/Library/UefiDevicePathLib/UefiDevicePathLib/OUTPUT/UefiDevicePathLib.lib(DevicePathUtilities.obj)
                              UefiDevicePathLib.obj (symbol from plugin) (UefiDevicePathLibGetDevicePathSize)
/home/alastair/pftf-rpi4/Build/RPi4/DEBUG_GCC5/AARCH64/MdePkg/Library/UefiDevicePathLib/UefiDevicePathLib/OUTPUT/UefiDevicePathLib.lib(DevicePathToText.obj)
                              UefiDevicePathLib.obj (symbol from plugin) (UefiDevicePathLibConvertDeviceNodeToText)
/home/alastair/pftf-rpi4/Build/RPi4/DEBUG_GCC5/AARCH64/MdePkg/Library/UefiDevicePathLib/UefiDevicePathLib/OUTPUT/UefiDevicePathLib.lib(DevicePathFromText.obj)
                              UefiDevicePathLib.obj (symbol from plugin) (UefiDevicePathLibConvertTextToDeviceNode)
/home/alastair/pftf-rpi4/Build/RPi4/DEBUG_GCC5/AARCH64/MdePkg/Library/UefiLib/UefiLib/OUTPUT/UefiLib.lib(Console.obj)
                              FrontPage.obj (symbol from plugin) (CreatePopUp)
/home/alastair/pftf-rpi4/Build/RPi4/DEBUG_GCC5/AARCH64/MdePkg/Library/UefiLib/UefiLib/OUTPUT/UefiLib.lib(UefiLib.obj)
                              AutoGen.obj (symbol from plugin) (UefiLibConstructor)
/home/alastair/pftf-rpi4/Build/RPi4/DEBUG_GCC5/AARCH64/MdeModulePkg/Library/UefiHiiServicesLib/UefiHiiServicesLib/OUTPUT/UefiHiiServicesLib.lib(UefiHiiServicesLib.obj)
                              AutoGen.obj (symbol from plugin) (UefiHiiServicesLibConstructor)
/home/alastair/pftf-rpi4/Build/RPi4/DEBUG_GCC5/AARCH64/MdePkg/Library/DxeServicesTableLib/DxeServicesTableLib/OUTPUT/DxeServicesTableLib.lib(DxeServicesTableLib.obj)
                              AutoGen.obj (symbol from plugin) (DxeServicesTableLibConstructor)
/home/alastair/pftf-rpi4/Build/RPi4/DEBUG_GCC5/AARCH64/MdePkg/Library/DxeHobLib/DxeHobLib/OUTPUT/DxeHobLib.lib(HobLib.obj)
                              AutoGen.obj (symbol from plugin) (HobLibConstructor)
/home/alastair/pftf-rpi4/Build/RPi4/DEBUG_GCC5/AARCH64/MdeModulePkg/Library/UefiHiiLib/UefiHiiLib/OUTPUT/UefiHiiLib.lib(HiiLib.obj)
                              FrontPage.obj (symbol from plugin) (HiiAddPackages)
/home/alastair/pftf-rpi4/Build/RPi4/DEBUG_GCC5/AARCH64/MdeModulePkg/Library/UefiHiiLib/UefiHiiLib/OUTPUT/UefiHiiLib.lib(HiiString.obj)
                              FrontPage.obj (symbol from plugin) (HiiSetString)
/home/alastair/pftf-rpi4/Build/RPi4/DEBUG_GCC5/AARCH64/MdeModulePkg/Library/UefiHiiLib/UefiHiiLib/OUTPUT/UefiHiiLib.lib(HiiLanguage.obj)
                              HiiString.obj (symbol from plugin) (HiiGetSupportedLanguages)
/home/alastair/pftf-rpi4/Build/RPi4/DEBUG_GCC5/AARCH64/MdePkg/Library/BaseReportStatusCodeLibNull/BaseReportStatusCodeLibNull/OUTPUT/BaseReportStatusCodeLibNull.lib(BaseReportStatusCodeLib.obj)
                              FrontPage.obj (symbol from plugin) (ReportStatusCode)
/home/alastair/pftf-rpi4/Build/RPi4/DEBUG_GCC5/AARCH64/MdeModulePkg/Library/UefiBootManagerLib/UefiBootManagerLib/OUTPUT/UefiBootManagerLib.lib(BmConnect.obj)
                              FrontPage.obj (symbol from plugin) (EfiBootManagerConnectAll)
/home/alastair/pftf-rpi4/Build/RPi4/DEBUG_GCC5/AARCH64/MdeModulePkg/Library/UefiBootManagerLib/UefiBootManagerLib/OUTPUT/UefiBootManagerLib.lib(BmConsole.obj)
                              BmConnect.obj (symbol from plugin) (EfiBootManagerConnectAllDefaultConsoles)
/home/alastair/pftf-rpi4/Build/RPi4/DEBUG_GCC5/AARCH64/MdeModulePkg/Library/UefiBootManagerLib/UefiBootManagerLib/OUTPUT/UefiBootManagerLib.lib(BmBoot.obj)
                              FrontPage.obj (symbol from plugin) (EfiBootManagerRefreshAllBootOption)
/home/alastair/pftf-rpi4/Build/RPi4/DEBUG_GCC5/AARCH64/MdeModulePkg/Library/UefiBootManagerLib/UefiBootManagerLib/OUTPUT/UefiBootManagerLib.lib(BmBootDescription.obj)
                              BmBoot.obj (symbol from plugin) (BmGetBootDescription)
/home/alastair/pftf-rpi4/Build/RPi4/DEBUG_GCC5/AARCH64/MdeModulePkg/Library/UefiBootManagerLib/UefiBootManagerLib/OUTPUT/UefiBootManagerLib.lib(BmLoadOption.obj)
                              BmBoot.obj (symbol from plugin) (mBmLoadOptionName)
/home/alastair/pftf-rpi4/Build/RPi4/DEBUG_GCC5/AARCH64/MdeModulePkg/Library/UefiBootManagerLib/UefiBootManagerLib/OUTPUT/UefiBootManagerLib.lib(BmHotkey.obj)
                              BmBoot.obj (symbol from plugin) (BmStopHotkeyService)
/home/alastair/pftf-rpi4/Build/RPi4/DEBUG_GCC5/AARCH64/MdeModulePkg/Library/UefiBootManagerLib/UefiBootManagerLib/OUTPUT/UefiBootManagerLib.lib(BmDriverHealth.obj)
                              BmBoot.obj (symbol from plugin) (BmRepairAllControllers)
/home/alastair/pftf-rpi4/Build/RPi4/DEBUG_GCC5/AARCH64/MdeModulePkg/Library/UefiBootManagerLib/UefiBootManagerLib/OUTPUT/UefiBootManagerLib.lib(BmMisc.obj)
                              BmConsole.obj (symbol from plugin) (BmDelPartMatchInstance)
/home/alastair/pftf-rpi4/Build/RPi4/DEBUG_GCC5/AARCH64/MdeModulePkg/Library/FileExplorerLib/FileExplorerLib/OUTPUT/FileExplorerLib.lib(FileExplorer.obj)
                              AutoGen.obj (symbol from plugin) (FileExplorerLibConstructor)
/home/alastair/pftf-rpi4/Build/RPi4/DEBUG_GCC5/AARCH64/MdeModulePkg/Library/FileExplorerLib/FileExplorerLib/OUTPUT/FileExplorerLib.lib(AutoGen.obj)
                              FileExplorer.obj (symbol from plugin) (FileExplorerLibStrings)
/home/alastair/pftf-rpi4/Build/RPi4/DEBUG_GCC5/AARCH64/MdeModulePkg/Library/FileExplorerLib/FileExplorerLib/OUTPUT/FileExplorerLib.lib(FileExplorerVfr.obj)
                              FileExplorer.obj (symbol from plugin) (FileExplorerVfrBin)
/home/alastair/pftf-rpi4/Build/RPi4/DEBUG_GCC5/AARCH64/MdeModulePkg/Library/DeviceManagerUiLib/DeviceManagerUiLib/OUTPUT/DeviceManagerUiLib.lib(DeviceManager.obj)
                              AutoGen.obj (symbol from plugin) (DeviceManagerUiLibConstructor)
/home/alastair/pftf-rpi4/Build/RPi4/DEBUG_GCC5/AARCH64/MdeModulePkg/Library/DeviceManagerUiLib/DeviceManagerUiLib/OUTPUT/DeviceManagerUiLib.lib(AutoGen.obj)
                              DeviceManager.obj (symbol from plugin) (DeviceManagerUiLibStrings)
/home/alastair/pftf-rpi4/Build/RPi4/DEBUG_GCC5/AARCH64/MdeModulePkg/Library/DeviceManagerUiLib/DeviceManagerUiLib/OUTPUT/DeviceManagerUiLib.lib(DeviceManagerVfr.obj)
                              DeviceManager.obj (symbol from plugin) (DeviceManagerVfrBin)
/home/alastair/pftf-rpi4/Build/RPi4/DEBUG_GCC5/AARCH64/MdeModulePkg/Library/BootManagerUiLib/BootManagerUiLib/OUTPUT/BootManagerUiLib.lib(BootManager.obj)
                              AutoGen.obj (symbol from plugin) (BootManagerUiLibConstructor)
/home/alastair/pftf-rpi4/Build/RPi4/DEBUG_GCC5/AARCH64/MdeModulePkg/Library/BootManagerUiLib/BootManagerUiLib/OUTPUT/BootManagerUiLib.lib(AutoGen.obj)
                              BootManager.obj (symbol from plugin) (BootManagerUiLibStrings)
/home/alastair/pftf-rpi4/Build/RPi4/DEBUG_GCC5/AARCH64/MdeModulePkg/Library/BootManagerUiLib/BootManagerUiLib/OUTPUT/BootManagerUiLib.lib(BootManagerVfr.obj)
                              BootManager.obj (symbol from plugin) (BootManagerVfrBin)
/home/alastair/pftf-rpi4/Build/RPi4/DEBUG_GCC5/AARCH64/Platform/RaspberryPi/Library/PlatformUiAppLib/PlatformUiAppLib/OUTPUT/PlatformUiAppLib.lib(PlatformUiAppLib.obj)
                              AutoGen.obj (symbol from plugin) (PlatformUiAppLibConstructor)
/home/alastair/pftf-rpi4/Build/RPi4/DEBUG_GCC5/AARCH64/MdeModulePkg/Library/BootMaintenanceManagerUiLib/BootMaintenanceManagerUiLib/OUTPUT/BootMaintenanceManagerUiLib.lib(BootMaintenance.obj)
                              AutoGen.obj (symbol from plugin) (BootMaintenanceManagerUiLibConstructor)
/home/alastair/pftf-rpi4/Build/RPi4/DEBUG_GCC5/AARCH64/MdeModulePkg/Library/BootMaintenanceManagerUiLib/BootMaintenanceManagerUiLib/OUTPUT/BootMaintenanceManagerUiLib.lib(BootOption.obj)
                              BootMaintenance.obj (symbol from plugin) (BOpt_GetMenuEntry)
/home/alastair/pftf-rpi4/Build/RPi4/DEBUG_GCC5/AARCH64/MdeModulePkg/Library/BootMaintenanceManagerUiLib/BootMaintenanceManagerUiLib/OUTPUT/BootMaintenanceManagerUiLib.lib(ConsoleOption.obj)
                              BootMaintenance.obj (symbol from plugin) (ChangeTerminalDevicePath)
/home/alastair/pftf-rpi4/Build/RPi4/DEBUG_GCC5/AARCH64/MdeModulePkg/Library/BootMaintenanceManagerUiLib/BootMaintenanceManagerUiLib/OUTPUT/BootMaintenanceManagerUiLib.lib(Data.obj)
                              ConsoleOption.obj (symbol from plugin) (TerminalTypeGuid)
/home/alastair/pftf-rpi4/Build/RPi4/DEBUG_GCC5/AARCH64/MdeModulePkg/Library/BootMaintenanceManagerUiLib/BootMaintenanceManagerUiLib/OUTPUT/BootMaintenanceManagerUiLib.lib(Variable.obj)
                              BootMaintenance.obj (symbol from plugin) (Var_DelBootOption)
/home/alastair/pftf-rpi4/Build/RPi4/DEBUG_GCC5/AARCH64/MdeModulePkg/Library/BootMaintenanceManagerUiLib/BootMaintenanceManagerUiLib/OUTPUT/BootMaintenanceManagerUiLib.lib(UpdatePage.obj)
                              BootMaintenance.obj (symbol from plugin) (CreateUpdateData)
/home/alastair/pftf-rpi4/Build/RPi4/DEBUG_GCC5/AARCH64/MdeModulePkg/Library/BootMaintenanceManagerUiLib/BootMaintenanceManagerUiLib/OUTPUT/BootMaintenanceManagerUiLib.lib(BmLib.obj)
                              Variable.obj (symbol from plugin) (EfiLibDeleteVariable)
/home/alastair/pftf-rpi4/Build/RPi4/DEBUG_GCC5/AARCH64/MdeModulePkg/Library/BootMaintenanceManagerUiLib/BootMaintenanceManagerUiLib/OUTPUT/BootMaintenanceManagerUiLib.lib(BootMaintenanceManagerCustomizedUi.obj)
                              BootMaintenance.obj (symbol from plugin) (UiCustomizeBMMPage)
/home/alastair/pftf-rpi4/Build/RPi4/DEBUG_GCC5/AARCH64/MdeModulePkg/Library/BootMaintenanceManagerUiLib/BootMaintenanceManagerUiLib/OUTPUT/BootMaintenanceManagerUiLib.lib(BootMaintenanceManagerCustomizedUiSupport.obj)
                              BootMaintenanceManagerCustomizedUi.obj (symbol from plugin) (BmmCreateBootNextMenu)
/home/alastair/pftf-rpi4/Build/RPi4/DEBUG_GCC5/AARCH64/MdeModulePkg/Library/BootMaintenanceManagerUiLib/BootMaintenanceManagerUiLib/OUTPUT/BootMaintenanceManagerUiLib.lib(AutoGen.obj)
                              BootMaintenance.obj (symbol from plugin) (BootMaintenanceManagerUiLibStrings)
/home/alastair/pftf-rpi4/Build/RPi4/DEBUG_GCC5/AARCH64/MdeModulePkg/Library/BootMaintenanceManagerUiLib/BootMaintenanceManagerUiLib/OUTPUT/BootMaintenanceManagerUiLib.lib(BootMaintenanceManager.obj)
                              BootMaintenance.obj (symbol from plugin) (BootMaintenanceManagerBin)
/home/alastair/pftf-rpi4/Build/RPi4/DEBUG_GCC5/AARCH64/MdePkg/Library/BaseMemoryLibOptDxe/BaseMemoryLibOptDxe/OUTPUT/BaseMemoryLibOptDxe.lib(ZeroMemWrapper.obj)
                              SafeString.obj (symbol from plugin) (ZeroMem)
/home/alastair/pftf-rpi4/Build/RPi4/DEBUG_GCC5/AARCH64/MdePkg/Library/BaseMemoryLibOptDxe/BaseMemoryLibOptDxe/OUTPUT/BaseMemoryLibOptDxe.lib(CompareMemWrapper.obj)
                              HiiLib.obj (symbol from plugin) (CompareMem)
/home/alastair/pftf-rpi4/Build/RPi4/DEBUG_GCC5/AARCH64/MdePkg/Library/BaseMemoryLibOptDxe/BaseMemoryLibOptDxe/OUTPUT/BaseMemoryLibOptDxe.lib(SetMem16Wrapper.obj)
                              Console.obj (symbol from plugin) (SetMem16)
/home/alastair/pftf-rpi4/Build/RPi4/DEBUG_GCC5/AARCH64/MdePkg/Library/BaseMemoryLibOptDxe/BaseMemoryLibOptDxe/OUTPUT/BaseMemoryLibOptDxe.lib(SetMemWrapper.obj)
                              DebugLib.obj (symbol from plugin) (SetMem)
/home/alastair/pftf-rpi4/Build/RPi4/DEBUG_GCC5/AARCH64/MdePkg/Library/BaseMemoryLibOptDxe/BaseMemoryLibOptDxe/OUTPUT/BaseMemoryLibOptDxe.lib(IsZeroBufferWrapper.obj)
                              FileExplorer.obj (symbol from plugin) (IsZeroBuffer)
/home/alastair/pftf-rpi4/Build/RPi4/DEBUG_GCC5/AARCH64/MdePkg/Library/BaseMemoryLibOptDxe/BaseMemoryLibOptDxe/OUTPUT/BaseMemoryLibOptDxe.lib(SetMem.obj)
                              SetMem16Wrapper.obj (symbol from plugin) (InternalMemSetMem16)
/home/alastair/pftf-rpi4/Build/RPi4/DEBUG_GCC5/AARCH64/MdePkg/Library/BaseMemoryLibOptDxe/BaseMemoryLibOptDxe/OUTPUT/BaseMemoryLibOptDxe.lib(CompareMem.obj)
                              CompareMemWrapper.obj (symbol from plugin) (InternalMemCompareMem)
/home/alastair/pftf-rpi4/Build/RPi4/DEBUG_GCC5/AARCH64/MdePkg/Library/BaseMemoryLibOptDxe/BaseMemoryLibOptDxe/OUTPUT/BaseMemoryLibOptDxe.lib(ScanMemGeneric.obj)
                              IsZeroBufferWrapper.obj (symbol from plugin) (InternalMemIsZeroBuffer)
/home/alastair/pftf-rpi4/Build/RPi4/DEBUG_GCC5/AARCH64/MdePkg/Library/BaseMemoryLibOptDxe/BaseMemoryLibOptDxe/OUTPUT/BaseMemoryLibOptDxe.lib(SetMem64Wrapper.obj)
                              SetMemWrapper.obj (symbol from plugin) (SetMem64)
/home/alastair/pftf-rpi4/Build/RPi4/DEBUG_GCC5/AARCH64/MdePkg/Library/BaseLib/BaseLib/OUTPUT/BaseLib.lib(SwapBytes64.obj)
                              DevicePathFromText.obj (symbol from plugin) (SwapBytes64)
/home/alastair/pftf-rpi4/Build/RPi4/DEBUG_GCC5/AARCH64/MdePkg/Library/BaseLib/BaseLib/OUTPUT/BaseLib.lib(LowBitSet32.obj)
                              BmHotkey.obj (symbol from plugin) (LowBitSet32)
/home/alastair/pftf-rpi4/Build/RPi4/DEBUG_GCC5/AARCH64/MdePkg/Library/BaseLib/BaseLib/OUTPUT/BaseLib.lib(DivU64x32Remainder.obj)
                              PrintLibInternal.obj (symbol from plugin) (DivU64x32Remainder)
/home/alastair/pftf-rpi4/Build/RPi4/DEBUG_GCC5/AARCH64/MdePkg/Library/BaseLib/BaseLib/OUTPUT/BaseLib.lib(BitField.obj)
                              HiiLib.obj (symbol from plugin) (BitFieldRead32)
/home/alastair/pftf-rpi4/Build/RPi4/DEBUG_GCC5/AARCH64/MdePkg/Library/BaseLib/BaseLib/OUTPUT/BaseLib.lib(LinkedList.obj)
                              HiiLib.obj (symbol from plugin) (InitializeListHead)
/home/alastair/pftf-rpi4/Build/RPi4/DEBUG_GCC5/AARCH64/MdePkg/Library/BaseLib/BaseLib/OUTPUT/BaseLib.lib(Unaligned.obj)
                              PrintLibInternal.obj (symbol from plugin) (ReadUnaligned16)
/home/alastair/pftf-rpi4/Build/RPi4/DEBUG_GCC5/AARCH64/MdePkg/Library/BaseDebugPrintErrorLevelLib/BaseDebugPrintErrorLevelLib/OUTPUT/BaseDebugPrintErrorLevelLib.lib(BaseDebugPrintErrorLevelLib.obj)
                              DebugLib.obj (symbol from plugin) (GetDebugPrintErrorLevel)
/home/alastair/pftf-rpi4/Build/RPi4/DEBUG_GCC5/AARCH64/Platform/RaspberryPi/Library/DualSerialPortLib/DebugDualSerialPortLib/OUTPUT/DebugDualSerialPortLib.lib(DebugDualSerialPortLib.obj)
                              DebugLib.obj (symbol from plugin) (SerialPortInitialize)
/home/alastair/pftf-rpi4/Build/RPi4/DEBUG_GCC5/AARCH64/Platform/RaspberryPi/Library/DualSerialPortLib/DebugDualSerialPortLib/OUTPUT/DebugDualSerialPortLib.lib(DualSerialPortLibCommon.obj)
                              DebugLib.obj (symbol from plugin) (SerialPortWrite)
/home/alastair/pftf-rpi4/Build/RPi4/DEBUG_GCC5/AARCH64/MdePkg/Library/UefiLib/UefiLib/OUTPUT/UefiLib.lib(UefiLibPrint.obj)
                              BmDriverHealth.obj (symbol from plugin) (Print)
/home/alastair/pftf-rpi4/Build/RPi4/DEBUG_GCC5/AARCH64/MdePkg/Library/UefiLib/UefiLib/OUTPUT/UefiLib.lib(UefiNotTiano.obj)
                              BmBoot.obj (symbol from plugin) (EfiCreateEventLegacyBootEx)
/home/alastair/pftf-rpi4/Build/RPi4/DEBUG_GCC5/AARCH64/MdeModulePkg/Library/UefiSortLib/UefiSortLib/OUTPUT/UefiSortLib.lib(UefiSortLib.obj)
                              BmLoadOption.obj (symbol from plugin) (PerformQuickSort)
/home/alastair/pftf-rpi4/Build/RPi4/DEBUG_GCC5/AARCH64/MdePkg/Library/DxeServicesLib/DxeServicesLib/OUTPUT/DxeServicesLib.lib(DxeServicesLib.obj)
                              BmBoot.obj (symbol from plugin) (GetSectionFromFv)
/home/alastair/pftf-rpi4/Build/RPi4/DEBUG_GCC5/AARCH64/MdeModulePkg/Library/DxePerformanceLib/DxePerformanceLib/OUTPUT/DxePerformanceLib.lib(DxePerformanceLib.obj)
                              BmBoot.obj (symbol from plugin) (StartPerformanceMeasurementEx)
/home/alastair/pftf-rpi4/Build/RPi4/DEBUG_GCC5/AARCH64/MdePkg/Library/BaseIoLibIntrinsic/BaseIoLibIntrinsic/OUTPUT/BaseIoLibIntrinsic.lib(IoLibNoIo.obj)
                              DualSerialPortLibCommon.obj (symbol from plugin) (MmioRead8)
/home/alastair/pftf-rpi4/Build/RPi4/DEBUG_GCC5/AARCH64/ArmPlatformPkg/Library/PL011UartLib/PL011UartLib/OUTPUT/PL011UartLib.lib(PL011UartLib.obj)
                              DualSerialPortLibCommon.obj (symbol from plugin) (PL011UartWrite)

Discarded input sections

 .text          0x0000000000000000       0x10 /home/alastair/pftf-rpi4/edk2/ArmPkg/Library/GccLto/liblto-aarch64.a
 .data          0x0000000000000000        0x0 /home/alastair/pftf-rpi4/edk2/ArmPkg/Library/GccLto/liblto-aarch64.a
 .bss           0x0000000000000000        0x0 /home/alastair/pftf-rpi4/edk2/ArmPkg/Library/GccLto/liblto-aarch64.a
 .text          0x0000000000000000        0x0 /tmp/UiApp.dll.9PSgum.ltrans0.ltrans.o
 .data          0x0000000000000000        0x0 /tmp/UiApp.dll.9PSgum.ltrans0.ltrans.o
 .bss           0x0000000000000000        0x0 /tmp/UiApp.dll.9PSgum.ltrans0.ltrans.o
 .rodata.IsNodeInList.str1.1
                0x0000000000000000       0x44 /tmp/UiApp.dll.9PSgum.ltrans0.ltrans.o
 .text.IsNodeInList
                0x0000000000000000       0xa0 /tmp/UiApp.dll.9PSgum.ltrans0.ltrans.o
 .text.ReportStatusCode.constprop.0
                0x0000000000000000        0x8 /tmp/UiApp.dll.9PSgum.ltrans0.ltrans.o
 .text.ReportStatusCodeEx.constprop.0
                0x0000000000000000        0x8 /tmp/UiApp.dll.9PSgum.ltrans0.ltrans.o
 .rodata._gPcd_FixedAtBuild_PcdDebugPropertyMask
                0x0000000000000000        0x1 /tmp/UiApp.dll.9PSgum.ltrans0.ltrans.o
 .rodata._gPcd_FixedAtBuild_PcdFixedDebugPrintErrorLevel
                0x0000000000000000        0x4 /tmp/UiApp.dll.9PSgum.ltrans0.ltrans.o
 .rodata._gPcd_FixedAtBuild_PcdMaximumUnicodeStringLength
                0x0000000000000000        0x4 /tmp/UiApp.dll.9PSgum.ltrans0.ltrans.o
 .rodata._gPcd_FixedAtBuild_PcdPerformanceLibraryPropertyMask
                0x0000000000000000        0x1 /tmp/UiApp.dll.9PSgum.ltrans0.ltrans.o
 .rodata._gPcd_FixedAtBuild_PcdResetOnMemoryTypeInformationChange
                0x0000000000000000        0x1 /tmp/UiApp.dll.9PSgum.ltrans0.ltrans.o
 .rodata.mBmmCallbackInfo
                0x0000000000000000        0x8 /tmp/UiApp.dll.9PSgum.ltrans0.ltrans.o
 .comment       0x0000000000000000       0x2b /tmp/UiApp.dll.9PSgum.ltrans0.ltrans.o
 .note.GNU-stack
                0x0000000000000000        0x0 /tmp/UiApp.dll.9PSgum.ltrans0.ltrans.o
 .text          0x0000000000000000        0x0 /tmp/UiApp.dll.9PSgum.ltrans1.ltrans.o
 .data          0x0000000000000000        0x0 /tmp/UiApp.dll.9PSgum.ltrans1.ltrans.o
 .bss           0x0000000000000000        0x0 /tmp/UiApp.dll.9PSgum.ltrans1.ltrans.o
 .rodata.BmCollectLoadOptions.str1.1
                0x0000000000000000       0x1f /tmp/UiApp.dll.9PSgum.ltrans1.ltrans.o
 .text.BmCollectLoadOptions
                0x0000000000000000      0x168 /tmp/UiApp.dll.9PSgum.ltrans1.ltrans.o
 .rodata._gUefiDriverRevision
                0x0000000000000000        0x4 /tmp/UiApp.dll.9PSgum.ltrans1.ltrans.o
 .rodata.gEfiCallerBaseName
                0x0000000000000000        0x8 /tmp/UiApp.dll.9PSgum.ltrans1.ltrans.o
 .comment       0x0000000000000000       0x2b /tmp/UiApp.dll.9PSgum.ltrans1.ltrans.o
 .note.GNU-stack
                0x0000000000000000        0x0 /tmp/UiApp.dll.9PSgum.ltrans1.ltrans.o
 .text          0x0000000000000000        0x0 /tmp/UiApp.dll.9PSgum.ltrans2.ltrans.o
 .data          0x0000000000000000        0x0 /tmp/UiApp.dll.9PSgum.ltrans2.ltrans.o
 .bss           0x0000000000000000        0x0 /tmp/UiApp.dll.9PSgum.ltrans2.ltrans.o
 .text.__memset
                0x0000000000000000       0x1c /tmp/UiApp.dll.9PSgum.ltrans2.ltrans.o
 .comment       0x0000000000000000       0x2b /tmp/UiApp.dll.9PSgum.ltrans2.ltrans.o
 .note.GNU-stack
                0x0000000000000000        0x0 /tmp/UiApp.dll.9PSgum.ltrans2.ltrans.o
 .comment       0x0000000000000000       0x2b /tmp/ccBUZWTl.debug.temp.o
 .note.GNU-stack
                0x0000000000000000        0x0 /tmp/ccBUZWTl.debug.temp.o
 .comment       0x0000000000000000       0x2b /tmp/ccCrHJLn.debug.temp.o
 .note.GNU-stack
                0x0000000000000000        0x0 /tmp/ccCrHJLn.debug.temp.o
 .comment       0x0000000000000000       0x2b /tmp/ccnRYQim.debug.temp.o
 .note.GNU-stack
                0x0000000000000000        0x0 /tmp/ccnRYQim.debug.temp.o
 .comment       0x0000000000000000       0x2b /tmp/cc5C0BWm.debug.temp.o
 .note.GNU-stack
                0x0000000000000000        0x0 /tmp/cc5C0BWm.debug.temp.o
 .comment       0x0000000000000000       0x2b /tmp/cc3OtT0j.debug.temp.o
 .note.GNU-stack
                0x0000000000000000        0x0 /tmp/cc3OtT0j.debug.temp.o
 .comment       0x0000000000000000       0x2b /tmp/cchpOaOl.debug.temp.o
 .note.GNU-stack
                0x0000000000000000        0x0 /tmp/cchpOaOl.debug.temp.o
 .comment       0x0000000000000000       0x2b /tmp/ccDEiuek.debug.temp.o
 .note.GNU-stack
                0x0000000000000000        0x0 /tmp/ccDEiuek.debug.temp.o
 .comment       0x0000000000000000       0x2b /tmp/ccOu3wOm.debug.temp.o
 .note.GNU-stack
                0x0000000000000000        0x0 /tmp/ccOu3wOm.debug.temp.o
 .comment       0x0000000000000000       0x2b /tmp/cchd8sXn.debug.temp.o
 .note.GNU-stack
                0x0000000000000000        0x0 /tmp/cchd8sXn.debug.temp.o
 .comment       0x0000000000000000       0x2b /tmp/ccUWRfhk.debug.temp.o
 .note.GNU-stack
                0x0000000000000000        0x0 /tmp/ccUWRfhk.debug.temp.o
 .comment       0x0000000000000000       0x2b /tmp/ccccmM8n.debug.temp.o
 .note.GNU-stack
                0x0000000000000000        0x0 /tmp/ccccmM8n.debug.temp.o
 .comment       0x0000000000000000       0x2b /tmp/ccdo80Ek.debug.temp.o
 .note.GNU-stack
                0x0000000000000000        0x0 /tmp/ccdo80Ek.debug.temp.o
 .comment       0x0000000000000000       0x2b /tmp/ccR1G8ok.debug.temp.o
 .note.GNU-stack
                0x0000000000000000        0x0 /tmp/ccR1G8ok.debug.temp.o
 .comment       0x0000000000000000       0x2b /tmp/ccU9Z76m.debug.temp.o
 .note.GNU-stack
                0x0000000000000000        0x0 /tmp/ccU9Z76m.debug.temp.o
 .comment       0x0000000000000000       0x2b /tmp/ccHhNlak.debug.temp.o
 .note.GNU-stack
                0x0000000000000000        0x0 /tmp/ccHhNlak.debug.temp.o
 .comment       0x0000000000000000       0x2b /tmp/ccWg9Cvm.debug.temp.o
 .note.GNU-stack
                0x0000000000000000        0x0 /tmp/ccWg9Cvm.debug.temp.o
 .comment       0x0000000000000000       0x2b /tmp/ccKAcYEk.debug.temp.o
 .note.GNU-stack
                0x0000000000000000        0x0 /tmp/ccKAcYEk.debug.temp.o
 .comment       0x0000000000000000       0x2b /tmp/cc3j06En.debug.temp.o
 .note.GNU-stack
                0x0000000000000000        0x0 /tmp/cc3j06En.debug.temp.o
 .debug_info    0x0000000000000000      0x1db /tmp/ccrFQFdk.debug.temp.o
 .debug_abbrev  0x0000000000000000       0xc0 /tmp/ccrFQFdk.debug.temp.o
 .debug_line    0x0000000000000000      0x14c /tmp/ccrFQFdk.debug.temp.o
 .debug_str     0x0000000000000000      0x472 /tmp/ccrFQFdk.debug.temp.o
 .comment       0x0000000000000000       0x2b /tmp/ccrFQFdk.debug.temp.o
 .note.GNU-stack
                0x0000000000000000        0x0 /tmp/ccrFQFdk.debug.temp.o
 .debug_info    0x0000000000000000      0x1c3 /tmp/cci1q1Mn.debug.temp.o
 .debug_abbrev  0x0000000000000000       0xb1 /tmp/cci1q1Mn.debug.temp.o
 .debug_line    0x0000000000000000      0x14c /tmp/cci1q1Mn.debug.temp.o
 .debug_str     0x0000000000000000      0x45b /tmp/cci1q1Mn.debug.temp.o
 .comment       0x0000000000000000       0x2b /tmp/cci1q1Mn.debug.temp.o
 .note.GNU-stack
                0x0000000000000000        0x0 /tmp/cci1q1Mn.debug.temp.o
 .comment       0x0000000000000000       0x2b /tmp/cceDFyPl.debug.temp.o
 .note.GNU-stack
                0x0000000000000000        0x0 /tmp/cceDFyPl.debug.temp.o
 .comment       0x0000000000000000       0x2b /tmp/ccr3Y5wn.debug.temp.o
 .note.GNU-stack
                0x0000000000000000        0x0 /tmp/ccr3Y5wn.debug.temp.o
 .debug_info    0x0000000000000000      0x1cf /tmp/ccDWmw7m.debug.temp.o
 .debug_abbrev  0x0000000000000000       0xb1 /tmp/ccDWmw7m.debug.temp.o
 .debug_line    0x0000000000000000      0x14a /tmp/ccDWmw7m.debug.temp.o
 .debug_str     0x0000000000000000      0x462 /tmp/ccDWmw7m.debug.temp.o
 .comment       0x0000000000000000       0x2b /tmp/ccDWmw7m.debug.temp.o
 .note.GNU-stack
                0x0000000000000000        0x0 /tmp/ccDWmw7m.debug.temp.o
 .comment       0x0000000000000000       0x2b /tmp/ccvLqbbl.debug.temp.o
 .note.GNU-stack
                0x0000000000000000        0x0 /tmp/ccvLqbbl.debug.temp.o
 .comment       0x0000000000000000       0x2b /tmp/ccKicW7n.debug.temp.o
 .note.GNU-stack
                0x0000000000000000        0x0 /tmp/ccKicW7n.debug.temp.o
 .comment       0x0000000000000000       0x2b /tmp/ccHQ87zl.debug.temp.o
 .note.GNU-stack
                0x0000000000000000        0x0 /tmp/ccHQ87zl.debug.temp.o
 .comment       0x0000000000000000       0x2b /tmp/ccy8DaEk.debug.temp.o
 .note.GNU-stack
                0x0000000000000000        0x0 /tmp/ccy8DaEk.debug.temp.o
 .comment       0x0000000000000000       0x2b /tmp/ccwqnGwl.debug.temp.o
 .note.GNU-stack
                0x0000000000000000        0x0 /tmp/ccwqnGwl.debug.temp.o
 .comment       0x0000000000000000       0x2b /tmp/cclB0d7j.debug.temp.o
 .note.GNU-stack
                0x0000000000000000        0x0 /tmp/cclB0d7j.debug.temp.o
 .comment       0x0000000000000000       0x2b /tmp/ccqB92ho.debug.temp.o
 .note.GNU-stack
                0x0000000000000000        0x0 /tmp/ccqB92ho.debug.temp.o
 .comment       0x0000000000000000       0x2b /tmp/cclLuctl.debug.temp.o
 .note.GNU-stack
                0x0000000000000000        0x0 /tmp/cclLuctl.debug.temp.o
 .comment       0x0000000000000000       0x2b /tmp/ccOtQDFl.debug.temp.o
 .note.GNU-stack
                0x0000000000000000        0x0 /tmp/ccOtQDFl.debug.temp.o
 .comment       0x0000000000000000       0x2b /tmp/cc12ZPvm.debug.temp.o
 .note.GNU-stack
                0x0000000000000000        0x0 /tmp/cc12ZPvm.debug.temp.o
 .debug_info    0x0000000000000000     0x45d4 /tmp/cc5L14Al.debug.temp.o
 .debug_abbrev  0x0000000000000000      0x2b0 /tmp/cc5L14Al.debug.temp.o
 .debug_line    0x0000000000000000      0x3cf /tmp/cc5L14Al.debug.temp.o
 .debug_str     0x0000000000000000     0x2f11 /tmp/cc5L14Al.debug.temp.o
 .comment       0x0000000000000000       0x2b /tmp/cc5L14Al.debug.temp.o
 .note.GNU-stack
                0x0000000000000000        0x0 /tmp/cc5L14Al.debug.temp.o
 .comment       0x0000000000000000       0x2b /tmp/ccSBbg3m.debug.temp.o
 .note.GNU-stack
                0x0000000000000000        0x0 /tmp/ccSBbg3m.debug.temp.o
 .comment       0x0000000000000000       0x2b /tmp/ccdTNLJj.debug.temp.o
 .note.GNU-stack
                0x0000000000000000        0x0 /tmp/ccdTNLJj.debug.temp.o
 .comment       0x0000000000000000       0x2b /tmp/ccAeOMXk.debug.temp.o
 .note.GNU-stack
                0x0000000000000000        0x0 /tmp/ccAeOMXk.debug.temp.o
 .comment       0x0000000000000000       0x2b /tmp/ccDucOon.debug.temp.o
 .note.GNU-stack
                0x0000000000000000        0x0 /tmp/ccDucOon.debug.temp.o
 .comment       0x0000000000000000       0x2b /tmp/ccShVGzm.debug.temp.o
 .note.GNU-stack
                0x0000000000000000        0x0 /tmp/ccShVGzm.debug.temp.o
 .comment       0x0000000000000000       0x2b /tmp/ccGrWl6j.debug.temp.o
 .note.GNU-stack
                0x0000000000000000        0x0 /tmp/ccGrWl6j.debug.temp.o
 .comment       0x0000000000000000       0x2b /tmp/ccjvTaVm.debug.temp.o
 .note.GNU-stack
                0x0000000000000000        0x0 /tmp/ccjvTaVm.debug.temp.o
 .comment       0x0000000000000000       0x2b /tmp/ccDX9u9l.debug.temp.o
 .note.GNU-stack
                0x0000000000000000        0x0 /tmp/ccDX9u9l.debug.temp.o
 .comment       0x0000000000000000       0x2b /tmp/ccsBEBwn.debug.temp.o
 .note.GNU-stack
                0x0000000000000000        0x0 /tmp/ccsBEBwn.debug.temp.o
 .comment       0x0000000000000000       0x2b /tmp/cc92zawm.debug.temp.o
 .note.GNU-stack
                0x0000000000000000        0x0 /tmp/cc92zawm.debug.temp.o
 .comment       0x0000000000000000       0x2b /tmp/ccBHb5tk.debug.temp.o
 .note.GNU-stack
                0x0000000000000000        0x0 /tmp/ccBHb5tk.debug.temp.o
 .comment       0x0000000000000000       0x2b /tmp/ccBOJAon.debug.temp.o
 .note.GNU-stack
                0x0000000000000000        0x0 /tmp/ccBOJAon.debug.temp.o
 .comment       0x0000000000000000       0x2b /tmp/ccOjCfnk.debug.temp.o
 .note.GNU-stack
                0x0000000000000000        0x0 /tmp/ccOjCfnk.debug.temp.o
 .comment       0x0000000000000000       0x2b /tmp/ccR3Ixsn.debug.temp.o
 .note.GNU-stack
                0x0000000000000000        0x0 /tmp/ccR3Ixsn.debug.temp.o
 .comment       0x0000000000000000       0x2b /tmp/ccLvSNmn.debug.temp.o
 .note.GNU-stack
                0x0000000000000000        0x0 /tmp/ccLvSNmn.debug.temp.o
 .comment       0x0000000000000000       0x2b /tmp/ccRCt5Am.debug.temp.o
 .note.GNU-stack
                0x0000000000000000        0x0 /tmp/ccRCt5Am.debug.temp.o
 .comment       0x0000000000000000       0x2b /tmp/cc23PZ5k.debug.temp.o
 .note.GNU-stack
                0x0000000000000000        0x0 /tmp/cc23PZ5k.debug.temp.o
 .comment       0x0000000000000000       0x2b /tmp/ccfSQmKk.debug.temp.o
 .note.GNU-stack
                0x0000000000000000        0x0 /tmp/ccfSQmKk.debug.temp.o
 .comment       0x0000000000000000       0x2b /tmp/ccyd41Kj.debug.temp.o
 .note.GNU-stack
                0x0000000000000000        0x0 /tmp/ccyd41Kj.debug.temp.o
 .comment       0x0000000000000000       0x2b /tmp/ccAILC6j.debug.temp.o
 .note.GNU-stack
                0x0000000000000000        0x0 /tmp/ccAILC6j.debug.temp.o
 .comment       0x0000000000000000       0x2b /tmp/ccMMamnm.debug.temp.o
 .note.GNU-stack
                0x0000000000000000        0x0 /tmp/ccMMamnm.debug.temp.o
 .comment       0x0000000000000000       0x2b /tmp/cctvOkRn.debug.temp.o
 .note.GNU-stack
                0x0000000000000000        0x0 /tmp/cctvOkRn.debug.temp.o
 .comment       0x0000000000000000       0x2b /tmp/ccq2JzJl.debug.temp.o
 .note.GNU-stack
                0x0000000000000000        0x0 /tmp/ccq2JzJl.debug.temp.o
 .comment       0x0000000000000000       0x2b /tmp/cc89M3km.debug.temp.o
 .note.GNU-stack
                0x0000000000000000        0x0 /tmp/cc89M3km.debug.temp.o
 .comment       0x0000000000000000       0x2b /tmp/cca7wZ8m.debug.temp.o
 .note.GNU-stack
                0x0000000000000000        0x0 /tmp/cca7wZ8m.debug.temp.o
 .comment       0x0000000000000000       0x2b /tmp/cc9Hm65m.debug.temp.o
 .note.GNU-stack
                0x0000000000000000        0x0 /tmp/cc9Hm65m.debug.temp.o
 .comment       0x0000000000000000       0x2b /tmp/ccfx0GVj.debug.temp.o
 .note.GNU-stack
                0x0000000000000000        0x0 /tmp/ccfx0GVj.debug.temp.o
 .comment       0x0000000000000000       0x2b /tmp/ccds3S7l.debug.temp.o
 .note.GNU-stack
                0x0000000000000000        0x0 /tmp/ccds3S7l.debug.temp.o
 .comment       0x0000000000000000       0x2b /tmp/ccZm1tlm.debug.temp.o
 .note.GNU-stack
                0x0000000000000000        0x0 /tmp/ccZm1tlm.debug.temp.o
 .comment       0x0000000000000000       0x2b /tmp/ccrKERmk.debug.temp.o
 .note.GNU-stack
                0x0000000000000000        0x0 /tmp/ccrKERmk.debug.temp.o
 .comment       0x0000000000000000       0x2b /tmp/ccPso3tk.debug.temp.o
 .note.GNU-stack
                0x0000000000000000        0x0 /tmp/ccPso3tk.debug.temp.o
 .comment       0x0000000000000000       0x2b /tmp/ccq5IJYk.debug.temp.o
 .note.GNU-stack
                0x0000000000000000        0x0 /tmp/ccq5IJYk.debug.temp.o
 .comment       0x0000000000000000       0x2b /tmp/ccToEdUk.debug.temp.o
 .note.GNU-stack
                0x0000000000000000        0x0 /tmp/ccToEdUk.debug.temp.o
 .comment       0x0000000000000000       0x2b /tmp/cczTALnl.debug.temp.o
 .note.GNU-stack
                0x0000000000000000        0x0 /tmp/cczTALnl.debug.temp.o
 .comment       0x0000000000000000       0x2b /tmp/cc2ASeom.debug.temp.o
 .note.GNU-stack
                0x0000000000000000        0x0 /tmp/cc2ASeom.debug.temp.o
 .comment       0x0000000000000000       0x2b /tmp/cc1QRMxn.debug.temp.o
 .note.GNU-stack
                0x0000000000000000        0x0 /tmp/cc1QRMxn.debug.temp.o
 .comment       0x0000000000000000       0x2b /tmp/ccqY8BYm.debug.temp.o
 .note.GNU-stack
                0x0000000000000000        0x0 /tmp/ccqY8BYm.debug.temp.o
 .comment       0x0000000000000000       0x2b /tmp/ccWNBi9n.debug.temp.o
 .note.GNU-stack
                0x0000000000000000        0x0 /tmp/ccWNBi9n.debug.temp.o
 .comment       0x0000000000000000       0x2b /tmp/ccsLkdTk.debug.temp.o
 .note.GNU-stack
                0x0000000000000000        0x0 /tmp/ccsLkdTk.debug.temp.o
 .comment       0x0000000000000000       0x2b /tmp/cc9urpRl.debug.temp.o
 .note.GNU-stack
                0x0000000000000000        0x0 /tmp/cc9urpRl.debug.temp.o
 .comment       0x0000000000000000       0x2b /tmp/ccCRvMNn.debug.temp.o
 .note.GNU-stack
                0x0000000000000000        0x0 /tmp/ccCRvMNn.debug.temp.o
 .comment       0x0000000000000000       0x2b /tmp/ccBOlDKl.debug.temp.o
 .note.GNU-stack
                0x0000000000000000        0x0 /tmp/ccBOlDKl.debug.temp.o
 .comment       0x0000000000000000       0x2b /tmp/cccIfV1j.debug.temp.o
 .note.GNU-stack
                0x0000000000000000        0x0 /tmp/cccIfV1j.debug.temp.o
 .comment       0x0000000000000000       0x2b /tmp/ccvesLzm.debug.temp.o
 .note.GNU-stack
                0x0000000000000000        0x0 /tmp/ccvesLzm.debug.temp.o
 .debug_info    0x0000000000000000      0x186 /tmp/cc75dNul.debug.temp.o
 .debug_abbrev  0x0000000000000000       0xb1 /tmp/cc75dNul.debug.temp.o
 .debug_line    0x0000000000000000      0x174 /tmp/cc75dNul.debug.temp.o
 .debug_str     0x0000000000000000      0x360 /tmp/cc75dNul.debug.temp.o
 .comment       0x0000000000000000       0x2b /tmp/cc75dNul.debug.temp.o
 .note.GNU-stack
                0x0000000000000000        0x0 /tmp/cc75dNul.debug.temp.o
 .debug_info    0x0000000000000000      0x1c3 /tmp/cc1R7x8l.debug.temp.o
 .debug_abbrev  0x0000000000000000       0xb1 /tmp/cc1R7x8l.debug.temp.o
 .debug_line    0x0000000000000000      0x14c /tmp/cc1R7x8l.debug.temp.o
 .debug_str     0x0000000000000000      0x45b /tmp/cc1R7x8l.debug.temp.o
 .comment       0x0000000000000000       0x2b /tmp/cc1R7x8l.debug.temp.o
 .note.GNU-stack
                0x0000000000000000        0x0 /tmp/cc1R7x8l.debug.temp.o
 .debug_info    0x0000000000000000      0x1e7 /tmp/ccgQ3tZl.debug.temp.o
 .debug_abbrev  0x0000000000000000       0xc0 /tmp/ccgQ3tZl.debug.temp.o
 .debug_line    0x0000000000000000      0x14c /tmp/ccgQ3tZl.debug.temp.o
 .debug_str     0x0000000000000000      0x471 /tmp/ccgQ3tZl.debug.temp.o
 .comment       0x0000000000000000       0x2b /tmp/ccgQ3tZl.debug.temp.o
 .note.GNU-stack
                0x0000000000000000        0x0 /tmp/ccgQ3tZl.debug.temp.o
 .comment       0x0000000000000000       0x2b /tmp/ccoYrNRj.debug.temp.o
 .note.GNU-stack
                0x0000000000000000        0x0 /tmp/ccoYrNRj.debug.temp.o
 .debug_info    0x0000000000000000      0x89f /tmp/ccA4fC3k.debug.temp.o
 .debug_abbrev  0x0000000000000000       0xf9 /tmp/ccA4fC3k.debug.temp.o
 .debug_line    0x0000000000000000      0x149 /tmp/ccA4fC3k.debug.temp.o
 .debug_str     0x0000000000000000      0x64e /tmp/ccA4fC3k.debug.temp.o
 .comment       0x0000000000000000       0x2b /tmp/ccA4fC3k.debug.temp.o
 .note.GNU-stack
                0x0000000000000000        0x0 /tmp/ccA4fC3k.debug.temp.o
 .comment       0x0000000000000000       0x2b /tmp/cctPAEao.debug.temp.o
 .note.GNU-stack
                0x0000000000000000        0x0 /tmp/cctPAEao.debug.temp.o
 .comment       0x0000000000000000       0x2b /tmp/ccWgit5j.debug.temp.o
 .note.GNU-stack
                0x0000000000000000        0x0 /tmp/ccWgit5j.debug.temp.o
 .comment       0x0000000000000000       0x2b /tmp/cc6sn5Ml.debug.temp.o
 .note.GNU-stack
                0x0000000000000000        0x0 /tmp/cc6sn5Ml.debug.temp.o
 .comment       0x0000000000000000       0x2b /tmp/cc9SyI5m.debug.temp.o
 .note.GNU-stack
                0x0000000000000000        0x0 /tmp/cc9SyI5m.debug.temp.o
 .comment       0x0000000000000000       0x2b /tmp/cciW1Iao.debug.temp.o
 .note.GNU-stack
                0x0000000000000000        0x0 /tmp/cciW1Iao.debug.temp.o
 .comment       0x0000000000000000       0x2b /tmp/ccUij9Hk.debug.temp.o
 .note.GNU-stack
                0x0000000000000000        0x0 /tmp/ccUij9Hk.debug.temp.o
 .comment       0x0000000000000000       0x2b /tmp/ccuHHpem.debug.temp.o
 .note.GNU-stack
                0x0000000000000000        0x0 /tmp/ccuHHpem.debug.temp.o
 .debug_info    0x0000000000000000     0x1bef /tmp/ccV2SVll.debug.temp.o
 .debug_abbrev  0x0000000000000000      0x22d /tmp/ccV2SVll.debug.temp.o
 .debug_line    0x0000000000000000      0x366 /tmp/ccV2SVll.debug.temp.o
 .debug_str     0x0000000000000000     0x17aa /tmp/ccV2SVll.debug.temp.o
 .comment       0x0000000000000000       0x2b /tmp/ccV2SVll.debug.temp.o
 .note.GNU-stack
                0x0000000000000000        0x0 /tmp/ccV2SVll.debug.temp.o
 .comment       0x0000000000000000       0x2b /tmp/ccackKRl.debug.temp.o
 .note.GNU-stack
                0x0000000000000000        0x0 /tmp/ccackKRl.debug.temp.o
 .comment       0x0000000000000000       0x2b /tmp/cc8i1ccm.debug.temp.o
 .note.GNU-stack
                0x0000000000000000        0x0 /tmp/cc8i1ccm.debug.temp.o
 .comment       0x0000000000000000       0x2b /tmp/ccftCXok.debug.temp.o
 .note.GNU-stack
                0x0000000000000000        0x0 /tmp/ccftCXok.debug.temp.o
 .comment       0x0000000000000000       0x2b /tmp/cc1aKqpl.debug.temp.o
 .note.GNU-stack
                0x0000000000000000        0x0 /tmp/cc1aKqpl.debug.temp.o
 .data          0x0000000000000000        0x0 /home/alastair/pftf-rpi4/Build/RPi4/DEBUG_GCC5/AARCH64/MdePkg/Library/BaseMemoryLibOptDxe/BaseMemoryLibOptDxe/OUTPUT/BaseMemoryLibOptDxe.lib(CopyMem.obj)
 .bss           0x0000000000000000        0x0 /home/alastair/pftf-rpi4/Build/RPi4/DEBUG_GCC5/AARCH64/MdePkg/Library/BaseMemoryLibOptDxe/BaseMemoryLibOptDxe/OUTPUT/BaseMemoryLibOptDxe.lib(CopyMem.obj)
 .data          0x0000000000000000        0x0 /home/alastair/pftf-rpi4/Build/RPi4/DEBUG_GCC5/AARCH64/MdePkg/Library/BaseMemoryLibOptDxe/BaseMemoryLibOptDxe/OUTPUT/BaseMemoryLibOptDxe.lib(CompareGuid.obj)
 .bss           0x0000000000000000        0x0 /home/alastair/pftf-rpi4/Build/RPi4/DEBUG_GCC5/AARCH64/MdePkg/Library/BaseMemoryLibOptDxe/BaseMemoryLibOptDxe/OUTPUT/BaseMemoryLibOptDxe.lib(CompareGuid.obj)
 .text          0x0000000000000000        0x8 /home/alastair/pftf-rpi4/Build/RPi4/DEBUG_GCC5/AARCH64/MdePkg/Library/BaseLib/BaseLib/OUTPUT/BaseLib.lib(CpuBreakpoint.obj)
 .data          0x0000000000000000        0x0 /home/alastair/pftf-rpi4/Build/RPi4/DEBUG_GCC5/AARCH64/MdePkg/Library/BaseLib/BaseLib/OUTPUT/BaseLib.lib(CpuBreakpoint.obj)
 .bss           0x0000000000000000        0x0 /home/alastair/pftf-rpi4/Build/RPi4/DEBUG_GCC5/AARCH64/MdePkg/Library/BaseLib/BaseLib/OUTPUT/BaseLib.lib(CpuBreakpoint.obj)
 .data          0x0000000000000000        0x0 /home/alastair/pftf-rpi4/Build/RPi4/DEBUG_GCC5/AARCH64/MdePkg/Library/BaseMemoryLibOptDxe/BaseMemoryLibOptDxe/OUTPUT/BaseMemoryLibOptDxe.lib(SetMem.obj)
 .bss           0x0000000000000000        0x0 /home/alastair/pftf-rpi4/Build/RPi4/DEBUG_GCC5/AARCH64/MdePkg/Library/BaseMemoryLibOptDxe/BaseMemoryLibOptDxe/OUTPUT/BaseMemoryLibOptDxe.lib(SetMem.obj)
 .data          0x0000000000000000        0x0 /home/alastair/pftf-rpi4/Build/RPi4/DEBUG_GCC5/AARCH64/MdePkg/Library/BaseMemoryLibOptDxe/BaseMemoryLibOptDxe/OUTPUT/BaseMemoryLibOptDxe.lib(CompareMem.obj)
 .bss           0x0000000000000000        0x0 /home/alastair/pftf-rpi4/Build/RPi4/DEBUG_GCC5/AARCH64/MdePkg/Library/BaseMemoryLibOptDxe/BaseMemoryLibOptDxe/OUTPUT/BaseMemoryLibOptDxe.lib(CompareMem.obj)

Memory Configuration

Name             Origin             Length             Attributes
*default*        0x0000000000000000 0xffffffffffffffff

Linker script and memory map

LOAD /home/alastair/pftf-rpi4/edk2/ArmPkg/Library/GccLto/liblto-aarch64.a
START GROUP
LOAD /tmp/UiApp.dll.9PSgum.ltrans0.ltrans.o
LOAD /tmp/UiApp.dll.9PSgum.ltrans1.ltrans.o
LOAD /tmp/UiApp.dll.9PSgum.ltrans2.ltrans.o
LOAD /tmp/ccBUZWTl.debug.temp.o
LOAD /tmp/ccCrHJLn.debug.temp.o
LOAD /tmp/ccnRYQim.debug.temp.o
LOAD /tmp/cc5C0BWm.debug.temp.o
LOAD /tmp/cc3OtT0j.debug.temp.o
LOAD /tmp/cchpOaOl.debug.temp.o
LOAD /tmp/ccDEiuek.debug.temp.o
LOAD /tmp/ccOu3wOm.debug.temp.o
LOAD /tmp/cchd8sXn.debug.temp.o
LOAD /tmp/ccUWRfhk.debug.temp.o
LOAD /tmp/ccccmM8n.debug.temp.o
LOAD /tmp/ccdo80Ek.debug.temp.o
LOAD /tmp/ccR1G8ok.debug.temp.o
LOAD /tmp/ccU9Z76m.debug.temp.o
LOAD /tmp/ccHhNlak.debug.temp.o
LOAD /tmp/ccWg9Cvm.debug.temp.o
LOAD /tmp/ccKAcYEk.debug.temp.o
LOAD /tmp/cc3j06En.debug.temp.o
LOAD /tmp/ccrFQFdk.debug.temp.o
LOAD /tmp/cci1q1Mn.debug.temp.o
LOAD /tmp/cceDFyPl.debug.temp.o
LOAD /tmp/ccr3Y5wn.debug.temp.o
LOAD /tmp/ccDWmw7m.debug.temp.o
LOAD /tmp/ccvLqbbl.debug.temp.o
LOAD /tmp/ccKicW7n.debug.temp.o
LOAD /tmp/ccHQ87zl.debug.temp.o
LOAD /tmp/ccy8DaEk.debug.temp.o
LOAD /tmp/ccwqnGwl.debug.temp.o
LOAD /tmp/cclB0d7j.debug.temp.o
LOAD /tmp/ccqB92ho.debug.temp.o
LOAD /tmp/cclLuctl.debug.temp.o
LOAD /tmp/ccOtQDFl.debug.temp.o
LOAD /tmp/cc12ZPvm.debug.temp.o
LOAD /tmp/cc5L14Al.debug.temp.o
LOAD /tmp/ccSBbg3m.debug.temp.o
LOAD /tmp/ccdTNLJj.debug.temp.o
LOAD /tmp/ccAeOMXk.debug.temp.o
LOAD /tmp/ccDucOon.debug.temp.o
LOAD /tmp/ccShVGzm.debug.temp.o
LOAD /tmp/ccGrWl6j.debug.temp.o
LOAD /tmp/ccjvTaVm.debug.temp.o
LOAD /tmp/ccDX9u9l.debug.temp.o
LOAD /tmp/ccsBEBwn.debug.temp.o
LOAD /tmp/cc92zawm.debug.temp.o
LOAD /tmp/ccBHb5tk.debug.temp.o
LOAD /tmp/ccBOJAon.debug.temp.o
LOAD /tmp/ccOjCfnk.debug.temp.o
LOAD /tmp/ccR3Ixsn.debug.temp.o
LOAD /tmp/ccLvSNmn.debug.temp.o
LOAD /tmp/ccRCt5Am.debug.temp.o
LOAD /tmp/cc23PZ5k.debug.temp.o
LOAD /tmp/ccfSQmKk.debug.temp.o
LOAD /tmp/ccyd41Kj.debug.temp.o
LOAD /tmp/ccAILC6j.debug.temp.o
LOAD /tmp/ccMMamnm.debug.temp.o
LOAD /tmp/cctvOkRn.debug.temp.o
LOAD /tmp/ccq2JzJl.debug.temp.o
LOAD /tmp/cc89M3km.debug.temp.o
LOAD /tmp/cca7wZ8m.debug.temp.o
LOAD /tmp/cc9Hm65m.debug.temp.o
LOAD /tmp/ccfx0GVj.debug.temp.o
LOAD /tmp/ccds3S7l.debug.temp.o
LOAD /tmp/ccZm1tlm.debug.temp.o
LOAD /tmp/ccrKERmk.debug.temp.o
LOAD /tmp/ccPso3tk.debug.temp.o
LOAD /tmp/ccq5IJYk.debug.temp.o
LOAD /tmp/ccToEdUk.debug.temp.o
LOAD /tmp/cczTALnl.debug.temp.o
LOAD /tmp/cc2ASeom.debug.temp.o
LOAD /tmp/cc1QRMxn.debug.temp.o
LOAD /tmp/ccqY8BYm.debug.temp.o
LOAD /tmp/ccWNBi9n.debug.temp.o
LOAD /tmp/ccsLkdTk.debug.temp.o
LOAD /tmp/cc9urpRl.debug.temp.o
LOAD /tmp/ccCRvMNn.debug.temp.o
LOAD /tmp/ccBOlDKl.debug.temp.o
LOAD /tmp/cccIfV1j.debug.temp.o
LOAD /tmp/ccvesLzm.debug.temp.o
LOAD /tmp/cc75dNul.debug.temp.o
LOAD /tmp/cc1R7x8l.debug.temp.o
LOAD /tmp/ccgQ3tZl.debug.temp.o
LOAD /tmp/ccoYrNRj.debug.temp.o
LOAD /tmp/ccA4fC3k.debug.temp.o
LOAD /tmp/cctPAEao.debug.temp.o
LOAD /tmp/ccWgit5j.debug.temp.o
LOAD /tmp/cc6sn5Ml.debug.temp.o
LOAD /tmp/cc9SyI5m.debug.temp.o
LOAD /tmp/cciW1Iao.debug.temp.o
LOAD /tmp/ccUij9Hk.debug.temp.o
LOAD /tmp/ccuHHpem.debug.temp.o
LOAD /tmp/ccV2SVll.debug.temp.o
LOAD /tmp/ccackKRl.debug.temp.o
LOAD /tmp/cc8i1ccm.debug.temp.o
LOAD /tmp/ccftCXok.debug.temp.o
LOAD /tmp/cc1aKqpl.debug.temp.o
LOAD /home/alastair/pftf-rpi4/Build/RPi4/DEBUG_GCC5/AARCH64/MdeModulePkg/Application/UiApp/UiApp/OUTPUT/UiApp.lib
LOAD /home/alastair/pftf-rpi4/Build/RPi4/DEBUG_GCC5/AARCH64/MdePkg/Library/DxePcdLib/DxePcdLib/OUTPUT/DxePcdLib.lib
LOAD /home/alastair/pftf-rpi4/Build/RPi4/DEBUG_GCC5/AARCH64/MdePkg/Library/BaseMemoryLibOptDxe/BaseMemoryLibOptDxe/OUTPUT/BaseMemoryLibOptDxe.lib
LOAD /home/alastair/pftf-rpi4/Build/RPi4/DEBUG_GCC5/AARCH64/MdePkg/Library/BaseLib/BaseLib/OUTPUT/BaseLib.lib
LOAD /home/alastair/pftf-rpi4/Build/RPi4/DEBUG_GCC5/AARCH64/MdePkg/Library/BaseIoLibIntrinsic/BaseIoLibIntrinsic/OUTPUT/BaseIoLibIntrinsic.lib
LOAD /home/alastair/pftf-rpi4/Build/RPi4/DEBUG_GCC5/AARCH64/ArmPlatformPkg/Library/PL011UartLib/PL011UartLib/OUTPUT/PL011UartLib.lib
LOAD /home/alastair/pftf-rpi4/Build/RPi4/DEBUG_GCC5/AARCH64/MdePkg/Library/BaseDebugPrintErrorLevelLib/BaseDebugPrintErrorLevelLib/OUTPUT/BaseDebugPrintErrorLevelLib.lib
LOAD /home/alastair/pftf-rpi4/Build/RPi4/DEBUG_GCC5/AARCH64/Platform/RaspberryPi/Library/DualSerialPortLib/DebugDualSerialPortLib/OUTPUT/DebugDualSerialPortLib.lib
LOAD /home/alastair/pftf-rpi4/Build/RPi4/DEBUG_GCC5/AARCH64/MdePkg/Library/BasePrintLib/BasePrintLib/OUTPUT/BasePrintLib.lib
LOAD /home/alastair/pftf-rpi4/Build/RPi4/DEBUG_GCC5/AARCH64/MdePkg/Library/BaseDebugLibSerialPort/BaseDebugLibSerialPort/OUTPUT/BaseDebugLibSerialPort.lib
LOAD /home/alastair/pftf-rpi4/Build/RPi4/DEBUG_GCC5/AARCH64/MdePkg/Library/UefiBootServicesTableLib/UefiBootServicesTableLib/OUTPUT/UefiBootServicesTableLib.lib
LOAD /home/alastair/pftf-rpi4/Build/RPi4/DEBUG_GCC5/AARCH64/MdePkg/Library/UefiMemoryAllocationLib/UefiMemoryAllocationLib/OUTPUT/UefiMemoryAllocationLib.lib
LOAD /home/alastair/pftf-rpi4/Build/RPi4/DEBUG_GCC5/AARCH64/MdePkg/Library/UefiRuntimeServicesTableLib/UefiRuntimeServicesTableLib/OUTPUT/UefiRuntimeServicesTableLib.lib
LOAD /home/alastair/pftf-rpi4/Build/RPi4/DEBUG_GCC5/AARCH64/MdePkg/Library/UefiDevicePathLib/UefiDevicePathLib/OUTPUT/UefiDevicePathLib.lib
LOAD /home/alastair/pftf-rpi4/Build/RPi4/DEBUG_GCC5/AARCH64/MdePkg/Library/UefiLib/UefiLib/OUTPUT/UefiLib.lib
LOAD /home/alastair/pftf-rpi4/Build/RPi4/DEBUG_GCC5/AARCH64/MdeModulePkg/Library/UefiHiiServicesLib/UefiHiiServicesLib/OUTPUT/UefiHiiServicesLib.lib
LOAD /home/alastair/pftf-rpi4/Build/RPi4/DEBUG_GCC5/AARCH64/MdeModulePkg/Library/UefiSortLib/UefiSortLib/OUTPUT/UefiSortLib.lib
LOAD /home/alastair/pftf-rpi4/Build/RPi4/DEBUG_GCC5/AARCH64/MdePkg/Library/DxeServicesLib/DxeServicesLib/OUTPUT/DxeServicesLib.lib
LOAD /home/alastair/pftf-rpi4/Build/RPi4/DEBUG_GCC5/AARCH64/MdePkg/Library/DxeServicesTableLib/DxeServicesTableLib/OUTPUT/DxeServicesTableLib.lib
LOAD /home/alastair/pftf-rpi4/Build/RPi4/DEBUG_GCC5/AARCH64/MdePkg/Library/BasePeCoffGetEntryPointLib/BasePeCoffGetEntryPointLib/OUTPUT/BasePeCoffGetEntryPointLib.lib
LOAD /home/alastair/pftf-rpi4/Build/RPi4/DEBUG_GCC5/AARCH64/MdeModulePkg/Library/DxePerformanceLib/DxePerformanceLib/OUTPUT/DxePerformanceLib.lib
LOAD /home/alastair/pftf-rpi4/Build/RPi4/DEBUG_GCC5/AARCH64/MdePkg/Library/DxeHobLib/DxeHobLib/OUTPUT/DxeHobLib.lib
LOAD /home/alastair/pftf-rpi4/Build/RPi4/DEBUG_GCC5/AARCH64/MdeModulePkg/Library/UefiHiiLib/UefiHiiLib/OUTPUT/UefiHiiLib.lib
LOAD /home/alastair/pftf-rpi4/Build/RPi4/DEBUG_GCC5/AARCH64/MdePkg/Library/BaseReportStatusCodeLibNull/BaseReportStatusCodeLibNull/OUTPUT/BaseReportStatusCodeLibNull.lib
LOAD /home/alastair/pftf-rpi4/Build/RPi4/DEBUG_GCC5/AARCH64/MdeModulePkg/Library/UefiBootManagerLib/UefiBootManagerLib/OUTPUT/UefiBootManagerLib.lib
LOAD /home/alastair/pftf-rpi4/Build/RPi4/DEBUG_GCC5/AARCH64/MdeModulePkg/Library/FileExplorerLib/FileExplorerLib/OUTPUT/FileExplorerLib.lib
LOAD /home/alastair/pftf-rpi4/Build/RPi4/DEBUG_GCC5/AARCH64/MdePkg/Library/UefiApplicationEntryPoint/UefiApplicationEntryPoint/OUTPUT/UefiApplicationEntryPoint.lib
LOAD /home/alastair/pftf-rpi4/Build/RPi4/DEBUG_GCC5/AARCH64/MdePkg/Library/BaseStackCheckLib/BaseStackCheckLib/OUTPUT/BaseStackCheckLib.lib
LOAD /home/alastair/pftf-rpi4/Build/RPi4/DEBUG_GCC5/AARCH64/ArmPkg/Library/CompilerIntrinsicsLib/CompilerIntrinsicsLib/OUTPUT/CompilerIntrinsicsLib.lib
LOAD /home/alastair/pftf-rpi4/Build/RPi4/DEBUG_GCC5/AARCH64/MdeModulePkg/Library/DeviceManagerUiLib/DeviceManagerUiLib/OUTPUT/DeviceManagerUiLib.lib
LOAD /home/alastair/pftf-rpi4/Build/RPi4/DEBUG_GCC5/AARCH64/MdeModulePkg/Library/BootManagerUiLib/BootManagerUiLib/OUTPUT/BootManagerUiLib.lib
LOAD /home/alastair/pftf-rpi4/Build/RPi4/DEBUG_GCC5/AARCH64/Platform/RaspberryPi/Library/PlatformUiAppLib/PlatformUiAppLib/OUTPUT/PlatformUiAppLib.lib
LOAD /home/alastair/pftf-rpi4/Build/RPi4/DEBUG_GCC5/AARCH64/MdeModulePkg/Library/BootMaintenanceManagerUiLib/BootMaintenanceManagerUiLib/OUTPUT/BootMaintenanceManagerUiLib.lib
END GROUP
                0x0000000000000228                . = PECOFF_HEADER_SIZE

.gnu.version_d  0x0000000000000228        0x0
 .gnu.version_d
                0x0000000000000228        0x0 /home/alastair/pftf-rpi4/edk2/ArmPkg/Library/GccLto/liblto-aarch64.a

.gnu.version    0x0000000000000228        0x0
 .gnu.version   0x0000000000000228        0x0 /home/alastair/pftf-rpi4/edk2/ArmPkg/Library/GccLto/liblto-aarch64.a

.gnu.version_r  0x0000000000000228        0x0
 .gnu.version_r
                0x0000000000000228        0x0 /home/alastair/pftf-rpi4/edk2/ArmPkg/Library/GccLto/liblto-aarch64.a

.text           0x0000000000001000    0x21008
 *(.text .text.* .stub .gnu.linkonce.t.*)
 .text.SerialPortWritable.constprop.0
                0x0000000000001000        0x8 /tmp/UiApp.dll.9PSgum.ltrans0.ltrans.o
 .text.EfiLibDeleteVariable.constprop.0
                0x0000000000001008       0x28 /tmp/UiApp.dll.9PSgum.ltrans0.ltrans.o
 .text.CleanUselessBeforeSubmit
                0x0000000000001030       0xa0 /tmp/UiApp.dll.9PSgum.ltrans0.ltrans.o
 .text.BootManagerExtractConfig
                0x00000000000010d0       0x24 /tmp/UiApp.dll.9PSgum.ltrans0.ltrans.o
 .text.DeviceManagerExtractConfig
                0x00000000000010f4       0x24 /tmp/UiApp.dll.9PSgum.ltrans0.ltrans.o
 .text.InternalBaseLibIsListValid
                0x0000000000001118       0xac /tmp/UiApp.dll.9PSgum.ltrans0.ltrans.o
 .text.InternalHiiBrowserCallback.constprop.0
                0x00000000000011c4      0x13c /tmp/UiApp.dll.9PSgum.ltrans0.ltrans.o
 .text.BOpt_DestroyMenuEntry
                0x0000000000001300       0xd4 /tmp/UiApp.dll.9PSgum.ltrans0.ltrans.o
 .text.BOpt_GetOptionNumber
                0x00000000000013d4      0x138 /tmp/UiApp.dll.9PSgum.ltrans0.ltrans.o
 .text.StrnCatS.constprop.0
                0x000000000000150c      0x1f0 /tmp/UiApp.dll.9PSgum.ltrans0.ltrans.o
 .text.HiiConstructConfigHdr.constprop.0
                0x00000000000016fc      0x210 /tmp/UiApp.dll.9PSgum.ltrans0.ltrans.o
 .text.HiiIsConfigHdrMatch.constprop.0
                0x000000000000190c       0xb4 /tmp/UiApp.dll.9PSgum.ltrans0.ltrans.o
 .text.SetMem.constprop.0
                0x00000000000019c0       0x48 /tmp/UiApp.dll.9PSgum.ltrans0.ltrans.o
 .text.SetMem16
                0x0000000000001a08       0xa0 /tmp/UiApp.dll.9PSgum.ltrans0.ltrans.o
 .text.BmmSetConsoleMode
                0x0000000000001aa8      0x62c /tmp/UiApp.dll.9PSgum.ltrans0.ltrans.o
 .text.BmSetConsoleMode
                0x00000000000020d4      0x62c /tmp/UiApp.dll.9PSgum.ltrans0.ltrans.o
 .text.BootMaintExtractConfig
                0x0000000000002700      0x1b4 /tmp/UiApp.dll.9PSgum.ltrans0.ltrans.o
 .text.BootManagerRouteConfig
                0x00000000000028b4        0x4 /tmp/UiApp.dll.9PSgum.ltrans0.ltrans.o
 .text.DeviceManagerRouteConfig
                0x00000000000028b8        0x4 /tmp/UiApp.dll.9PSgum.ltrans0.ltrans.o
 .text.InternalAllocatePool.constprop.0
                0x00000000000028bc       0x6c /tmp/UiApp.dll.9PSgum.ltrans0.ltrans.o
                0x00000000000028bc                InternalAllocatePool.constprop.0
 .text.CreatePopUp.constprop.0
                0x0000000000002928      0x524 /tmp/UiApp.dll.9PSgum.ltrans0.ltrans.o
                0x0000000000002928                CreatePopUp.constprop.0
 .text.HiiSetString.constprop.0
                0x0000000000002e4c      0x160 /tmp/UiApp.dll.9PSgum.ltrans0.ltrans.o
                0x0000000000002e4c                HiiSetString.constprop.0
 .text.HiiGetString.constprop.0
                0x0000000000002fac      0x1b0 /tmp/UiApp.dll.9PSgum.ltrans0.ltrans.o
                0x0000000000002fac                HiiGetString.constprop.0
 .text.HiiGetHiiHandles.constprop.0
                0x000000000000315c       0xc8 /tmp/UiApp.dll.9PSgum.ltrans0.ltrans.o
                0x000000000000315c                HiiGetHiiHandles.constprop.0
 .text.EfiBootManagerAddLoadOptionVariable.constprop.0
                0x0000000000003224      0x20c /tmp/UiApp.dll.9PSgum.ltrans0.ltrans.o
                0x0000000000003224                EfiBootManagerAddLoadOptionVariable.constprop.0
 .text.EfiBootManagerGetLoadOptions.part.0.constprop.0
                0x0000000000003430      0x1f8 /tmp/UiApp.dll.9PSgum.ltrans0.ltrans.o
                0x0000000000003430                EfiBootManagerGetLoadOptions.part.0.constprop.0
 .text.LogPerformanceMeasurementEnabled.constprop.0
                0x0000000000003628        0x8 /tmp/UiApp.dll.9PSgum.ltrans0.ltrans.o
                0x0000000000003628                LogPerformanceMeasurementEnabled.constprop.0
 .text.IsZeroGuid.constprop.0
                0x0000000000003630       0x10 /tmp/UiApp.dll.9PSgum.ltrans0.ltrans.o
                0x0000000000003630                IsZeroGuid.constprop.0
 .text.MultU64x32.constprop.0
                0x0000000000003640        0xc /tmp/UiApp.dll.9PSgum.ltrans0.ltrans.o
                0x0000000000003640                MultU64x32.constprop.0
 .text.LShiftU64.constprop.0
                0x000000000000364c        0x8 /tmp/UiApp.dll.9PSgum.ltrans0.ltrans.o
                0x000000000000364c                LShiftU64.constprop.0
 .text.EfiAcquireLock.constprop.0
                0x0000000000003654       0x70 /tmp/UiApp.dll.9PSgum.ltrans0.ltrans.o
                0x0000000000003654                EfiAcquireLock.constprop.0
 .text.EfiReleaseLock.constprop.0
                0x00000000000036c4       0x6c /tmp/UiApp.dll.9PSgum.ltrans0.ltrans.o
                0x00000000000036c4                EfiReleaseLock.constprop.0
 .text.IsZeroBuffer.constprop.0
                0x0000000000003730       0x60 /tmp/UiApp.dll.9PSgum.ltrans0.ltrans.o
                0x0000000000003730                IsZeroBuffer.constprop.0
 .text.GetPerformanceMeasurementProtocol
                0x0000000000003790       0xb8 /tmp/UiApp.dll.9PSgum.ltrans0.ltrans.o
                0x0000000000003790                GetPerformanceMeasurementProtocol
 .text.LogPerformanceMeasurement.constprop.0
                0x0000000000003848       0xac /tmp/UiApp.dll.9PSgum.ltrans0.ltrans.o
                0x0000000000003848                LogPerformanceMeasurement.constprop.0
 .text.EndPerformanceMeasurementEx.constprop.0
                0x00000000000038f4       0xac /tmp/UiApp.dll.9PSgum.ltrans0.ltrans.o
                0x00000000000038f4                EndPerformanceMeasurementEx.constprop.0
 .text.EfiGetNameGuidFromFwVolDevicePathNode
                0x00000000000039a0       0x78 /tmp/UiApp.dll.9PSgum.ltrans0.ltrans.o
                0x00000000000039a0                EfiGetNameGuidFromFwVolDevicePathNode
 .text.Print    0x0000000000003a18      0x174 /tmp/UiApp.dll.9PSgum.ltrans0.ltrans.o
                0x0000000000003a18                Print
 .text.SerialPortWrite
                0x0000000000003b8c      0x120 /tmp/UiApp.dll.9PSgum.ltrans0.ltrans.o
                0x0000000000003b8c                SerialPortWrite
 .text.WriteUnaligned16
                0x0000000000003cac       0x50 /tmp/UiApp.dll.9PSgum.ltrans0.ltrans.o
                0x0000000000003cac                WriteUnaligned16
 .text.WriteUnaligned32
                0x0000000000003cfc       0x58 /tmp/UiApp.dll.9PSgum.ltrans0.ltrans.o
                0x0000000000003cfc                WriteUnaligned32
 .text.ReadUnaligned16
                0x0000000000003d54       0x5c /tmp/UiApp.dll.9PSgum.ltrans0.ltrans.o
                0x0000000000003d54                ReadUnaligned16
 .text.ReadUnaligned32
                0x0000000000003db0       0x50 /tmp/UiApp.dll.9PSgum.ltrans0.ltrans.o
                0x0000000000003db0                ReadUnaligned32
 .text.BasePrintLibSPrintMarker.constprop.0
                0x0000000000003e00     0x1004 /tmp/UiApp.dll.9PSgum.ltrans0.ltrans.o
                0x0000000000003e00                BasePrintLibSPrintMarker.constprop.0
 .text.BasePrintLibSPrint.constprop.0
                0x0000000000004e04       0xa0 /tmp/UiApp.dll.9PSgum.ltrans0.ltrans.o
 .text.AsciiSPrint.constprop.0
                0x0000000000004ea4       0xac /tmp/UiApp.dll.9PSgum.ltrans0.ltrans.o
                0x0000000000004ea4                AsciiSPrint.constprop.0
 .text.ReadUnaligned64
                0x0000000000004f50       0x38 /tmp/UiApp.dll.9PSgum.ltrans0.ltrans.o
                0x0000000000004f50                ReadUnaligned64
 .text.IsNull   0x0000000000004f88       0x4c /tmp/UiApp.dll.9PSgum.ltrans0.ltrans.o
                0x0000000000004f88                IsNull
 .text.IsListEmpty
                0x0000000000004fd4       0x4c /tmp/UiApp.dll.9PSgum.ltrans0.ltrans.o
                0x0000000000004fd4                IsListEmpty
 .text.RemoveEntryList
                0x0000000000005020       0x50 /tmp/UiApp.dll.9PSgum.ltrans0.ltrans.o
                0x0000000000005020                RemoveEntryList
 .text.GetNextNode
                0x0000000000005070       0x44 /tmp/UiApp.dll.9PSgum.ltrans0.ltrans.o
                0x0000000000005070                GetNextNode
 .text.GetFirstNode
                0x00000000000050b4       0x44 /tmp/UiApp.dll.9PSgum.ltrans0.ltrans.o
                0x00000000000050b4                GetFirstNode
 .text.InsertTailList
                0x00000000000050f8       0x5c /tmp/UiApp.dll.9PSgum.ltrans0.ltrans.o
                0x00000000000050f8                InsertTailList
 .text.ChooseFile.constprop.0
                0x0000000000005154      0x434 /tmp/UiApp.dll.9PSgum.ltrans0.ltrans.o
 .text.InitializeListHead
                0x0000000000005588       0x40 /tmp/UiApp.dll.9PSgum.ltrans0.ltrans.o
                0x0000000000005588                InitializeListHead
 .text.CompareMem
                0x00000000000055c8       0xd0 /tmp/UiApp.dll.9PSgum.ltrans0.ltrans.o
                0x00000000000055c8                CompareMem
 .text.BootDescriptionHandler.lto_priv.0
                0x0000000000005698       0x8c /tmp/UiApp.dll.9PSgum.ltrans0.ltrans.o
                0x0000000000005698                BootDescriptionHandler.lto_priv.0
 .text.ZeroMem  0x0000000000005724       0x70 /tmp/UiApp.dll.9PSgum.ltrans0.ltrans.o
                0x0000000000005724                ZeroMem
 .text.HiiCreateActionOpCode.constprop.0
                0x0000000000005794       0x9c /tmp/UiApp.dll.9PSgum.ltrans0.ltrans.o
                0x0000000000005794                HiiCreateActionOpCode.constprop.0
 .text.HiiCreateSubTitleOpCode.constprop.0
                0x0000000000005830       0x8c /tmp/UiApp.dll.9PSgum.ltrans0.ltrans.o
                0x0000000000005830                HiiCreateSubTitleOpCode.constprop.0
 .text.UpdatePageEnd
                0x00000000000058bc       0x7c /tmp/UiApp.dll.9PSgum.ltrans0.ltrans.o
 .text.HiiCreateGotoExOpCode.constprop.0
                0x0000000000005938       0xc8 /tmp/UiApp.dll.9PSgum.ltrans0.ltrans.o
                0x0000000000005938                HiiCreateGotoExOpCode.constprop.0
 .text.UefiDevicePathLibConvertDevicePathToText.constprop.0
                0x0000000000005a00      0x160 /tmp/UiApp.dll.9PSgum.ltrans0.ltrans.o
                0x0000000000005a00                UefiDevicePathLibConvertDevicePathToText.constprop.0
 .text.HiiCreateOneOfOpCode.constprop.0
                0x0000000000005b60      0x120 /tmp/UiApp.dll.9PSgum.ltrans0.ltrans.o
                0x0000000000005b60                HiiCreateOneOfOpCode.constprop.0
 .text.HiiCreateGuidOpCode.constprop.0
                0x0000000000005c80       0x80 /tmp/UiApp.dll.9PSgum.ltrans0.ltrans.o
                0x0000000000005c80                HiiCreateGuidOpCode.constprop.0
 .text.RefreshUpdateData
                0x0000000000005d00       0x44 /tmp/UiApp.dll.9PSgum.ltrans0.ltrans.o
 .text.CleanUpPage
                0x0000000000005d44       0x50 /tmp/UiApp.dll.9PSgum.ltrans0.ltrans.o
 .text.UpdatePageStart
                0x0000000000005d94       0x60 /tmp/UiApp.dll.9PSgum.ltrans0.ltrans.o
 .text.BootManagerCallback
                0x0000000000005df4      0x828 /tmp/UiApp.dll.9PSgum.ltrans0.ltrans.o
 .text.HiiCreateCheckBoxOpCode.constprop.0
                0x000000000000661c       0xb8 /tmp/UiApp.dll.9PSgum.ltrans0.ltrans.o
 .text.RequiredDriver
                0x00000000000066d4      0x138 /tmp/UiApp.dll.9PSgum.ltrans0.ltrans.o
                0x00000000000066d4                RequiredDriver
 .text.GetConsoleOutMode
                0x000000000000680c       0xd8 /tmp/UiApp.dll.9PSgum.ltrans0.ltrans.o
                0x000000000000680c                GetConsoleOutMode
 .text.IsIsaSerialNode
                0x00000000000068e4       0x60 /tmp/UiApp.dll.9PSgum.ltrans0.ltrans.o
                0x00000000000068e4                IsIsaSerialNode
 .text.RetrieveUartUid
                0x0000000000006944       0xf4 /tmp/UiApp.dll.9PSgum.ltrans0.ltrans.o
                0x0000000000006944                RetrieveUartUid
 .text.BmMatchDevicePaths
                0x0000000000006a38       0xa8 /tmp/UiApp.dll.9PSgum.ltrans0.ltrans.o
                0x0000000000006a38                BmMatchDevicePaths
                0x0000000000006a38                MatchDevicePaths
 .text.BOpt_FreeMenu
                0x0000000000006ae0       0xa0 /tmp/UiApp.dll.9PSgum.ltrans0.ltrans.o
                0x0000000000006ae0                BOpt_FreeMenu
 .text.BOpt_GetMenuEntry
                0x0000000000006b80       0xb0 /tmp/UiApp.dll.9PSgum.ltrans0.ltrans.o
                0x0000000000006b80                BOpt_GetMenuEntry
 .text.UpdateConsolePage
                0x0000000000006c30      0x24c /tmp/UiApp.dll.9PSgum.ltrans0.ltrans.o
 .text.UpdateComAttributeFromVariable
                0x0000000000006e7c      0x1ec /tmp/UiApp.dll.9PSgum.ltrans0.ltrans.o
                0x0000000000006e7c                UpdateComAttributeFromVariable
 .text.ChangeTerminalDevicePath
                0x0000000000007068      0x1c8 /tmp/UiApp.dll.9PSgum.ltrans0.ltrans.o
 .text.Var_UpdateConsoleOption
                0x0000000000007230      0x234 /tmp/UiApp.dll.9PSgum.ltrans0.ltrans.o
 .text.GetDriverOrder
                0x0000000000007464       0xdc /tmp/UiApp.dll.9PSgum.ltrans0.ltrans.o
                0x0000000000007464                GetDriverOrder
 .text.GetBootOrder
                0x0000000000007540       0xdc /tmp/UiApp.dll.9PSgum.ltrans0.ltrans.o
                0x0000000000007540                GetBootOrder
 .text.UpdateOrderPage
                0x000000000000761c      0x268 /tmp/UiApp.dll.9PSgum.ltrans0.ltrans.o
 .text.UpdatePageBody
                0x0000000000007884       0xb4 /tmp/UiApp.dll.9PSgum.ltrans0.ltrans.o
 .text.UpdateConsoleContent
                0x0000000000007938      0x360 /tmp/UiApp.dll.9PSgum.ltrans0.ltrans.o
 .text.BOpt_CreateMenuEntry
                0x0000000000007c98       0xac /tmp/UiApp.dll.9PSgum.ltrans0.ltrans.o
                0x0000000000007c98                BOpt_CreateMenuEntry
 .text.UiDevicePathToStr
                0x0000000000007d44      0x110 /tmp/UiApp.dll.9PSgum.ltrans0.ltrans.o
                0x0000000000007d44                UiDevicePathToStr
 .text.GetConsoleMenu
                0x0000000000007e54      0x38c /tmp/UiApp.dll.9PSgum.ltrans0.ltrans.o
                0x0000000000007e54                GetConsoleMenu
 .text.BOpt_GetDriverOptions
                0x00000000000081e0      0x29c /tmp/UiApp.dll.9PSgum.ltrans0.ltrans.o
                0x00000000000081e0                BOpt_GetDriverOptions
 .text.BOpt_GetBootOptions
                0x000000000000847c      0x3e4 /tmp/UiApp.dll.9PSgum.ltrans0.ltrans.o
                0x000000000000847c                BOpt_GetBootOptions
 .text.BootMaintCallback
                0x0000000000008860     0x1818 /tmp/UiApp.dll.9PSgum.ltrans0.ltrans.o
 .text.BootMaintRouteConfig
                0x000000000000a078     0x10f0 /tmp/UiApp.dll.9PSgum.ltrans0.ltrans.o
 .text.ExtractFileNameFromDevicePath
                0x000000000000b168       0xb4 /tmp/UiApp.dll.9PSgum.ltrans0.ltrans.o
 .text.ReSendForm
                0x000000000000b21c      0x1c4 /tmp/UiApp.dll.9PSgum.ltrans0.ltrans.o
 .text.CreateDriverOptionFromFile
                0x000000000000b3e0        0x8 /tmp/UiApp.dll.9PSgum.ltrans0.ltrans.o
 .text.CreateBootOptionFromFile
                0x000000000000b3e8        0x8 /tmp/UiApp.dll.9PSgum.ltrans0.ltrans.o
 .text.BootFromFile
                0x000000000000b3f0      0x1dc /tmp/UiApp.dll.9PSgum.ltrans0.ltrans.o
 .text.CreateDeviceManagerForm
                0x000000000000b5cc      0x620 /tmp/UiApp.dll.9PSgum.ltrans0.ltrans.o
                0x000000000000b5cc                CreateDeviceManagerForm
 .text.DeviceManagerCallback
                0x000000000000bbec       0xd8 /tmp/UiApp.dll.9PSgum.ltrans0.ltrans.o
 .text.LibExtractConfig
                0x000000000000bcc4       0x24 /tmp/UiApp.dll.9PSgum.ltrans1.ltrans.o
                0x000000000000bcc4                LibExtractConfig
 .text.BmEliminateExtraSpaces
                0x000000000000bce8       0x44 /tmp/UiApp.dll.9PSgum.ltrans1.ltrans.o
 .text.EfiBootManagerFreeDriverHealthInfo
                0x000000000000bd2c       0x60 /tmp/UiApp.dll.9PSgum.ltrans1.ltrans.o
 .text.BmConnectUsbShortFormDevicePath
                0x000000000000bd8c      0x194 /tmp/UiApp.dll.9PSgum.ltrans1.ltrans.o
 .text.LibGetMenuEntry
                0x000000000000bf20       0xb0 /tmp/UiApp.dll.9PSgum.ltrans1.ltrans.o
 .text.EfiBootManagerConnectDevicePath
                0x000000000000bfd0      0x194 /tmp/UiApp.dll.9PSgum.ltrans1.ltrans.o
 .text.LibGetDevicePath
                0x000000000000c164       0x58 /tmp/UiApp.dll.9PSgum.ltrans1.ltrans.o
 .text.BmGetLoadFileDescription
                0x000000000000c1bc       0xe8 /tmp/UiApp.dll.9PSgum.ltrans1.ltrans.o
 .text.LibAppendFileName
                0x000000000000c2a4      0x1c8 /tmp/UiApp.dll.9PSgum.ltrans1.ltrans.o
 .text.LibCreateNewFile
                0x000000000000c46c      0x2c8 /tmp/UiApp.dll.9PSgum.ltrans1.ltrans.o
 .text.BmGetUsbDescription
                0x000000000000c734      0x208 /tmp/UiApp.dll.9PSgum.ltrans1.ltrans.o
 .text.BmGetNetworkDescription
                0x000000000000c93c      0x350 /tmp/UiApp.dll.9PSgum.ltrans1.ltrans.o
 .text.LibRouteConfig
                0x000000000000cc8c        0x4 /tmp/UiApp.dll.9PSgum.ltrans1.ltrans.o
                0x000000000000cc8c                LibRouteConfig
 .text.BmPrintDp
                0x000000000000cc90       0x64 /tmp/UiApp.dll.9PSgum.ltrans1.ltrans.o
 .text.BmGetSingleControllerHealthStatus
                0x000000000000ccf4      0x2c8 /tmp/UiApp.dll.9PSgum.ltrans1.ltrans.o
 .text.EfiBootManagerGetDriverHealthInfo
                0x000000000000cfbc      0x290 /tmp/UiApp.dll.9PSgum.ltrans1.ltrans.o
 .text.BmMatchPartitionDevicePathNode.part.0
                0x000000000000d24c       0xc4 /tmp/UiApp.dll.9PSgum.ltrans1.ltrans.o
 .text.BmDelPartMatchInstance
                0x000000000000d310      0x110 /tmp/UiApp.dll.9PSgum.ltrans1.ltrans.o
 .text.EfiBootManagerFindLoadOption
                0x000000000000d420       0xc0 /tmp/UiApp.dll.9PSgum.ltrans1.ltrans.o
 .text.BmExpandMediaDevicePath
                0x000000000000d4e0      0x308 /tmp/UiApp.dll.9PSgum.ltrans1.ltrans.o
 .text.BmRepairNotify
                0x000000000000d7e8       0x6c /tmp/UiApp.dll.9PSgum.ltrans1.ltrans.o
 .text.BmGetControllerName
                0x000000000000d854      0x158 /tmp/UiApp.dll.9PSgum.ltrans1.ltrans.o
 .text.BmDisplayMessages
                0x000000000000d9ac      0x128 /tmp/UiApp.dll.9PSgum.ltrans1.ltrans.o
 .text.BmRepairAllControllers.part.0
                0x000000000000dad4      0x404 /tmp/UiApp.dll.9PSgum.ltrans1.ltrans.o
 .text.BmGetBootDescription
                0x000000000000ded8      0x1b8 /tmp/UiApp.dll.9PSgum.ltrans1.ltrans.o
 .text.EfiBootManagerIsValidLoadOptionVariableName.part.0
                0x000000000000e090      0x10c /tmp/UiApp.dll.9PSgum.ltrans1.ltrans.o
 .text.BmUpdateSystemTableConsole
                0x000000000000e19c      0x1c0 /tmp/UiApp.dll.9PSgum.ltrans1.ltrans.o
 .text.BmGetMiscDescription
                0x000000000000e35c      0x2a8 /tmp/UiApp.dll.9PSgum.ltrans1.ltrans.o
 .text.BmGetNvmeDescription
                0x000000000000e604      0x250 /tmp/UiApp.dll.9PSgum.ltrans1.ltrans.o
 .text.BmGetDescriptionFromDiskInfo
                0x000000000000e854      0x2e4 /tmp/UiApp.dll.9PSgum.ltrans1.ltrans.o
 .text.BmIsBootManagerMenuFilePath
                0x000000000000eb38       0x90 /tmp/UiApp.dll.9PSgum.ltrans1.ltrans.o
 .text.BmDestroyRamDisk
                0x000000000000ebc8      0x27c /tmp/UiApp.dll.9PSgum.ltrans1.ltrans.o
 .text.BmExpandLoadFile
                0x000000000000ee44      0x33c /tmp/UiApp.dll.9PSgum.ltrans1.ltrans.o
 .text.BmGetRamDiskDevicePath
                0x000000000000f180       0xfc /tmp/UiApp.dll.9PSgum.ltrans1.ltrans.o
 .text.EfiBootManagerConnectConsoleVariable.part.0
                0x000000000000f27c      0x2e8 /tmp/UiApp.dll.9PSgum.ltrans1.ltrans.o
 .text.BmCachePartitionDevicePath
                0x000000000000f564       0xcc /tmp/UiApp.dll.9PSgum.ltrans1.ltrans.o
 .text.BmAdjustFvFilePath
                0x000000000000f630      0x1a4 /tmp/UiApp.dll.9PSgum.ltrans1.ltrans.o
 .text.BmEndOfBdsPerfCode
                0x000000000000f7d4       0x30 /tmp/UiApp.dll.9PSgum.ltrans1.ltrans.o
 .text.EfiBootManagerConnectAllDefaultConsoles
                0x000000000000f804      0x150 /tmp/UiApp.dll.9PSgum.ltrans1.ltrans.o
 .text.IsMacAddressDevicePath
                0x000000000000f954      0x33c /tmp/UiApp.dll.9PSgum.ltrans1.ltrans.o
                0x000000000000f954                IsMacAddressDevicePath
 .text.DmExtractDevicePathFromHiiHandle
                0x000000000000fc90       0xb0 /tmp/UiApp.dll.9PSgum.ltrans1.ltrans.o
                0x000000000000fc90                DmExtractDevicePathFromHiiHandle
 .text.LibToLowerString
                0x000000000000fd40       0x2c /tmp/UiApp.dll.9PSgum.ltrans1.ltrans.o
                0x000000000000fd40                LibToLowerString
 .text.LibStrDuplicate
                0x000000000000fd6c       0x78 /tmp/UiApp.dll.9PSgum.ltrans1.ltrans.o
                0x000000000000fd6c                LibStrDuplicate
 .text.LibDestroyMenuEntry
                0x000000000000fde4       0x78 /tmp/UiApp.dll.9PSgum.ltrans1.ltrans.o
                0x000000000000fde4                LibDestroyMenuEntry
 .text.LibFreeMenu
                0x000000000000fe5c       0xa0 /tmp/UiApp.dll.9PSgum.ltrans1.ltrans.o
                0x000000000000fe5c                LibFreeMenu
 .text.LibCreateMenuEntry
                0x000000000000fefc       0x58 /tmp/UiApp.dll.9PSgum.ltrans1.ltrans.o
                0x000000000000fefc                LibCreateMenuEntry
 .text.EfiBootManagerFreeLoadOption
                0x000000000000ff54       0x54 /tmp/UiApp.dll.9PSgum.ltrans1.ltrans.o
                0x000000000000ff54                EfiBootManagerFreeLoadOption
 .text.EfiBootManagerFreeLoadOptions
                0x000000000000ffa8       0x64 /tmp/UiApp.dll.9PSgum.ltrans1.ltrans.o
                0x000000000000ffa8                EfiBootManagerFreeLoadOptions
 .text.EfiBootManagerDeleteLoadOptionVariable
                0x000000000001000c      0x188 /tmp/UiApp.dll.9PSgum.ltrans1.ltrans.o
                0x000000000001000c                EfiBootManagerDeleteLoadOptionVariable
 .text.EfiBootManagerInitializeLoadOption
                0x0000000000010194       0xe4 /tmp/UiApp.dll.9PSgum.ltrans1.ltrans.o
                0x0000000000010194                EfiBootManagerInitializeLoadOption
 .text.EfiBootManagerVariableToLoadOptionEx.part.0
                0x0000000000010278      0x268 /tmp/UiApp.dll.9PSgum.ltrans1.ltrans.o
                0x0000000000010278                EfiBootManagerVariableToLoadOptionEx.part.0
 .text.BmHotkeyCallback
                0x00000000000104e0      0x2c0 /tmp/UiApp.dll.9PSgum.ltrans1.ltrans.o
 .text.EfiBootManagerLoadOptionToVariable
                0x00000000000107a0      0x278 /tmp/UiApp.dll.9PSgum.ltrans1.ltrans.o
                0x00000000000107a0                EfiBootManagerLoadOptionToVariable
 .text.BmGetFreeOptionNumber
                0x0000000000010a18      0x1a4 /tmp/UiApp.dll.9PSgum.ltrans1.ltrans.o
                0x0000000000010a18                BmGetFreeOptionNumber
 .text.EfiBootManagerRefreshAllBootOption
                0x0000000000010bbc      0x7d0 /tmp/UiApp.dll.9PSgum.ltrans1.ltrans.o
                0x0000000000010bbc                EfiBootManagerRefreshAllBootOption
 .text.EfiBootManagerConnectAll
                0x000000000001138c       0xcc /tmp/UiApp.dll.9PSgum.ltrans1.ltrans.o
                0x000000000001138c                EfiBootManagerConnectAll
 .text.BmGetNextLoadOptionDevicePath
                0x0000000000011458      0xd80 /tmp/UiApp.dll.9PSgum.ltrans1.ltrans.o
 .text.ReportProgressCodeEnabled
                0x00000000000121d8        0x8 /tmp/UiApp.dll.9PSgum.ltrans1.ltrans.o
                0x00000000000121d8                ReportProgressCodeEnabled
                0x00000000000121d8                ReportDebugCodeEnabled
                0x00000000000121d8                ReportErrorCodeEnabled
 .text.BmSetVariableAndReportStatusCodeOnError
                0x00000000000121e0       0xc0 /tmp/UiApp.dll.9PSgum.ltrans1.ltrans.o
 .text.BmReportLoadFailure
                0x00000000000122a0       0x5c /tmp/UiApp.dll.9PSgum.ltrans1.ltrans.o
 .text.EfiBootManagerBoot
                0x00000000000122fc     0x1264 /tmp/UiApp.dll.9PSgum.ltrans1.ltrans.o
                0x00000000000122fc                EfiBootManagerBoot
 .text.HiiGetSupportedLanguages
                0x0000000000013560       0xe8 /tmp/UiApp.dll.9PSgum.ltrans1.ltrans.o
                0x0000000000013560                HiiGetSupportedLanguages
 .text.HiiUpdateForm
                0x0000000000013648      0x504 /tmp/UiApp.dll.9PSgum.ltrans1.ltrans.o
                0x0000000000013648                HiiUpdateForm
 .text.HiiCreateGotoOpCode
                0x0000000000013b4c       0xa8 /tmp/UiApp.dll.9PSgum.ltrans1.ltrans.o
                0x0000000000013b4c                HiiCreateGotoOpCode
 .text.LibUpdateFileExplorePage
                0x0000000000013bf4      0x204 /tmp/UiApp.dll.9PSgum.ltrans1.ltrans.o
                0x0000000000013bf4                LibUpdateFileExplorePage
 .text.LibCallback
                0x0000000000013df8      0x514 /tmp/UiApp.dll.9PSgum.ltrans1.ltrans.o
                0x0000000000013df8                LibCallback
 .text.EfiEventEmptyFunction
                0x000000000001430c        0x4 /tmp/UiApp.dll.9PSgum.ltrans2.ltrans.o
                0x000000000001430c                EfiEventEmptyFunction
 .text.BaseDebugLibSerialPortConstructor
                0x0000000000014310        0x8 /tmp/UiApp.dll.9PSgum.ltrans2.ltrans.o
 .text.FakeRouteConfig
                0x0000000000014318       0x24 /tmp/UiApp.dll.9PSgum.ltrans2.ltrans.o
                0x0000000000014318                FakeRouteConfig
 .text.FakeExtractConfig
                0x000000000001433c       0x24 /tmp/UiApp.dll.9PSgum.ltrans2.ltrans.o
                0x000000000001433c                FakeExtractConfig
 .text.UefiLibGetStringWidth.part.0
                0x0000000000014360       0x84 /tmp/UiApp.dll.9PSgum.ltrans2.ltrans.o
                0x0000000000014360                UefiLibGetStringWidth.part.0
 .text.DevicePathFromHandle
                0x00000000000143e4       0x6c /tmp/UiApp.dll.9PSgum.ltrans2.ltrans.o
                0x00000000000143e4                DevicePathFromHandle
 .text.AllocateZeroPool
                0x0000000000014450       0x34 /tmp/UiApp.dll.9PSgum.ltrans2.ltrans.o
                0x0000000000014450                AllocateZeroPool
 .text.AllocatePool
                0x0000000000014484        0x4 /tmp/UiApp.dll.9PSgum.ltrans2.ltrans.o
                0x0000000000014484                AllocatePool
 .text.DebugPrintLevelEnabled
                0x0000000000014488        0x8 /tmp/UiApp.dll.9PSgum.ltrans2.ltrans.o
                0x0000000000014488                DebugPrintLevelEnabled
 .text.DebugCodeEnabled
                0x0000000000014490        0x8 /tmp/UiApp.dll.9PSgum.ltrans2.ltrans.o
                0x0000000000014490                DebugCodeEnabled
 .text.DebugPrintEnabled
                0x0000000000014498        0x8 /tmp/UiApp.dll.9PSgum.ltrans2.ltrans.o
                0x0000000000014498                DebugPrintEnabled
 .text.DebugAssertEnabled
                0x00000000000144a0        0x8 /tmp/UiApp.dll.9PSgum.ltrans2.ltrans.o
                0x00000000000144a0                DebugAssertEnabled
 .text.BasePrintLibFillBuffer
                0x00000000000144a8       0x34 /tmp/UiApp.dll.9PSgum.ltrans2.ltrans.o
                0x00000000000144a8                BasePrintLibFillBuffer
 .text.AsciiStrLen
                0x00000000000144dc       0x90 /tmp/UiApp.dll.9PSgum.ltrans2.ltrans.o
                0x00000000000144dc                AsciiStrLen
 .text.DebugAssert
                0x000000000001456c       0x8c /tmp/UiApp.dll.9PSgum.ltrans2.ltrans.o
                0x000000000001456c                DebugAssert
 .text.SetDevicePathNodeLength
                0x00000000000145f8       0x60 /tmp/UiApp.dll.9PSgum.ltrans2.ltrans.o
                0x00000000000145f8                SetDevicePathNodeLength
 .text.DevicePathNodeLength
                0x0000000000014658       0x50 /tmp/UiApp.dll.9PSgum.ltrans2.ltrans.o
                0x0000000000014658                DevicePathNodeLength
 .text.NextDevicePathNode
                0x00000000000146a8       0x50 /tmp/UiApp.dll.9PSgum.ltrans2.ltrans.o
                0x00000000000146a8                NextDevicePathNode
 .text.DevicePathSubType
                0x00000000000146f8       0x48 /tmp/UiApp.dll.9PSgum.ltrans2.ltrans.o
                0x00000000000146f8                DevicePathSubType
 .text.DevicePathType
                0x0000000000014740       0x48 /tmp/UiApp.dll.9PSgum.ltrans2.ltrans.o
                0x0000000000014740                DevicePathType
 .text.IsDevicePathEndType
                0x0000000000014788       0x58 /tmp/UiApp.dll.9PSgum.ltrans2.ltrans.o
                0x0000000000014788                IsDevicePathEndType
 .text.IsDevicePathEnd
                0x00000000000147e0       0x70 /tmp/UiApp.dll.9PSgum.ltrans2.ltrans.o
                0x00000000000147e0                IsDevicePathEnd
 .text.IsDevicePathValid
                0x0000000000014850       0xe0 /tmp/UiApp.dll.9PSgum.ltrans2.ltrans.o
                0x0000000000014850                IsDevicePathValid
 .text.UefiDevicePathLibGetDevicePathSize
                0x0000000000014930       0x70 /tmp/UiApp.dll.9PSgum.ltrans2.ltrans.o
                0x0000000000014930                UefiDevicePathLibGetDevicePathSize
 .text.BasePrintLibValueToString
                0x00000000000149a0       0x2c /tmp/UiApp.dll.9PSgum.ltrans2.ltrans.o
                0x00000000000149a0                BasePrintLibValueToString
 .text.SPrintLength
                0x00000000000149cc       0x40 /tmp/UiApp.dll.9PSgum.ltrans2.ltrans.o
 .text.UnicodeValueToStringS
                0x0000000000014a0c      0x228 /tmp/UiApp.dll.9PSgum.ltrans2.ltrans.o
                0x0000000000014a0c                UnicodeValueToStringS
 .text.UnicodeVSPrint
                0x0000000000014c34       0x74 /tmp/UiApp.dll.9PSgum.ltrans2.ltrans.o
                0x0000000000014c34                UnicodeVSPrint
 .text.UnicodeSPrint
                0x0000000000014ca8       0xa4 /tmp/UiApp.dll.9PSgum.ltrans2.ltrans.o
                0x0000000000014ca8                UnicodeSPrint
 .text.RShiftU64
                0x0000000000014d4c        0x8 /tmp/UiApp.dll.9PSgum.ltrans2.ltrans.o
 .text.DebugPrint
                0x0000000000014d54       0xd0 /tmp/UiApp.dll.9PSgum.ltrans2.ltrans.o
                0x0000000000014d54                DebugPrint
 .text.HiiRemovePackages
                0x0000000000014e24       0xb0 /tmp/UiApp.dll.9PSgum.ltrans2.ltrans.o
 .text.FreePool
                0x0000000000014ed4       0x7c /tmp/UiApp.dll.9PSgum.ltrans2.ltrans.o
                0x0000000000014ed4                FreePool
 .text.HiiFreeOpCodeHandle
                0x0000000000014f50       0x54 /tmp/UiApp.dll.9PSgum.ltrans2.ltrans.o
                0x0000000000014f50                HiiFreeOpCodeHandle
 .text.HiiAllocateOpCodeHandle
                0x0000000000014fa4       0x54 /tmp/UiApp.dll.9PSgum.ltrans2.ltrans.o
                0x0000000000014fa4                HiiAllocateOpCodeHandle
 .text.GetVariable2
                0x0000000000014ff8      0x164 /tmp/UiApp.dll.9PSgum.ltrans2.ltrans.o
                0x0000000000014ff8                GetVariable2
 .text.GetEfiGlobalVariable2
                0x000000000001515c       0x14 /tmp/UiApp.dll.9PSgum.ltrans2.ltrans.o
                0x000000000001515c                GetEfiGlobalVariable2
 .text.FreePages
                0x0000000000015170       0xc4 /tmp/UiApp.dll.9PSgum.ltrans2.ltrans.o
                0x0000000000015170                FreePages
 .text.GetPcdProtocol
                0x0000000000015234       0xc0 /tmp/UiApp.dll.9PSgum.ltrans2.ltrans.o
 .text.UiCustomizeFrontPageBanner
                0x00000000000152f4       0x64 /tmp/UiApp.dll.9PSgum.ltrans2.ltrans.o
 .text.AsciiStrSize
                0x0000000000015358       0x18 /tmp/UiApp.dll.9PSgum.ltrans2.ltrans.o
 .text.AsciiStrnCmp
                0x0000000000015370       0xd4 /tmp/UiApp.dll.9PSgum.ltrans2.ltrans.o
                0x0000000000015370                AsciiStrnCmp
 .text.AsciiStrCmp
                0x0000000000015444       0x88 /tmp/UiApp.dll.9PSgum.ltrans2.ltrans.o
 .text.StrLen   0x00000000000154cc       0xa4 /tmp/UiApp.dll.9PSgum.ltrans2.ltrans.o
                0x00000000000154cc                StrLen
 .text.StrSize  0x0000000000015570       0x1c /tmp/UiApp.dll.9PSgum.ltrans2.ltrans.o
                0x0000000000015570                StrSize
 .text.StrStr   0x000000000001558c       0xac /tmp/UiApp.dll.9PSgum.ltrans2.ltrans.o
                0x000000000001558c                StrStr
 .text.StrnCmp  0x0000000000015638       0xd4 /tmp/UiApp.dll.9PSgum.ltrans2.ltrans.o
                0x0000000000015638                StrnCmp
 .text.InternalHiiCompareSubString
                0x000000000001570c       0xf8 /tmp/UiApp.dll.9PSgum.ltrans2.ltrans.o
                0x000000000001570c                InternalHiiCompareSubString
 .text.StrCmp   0x0000000000015804       0x88 /tmp/UiApp.dll.9PSgum.ltrans2.ltrans.o
                0x0000000000015804                StrCmp
 .text.AsciiStrnLenS
                0x000000000001588c       0x3c /tmp/UiApp.dll.9PSgum.ltrans2.ltrans.o
                0x000000000001588c                AsciiStrnLenS
 .text.AsciiStrToUnicodeStrS
                0x00000000000158c8      0x218 /tmp/UiApp.dll.9PSgum.ltrans2.ltrans.o
                0x00000000000158c8                AsciiStrToUnicodeStrS
 .text.GetOptionalStringByIndex
                0x0000000000015ae0       0xa8 /tmp/UiApp.dll.9PSgum.ltrans2.ltrans.o
 .text.StrnLenS
                0x0000000000015b88       0x70 /tmp/UiApp.dll.9PSgum.ltrans2.ltrans.o
                0x0000000000015b88                StrnLenS
 .text.InternalSafeStringNoStrOverlap
                0x0000000000015bf8       0x3c /tmp/UiApp.dll.9PSgum.ltrans2.ltrans.o
                0x0000000000015bf8                InternalSafeStringNoStrOverlap
 .text.StrCatS  0x0000000000015c34      0x29c /tmp/UiApp.dll.9PSgum.ltrans2.ltrans.o
                0x0000000000015c34                StrCatS
 .text.StrnCpyS
                0x0000000000015ed0      0x288 /tmp/UiApp.dll.9PSgum.ltrans2.ltrans.o
                0x0000000000015ed0                StrnCpyS
 .text.StrCpyS  0x0000000000016158      0x22c /tmp/UiApp.dll.9PSgum.ltrans2.ltrans.o
                0x0000000000016158                StrCpyS
 .text.CopyMem  0x0000000000016384       0xa4 /tmp/UiApp.dll.9PSgum.ltrans2.ltrans.o
                0x0000000000016384                CopyMem
 .text.GetBestLanguage
                0x0000000000016428      0x1e0 /tmp/UiApp.dll.9PSgum.ltrans2.ltrans.o
                0x0000000000016428                GetBestLanguage
 .text.SetDevicePathEndNode
                0x0000000000016608       0x54 /tmp/UiApp.dll.9PSgum.ltrans2.ltrans.o
                0x0000000000016608                SetDevicePathEndNode
 .text.ReallocatePool
                0x000000000001665c       0x70 /tmp/UiApp.dll.9PSgum.ltrans2.ltrans.o
                0x000000000001665c                ReallocatePool
 .text.InternalHiiGrowOpCodeHandle
                0x00000000000166cc       0xbc /tmp/UiApp.dll.9PSgum.ltrans2.ltrans.o
 .text.InternalHiiAppendOpCodes
                0x0000000000016788       0x8c /tmp/UiApp.dll.9PSgum.ltrans2.ltrans.o
                0x0000000000016788                InternalHiiAppendOpCodes
 .text.InternalHiiCreateOpCodeExtended
                0x0000000000016814       0xa4 /tmp/UiApp.dll.9PSgum.ltrans2.ltrans.o
                0x0000000000016814                InternalHiiCreateOpCodeExtended
 .text.InternalHiiCreateOpCode
                0x00000000000168b8        0xc /tmp/UiApp.dll.9PSgum.ltrans2.ltrans.o
                0x00000000000168b8                InternalHiiCreateOpCode
 .text.HiiCreateOneOfOptionOpCode
                0x00000000000168c4       0xb0 /tmp/UiApp.dll.9PSgum.ltrans2.ltrans.o
                0x00000000000168c4                HiiCreateOneOfOptionOpCode
 .text.HiiCreateEndOpCode
                0x0000000000016974       0x54 /tmp/UiApp.dll.9PSgum.ltrans2.ltrans.o
                0x0000000000016974                HiiCreateEndOpCode
 .text.HiiGetFormSetFromHiiHandle
                0x00000000000169c8      0x248 /tmp/UiApp.dll.9PSgum.ltrans2.ltrans.o
                0x00000000000169c8                HiiGetFormSetFromHiiHandle
 .text.UefiDevicePathLibCatPrint
                0x0000000000016c10      0x184 /tmp/UiApp.dll.9PSgum.ltrans2.ltrans.o
                0x0000000000016c10                UefiDevicePathLibCatPrint
 .text.DevPathToTextNodeGeneric
                0x0000000000016d94       0xfc /tmp/UiApp.dll.9PSgum.ltrans2.ltrans.o
                0x0000000000016d94                DevPathToTextNodeGeneric
 .text.DevPathToTextEndInstance
                0x0000000000016e90        0xc /tmp/UiApp.dll.9PSgum.ltrans2.ltrans.o
                0x0000000000016e90                DevPathToTextEndInstance
 .text.DevPathToTextBBS
                0x0000000000016e9c       0xa0 /tmp/UiApp.dll.9PSgum.ltrans2.ltrans.o
                0x0000000000016e9c                DevPathToTextBBS
 .text.DevPathRelativeOffsetRange
                0x0000000000016f3c       0x10 /tmp/UiApp.dll.9PSgum.ltrans2.ltrans.o
                0x0000000000016f3c                DevPathRelativeOffsetRange
 .text.DevPathToTextFvFile
                0x0000000000016f4c       0x10 /tmp/UiApp.dll.9PSgum.ltrans2.ltrans.o
                0x0000000000016f4c                DevPathToTextFvFile
 .text.DevPathToTextFv
                0x0000000000016f5c       0x10 /tmp/UiApp.dll.9PSgum.ltrans2.ltrans.o
                0x0000000000016f5c                DevPathToTextFv
 .text.DevPathToTextMediaProtocol
                0x0000000000016f6c       0x10 /tmp/UiApp.dll.9PSgum.ltrans2.ltrans.o
                0x0000000000016f6c                DevPathToTextMediaProtocol
 .text.DevPathToTextFilePath
                0x0000000000016f7c       0x10 /tmp/UiApp.dll.9PSgum.ltrans2.ltrans.o
                0x0000000000016f7c                DevPathToTextFilePath
 .text.DevPathToTextCDROM
                0x0000000000016f8c       0x30 /tmp/UiApp.dll.9PSgum.ltrans2.ltrans.o
                0x0000000000016f8c                DevPathToTextCDROM
 .text.DevPathToTextHardDrive
                0x0000000000016fbc       0x8c /tmp/UiApp.dll.9PSgum.ltrans2.ltrans.o
                0x0000000000016fbc                DevPathToTextHardDrive
 .text.DevPathToTextUri
                0x0000000000017048       0x94 /tmp/UiApp.dll.9PSgum.ltrans2.ltrans.o
                0x0000000000017048                DevPathToTextUri
 .text.DevPathToTextBluetoothLE
                0x00000000000170dc       0x44 /tmp/UiApp.dll.9PSgum.ltrans2.ltrans.o
                0x00000000000170dc                DevPathToTextBluetoothLE
 .text.DevPathToTextWiFi
                0x0000000000017120       0x70 /tmp/UiApp.dll.9PSgum.ltrans2.ltrans.o
                0x0000000000017120                DevPathToTextWiFi
 .text.DevPathToTextBluetooth
                0x0000000000017190       0x24 /tmp/UiApp.dll.9PSgum.ltrans2.ltrans.o
                0x0000000000017190                DevPathToTextBluetooth
 .text.DevPathToTextVlan
                0x00000000000171b4       0x10 /tmp/UiApp.dll.9PSgum.ltrans2.ltrans.o
                0x00000000000171b4                DevPathToTextVlan
 .text.DevPathToTextiSCSI
                0x00000000000171c4      0x10c /tmp/UiApp.dll.9PSgum.ltrans2.ltrans.o
                0x00000000000171c4                DevPathToTextiSCSI
 .text.DevPathToTextUart
                0x00000000000172d0      0x118 /tmp/UiApp.dll.9PSgum.ltrans2.ltrans.o
                0x00000000000172d0                DevPathToTextUart
 .text.DevPathToTextInfiniBand
                0x00000000000173e8       0x1c /tmp/UiApp.dll.9PSgum.ltrans2.ltrans.o
                0x00000000000173e8                DevPathToTextInfiniBand
 .text.CatIPv6Address
                0x0000000000017404       0x8c /tmp/UiApp.dll.9PSgum.ltrans2.ltrans.o
 .text.CatIPv4Address
                0x0000000000017490       0x1c /tmp/UiApp.dll.9PSgum.ltrans2.ltrans.o
 .text.DevPathToTextDns
                0x00000000000174ac       0xc0 /tmp/UiApp.dll.9PSgum.ltrans2.ltrans.o
                0x00000000000174ac                DevPathToTextDns
 .text.CatNetworkProtocol
                0x000000000001756c       0x38 /tmp/UiApp.dll.9PSgum.ltrans2.ltrans.o
 .text.DevPathToTextIPv6
                0x00000000000175a4       0xe8 /tmp/UiApp.dll.9PSgum.ltrans2.ltrans.o
                0x00000000000175a4                DevPathToTextIPv6
 .text.DevPathToTextIPv4
                0x000000000001768c       0xf0 /tmp/UiApp.dll.9PSgum.ltrans2.ltrans.o
                0x000000000001768c                DevPathToTextIPv4
 .text.DevPathToTextMacAddr
                0x000000000001777c       0x8c /tmp/UiApp.dll.9PSgum.ltrans2.ltrans.o
                0x000000000001777c                DevPathToTextMacAddr
 .text.DevPathToTextI2O
                0x0000000000017808       0x10 /tmp/UiApp.dll.9PSgum.ltrans2.ltrans.o
                0x0000000000017808                DevPathToTextI2O
 .text.DevPathToTextSata
                0x0000000000017818       0x18 /tmp/UiApp.dll.9PSgum.ltrans2.ltrans.o
                0x0000000000017818                DevPathToTextSata
 .text.DevPathToTextUsbClass
                0x0000000000017830      0x194 /tmp/UiApp.dll.9PSgum.ltrans2.ltrans.o
                0x0000000000017830                DevPathToTextUsbClass
 .text.DevPathToTextLogicalUnit
                0x00000000000179c4       0x10 /tmp/UiApp.dll.9PSgum.ltrans2.ltrans.o
                0x00000000000179c4                DevPathToTextLogicalUnit
 .text.DevPathToTextUsb
                0x00000000000179d4       0x14 /tmp/UiApp.dll.9PSgum.ltrans2.ltrans.o
                0x00000000000179d4                DevPathToTextUsb
 .text.DevPathToText1394
                0x00000000000179e8       0x10 /tmp/UiApp.dll.9PSgum.ltrans2.ltrans.o
                0x00000000000179e8                DevPathToText1394
 .text.DevPathToTextEmmc
                0x00000000000179f8       0x10 /tmp/UiApp.dll.9PSgum.ltrans2.ltrans.o
                0x00000000000179f8                DevPathToTextEmmc
 .text.DevPathToTextSd
                0x0000000000017a08       0x10 /tmp/UiApp.dll.9PSgum.ltrans2.ltrans.o
                0x0000000000017a08                DevPathToTextSd
 .text.DevPathToTextUfs
                0x0000000000017a18       0x14 /tmp/UiApp.dll.9PSgum.ltrans2.ltrans.o
                0x0000000000017a18                DevPathToTextUfs
 .text.DevPathToTextNVMe
                0x0000000000017a2c       0x54 /tmp/UiApp.dll.9PSgum.ltrans2.ltrans.o
                0x0000000000017a2c                DevPathToTextNVMe
 .text.DevPathToTextSasEx
                0x0000000000017a80      0x18c /tmp/UiApp.dll.9PSgum.ltrans2.ltrans.o
                0x0000000000017a80                DevPathToTextSasEx
 .text.DevPathToTextFibreEx
                0x0000000000017c0c       0xa8 /tmp/UiApp.dll.9PSgum.ltrans2.ltrans.o
                0x0000000000017c0c                DevPathToTextFibreEx
 .text.DevPathToTextFibre
                0x0000000000017cb4       0x10 /tmp/UiApp.dll.9PSgum.ltrans2.ltrans.o
                0x0000000000017cb4                DevPathToTextFibre
 .text.DevPathToTextScsi
                0x0000000000017cc4       0x14 /tmp/UiApp.dll.9PSgum.ltrans2.ltrans.o
                0x0000000000017cc4                DevPathToTextScsi
 .text.DevPathToTextAtapi
                0x0000000000017cd8       0x60 /tmp/UiApp.dll.9PSgum.ltrans2.ltrans.o
                0x0000000000017cd8                DevPathToTextAtapi
 .text.DevPathToTextAcpiAdr
                0x0000000000017d38       0x9c /tmp/UiApp.dll.9PSgum.ltrans2.ltrans.o
                0x0000000000017d38                DevPathToTextAcpiAdr
 .text.DevPathToTextAcpiEx
                0x0000000000017dd4      0x28c /tmp/UiApp.dll.9PSgum.ltrans2.ltrans.o
                0x0000000000017dd4                DevPathToTextAcpiEx
 .text.DevPathToTextAcpi
                0x0000000000018060       0xc0 /tmp/UiApp.dll.9PSgum.ltrans2.ltrans.o
                0x0000000000018060                DevPathToTextAcpi
 .text.DevPathToTextBmc
                0x0000000000018120       0x3c /tmp/UiApp.dll.9PSgum.ltrans2.ltrans.o
                0x0000000000018120                DevPathToTextBmc
 .text.DevPathToTextController
                0x000000000001815c       0x10 /tmp/UiApp.dll.9PSgum.ltrans2.ltrans.o
                0x000000000001815c                DevPathToTextController
 .text.DevPathToTextMemMap
                0x000000000001816c       0x14 /tmp/UiApp.dll.9PSgum.ltrans2.ltrans.o
                0x000000000001816c                DevPathToTextMemMap
 .text.DevPathToTextPccard
                0x0000000000018180       0x10 /tmp/UiApp.dll.9PSgum.ltrans2.ltrans.o
                0x0000000000018180                DevPathToTextPccard
 .text.DevPathToTextPci
                0x0000000000018190       0x14 /tmp/UiApp.dll.9PSgum.ltrans2.ltrans.o
                0x0000000000018190                DevPathToTextPci
 .text.AllocateCopyPool
                0x00000000000181a4       0x8c /tmp/UiApp.dll.9PSgum.ltrans2.ltrans.o
                0x00000000000181a4                AllocateCopyPool
 .text.DevPathToTextUsbWWID
                0x0000000000018230       0xb4 /tmp/UiApp.dll.9PSgum.ltrans2.ltrans.o
                0x0000000000018230                DevPathToTextUsbWWID
 .text.UefiDevicePathLibDuplicateDevicePath
                0x00000000000182e4       0x34 /tmp/UiApp.dll.9PSgum.ltrans2.ltrans.o
                0x00000000000182e4                UefiDevicePathLibDuplicateDevicePath
 .text.UefiDevicePathLibGetNextDevicePathInstance
                0x0000000000018318       0xd0 /tmp/UiApp.dll.9PSgum.ltrans2.ltrans.o
                0x0000000000018318                UefiDevicePathLibGetNextDevicePathInstance
 .text.UefiDevicePathLibAppendDevicePathInstance
                0x00000000000183e8       0xec /tmp/UiApp.dll.9PSgum.ltrans2.ltrans.o
                0x00000000000183e8                UefiDevicePathLibAppendDevicePathInstance
 .text.UefiDevicePathLibAppendDevicePath
                0x00000000000184d4       0xcc /tmp/UiApp.dll.9PSgum.ltrans2.ltrans.o
                0x00000000000184d4                UefiDevicePathLibAppendDevicePath
 .text.FileDevicePath
                0x00000000000185a0       0xa0 /tmp/UiApp.dll.9PSgum.ltrans2.ltrans.o
                0x00000000000185a0                FileDevicePath
 .text.UefiDevicePathLibAppendDevicePathNode
                0x0000000000018640       0x9c /tmp/UiApp.dll.9PSgum.ltrans2.ltrans.o
                0x0000000000018640                UefiDevicePathLibAppendDevicePathNode
 .text.GetNextLanguage
                0x00000000000186dc       0xcc /tmp/UiApp.dll.9PSgum.ltrans2.ltrans.o
 .text.FrontPageCallback
                0x00000000000187a8      0x1f8 /tmp/UiApp.dll.9PSgum.ltrans2.ltrans.o
 .text.CompareGuid
                0x00000000000189a0       0x60 /tmp/UiApp.dll.9PSgum.ltrans2.ltrans.o
                0x00000000000189a0                CompareGuid
 .text.EfiGetSystemConfigurationTable
                0x0000000000018a00       0x94 /tmp/UiApp.dll.9PSgum.ltrans2.ltrans.o
                0x0000000000018a00                EfiGetSystemConfigurationTable
 .text.GetHobList
                0x0000000000018a94       0xb4 /tmp/UiApp.dll.9PSgum.ltrans2.ltrans.o
                0x0000000000018a94                GetHobList
 .text.DevPathToTextRamDisk
                0x0000000000018b48      0x1a8 /tmp/UiApp.dll.9PSgum.ltrans2.ltrans.o
                0x0000000000018b48                DevPathToTextRamDisk
 .text.DevPathToTextVendor
                0x0000000000018cf0      0x354 /tmp/UiApp.dll.9PSgum.ltrans2.ltrans.o
                0x0000000000018cf0                DevPathToTextVendor
 .text.CopyGuid
                0x0000000000019044       0x64 /tmp/UiApp.dll.9PSgum.ltrans2.ltrans.o
                0x0000000000019044                CopyGuid
 .text.HiiAddPackages
                0x00000000000190a8      0x1c8 /tmp/UiApp.dll.9PSgum.ltrans2.ltrans.o
 .text.LibPcdSet32S
                0x0000000000019270       0x34 /tmp/UiApp.dll.9PSgum.ltrans2.ltrans.o
                0x0000000000019270                LibPcdSet32S
 .text.UiSetConsoleMode
                0x00000000000192a4      0x604 /tmp/UiApp.dll.9PSgum.ltrans2.ltrans.o
 .text.LibPcdGet32
                0x00000000000198a8       0x2c /tmp/UiApp.dll.9PSgum.ltrans2.ltrans.o
                0x00000000000198a8                LibPcdGet32
 .text.memcpy   0x00000000000198d4       0x20 /tmp/UiApp.dll.9PSgum.ltrans2.ltrans.o
                0x00000000000198d4                memcpy
 .text.__stack_chk_fail
                0x00000000000198f4       0x48 /tmp/UiApp.dll.9PSgum.ltrans2.ltrans.o
                0x00000000000198f4                __stack_chk_fail
 .text.ProcessLibraryConstructorList
                0x000000000001993c     0x1674 /tmp/UiApp.dll.9PSgum.ltrans2.ltrans.o
 .text._ModuleEntryPoint
                0x000000000001afb0     0x15b0 /tmp/UiApp.dll.9PSgum.ltrans2.ltrans.o
                0x000000000001afb0                _ModuleEntryPoint
 .text          0x000000000001c560      0x218 /home/alastair/pftf-rpi4/Build/RPi4/DEBUG_GCC5/AARCH64/MdePkg/Library/BaseMemoryLibOptDxe/BaseMemoryLibOptDxe/OUTPUT/BaseMemoryLibOptDxe.lib(CopyMem.obj)
                0x000000000001c6cc                InternalMemCopyMem
 *fill*         0x000000000001c778        0x8 
 .text          0x000000000001c780       0x20 /home/alastair/pftf-rpi4/Build/RPi4/DEBUG_GCC5/AARCH64/MdePkg/Library/BaseMemoryLibOptDxe/BaseMemoryLibOptDxe/OUTPUT/BaseMemoryLibOptDxe.lib(CompareGuid.obj)
                0x000000000001c780                InternalMemCompareGuid
 .text          0x000000000001c7a0      0x200 /home/alastair/pftf-rpi4/Build/RPi4/DEBUG_GCC5/AARCH64/MdePkg/Library/BaseMemoryLibOptDxe/BaseMemoryLibOptDxe/OUTPUT/BaseMemoryLibOptDxe.lib(SetMem.obj)
                0x000000000001c7a0                InternalMemSetMem16
                0x000000000001c7ac                InternalMemSetMem32
                0x000000000001c7b8                InternalMemSetMem64
                0x000000000001c7c4                InternalMemZeroMem
                0x000000000001c7cc                InternalMemSetMem
 *fill*         0x000000000001c9a0       0x20 
 .text          0x000000000001c9c0       0xe0 /home/alastair/pftf-rpi4/Build/RPi4/DEBUG_GCC5/AARCH64/MdePkg/Library/BaseMemoryLibOptDxe/BaseMemoryLibOptDxe/OUTPUT/BaseMemoryLibOptDxe.lib(CompareMem.obj)
                0x000000000001c9c0                InternalMemCompareMem
 *(.rodata .rodata.* .gnu.linkonce.r.*)
 .rodata.InternalBaseLibIsListValid.str1.1
                0x000000000001caa0       0x83 /tmp/UiApp.dll.9PSgum.ltrans0.ltrans.o
                                         0x98 (size before relaxing)
 *fill*         0x000000000001cb23        0x1 
 .rodata.BOpt_DestroyMenuEntry
                0x000000000001cb24        0x6 /tmp/UiApp.dll.9PSgum.ltrans0.ltrans.o
 .rodata.BOpt_GetOptionNumber.str2.2
                0x000000000001cb2a       0x1e /tmp/UiApp.dll.9PSgum.ltrans0.ltrans.o
 .rodata.BOpt_GetOptionNumber.str1.1
                0x000000000001cb48        0xd /tmp/UiApp.dll.9PSgum.ltrans0.ltrans.o
 *fill*         0x000000000001cb55        0x1 
 .rodata.StrnCatS.constprop.0.str2.2
                0x000000000001cb56        0x8 /tmp/UiApp.dll.9PSgum.ltrans0.ltrans.o
 .rodata.StrnCatS.constprop.0.str1.1
                0x000000000001cb5e      0x114 /tmp/UiApp.dll.9PSgum.ltrans0.ltrans.o
 .rodata.HiiConstructConfigHdr.constprop.0.str2.2
                0x000000000001cc72       0x28 /tmp/UiApp.dll.9PSgum.ltrans0.ltrans.o
 .rodata.HiiIsConfigHdrMatch.constprop.0.str1.1
                0x000000000001cc9a       0x61 /tmp/UiApp.dll.9PSgum.ltrans0.ltrans.o
 .rodata.SetMem.constprop.0.str1.1
                0x000000000001ccfb       0x89 /tmp/UiApp.dll.9PSgum.ltrans0.ltrans.o
 .rodata.SetMem16.str1.1
                0x000000000001cd84       0x81 /tmp/UiApp.dll.9PSgum.ltrans0.ltrans.o
                                         0x98 (size before relaxing)
 .rodata.BmmSetConsoleMode.str1.1
                0x000000000001ce05       0x96 /tmp/UiApp.dll.9PSgum.ltrans0.ltrans.o
 .rodata.BmSetConsoleMode.str1.1
                0x000000000001ce9b       0x52 /tmp/UiApp.dll.9PSgum.ltrans0.ltrans.o
 .rodata.BootMaintExtractConfig.str1.1
                0x000000000001ceed       0x33 /tmp/UiApp.dll.9PSgum.ltrans0.ltrans.o
 .rodata.BootMaintExtractConfig.str2.2
                0x000000000001cf20       0x40 /tmp/UiApp.dll.9PSgum.ltrans0.ltrans.o
 .rodata.CreatePopUp.constprop.0.str1.1
                0x000000000001cf60       0x90 /tmp/UiApp.dll.9PSgum.ltrans0.ltrans.o
 .rodata.CreatePopUp.constprop.0.str2.2
                0x000000000001cff0        0x8 /tmp/UiApp.dll.9PSgum.ltrans0.ltrans.o
 .rodata.HiiSetString.constprop.0.str1.1
                0x000000000001cff8       0x51 /tmp/UiApp.dll.9PSgum.ltrans0.ltrans.o
                                         0x82 (size before relaxing)
 .rodata.HiiGetString.constprop.0.str1.1
                0x000000000001d049        0xe /tmp/UiApp.dll.9PSgum.ltrans0.ltrans.o
                                          0xf (size before relaxing)
 *fill*         0x000000000001d057        0x1 
 .rodata.HiiGetString.constprop.0.str2.2
                0x000000000001d058       0x1a /tmp/UiApp.dll.9PSgum.ltrans0.ltrans.o
 .rodata.EfiBootManagerAddLoadOptionVariable.constprop.0.str1.1
                0x000000000001d072       0xe3 /tmp/UiApp.dll.9PSgum.ltrans0.ltrans.o
 *fill*         0x000000000001d155        0x1 
 .rodata.EfiBootManagerGetLoadOptions.part.0.constprop.0.str2.2
                0x000000000001d156       0x1e /tmp/UiApp.dll.9PSgum.ltrans0.ltrans.o
 .rodata.EfiBootManagerGetLoadOptions.part.0.constprop.0.str1.1
                0x000000000001d174       0x7f /tmp/UiApp.dll.9PSgum.ltrans0.ltrans.o
                                         0x97 (size before relaxing)
 .rodata.EfiAcquireLock.constprop.0.str1.1
                0x000000000001d1f3       0x5d /tmp/UiApp.dll.9PSgum.ltrans0.ltrans.o
 .rodata.EfiReleaseLock.constprop.0.str1.1
                0x000000000001d250       0x1e /tmp/UiApp.dll.9PSgum.ltrans0.ltrans.o
 .rodata.IsZeroBuffer.constprop.0.str1.1
                0x000000000001d26e       0x57 /tmp/UiApp.dll.9PSgum.ltrans0.ltrans.o
 .rodata.GetPerformanceMeasurementProtocol.str1.1
                0x000000000001d2c5       0x80 /tmp/UiApp.dll.9PSgum.ltrans0.ltrans.o
 .rodata.LogPerformanceMeasurement.constprop.0.str1.1
                0x000000000001d345       0x12 /tmp/UiApp.dll.9PSgum.ltrans0.ltrans.o
 .rodata.EndPerformanceMeasurementEx.constprop.0.str1.1
                0x000000000001d357        0xb /tmp/UiApp.dll.9PSgum.ltrans0.ltrans.o
 .rodata.EfiGetNameGuidFromFwVolDevicePathNode.str1.1
                0x000000000001d362       0x65 /tmp/UiApp.dll.9PSgum.ltrans0.ltrans.o
 .rodata.Print.str1.1
                0x000000000001d3c7       0x5c /tmp/UiApp.dll.9PSgum.ltrans0.ltrans.o
 .rodata.WriteUnaligned16.str1.1
                0x000000000001d423       0x45 /tmp/UiApp.dll.9PSgum.ltrans0.ltrans.o
 .rodata.BasePrintLibSPrintMarker.constprop.0.str1.1
                0x000000000001d468      0x28d /tmp/UiApp.dll.9PSgum.ltrans0.ltrans.o
 *fill*         0x000000000001d6f5        0x3 
 .rodata.BasePrintLibSPrintMarker.constprop.0
                0x000000000001d6f8       0x5e /tmp/UiApp.dll.9PSgum.ltrans0.ltrans.o
 .rodata.AsciiSPrint.constprop.0.str1.1
                0x000000000001d756       0x18 /tmp/UiApp.dll.9PSgum.ltrans0.ltrans.o
 .rodata.IsNull.str1.1
                0x000000000001d76e       0x22 /tmp/UiApp.dll.9PSgum.ltrans0.ltrans.o
 .rodata.IsListEmpty.str1.1
                0x000000000001d790       0x26 /tmp/UiApp.dll.9PSgum.ltrans0.ltrans.o
 .rodata.RemoveEntryList.str1.1
                0x000000000001d7b6       0x15 /tmp/UiApp.dll.9PSgum.ltrans0.ltrans.o
 *fill*         0x000000000001d7cb        0x1 
 .rodata.ChooseFile.constprop.0.str2.2
                0x000000000001d7cc       0x68 /tmp/UiApp.dll.9PSgum.ltrans0.ltrans.o
 .rodata.ChooseFile.constprop.0.str1.1
                0x000000000001d834       0xc0 /tmp/UiApp.dll.9PSgum.ltrans0.ltrans.o
 .rodata.InitializeListHead.str1.1
                0x000000000001d8f4       0x19 /tmp/UiApp.dll.9PSgum.ltrans0.ltrans.o
 .rodata.CompareMem.str1.1
                0x000000000001d90d      0x115 /tmp/UiApp.dll.9PSgum.ltrans0.ltrans.o
 .rodata.BootDescriptionHandler.lto_priv.0.str2.2
                0x000000000001da22       0x62 /tmp/UiApp.dll.9PSgum.ltrans0.ltrans.o
 .rodata.ZeroMem.str1.1
                0x000000000001da84       0x88 /tmp/UiApp.dll.9PSgum.ltrans0.ltrans.o
 .rodata.UefiDevicePathLibConvertDevicePathToText.constprop.0.str2.2
                0x000000000001db0c        0x4 /tmp/UiApp.dll.9PSgum.ltrans0.ltrans.o
 .rodata.HiiCreateOneOfOpCode.constprop.0.str1.1
                0x000000000001db10       0x24 /tmp/UiApp.dll.9PSgum.ltrans0.ltrans.o
 .rodata.BootManagerCallback.str2.2
                0x000000000001db34       0xb6 /tmp/UiApp.dll.9PSgum.ltrans0.ltrans.o
 .rodata.BootManagerCallback.str1.1
                0x000000000001dbea      0x140 /tmp/UiApp.dll.9PSgum.ltrans0.ltrans.o
                                        0x182 (size before relaxing)
 .rodata.BOpt_FreeMenu.str1.1
                0x000000000001dd2a       0x5c /tmp/UiApp.dll.9PSgum.ltrans0.ltrans.o
 .rodata.BOpt_GetMenuEntry.str1.1
                0x000000000001dd86       0x24 /tmp/UiApp.dll.9PSgum.ltrans0.ltrans.o
 .rodata.UpdateConsolePage.str1.1
                0x000000000001ddaa       0x85 /tmp/UiApp.dll.9PSgum.ltrans0.ltrans.o
 .rodata.Var_UpdateConsoleOption.str1.1
                0x000000000001de2f       0xdf /tmp/UiApp.dll.9PSgum.ltrans0.ltrans.o
 .rodata.GetDriverOrder.str1.1
                0x000000000001df0e       0x1d /tmp/UiApp.dll.9PSgum.ltrans0.ltrans.o
 .rodata.UpdateOrderPage.str1.1
                0x000000000001df2b       0x1d /tmp/UiApp.dll.9PSgum.ltrans0.ltrans.o
                                         0x1c (size before relaxing)
 *fill*         0x000000000001df2b        0x1 
 .rodata.UpdatePageBody
                0x000000000001df2c        0x8 /tmp/UiApp.dll.9PSgum.ltrans0.ltrans.o
 .rodata.UpdateConsoleContent.str2.2
                0x000000000001df34       0x28 /tmp/UiApp.dll.9PSgum.ltrans0.ltrans.o
 .rodata.UpdateConsoleContent.str1.1
                0x000000000001df5c       0x78 /tmp/UiApp.dll.9PSgum.ltrans0.ltrans.o
 .rodata.BOpt_CreateMenuEntry
                0x000000000001dfd4        0x6 /tmp/UiApp.dll.9PSgum.ltrans0.ltrans.o
 .rodata.GetConsoleMenu.str2.2
                0x000000000001dfda       0x3a /tmp/UiApp.dll.9PSgum.ltrans0.ltrans.o
 .rodata.GetConsoleMenu.str1.1
                0x000000000001e014       0x8d /tmp/UiApp.dll.9PSgum.ltrans0.ltrans.o
 *fill*         0x000000000001e0a1        0x1 
 .rodata.BOpt_GetDriverOptions.str2.2
                0x000000000001e0a2       0x2e /tmp/UiApp.dll.9PSgum.ltrans0.ltrans.o
 .rodata.BOpt_GetDriverOptions.str1.1
                0x000000000001e0d0       0x86 /tmp/UiApp.dll.9PSgum.ltrans0.ltrans.o
 .rodata.BOpt_GetBootOptions.str2.2
                0x000000000001e156       0x12 /tmp/UiApp.dll.9PSgum.ltrans0.ltrans.o
 .rodata.BOpt_GetBootOptions.str1.1
                0x000000000001e168       0x1d /tmp/UiApp.dll.9PSgum.ltrans0.ltrans.o
 .rodata.BootMaintCallback.str1.1
                0x000000000001e185      0x464 /tmp/UiApp.dll.9PSgum.ltrans0.ltrans.o
                                        0x47b (size before relaxing)
 *fill*         0x000000000001e5e9        0x1 
 .rodata.BootMaintCallback.str2.2
                0x000000000001e5ea        0xc /tmp/UiApp.dll.9PSgum.ltrans0.ltrans.o
 *fill*         0x000000000001e5f6        0x2 
 .rodata.BootMaintCallback
                0x000000000001e5f8       0x50 /tmp/UiApp.dll.9PSgum.ltrans0.ltrans.o
 .rodata.BootMaintRouteConfig.str1.1
                0x000000000001e648      0x122 /tmp/UiApp.dll.9PSgum.ltrans0.ltrans.o
 .rodata.BootMaintRouteConfig.str2.2
                0x000000000001e76a       0x4a /tmp/UiApp.dll.9PSgum.ltrans0.ltrans.o
 .rodata.ExtractFileNameFromDevicePath.str1.1
                0x000000000001e7b4      0x122 /tmp/UiApp.dll.9PSgum.ltrans0.ltrans.o
                                         0x1b (size before relaxing)
 .rodata.CreateDeviceManagerForm.str2.2
                0x000000000001e7b4        0xc /tmp/UiApp.dll.9PSgum.ltrans0.ltrans.o
 .rodata.CreateDeviceManagerForm.str1.1
                0x000000000001e7c0       0x56 /tmp/UiApp.dll.9PSgum.ltrans0.ltrans.o
 .rodata.str2.2
                0x000000000001e816      0x14c /tmp/UiApp.dll.9PSgum.ltrans0.ltrans.o
 *fill*         0x000000000001e962        0x6 
 .rodata.BaudRateList
                0x000000000001e968      0x130 /tmp/UiApp.dll.9PSgum.ltrans0.ltrans.o
                0x000000000001e968                BaudRateList
 .rodata.DataBitsList
                0x000000000001ea98       0x40 /tmp/UiApp.dll.9PSgum.ltrans0.ltrans.o
                0x000000000001ea98                DataBitsList
 .rodata.ParityList
                0x000000000001ead8       0x50 /tmp/UiApp.dll.9PSgum.ltrans0.ltrans.o
                0x000000000001ead8                ParityList
 .rodata.StopBitsList
                0x000000000001eb28       0x30 /tmp/UiApp.dll.9PSgum.ltrans0.ltrans.o
                0x000000000001eb28                StopBitsList
 .rodata.TerminalType
                0x000000000001eb58       0x12 /tmp/UiApp.dll.9PSgum.ltrans0.ltrans.o
 .rodata.__FUNCTION__.1977
                0x000000000001eb6a        0x9 /tmp/UiApp.dll.9PSgum.ltrans0.ltrans.o
 .rodata._gPcd_FixedAtBuild_PcdDriverHealthConfigureForm
                0x000000000001eb73       0x10 /tmp/UiApp.dll.9PSgum.ltrans0.ltrans.o
                0x000000000001eb73                _gPcd_FixedAtBuild_PcdDriverHealthConfigureForm
 *fill*         0x000000000001eb83        0x5 
 .rodata.mBmLoadOptionName
                0x000000000001eb88       0x20 /tmp/UiApp.dll.9PSgum.ltrans0.ltrans.o
                0x000000000001eb88                mBmLoadOptionName
 .rodata.mBmLoadOptionOrderName
                0x000000000001eba8       0x20 /tmp/UiApp.dll.9PSgum.ltrans0.ltrans.o
                0x000000000001eba8                mBmLoadOptionOrderName
 .rodata.mConfigHdrTemplate
                0x000000000001ebc8       0x70 /tmp/UiApp.dll.9PSgum.ltrans0.ltrans.o
 .rodata.mDeviceTypeStr
                0x000000000001ec38       0x40 /tmp/UiApp.dll.9PSgum.ltrans0.ltrans.o
 .rodata.mErrorString
                0x000000000001ec78      0x2b5 /tmp/UiApp.dll.9PSgum.ltrans0.ltrans.o
 *fill*         0x000000000001ef2d        0x3 
 .rodata.mUefiDevicePathLibToTextTable
                0x000000000001ef30      0x320 /tmp/UiApp.dll.9PSgum.ltrans0.ltrans.o
 .rodata.mWarningString
                0x000000000001f250       0x96 /tmp/UiApp.dll.9PSgum.ltrans0.ltrans.o
 .rodata.LibGetMenuEntry.str1.1
                0x000000000001f2e6       0x8b /tmp/UiApp.dll.9PSgum.ltrans1.ltrans.o
 .rodata.EfiBootManagerConnectDevicePath.str1.1
                0x000000000001f2e6       0xa1 /tmp/UiApp.dll.9PSgum.ltrans1.ltrans.o
 .rodata.LibAppendFileName.str1.1
                0x000000000001f387       0x17 /tmp/UiApp.dll.9PSgum.ltrans1.ltrans.o
                                         0x2b (size before relaxing)
 .rodata.LibAppendFileName.str2.2
                0x000000000001f39e        0x4 /tmp/UiApp.dll.9PSgum.ltrans1.ltrans.o
 .rodata.BmGetUsbDescription.str1.1
                0x000000000001f39e       0x5a /tmp/UiApp.dll.9PSgum.ltrans1.ltrans.o
                                         0x76 (size before relaxing)
 .rodata.BmGetUsbDescription.str2.2
                0x000000000001f3f8      0x14c /tmp/UiApp.dll.9PSgum.ltrans1.ltrans.o
                                          0x4 (size before relaxing)
 .rodata.BmGetNetworkDescription.str2.2
                0x000000000001f3f8       0xb4 /tmp/UiApp.dll.9PSgum.ltrans1.ltrans.o
 .rodata.BmPrintDp.str1.1
                0x000000000001f4ac        0x3 /tmp/UiApp.dll.9PSgum.ltrans1.ltrans.o
 .rodata.BmGetSingleControllerHealthStatus.str1.1
                0x000000000001f4af       0x9c /tmp/UiApp.dll.9PSgum.ltrans1.ltrans.o
                                         0xd1 (size before relaxing)
 .rodata.EfiBootManagerGetDriverHealthInfo.str1.1
                0x000000000001f54b       0x24 /tmp/UiApp.dll.9PSgum.ltrans1.ltrans.o
 .rodata.BmExpandMediaDevicePath.str1.1
                0x000000000001f56f       0x70 /tmp/UiApp.dll.9PSgum.ltrans1.ltrans.o
 *fill*         0x000000000001f5df        0x1 
 .rodata.BmExpandMediaDevicePath.str2.2
                0x000000000001f5e0       0x2e /tmp/UiApp.dll.9PSgum.ltrans1.ltrans.o
 .rodata.BmRepairNotify.str1.1
                0x000000000001f60e       0x1a /tmp/UiApp.dll.9PSgum.ltrans1.ltrans.o
 .rodata.BmRepairNotify.str2.2
                0x000000000001f628       0x34 /tmp/UiApp.dll.9PSgum.ltrans1.ltrans.o
 .rodata.BmGetControllerName.str2.2
                0x000000000001f65c       0x34 /tmp/UiApp.dll.9PSgum.ltrans1.ltrans.o
                                         0x24 (size before relaxing)
 .rodata.BmGetControllerName.str1.1
                0x000000000001f65c        0xa /tmp/UiApp.dll.9PSgum.ltrans1.ltrans.o
                                          0xb (size before relaxing)
 .rodata.BmDisplayMessages.str1.1
                0x000000000001f666       0x16 /tmp/UiApp.dll.9PSgum.ltrans1.ltrans.o
 .rodata.BmDisplayMessages.str2.2
                0x000000000001f67c       0x2c /tmp/UiApp.dll.9PSgum.ltrans1.ltrans.o
 .rodata.BmRepairAllControllers.part.0.str1.1
                0x000000000001f6a8       0x76 /tmp/UiApp.dll.9PSgum.ltrans1.ltrans.o
 .rodata.BmGetBootDescription.str1.1
                0x000000000001f71e       0x38 /tmp/UiApp.dll.9PSgum.ltrans1.ltrans.o
 .rodata.BmUpdateSystemTableConsole.str1.1
                0x000000000001f756       0x32 /tmp/UiApp.dll.9PSgum.ltrans1.ltrans.o
 .rodata.BmGetMiscDescription.str2.2
                0x000000000001f788       0xa4 /tmp/UiApp.dll.9PSgum.ltrans1.ltrans.o
                                         0xc8 (size before relaxing)
 .rodata.BmGetMiscDescription.str1.1
                0x000000000001f82c       0x1b /tmp/UiApp.dll.9PSgum.ltrans1.ltrans.o
 .rodata.BmGetDescriptionFromDiskInfo.str2.2
                0x000000000001f82c       0x2c /tmp/UiApp.dll.9PSgum.ltrans1.ltrans.o
 .rodata.BmDestroyRamDisk.str1.1
                0x000000000001f858       0x82 /tmp/UiApp.dll.9PSgum.ltrans1.ltrans.o
 .rodata.BmExpandLoadFile.str1.1
                0x000000000001f8da       0x5c /tmp/UiApp.dll.9PSgum.ltrans1.ltrans.o
 .rodata.BmEndOfBdsPerfCode.str1.1
                0x000000000001f936        0x4 /tmp/UiApp.dll.9PSgum.ltrans1.ltrans.o
 .rodata.EfiBootManagerConnectAllDefaultConsoles.str1.1
                0x000000000001f93a       0x23 /tmp/UiApp.dll.9PSgum.ltrans1.ltrans.o
 .rodata.EfiBootManagerConnectAllDefaultConsoles.str2.2
                0x000000000001f95d       0x28 /tmp/UiApp.dll.9PSgum.ltrans1.ltrans.o
 .rodata.IsMacAddressDevicePath.str1.1
                0x000000000001f95d       0x1f /tmp/UiApp.dll.9PSgum.ltrans1.ltrans.o
                                         0x8a (size before relaxing)
 .rodata.IsMacAddressDevicePath.str2.2
                0x000000000001f97c        0xa /tmp/UiApp.dll.9PSgum.ltrans1.ltrans.o
 .rodata.DmExtractDevicePathFromHiiHandle.str1.1
                0x000000000001f986       0x17 /tmp/UiApp.dll.9PSgum.ltrans1.ltrans.o
 .rodata.LibStrDuplicate.str1.1
                0x000000000001f986       0x15 /tmp/UiApp.dll.9PSgum.ltrans1.ltrans.o
 .rodata.EfiBootManagerDeleteLoadOptionVariable.str1.1
                0x000000000001f99b       0xc4 /tmp/UiApp.dll.9PSgum.ltrans1.ltrans.o
 .rodata.EfiBootManagerDeleteLoadOptionVariable.str2.2
                0x000000000001f99b        0xe /tmp/UiApp.dll.9PSgum.ltrans1.ltrans.o
 .rodata.EfiBootManagerVariableToLoadOptionEx.part.0.str1.1
                0x000000000001f99b       0x23 /tmp/UiApp.dll.9PSgum.ltrans1.ltrans.o
 .rodata.BmHotkeyCallback.str1.1
                0x000000000001f9be       0xfe /tmp/UiApp.dll.9PSgum.ltrans1.ltrans.o
 .rodata.BmHotkeyCallback.str2.2
                0x000000000001fabc        0xa /tmp/UiApp.dll.9PSgum.ltrans1.ltrans.o
 .rodata.EfiBootManagerLoadOptionToVariable.str1.1
                0x000000000001fabc       0x19 /tmp/UiApp.dll.9PSgum.ltrans1.ltrans.o
 .rodata.BmGetFreeOptionNumber.str1.1
                0x000000000001fad5       0x92 /tmp/UiApp.dll.9PSgum.ltrans1.ltrans.o
 .rodata.BmGetFreeOptionNumber.str2.2
                0x000000000001fb67       0x12 /tmp/UiApp.dll.9PSgum.ltrans1.ltrans.o
 .rodata.EfiBootManagerRefreshAllBootOption.str1.1
                0x000000000001fb67       0x34 /tmp/UiApp.dll.9PSgum.ltrans1.ltrans.o
 *fill*         0x000000000001fb9b        0x1 
 .rodata.EfiBootManagerRefreshAllBootOption.str2.2
                0x000000000001fb9c        0xc /tmp/UiApp.dll.9PSgum.ltrans1.ltrans.o
 .rodata.BmGetNextLoadOptionDevicePath.str1.1
                0x000000000001fba8       0x19 /tmp/UiApp.dll.9PSgum.ltrans1.ltrans.o
 *fill*         0x000000000001fbc1        0x1 
 .rodata.BmGetNextLoadOptionDevicePath.str2.2
                0x000000000001fbc2        0xa /tmp/UiApp.dll.9PSgum.ltrans1.ltrans.o
 .rodata.EfiBootManagerBoot.str1.1
                0x000000000001fbcc      0x300 /tmp/UiApp.dll.9PSgum.ltrans1.ltrans.o
                                        0x3bc (size before relaxing)
 .rodata.EfiBootManagerBoot.str2.2
                0x000000000001fecc       0x44 /tmp/UiApp.dll.9PSgum.ltrans1.ltrans.o
 .rodata.HiiGetSupportedLanguages.str1.1
                0x000000000001ff10       0x4c /tmp/UiApp.dll.9PSgum.ltrans1.ltrans.o
                                         0x66 (size before relaxing)
 .rodata.HiiUpdateForm.str1.1
                0x000000000001ff5c       0x69 /tmp/UiApp.dll.9PSgum.ltrans1.ltrans.o
 .rodata.LibCallback.str2.2
                0x000000000001ff5c        0xa /tmp/UiApp.dll.9PSgum.ltrans1.ltrans.o
 .rodata.str2.2
                0x000000000001ff66       0xb2 /tmp/UiApp.dll.9PSgum.ltrans1.ltrans.o
                                         0xec (size before relaxing)
 .rodata.__FUNCTION__.18861
                0x0000000000020018       0x17 /tmp/UiApp.dll.9PSgum.ltrans1.ltrans.o
 .rodata.__FUNCTION__.19007
                0x000000000002002f       0x11 /tmp/UiApp.dll.9PSgum.ltrans1.ltrans.o
 .rodata._gPcd_FixedAtBuild_PcdBootManagerMenuFile
                0x0000000000020040       0x10 /tmp/UiApp.dll.9PSgum.ltrans1.ltrans.o
 .rodata.mBmBootDescriptionHandlers
                0x0000000000020050       0x30 /tmp/UiApp.dll.9PSgum.ltrans1.ltrans.o
 .rodata.mBmHealthStatusText
                0x0000000000020080       0x30 /tmp/UiApp.dll.9PSgum.ltrans1.ltrans.o
 .rodata.mConVarName
                0x00000000000200b0       0x30 /tmp/UiApp.dll.9PSgum.ltrans1.ltrans.o
 .rodata.AsciiStrLen.str1.1
                0x00000000000200e0       0x76 /tmp/UiApp.dll.9PSgum.ltrans2.ltrans.o
                                         0x8d (size before relaxing)
 .rodata.DebugAssert.str1.1
                0x0000000000020156       0x1e /tmp/UiApp.dll.9PSgum.ltrans2.ltrans.o
 .rodata.SetDevicePathNodeLength.str1.1
                0x0000000000020156       0x9c /tmp/UiApp.dll.9PSgum.ltrans2.ltrans.o
 .rodata.DevicePathNodeLength.str1.1
                0x00000000000201f2       0x15 /tmp/UiApp.dll.9PSgum.ltrans2.ltrans.o
 .rodata.UnicodeValueToStringS.str1.1
                0x00000000000201f2       0xe7 /tmp/UiApp.dll.9PSgum.ltrans2.ltrans.o
                                        0x14d (size before relaxing)
 .rodata.UnicodeVSPrint.str1.1
                0x00000000000202d9       0x28 /tmp/UiApp.dll.9PSgum.ltrans2.ltrans.o
 .rodata.HiiRemovePackages.str1.1
                0x0000000000020301       0x96 /tmp/UiApp.dll.9PSgum.ltrans2.ltrans.o
 .rodata.FreePool.str1.1
                0x0000000000020301       0x5b /tmp/UiApp.dll.9PSgum.ltrans2.ltrans.o
 .rodata.HiiFreeOpCodeHandle.str1.1
                0x000000000002035c       0x5b /tmp/UiApp.dll.9PSgum.ltrans2.ltrans.o
                                         0x1d (size before relaxing)
 .rodata.GetVariable2.str1.1
                0x000000000002035c       0x5d /tmp/UiApp.dll.9PSgum.ltrans2.ltrans.o
                                         0x9c (size before relaxing)
 .rodata.FreePages.str1.1
                0x00000000000203b9        0xb /tmp/UiApp.dll.9PSgum.ltrans2.ltrans.o
 .rodata.GetPcdProtocol.str1.1
                0x00000000000203c4       0x58 /tmp/UiApp.dll.9PSgum.ltrans2.ltrans.o
 .rodata.AsciiStrnCmp.str1.1
                0x000000000002041c       0x70 /tmp/UiApp.dll.9PSgum.ltrans2.ltrans.o
 .rodata.StrLen.str1.1
                0x000000000002048c       0x3a /tmp/UiApp.dll.9PSgum.ltrans2.ltrans.o
                                         0x5d (size before relaxing)
 .rodata.StrStr.str1.1
                0x00000000000204c6       0x32 /tmp/UiApp.dll.9PSgum.ltrans2.ltrans.o
 .rodata.StrnCmp.str1.1
                0x00000000000204f8       0x72 /tmp/UiApp.dll.9PSgum.ltrans2.ltrans.o
 .rodata.InternalHiiCompareSubString.str1.1
                0x000000000002056a       0x39 /tmp/UiApp.dll.9PSgum.ltrans2.ltrans.o
 .rodata.AsciiStrToUnicodeStrS.str1.1
                0x00000000000205a3       0xef /tmp/UiApp.dll.9PSgum.ltrans2.ltrans.o
                                        0x171 (size before relaxing)
 .rodata.StrCatS.str1.1
                0x0000000000020692       0x23 /tmp/UiApp.dll.9PSgum.ltrans2.ltrans.o
                                         0x9f (size before relaxing)
 .rodata.StrnCpyS.str1.1
                0x00000000000206b5       0x16 /tmp/UiApp.dll.9PSgum.ltrans2.ltrans.o
 .rodata.CopyMem.str1.1
                0x00000000000206b5       0x52 /tmp/UiApp.dll.9PSgum.ltrans2.ltrans.o
                                         0xd3 (size before relaxing)
 .rodata.GetBestLanguage.str1.1
                0x0000000000020707       0x23 /tmp/UiApp.dll.9PSgum.ltrans2.ltrans.o
 .rodata.InternalHiiGrowOpCodeHandle.str1.1
                0x000000000002072a       0x17 /tmp/UiApp.dll.9PSgum.ltrans2.ltrans.o
 .rodata.InternalHiiAppendOpCodes.str1.1
                0x000000000002072a       0x3a /tmp/UiApp.dll.9PSgum.ltrans2.ltrans.o
 .rodata.InternalHiiCreateOpCodeExtended.str1.1
                0x0000000000020764       0x25 /tmp/UiApp.dll.9PSgum.ltrans2.ltrans.o
 .rodata.UefiDevicePathLibCatPrint.str1.1
                0x0000000000020789       0x6b /tmp/UiApp.dll.9PSgum.ltrans2.ltrans.o
 .rodata.DevPathToTextNodeGeneric.str2.2
                0x00000000000207f4       0x22 /tmp/UiApp.dll.9PSgum.ltrans2.ltrans.o
                                         0x34 (size before relaxing)
 .rodata.DevPathToTextBBS.str2.2
                0x0000000000020816       0x2c /tmp/UiApp.dll.9PSgum.ltrans2.ltrans.o
                                         0x3a (size before relaxing)
 .rodata.DevPathRelativeOffsetRange.str2.2
                0x0000000000020842       0x28 /tmp/UiApp.dll.9PSgum.ltrans2.ltrans.o
 .rodata.DevPathToTextFvFile.str2.2
                0x000000000002086a       0x16 /tmp/UiApp.dll.9PSgum.ltrans2.ltrans.o
 .rodata.DevPathToTextFv.str2.2
                0x0000000000020880        0xe /tmp/UiApp.dll.9PSgum.ltrans2.ltrans.o
 .rodata.DevPathToTextMediaProtocol.str2.2
                0x000000000002088e       0x14 /tmp/UiApp.dll.9PSgum.ltrans2.ltrans.o
 .rodata.DevPathToTextFilePath.str2.2
                0x00000000000208a2       0x14 /tmp/UiApp.dll.9PSgum.ltrans2.ltrans.o
                                          0x6 (size before relaxing)
 .rodata.DevPathToTextCDROM.str2.2
                0x00000000000208a2       0x48 /tmp/UiApp.dll.9PSgum.ltrans2.ltrans.o
 .rodata.DevPathToTextHardDrive.str2.2
                0x00000000000208ea       0x64 /tmp/UiApp.dll.9PSgum.ltrans2.ltrans.o
                                         0x7e (size before relaxing)
 .rodata.DevPathToTextUri.str1.1
                0x000000000002094e       0x17 /tmp/UiApp.dll.9PSgum.ltrans2.ltrans.o
 *fill*         0x0000000000020965        0x1 
 .rodata.DevPathToTextUri.str2.2
                0x0000000000020966       0x10 /tmp/UiApp.dll.9PSgum.ltrans2.ltrans.o
 .rodata.DevPathToTextBluetoothLE.str2.2
                0x0000000000020976       0x5a /tmp/UiApp.dll.9PSgum.ltrans2.ltrans.o
 .rodata.DevPathToTextWiFi.str2.2
                0x00000000000209d0       0x14 /tmp/UiApp.dll.9PSgum.ltrans2.ltrans.o
 .rodata.DevPathToTextBluetooth.str2.2
                0x00000000000209e4       0x48 /tmp/UiApp.dll.9PSgum.ltrans2.ltrans.o
 .rodata.DevPathToTextVlan.str2.2
                0x0000000000020a2c       0x12 /tmp/UiApp.dll.9PSgum.ltrans2.ltrans.o
 .rodata.DevPathToTextiSCSI.str2.2
                0x0000000000020a3e       0x76 /tmp/UiApp.dll.9PSgum.ltrans2.ltrans.o
                                         0x90 (size before relaxing)
 .rodata.DevPathToTextUart.str2.2
                0x0000000000020ab4       0x5c /tmp/UiApp.dll.9PSgum.ltrans2.ltrans.o
                                         0x74 (size before relaxing)
 .rodata.DevPathToTextUart
                0x0000000000020b10        0x4 /tmp/UiApp.dll.9PSgum.ltrans2.ltrans.o
 .rodata.DevPathToTextInfiniBand.str2.2
                0x0000000000020b14       0x4c /tmp/UiApp.dll.9PSgum.ltrans2.ltrans.o
 .rodata.CatIPv6Address.str2.2
                0x0000000000020b60       0x90 /tmp/UiApp.dll.9PSgum.ltrans2.ltrans.o
 .rodata.CatIPv4Address.str2.2
                0x0000000000020bf0       0x18 /tmp/UiApp.dll.9PSgum.ltrans2.ltrans.o
 .rodata.DevPathToTextDns.str2.2
                0x0000000000020c08        0xa /tmp/UiApp.dll.9PSgum.ltrans2.ltrans.o
 .rodata.CatNetworkProtocol.str2.2
                0x0000000000020c12        0x8 /tmp/UiApp.dll.9PSgum.ltrans2.ltrans.o
                                         0x12 (size before relaxing)
 .rodata.DevPathToTextIPv6.str2.2
                0x0000000000020c1a       0x80 /tmp/UiApp.dll.9PSgum.ltrans2.ltrans.o
                                         0x8e (size before relaxing)
 .rodata.DevPathToTextIPv4.str2.2
                0x0000000000020c9a       0x24 /tmp/UiApp.dll.9PSgum.ltrans2.ltrans.o
 .rodata.DevPathToTextMacAddr.str2.2
                0x0000000000020cbe        0xa /tmp/UiApp.dll.9PSgum.ltrans2.ltrans.o
 .rodata.DevPathToTextI2O.str2.2
                0x0000000000020cc8       0x14 /tmp/UiApp.dll.9PSgum.ltrans2.ltrans.o
 .rodata.DevPathToTextSata.str2.2
                0x0000000000020cdc       0x2a /tmp/UiApp.dll.9PSgum.ltrans2.ltrans.o
 .rodata.DevPathToTextUsbClass.str2.2
                0x0000000000020d06      0x250 /tmp/UiApp.dll.9PSgum.ltrans2.ltrans.o
 *fill*         0x0000000000020f56        0x2 
 .rodata.DevPathToTextUsbClass
                0x0000000000020f58        0xe /tmp/UiApp.dll.9PSgum.ltrans2.ltrans.o
 .rodata.DevPathToTextLogicalUnit.str2.2
                0x0000000000020f66       0x16 /tmp/UiApp.dll.9PSgum.ltrans2.ltrans.o
 .rodata.DevPathToTextUsb.str2.2
                0x0000000000020f7c       0x1e /tmp/UiApp.dll.9PSgum.ltrans2.ltrans.o
 .rodata.DevPathToText1394.str2.2
                0x0000000000020f9a       0x1c /tmp/UiApp.dll.9PSgum.ltrans2.ltrans.o
 .rodata.DevPathToTextEmmc.str2.2
                0x0000000000020fb6       0x16 /tmp/UiApp.dll.9PSgum.ltrans2.ltrans.o
 .rodata.DevPathToTextSd.str2.2
                0x0000000000020fcc       0x12 /tmp/UiApp.dll.9PSgum.ltrans2.ltrans.o
 .rodata.DevPathToTextUfs.str2.2
                0x0000000000020fde       0x1e /tmp/UiApp.dll.9PSgum.ltrans2.ltrans.o
 .rodata.DevPathToTextNVMe.str2.2
                0x0000000000020ffc       0x66 /tmp/UiApp.dll.9PSgum.ltrans2.ltrans.o
 .rodata.DevPathToTextSasEx.str2.2
                0x0000000000021062       0xb4 /tmp/UiApp.dll.9PSgum.ltrans2.ltrans.o
                                         0xc0 (size before relaxing)
 .rodata.DevPathToTextFibreEx.str2.2
                0x0000000000021116       0x16 /tmp/UiApp.dll.9PSgum.ltrans2.ltrans.o
 .rodata.DevPathToTextFibre.str2.2
                0x000000000002112c       0x26 /tmp/UiApp.dll.9PSgum.ltrans2.ltrans.o
 .rodata.DevPathToTextScsi.str2.2
                0x0000000000021152       0x20 /tmp/UiApp.dll.9PSgum.ltrans2.ltrans.o
 .rodata.DevPathToTextAtapi.str2.2
                0x0000000000021172       0x72 /tmp/UiApp.dll.9PSgum.ltrans2.ltrans.o
 .rodata.DevPathToTextAcpiAdr.str2.2
                0x00000000000211e4       0x26 /tmp/UiApp.dll.9PSgum.ltrans2.ltrans.o
 .rodata.DevPathToTextAcpiEx.str2.2
                0x000000000002120a      0x12c /tmp/UiApp.dll.9PSgum.ltrans2.ltrans.o
                                        0x148 (size before relaxing)
 .rodata.DevPathToTextAcpi.str2.2
                0x0000000000021336       0xc2 /tmp/UiApp.dll.9PSgum.ltrans2.ltrans.o
 .rodata.DevPathToTextBmc.str2.2
                0x00000000000213f8       0x20 /tmp/UiApp.dll.9PSgum.ltrans2.ltrans.o
 .rodata.DevPathToTextController.str2.2
                0x0000000000021418       0x16 /tmp/UiApp.dll.9PSgum.ltrans2.ltrans.o
 .rodata.DevPathToTextMemMap.str2.2
                0x000000000002142e       0x3e /tmp/UiApp.dll.9PSgum.ltrans2.ltrans.o
 .rodata.DevPathToTextPccard.str2.2
                0x000000000002146c       0x1a /tmp/UiApp.dll.9PSgum.ltrans2.ltrans.o
 .rodata.DevPathToTextPci.str2.2
                0x0000000000021486       0x1e /tmp/UiApp.dll.9PSgum.ltrans2.ltrans.o
 .rodata.AllocateCopyPool.str1.1
                0x00000000000214a4       0x3f /tmp/UiApp.dll.9PSgum.ltrans2.ltrans.o
 .rodata.DevPathToTextUsbWWID.str1.1
                0x00000000000214e3       0x17 /tmp/UiApp.dll.9PSgum.ltrans2.ltrans.o
 .rodata.DevPathToTextUsbWWID.str2.2
                0x00000000000214fa       0x3a /tmp/UiApp.dll.9PSgum.ltrans2.ltrans.o
 .rodata.GetNextLanguage.str1.1
                0x0000000000021534       0x8b /tmp/UiApp.dll.9PSgum.ltrans2.ltrans.o
 .rodata.FrontPageCallback.str2.2
                0x00000000000215bf       0x1a /tmp/UiApp.dll.9PSgum.ltrans2.ltrans.o
 .rodata.FrontPageCallback.str1.1
                0x00000000000215bf       0x12 /tmp/UiApp.dll.9PSgum.ltrans2.ltrans.o
 .rodata.CompareGuid.str1.1
                0x00000000000215bf       0x7e /tmp/UiApp.dll.9PSgum.ltrans2.ltrans.o
 .rodata.GetHobList.str1.1
                0x000000000002163d       0x19 /tmp/UiApp.dll.9PSgum.ltrans2.ltrans.o
                                         0x59 (size before relaxing)
 .rodata.DevPathToTextRamDisk.str2.2
                0x0000000000021656       0xca /tmp/UiApp.dll.9PSgum.ltrans2.ltrans.o
                                        0x136 (size before relaxing)
 .rodata.DevPathToTextVendor.str2.2
                0x0000000000021720      0x154 /tmp/UiApp.dll.9PSgum.ltrans2.ltrans.o
                                        0x166 (size before relaxing)
 .rodata.CopyGuid.str1.1
                0x0000000000021874       0x3b /tmp/UiApp.dll.9PSgum.ltrans2.ltrans.o
 .rodata.UiSetConsoleMode.str1.1
                0x00000000000218af       0x49 /tmp/UiApp.dll.9PSgum.ltrans2.ltrans.o
 .rodata.__stack_chk_fail.str1.1
                0x00000000000218f8       0x2e /tmp/UiApp.dll.9PSgum.ltrans2.ltrans.o
 .rodata.ProcessLibraryConstructorList.str1.1
                0x0000000000021926      0x41e /tmp/UiApp.dll.9PSgum.ltrans2.ltrans.o
                                        0x72f (size before relaxing)
 .rodata.ProcessLibraryConstructorList.str2.2
                0x0000000000021d44       0x28 /tmp/UiApp.dll.9PSgum.ltrans2.ltrans.o
 .rodata._ModuleEntryPoint.str1.1
                0x0000000000021d44       0xf0 /tmp/UiApp.dll.9PSgum.ltrans2.ltrans.o
                                        0x201 (size before relaxing)
 .rodata._ModuleEntryPoint.str2.2
                0x0000000000021e34       0x3e /tmp/UiApp.dll.9PSgum.ltrans2.ltrans.o
                                         0xc8 (size before relaxing)
 .rodata.str2.2
                0x0000000000021e72       0x56 /tmp/UiApp.dll.9PSgum.ltrans2.ltrans.o
                                         0x96 (size before relaxing)
 .rodata.CSWTCH.42
                0x0000000000021ec8        0x6 /tmp/UiApp.dll.9PSgum.ltrans2.ltrans.o
 *fill*         0x0000000000021ece        0x2 
 .rodata.CSWTCH.58
                0x0000000000021ed0       0x30 /tmp/UiApp.dll.9PSgum.ltrans2.ltrans.o
 .rodata.__FUNCTION__.1941
                0x0000000000021f00        0x8 /tmp/UiApp.dll.9PSgum.ltrans2.ltrans.o
 .rodata.__FUNCTION__.1952
                0x0000000000021f08        0x9 /tmp/UiApp.dll.9PSgum.ltrans2.ltrans.o
 .rodata.__FUNCTION__.1964
                0x0000000000021f11        0x8 /tmp/UiApp.dll.9PSgum.ltrans2.ltrans.o
 .rodata.__FUNCTION__.2243
                0x0000000000021f19       0x16 /tmp/UiApp.dll.9PSgum.ltrans2.ltrans.o
 *fill*         0x0000000000021f2f        0x1 
 .rodata._gPcd_FixedAtBuild_PcdFirmwareVersionString
                0x0000000000021f30       0x2e /tmp/UiApp.dll.9PSgum.ltrans2.ltrans.o
 .rodata._gPcd_FixedAtBuild_PcdUefiVariableDefaultPlatformLangCodes
                0x0000000000021f5e        0x6 /tmp/UiApp.dll.9PSgum.ltrans2.ltrans.o
 .rodata.mEndOfPakageList
                0x0000000000021f64        0x4 /tmp/UiApp.dll.9PSgum.ltrans2.ltrans.o
 .rodata.mHexStr
                0x0000000000021f68       0x10 /tmp/UiApp.dll.9PSgum.ltrans2.ltrans.o
 .rodata.mHiiDefaultTypeToWidth
                0x0000000000021f78        0x8 /tmp/UiApp.dll.9PSgum.ltrans2.ltrans.o
 .rodata.mUefiDevicePathLibEndDevicePath
                0x0000000000021f80        0x4 /tmp/UiApp.dll.9PSgum.ltrans2.ltrans.o
 *fill*         0x0000000000021f84        0x4 
 .rodata.mUefiDevicePathLibToTextTableGeneric
                0x0000000000021f88       0x60 /tmp/UiApp.dll.9PSgum.ltrans2.ltrans.o
 *(.got .got.*)
 .got           0x0000000000021fe8        0x8 /home/alastair/pftf-rpi4/edk2/ArmPkg/Library/GccLto/liblto-aarch64.a
                0x0000000000021fe8                _GLOBAL_OFFSET_TABLE_
 .got.plt       0x0000000000021ff0       0x18 /home/alastair/pftf-rpi4/edk2/ArmPkg/Library/GccLto/liblto-aarch64.a
 *:AutoGen.obj(.data.g*Guid)

.plt            0x0000000000022008        0x0
 .plt           0x0000000000022008        0x0 /home/alastair/pftf-rpi4/edk2/ArmPkg/Library/GccLto/liblto-aarch64.a

.data           0x0000000000023000     0x6ee4
 *(.data .data.* .gnu.linkonce.d.*)
 .data.rel.ro   0x0000000000023000        0x0 /home/alastair/pftf-rpi4/edk2/ArmPkg/Library/GccLto/liblto-aarch64.a
 .data.BootOptionMenu
                0x0000000000023000       0x20 /tmp/UiApp.dll.9PSgum.ltrans0.ltrans.o
                0x0000000000023000                BootOptionMenu
 .data.ConsoleErrMenu
                0x0000000000023020       0x20 /tmp/UiApp.dll.9PSgum.ltrans0.ltrans.o
                0x0000000000023020                ConsoleErrMenu
 .data.ConsoleInpMenu
                0x0000000000023040       0x20 /tmp/UiApp.dll.9PSgum.ltrans0.ltrans.o
                0x0000000000023040                ConsoleInpMenu
 .data.ConsoleOutMenu
                0x0000000000023060       0x20 /tmp/UiApp.dll.9PSgum.ltrans0.ltrans.o
                0x0000000000023060                ConsoleOutMenu
 .data.DriverMenu
                0x0000000000023080       0x20 /tmp/UiApp.dll.9PSgum.ltrans0.ltrans.o
                0x0000000000023080                DriverMenu
 .data.DriverOptionMenu
                0x00000000000230a0       0x20 /tmp/UiApp.dll.9PSgum.ltrans0.ltrans.o
                0x00000000000230a0                DriverOptionMenu
 .data.FileExplorerGuid
                0x00000000000230c0       0x10 /tmp/UiApp.dll.9PSgum.ltrans0.ltrans.o
                0x00000000000230c0                FileExplorerGuid
 .data.TerminalMenu
                0x00000000000230d0       0x20 /tmp/UiApp.dll.9PSgum.ltrans0.ltrans.o
                0x00000000000230d0                TerminalMenu
 .data.TerminalTypeGuid
                0x00000000000230f0       0x90 /tmp/UiApp.dll.9PSgum.ltrans0.ltrans.o
                0x00000000000230f0                TerminalTypeGuid
 .data.gBootMaintenancePrivate
                0x0000000000023180     0x1c60 /tmp/UiApp.dll.9PSgum.ltrans0.ltrans.o
                0x0000000000023180                gBootMaintenancePrivate
 .data.gBootManagerPrivate
                0x0000000000024de0       0x30 /tmp/UiApp.dll.9PSgum.ltrans0.ltrans.o
                0x0000000000024de0                gBootManagerPrivate
 .data.gDeviceManagerPrivate
                0x0000000000024e10       0x38 /tmp/UiApp.dll.9PSgum.ltrans0.ltrans.o
                0x0000000000024e10                gDeviceManagerPrivate
 .data.gEdkiiFormBrowserEx2ProtocolGuid
                0x0000000000024e48       0x10 /tmp/UiApp.dll.9PSgum.ltrans0.ltrans.o
 .data.gEdkiiPerformanceMeasurementProtocolGuid
                0x0000000000024e58       0x10 /tmp/UiApp.dll.9PSgum.ltrans0.ltrans.o
 .data.gEfiCallerIdGuid
                0x0000000000024e68       0x10 /tmp/UiApp.dll.9PSgum.ltrans0.ltrans.o
                0x0000000000024e68                gEfiCallerIdGuid
 .data.gEfiDevicePathProtocolGuid
                0x0000000000024e78       0x10 /tmp/UiApp.dll.9PSgum.ltrans0.ltrans.o
                0x0000000000024e78                gEfiDevicePathProtocolGuid
 .data.gEfiDevicePathToTextProtocolGuid
                0x0000000000024e88       0x10 /tmp/UiApp.dll.9PSgum.ltrans0.ltrans.o
 .data.gEfiFileSystemVolumeLabelInfoIdGuid
                0x0000000000024e98       0x10 /tmp/UiApp.dll.9PSgum.ltrans0.ltrans.o
 .data.gEfiFormBrowser2ProtocolGuid
                0x0000000000024ea8       0x10 /tmp/UiApp.dll.9PSgum.ltrans0.ltrans.o
                0x0000000000024ea8                gEfiFormBrowser2ProtocolGuid
 .data.gEfiGlobalVariableGuid
                0x0000000000024eb8       0x10 /tmp/UiApp.dll.9PSgum.ltrans0.ltrans.o
                0x0000000000024eb8                gEfiGlobalVariableGuid
 .data.gEfiGraphicsOutputProtocolGuid
                0x0000000000024ec8       0x10 /tmp/UiApp.dll.9PSgum.ltrans0.ltrans.o
                0x0000000000024ec8                gEfiGraphicsOutputProtocolGuid
 .data.gEfiHiiConfigRoutingProtocolGuid
                0x0000000000024ed8       0x10 /tmp/UiApp.dll.9PSgum.ltrans0.ltrans.o
                0x0000000000024ed8                gEfiHiiConfigRoutingProtocolGuid
 .data.gEfiHiiPlatformSetupFormsetGuid
                0x0000000000024ee8       0x10 /tmp/UiApp.dll.9PSgum.ltrans0.ltrans.o
 .data.gEfiIfrBootMaintenanceGuid
                0x0000000000024ef8       0x10 /tmp/UiApp.dll.9PSgum.ltrans0.ltrans.o
 .data.gEfiIfrTianoGuid
                0x0000000000024f08       0x10 /tmp/UiApp.dll.9PSgum.ltrans0.ltrans.o
                0x0000000000024f08                gEfiIfrTianoGuid
 .data.gEfiPciIoProtocolGuid
                0x0000000000024f18       0x10 /tmp/UiApp.dll.9PSgum.ltrans0.ltrans.o
                0x0000000000024f18                gEfiPciIoProtocolGuid
 .data.gEfiSimpleFileSystemProtocolGuid
                0x0000000000024f28       0x10 /tmp/UiApp.dll.9PSgum.ltrans0.ltrans.o
                0x0000000000024f28                gEfiSimpleFileSystemProtocolGuid
 .data.gEfiSimpleTextOutProtocolGuid
                0x0000000000024f38       0x10 /tmp/UiApp.dll.9PSgum.ltrans0.ltrans.o
                0x0000000000024f38                gEfiSimpleTextOutProtocolGuid
 .data.gFileExplorerPrivate
                0x0000000000024f48       0x58 /tmp/UiApp.dll.9PSgum.ltrans0.ltrans.o
                0x0000000000024f48                gFileExplorerPrivate
 .data.mArasan  0x0000000000024fa0       0x18 /tmp/UiApp.dll.9PSgum.ltrans0.ltrans.o
 .data.mBmHotkeyLock
                0x0000000000024fb8       0x18 /tmp/UiApp.dll.9PSgum.ltrans0.ltrans.o
                0x0000000000024fb8                mBmHotkeyLock
 .data.mBootMaintGuid
                0x0000000000024fd0       0x10 /tmp/UiApp.dll.9PSgum.ltrans0.ltrans.o
                0x0000000000024fd0                mBootMaintGuid
 .data.mBootMaintStorageName
                0x0000000000024fe0       0x10 /tmp/UiApp.dll.9PSgum.ltrans0.ltrans.o
 .data.mBootManagerGuid
                0x0000000000024ff0       0x10 /tmp/UiApp.dll.9PSgum.ltrans0.ltrans.o
                0x0000000000024ff0                mBootManagerGuid
 .data.mDeviceManagerGuid
                0x0000000000025000       0x10 /tmp/UiApp.dll.9PSgum.ltrans0.ltrans.o
                0x0000000000025000                mDeviceManagerGuid
 .data.mFsOptionMenu
                0x0000000000025010       0x28 /tmp/UiApp.dll.9PSgum.ltrans0.ltrans.o
 .data.mSDHost  0x0000000000025038       0x18 /tmp/UiApp.dll.9PSgum.ltrans0.ltrans.o
 .data.gEdkiiPlatformBootManagerProtocolGuid
                0x0000000000025050       0x10 /tmp/UiApp.dll.9PSgum.ltrans1.ltrans.o
 .data.gEdkiiVariableLockProtocolGuid
                0x0000000000025060       0x10 /tmp/UiApp.dll.9PSgum.ltrans1.ltrans.o
 .data.gEfiBlockIoProtocolGuid
                0x0000000000025070       0x10 /tmp/UiApp.dll.9PSgum.ltrans1.ltrans.o
 .data.gEfiBootLogoProtocolGuid
                0x0000000000025080       0x10 /tmp/UiApp.dll.9PSgum.ltrans1.ltrans.o
                0x0000000000025080                gEfiBootLogoProtocolGuid
 .data.gEfiComponentName2ProtocolGuid
                0x0000000000025090       0x10 /tmp/UiApp.dll.9PSgum.ltrans1.ltrans.o
 .data.gEfiComponentNameProtocolGuid
                0x00000000000250a0       0x10 /tmp/UiApp.dll.9PSgum.ltrans1.ltrans.o
 .data.gEfiDiskInfoAhciInterfaceGuid
                0x00000000000250b0       0x10 /tmp/UiApp.dll.9PSgum.ltrans1.ltrans.o
 .data.gEfiDiskInfoIdeInterfaceGuid
                0x00000000000250c0       0x10 /tmp/UiApp.dll.9PSgum.ltrans1.ltrans.o
 .data.gEfiDiskInfoProtocolGuid
                0x00000000000250d0       0x10 /tmp/UiApp.dll.9PSgum.ltrans1.ltrans.o
 .data.gEfiDiskInfoScsiInterfaceGuid
                0x00000000000250e0       0x10 /tmp/UiApp.dll.9PSgum.ltrans1.ltrans.o
 .data.gEfiDiskInfoSdMmcInterfaceGuid
                0x00000000000250f0       0x10 /tmp/UiApp.dll.9PSgum.ltrans1.ltrans.o
 .data.gEfiDriverHealthProtocolGuid
                0x0000000000025100       0x10 /tmp/UiApp.dll.9PSgum.ltrans1.ltrans.o
 .data.gEfiEventReadyToBootGuid
                0x0000000000025110       0x10 /tmp/UiApp.dll.9PSgum.ltrans1.ltrans.o
 .data.gEfiFileInfoGuid
                0x0000000000025120       0x10 /tmp/UiApp.dll.9PSgum.ltrans1.ltrans.o
 .data.gEfiFirmwareVolume2ProtocolGuid
                0x0000000000025130       0x10 /tmp/UiApp.dll.9PSgum.ltrans1.ltrans.o
 .data.gEfiLoadFileProtocolGuid
                0x0000000000025140       0x10 /tmp/UiApp.dll.9PSgum.ltrans1.ltrans.o
                0x0000000000025140                gEfiLoadFileProtocolGuid
 .data.gEfiLoadedImageProtocolGuid
                0x0000000000025150       0x10 /tmp/UiApp.dll.9PSgum.ltrans1.ltrans.o
 .data.gEfiMemoryTypeInformationGuid
                0x0000000000025160       0x10 /tmp/UiApp.dll.9PSgum.ltrans1.ltrans.o
 .data.gEfiNvmExpressPassThruProtocolGuid
                0x0000000000025170       0x10 /tmp/UiApp.dll.9PSgum.ltrans1.ltrans.o
 .data.gEfiRamDiskProtocolGuid
                0x0000000000025180       0x10 /tmp/UiApp.dll.9PSgum.ltrans1.ltrans.o
 .data.gEfiSimpleTextInProtocolGuid
                0x0000000000025190       0x10 /tmp/UiApp.dll.9PSgum.ltrans1.ltrans.o
 .data.gEfiSimpleTextInputExProtocolGuid
                0x00000000000251a0       0x10 /tmp/UiApp.dll.9PSgum.ltrans1.ltrans.o
 .data.gEfiUsbIoProtocolGuid
                0x00000000000251b0       0x10 /tmp/UiApp.dll.9PSgum.ltrans1.ltrans.o
 .data.mBmAutoCreateBootOptionGuid
                0x00000000000251c0       0x10 /tmp/UiApp.dll.9PSgum.ltrans1.ltrans.o
 .data.mBmHardDriveBootVariableGuid
                0x00000000000251d0       0x10 /tmp/UiApp.dll.9PSgum.ltrans1.ltrans.o
 .data.mBmHotkeyBootOption
                0x00000000000251e0       0x58 /tmp/UiApp.dll.9PSgum.ltrans1.ltrans.o
 .data.mBmHotkeyList
                0x0000000000025238       0x10 /tmp/UiApp.dll.9PSgum.ltrans1.ltrans.o
 .data.mBmUefiPrefix
                0x0000000000025248        0xc /tmp/UiApp.dll.9PSgum.ltrans1.ltrans.o
 *fill*         0x0000000000025254        0x4 
 .data.mNewFileQuestionId
                0x0000000000025258        0x8 /tmp/UiApp.dll.9PSgum.ltrans1.ltrans.o
 .data.mNewFolderQuestionId
                0x0000000000025260        0x8 /tmp/UiApp.dll.9PSgum.ltrans1.ltrans.o
 .data.mPlatformBootDescriptionHandlers
                0x0000000000025268       0x10 /tmp/UiApp.dll.9PSgum.ltrans1.ltrans.o
                0x0000000000025268                mPlatformBootDescriptionHandlers
 .data.BootMaintenanceManagerBin
                0x0000000000025278      0x594 /tmp/UiApp.dll.9PSgum.ltrans2.ltrans.o
 .data.BootMaintenanceManagerUiLibStrings
                0x000000000002580c     0x1bbe /tmp/UiApp.dll.9PSgum.ltrans2.ltrans.o
 .data.BootManagerUiLibStrings
                0x00000000000273ca      0x434 /tmp/UiApp.dll.9PSgum.ltrans2.ltrans.o
 .data.BootManagerVfrBin
                0x00000000000277fe       0xb3 /tmp/UiApp.dll.9PSgum.ltrans2.ltrans.o
 .data.DeviceManagerUiLibStrings
                0x00000000000278b1      0x4b8 /tmp/UiApp.dll.9PSgum.ltrans2.ltrans.o
 .data.DeviceManagerVfrBin
                0x0000000000027d69      0x12d /tmp/UiApp.dll.9PSgum.ltrans2.ltrans.o
 .data.FeHiiVendorDevicePath
                0x0000000000027e96       0x18 /tmp/UiApp.dll.9PSgum.ltrans2.ltrans.o
 .data.FileExplorerLibStrings
                0x0000000000027eae      0x81a /tmp/UiApp.dll.9PSgum.ltrans2.ltrans.o
 .data.FileExplorerVfrBin
                0x00000000000286c8       0xf9 /tmp/UiApp.dll.9PSgum.ltrans2.ltrans.o
 .data.FrontPageVfrBin
                0x00000000000287c1      0x147 /tmp/UiApp.dll.9PSgum.ltrans2.ltrans.o
 .data.UiAppStrings
                0x0000000000028908      0x426 /tmp/UiApp.dll.9PSgum.ltrans2.ltrans.o
 *fill*         0x0000000000028d2e        0x2 
 .data.__stack_chk_guard
                0x0000000000028d30        0x8 /tmp/UiApp.dll.9PSgum.ltrans2.ltrans.o
                0x0000000000028d30                __stack_chk_guard
 .data.gEfiDebugPortProtocolGuid
                0x0000000000028d38       0x10 /tmp/UiApp.dll.9PSgum.ltrans2.ltrans.o
 .data.gEfiDxeServicesTableGuid
                0x0000000000028d48       0x10 /tmp/UiApp.dll.9PSgum.ltrans2.ltrans.o
 .data.gEfiHiiConfigAccessProtocolGuid
                0x0000000000028d58       0x10 /tmp/UiApp.dll.9PSgum.ltrans2.ltrans.o
 .data.gEfiHiiDatabaseProtocolGuid
                0x0000000000028d68       0x10 /tmp/UiApp.dll.9PSgum.ltrans2.ltrans.o
 .data.gEfiHiiFontProtocolGuid
                0x0000000000028d78       0x10 /tmp/UiApp.dll.9PSgum.ltrans2.ltrans.o
 .data.gEfiHiiImageProtocolGuid
                0x0000000000028d88       0x10 /tmp/UiApp.dll.9PSgum.ltrans2.ltrans.o
 .data.gEfiHiiStringProtocolGuid
                0x0000000000028d98       0x10 /tmp/UiApp.dll.9PSgum.ltrans2.ltrans.o
 .data.gEfiHobListGuid
                0x0000000000028da8       0x10 /tmp/UiApp.dll.9PSgum.ltrans2.ltrans.o
 .data.gEfiIfrFrontPageGuid
                0x0000000000028db8       0x10 /tmp/UiApp.dll.9PSgum.ltrans2.ltrans.o
 .data.gEfiPcAnsiGuid
                0x0000000000028dc8       0x10 /tmp/UiApp.dll.9PSgum.ltrans2.ltrans.o
 .data.gEfiPersistentVirtualCdGuid
                0x0000000000028dd8       0x10 /tmp/UiApp.dll.9PSgum.ltrans2.ltrans.o
 .data.gEfiPersistentVirtualDiskGuid
                0x0000000000028de8       0x10 /tmp/UiApp.dll.9PSgum.ltrans2.ltrans.o
 .data.gEfiSasDevicePathGuid
                0x0000000000028df8       0x10 /tmp/UiApp.dll.9PSgum.ltrans2.ltrans.o
 .data.gEfiSerialIoProtocolGuid
                0x0000000000028e08       0x10 /tmp/UiApp.dll.9PSgum.ltrans2.ltrans.o
 .data.gEfiSmbiosProtocolGuid
                0x0000000000028e18       0x10 /tmp/UiApp.dll.9PSgum.ltrans2.ltrans.o
 .data.gEfiUartDevicePathGuid
                0x0000000000028e28       0x10 /tmp/UiApp.dll.9PSgum.ltrans2.ltrans.o
 .data.gEfiVT100Guid
                0x0000000000028e38       0x10 /tmp/UiApp.dll.9PSgum.ltrans2.ltrans.o
 .data.gEfiVT100PlusGuid
                0x0000000000028e48       0x10 /tmp/UiApp.dll.9PSgum.ltrans2.ltrans.o
 .data.gEfiVTUTF8Guid
                0x0000000000028e58       0x10 /tmp/UiApp.dll.9PSgum.ltrans2.ltrans.o
 .data.gEfiVirtualCdGuid
                0x0000000000028e68       0x10 /tmp/UiApp.dll.9PSgum.ltrans2.ltrans.o
 .data.gEfiVirtualDiskGuid
                0x0000000000028e78       0x10 /tmp/UiApp.dll.9PSgum.ltrans2.ltrans.o
 .data.gFrontPagePrivate
                0x0000000000028e88       0x38 /tmp/UiApp.dll.9PSgum.ltrans2.ltrans.o
 .data.gPcdProtocolGuid
                0x0000000000028ec0       0x10 /tmp/UiApp.dll.9PSgum.ltrans2.ltrans.o
 .data.mBmmHiiVendorDevicePath
                0x0000000000028ed0       0x18 /tmp/UiApp.dll.9PSgum.ltrans2.ltrans.o
 .data.mBootManagerHiiVendorDevicePath
                0x0000000000028ee8       0x18 /tmp/UiApp.dll.9PSgum.ltrans2.ltrans.o
 .data.mDeviceManagerHiiVendorDevicePath
                0x0000000000028f00       0x18 /tmp/UiApp.dll.9PSgum.ltrans2.ltrans.o
 .data.mFontBin
                0x0000000000028f18      0xda0 /tmp/UiApp.dll.9PSgum.ltrans2.ltrans.o
 .data.mFontPackageGuid
                0x0000000000029cb8       0x10 /tmp/UiApp.dll.9PSgum.ltrans2.ltrans.o
 .data.mFrontPageGuid
                0x0000000000029cc8       0x10 /tmp/UiApp.dll.9PSgum.ltrans2.ltrans.o
 .data.mFrontPageHiiVendorDevicePath
                0x0000000000029cd8       0x18 /tmp/UiApp.dll.9PSgum.ltrans2.ltrans.o
 .data.mUiStringPackGuid
                0x0000000000029cf0       0x10 /tmp/UiApp.dll.9PSgum.ltrans2.ltrans.o
 *(.bss .bss.*)
 .bss.UsePl011Uart
                0x0000000000029d00        0x1 /tmp/UiApp.dll.9PSgum.ltrans0.ltrans.o
 .bss.UsePl011UartSet
                0x0000000000029d01        0x1 /tmp/UiApp.dll.9PSgum.ltrans0.ltrans.o
 *fill*         0x0000000000029d02        0x6 
 .bss.gBS       0x0000000000029d08        0x8 /tmp/UiApp.dll.9PSgum.ltrans0.ltrans.o
                0x0000000000029d08                gBS
 .bss.gHiiConfigRouting
                0x0000000000029d10        0x8 /tmp/UiApp.dll.9PSgum.ltrans0.ltrans.o
                0x0000000000029d10                gHiiConfigRouting
 .bss.gHiiDatabase
                0x0000000000029d18        0x8 /tmp/UiApp.dll.9PSgum.ltrans0.ltrans.o
                0x0000000000029d18                gHiiDatabase
 .bss.gHiiDriverList
                0x0000000000029d20        0x8 /tmp/UiApp.dll.9PSgum.ltrans0.ltrans.o
 .bss.gHiiString
                0x0000000000029d28        0x8 /tmp/UiApp.dll.9PSgum.ltrans0.ltrans.o
                0x0000000000029d28                gHiiString
 .bss.gRT       0x0000000000029d30        0x8 /tmp/UiApp.dll.9PSgum.ltrans0.ltrans.o
                0x0000000000029d30                gRT
 .bss.gST       0x0000000000029d38        0x8 /tmp/UiApp.dll.9PSgum.ltrans0.ltrans.o
                0x0000000000029d38                gST
 .bss.mBmBootHorizontalResolution
                0x0000000000029d40        0x4 /tmp/UiApp.dll.9PSgum.ltrans0.ltrans.o
                0x0000000000029d40                mBmBootHorizontalResolution
 .bss.mBmBootTextModeColumn
                0x0000000000029d44        0x4 /tmp/UiApp.dll.9PSgum.ltrans0.ltrans.o
                0x0000000000029d44                mBmBootTextModeColumn
 .bss.mBmBootTextModeRow
                0x0000000000029d48        0x4 /tmp/UiApp.dll.9PSgum.ltrans0.ltrans.o
                0x0000000000029d48                mBmBootTextModeRow
 .bss.mBmBootVerticalResolution
                0x0000000000029d4c        0x4 /tmp/UiApp.dll.9PSgum.ltrans0.ltrans.o
                0x0000000000029d4c                mBmBootVerticalResolution
 .bss.mBmSetupHorizontalResolution
                0x0000000000029d50        0x4 /tmp/UiApp.dll.9PSgum.ltrans0.ltrans.o
                0x0000000000029d50                mBmSetupHorizontalResolution
 .bss.mBmSetupTextModeColumn
                0x0000000000029d54        0x4 /tmp/UiApp.dll.9PSgum.ltrans0.ltrans.o
                0x0000000000029d54                mBmSetupTextModeColumn
 .bss.mBmSetupTextModeRow
                0x0000000000029d58        0x4 /tmp/UiApp.dll.9PSgum.ltrans0.ltrans.o
                0x0000000000029d58                mBmSetupTextModeRow
 .bss.mBmSetupVerticalResolution
                0x0000000000029d5c        0x4 /tmp/UiApp.dll.9PSgum.ltrans0.ltrans.o
                0x0000000000029d5c                mBmSetupVerticalResolution
 .bss.mBmmBootHorizontalResolution
                0x0000000000029d60        0x4 /tmp/UiApp.dll.9PSgum.ltrans0.ltrans.o
                0x0000000000029d60                mBmmBootHorizontalResolution
 .bss.mBmmBootTextModeColumn
                0x0000000000029d64        0x4 /tmp/UiApp.dll.9PSgum.ltrans0.ltrans.o
                0x0000000000029d64                mBmmBootTextModeColumn
 .bss.mBmmBootTextModeRow
                0x0000000000029d68        0x4 /tmp/UiApp.dll.9PSgum.ltrans0.ltrans.o
                0x0000000000029d68                mBmmBootTextModeRow
 .bss.mBmmBootVerticalResolution
                0x0000000000029d6c        0x4 /tmp/UiApp.dll.9PSgum.ltrans0.ltrans.o
                0x0000000000029d6c                mBmmBootVerticalResolution
 .bss.mBmmSetupHorizontalResolution
                0x0000000000029d70        0x4 /tmp/UiApp.dll.9PSgum.ltrans0.ltrans.o
                0x0000000000029d70                mBmmSetupHorizontalResolution
 .bss.mBmmSetupTextModeColumn
                0x0000000000029d74        0x4 /tmp/UiApp.dll.9PSgum.ltrans0.ltrans.o
                0x0000000000029d74                mBmmSetupTextModeColumn
 .bss.mBmmSetupTextModeRow
                0x0000000000029d78        0x4 /tmp/UiApp.dll.9PSgum.ltrans0.ltrans.o
                0x0000000000029d78                mBmmSetupTextModeRow
 .bss.mBmmSetupVerticalResolution
                0x0000000000029d7c        0x4 /tmp/UiApp.dll.9PSgum.ltrans0.ltrans.o
                0x0000000000029d7c                mBmmSetupVerticalResolution
 .bss.mEndOpCodeHandle
                0x0000000000029d80        0x8 /tmp/UiApp.dll.9PSgum.ltrans0.ltrans.o
                0x0000000000029d80                mEndOpCodeHandle
 .bss.mFirstEnterBMMForm
                0x0000000000029d88        0x1 /tmp/UiApp.dll.9PSgum.ltrans0.ltrans.o
 *fill*         0x0000000000029d89        0x1 
 .bss.mKeyInput
                0x0000000000029d8a        0x2 /tmp/UiApp.dll.9PSgum.ltrans0.ltrans.o
 *fill*         0x0000000000029d8c        0x4 
 .bss.mMacDeviceList
                0x0000000000029d90       0x18 /tmp/UiApp.dll.9PSgum.ltrans0.ltrans.o
                0x0000000000029d90                mMacDeviceList
 .bss.mPerformanceMeasurement
                0x0000000000029da8        0x8 /tmp/UiApp.dll.9PSgum.ltrans0.ltrans.o
                0x0000000000029da8                mPerformanceMeasurement
 .bss.mQuestionIdUpdate
                0x0000000000029db0        0x2 /tmp/UiApp.dll.9PSgum.ltrans0.ltrans.o
                0x0000000000029db0                mQuestionIdUpdate
 *fill*         0x0000000000029db2        0x6 
 .bss.mSelectedMacAddrString
                0x0000000000029db8        0x8 /tmp/UiApp.dll.9PSgum.ltrans0.ltrans.o
                0x0000000000029db8                mSelectedMacAddrString
 .bss.mStartLabel
                0x0000000000029dc0        0x8 /tmp/UiApp.dll.9PSgum.ltrans0.ltrans.o
                0x0000000000029dc0                mStartLabel
 .bss.mStartOpCodeHandle
                0x0000000000029dc8        0x8 /tmp/UiApp.dll.9PSgum.ltrans0.ltrans.o
                0x0000000000029dc8                mStartOpCodeHandle
 .bss.mUefiFormBrowser2
                0x0000000000029dd0        0x8 /tmp/UiApp.dll.9PSgum.ltrans0.ltrans.o
 .bss.gDS       0x0000000000029dd8        0x8 /tmp/UiApp.dll.9PSgum.ltrans1.ltrans.o
                0x0000000000029dd8                gDS
 .bss.gImageHandle
                0x0000000000029de0        0x8 /tmp/UiApp.dll.9PSgum.ltrans1.ltrans.o
                0x0000000000029de0                gImageHandle
 .bss.mLibEndOpCodeHandle
                0x0000000000029de8        0x8 /tmp/UiApp.dll.9PSgum.ltrans1.ltrans.o
 .bss.mLibStartOpCodeHandle
                0x0000000000029df0        0x8 /tmp/UiApp.dll.9PSgum.ltrans1.ltrans.o
 .bss.mNewFileName
                0x0000000000029df8       0x28 /tmp/UiApp.dll.9PSgum.ltrans1.ltrans.o
 .bss.mNewFolderName
                0x0000000000029e20       0x28 /tmp/UiApp.dll.9PSgum.ltrans1.ltrans.o
 .bss.mRamDisk  0x0000000000029e48        0x8 /tmp/UiApp.dll.9PSgum.ltrans1.ltrans.o
 .bss.gCurrentLanguageIndex
                0x0000000000029e50        0x1 /tmp/UiApp.dll.9PSgum.ltrans2.ltrans.o
 *fill*         0x0000000000029e51        0x7 
 .bss.gFormBrowser2
                0x0000000000029e58        0x8 /tmp/UiApp.dll.9PSgum.ltrans2.ltrans.o
 .bss.gHiiDriverList
                0x0000000000029e60        0x8 /tmp/UiApp.dll.9PSgum.ltrans2.ltrans.o
 .bss.gHiiFont  0x0000000000029e68        0x8 /tmp/UiApp.dll.9PSgum.ltrans2.ltrans.o
 .bss.gHiiImage
                0x0000000000029e70        0x8 /tmp/UiApp.dll.9PSgum.ltrans2.ltrans.o
 .bss.gHiiVendorDevicePath
                0x0000000000029e78        0x8 /tmp/UiApp.dll.9PSgum.ltrans2.ltrans.o
 .bss.gLanguageString
                0x0000000000029e80        0x8 /tmp/UiApp.dll.9PSgum.ltrans2.ltrans.o
 .bss.gLanguageToken
                0x0000000000029e88        0x8 /tmp/UiApp.dll.9PSgum.ltrans2.ltrans.o
 .bss.gStringPackHandle
                0x0000000000029e90        0x8 /tmp/UiApp.dll.9PSgum.ltrans2.ltrans.o
 .bss.mAllMenuInit
                0x0000000000029e98        0x1 /tmp/UiApp.dll.9PSgum.ltrans2.ltrans.o
 .bss.mBmModeInitialized
                0x0000000000029e99        0x1 /tmp/UiApp.dll.9PSgum.ltrans2.ltrans.o
 .bss.mBmmModeInitialized
                0x0000000000029e9a        0x1 /tmp/UiApp.dll.9PSgum.ltrans2.ltrans.o
 *fill*         0x0000000000029e9b        0x1 
 .bss.mBootHorizontalResolution
                0x0000000000029e9c        0x4 /tmp/UiApp.dll.9PSgum.ltrans2.ltrans.o
 .bss.mBootTextModeColumn
                0x0000000000029ea0        0x4 /tmp/UiApp.dll.9PSgum.ltrans2.ltrans.o
 .bss.mBootTextModeRow
                0x0000000000029ea4        0x4 /tmp/UiApp.dll.9PSgum.ltrans2.ltrans.o
 .bss.mBootVerticalResolution
                0x0000000000029ea8        0x4 /tmp/UiApp.dll.9PSgum.ltrans2.ltrans.o
 *fill*         0x0000000000029eac        0x4 
 .bss.mHobList  0x0000000000029eb0        0x8 /tmp/UiApp.dll.9PSgum.ltrans2.ltrans.o
 .bss.mLanguageString
                0x0000000000029eb8        0x8 /tmp/UiApp.dll.9PSgum.ltrans2.ltrans.o
 .bss.mModeInitialized
                0x0000000000029ec0        0x1 /tmp/UiApp.dll.9PSgum.ltrans2.ltrans.o
 *fill*         0x0000000000029ec1        0x7 
 .bss.mPcd      0x0000000000029ec8        0x8 /tmp/UiApp.dll.9PSgum.ltrans2.ltrans.o
 .bss.mResetRequired
                0x0000000000029ed0        0x1 /tmp/UiApp.dll.9PSgum.ltrans2.ltrans.o
 *fill*         0x0000000000029ed1        0x3 
 .bss.mSetupHorizontalResolution
                0x0000000000029ed4        0x4 /tmp/UiApp.dll.9PSgum.ltrans2.ltrans.o
 .bss.mSetupTextModeColumn
                0x0000000000029ed8        0x4 /tmp/UiApp.dll.9PSgum.ltrans2.ltrans.o
 .bss.mSetupTextModeRow
                0x0000000000029edc        0x4 /tmp/UiApp.dll.9PSgum.ltrans2.ltrans.o
 .bss.mSetupVerticalResolution
                0x0000000000029ee0        0x4 /tmp/UiApp.dll.9PSgum.ltrans2.ltrans.o

.dynbss         0x0000000000029ee4        0x0
 .dynbss        0x0000000000029ee4        0x0 /home/alastair/pftf-rpi4/edk2/ArmPkg/Library/GccLto/liblto-aarch64.a

.eh_frame
 *(.eh_frame)

.rela           0x0000000000029ee8      0xa98
 *(.rela .rela.*)
 .rela.got      0x0000000000029ee8        0x0 /home/alastair/pftf-rpi4/edk2/ArmPkg/Library/GccLto/liblto-aarch64.a
 .rela.plt      0x0000000000029ee8        0x0 /home/alastair/pftf-rpi4/edk2/ArmPkg/Library/GccLto/liblto-aarch64.a
 .rela.bss      0x0000000000029ee8        0x0 /home/alastair/pftf-rpi4/edk2/ArmPkg/Library/GccLto/liblto-aarch64.a
 .rela.data.rel.ro
                0x0000000000029ee8        0x0 /home/alastair/pftf-rpi4/edk2/ArmPkg/Library/GccLto/liblto-aarch64.a
 .rela.ifunc    0x0000000000029ee8        0x0 /home/alastair/pftf-rpi4/edk2/ArmPkg/Library/GccLto/liblto-aarch64.a
 .rela.data.gBootMaintenancePrivate
                0x0000000000029ee8       0x48 /home/alastair/pftf-rpi4/edk2/ArmPkg/Library/GccLto/liblto-aarch64.a
 .rela.data.gBootManagerPrivate
                0x0000000000029f30       0x48 /home/alastair/pftf-rpi4/edk2/ArmPkg/Library/GccLto/liblto-aarch64.a
 .rela.data.gDeviceManagerPrivate
                0x0000000000029f78       0x48 /home/alastair/pftf-rpi4/edk2/ArmPkg/Library/GccLto/liblto-aarch64.a
 .rela.data.gFileExplorerPrivate
                0x0000000000029fc0       0x60 /home/alastair/pftf-rpi4/edk2/ArmPkg/Library/GccLto/liblto-aarch64.a
 .rela.rodata.mBmLoadOptionName
                0x000000000002a020       0x60 /home/alastair/pftf-rpi4/edk2/ArmPkg/Library/GccLto/liblto-aarch64.a
 .rela.rodata.mBmLoadOptionOrderName
                0x000000000002a080       0x48 /home/alastair/pftf-rpi4/edk2/ArmPkg/Library/GccLto/liblto-aarch64.a
 .rela.rodata.mDeviceTypeStr
                0x000000000002a0c8       0xc0 /home/alastair/pftf-rpi4/edk2/ArmPkg/Library/GccLto/liblto-aarch64.a
 .rela.rodata.mUefiDevicePathLibToTextTable
                0x000000000002a188      0x498 /home/alastair/pftf-rpi4/edk2/ArmPkg/Library/GccLto/liblto-aarch64.a
 .rela.data.mBmHotkeyList
                0x000000000002a620       0x30 /home/alastair/pftf-rpi4/edk2/ArmPkg/Library/GccLto/liblto-aarch64.a
 .rela.data.mPlatformBootDescriptionHandlers
                0x000000000002a650       0x30 /home/alastair/pftf-rpi4/edk2/ArmPkg/Library/GccLto/liblto-aarch64.a
 .rela.rodata.mBmBootDescriptionHandlers
                0x000000000002a680       0x90 /home/alastair/pftf-rpi4/edk2/ArmPkg/Library/GccLto/liblto-aarch64.a
 .rela.rodata.mBmHealthStatusText
                0x000000000002a710       0x90 /home/alastair/pftf-rpi4/edk2/ArmPkg/Library/GccLto/liblto-aarch64.a
 .rela.rodata.mConVarName
                0x000000000002a7a0       0x90 /home/alastair/pftf-rpi4/edk2/ArmPkg/Library/GccLto/liblto-aarch64.a
 .rela.data.gFrontPagePrivate
                0x000000000002a830       0x48 /home/alastair/pftf-rpi4/edk2/ArmPkg/Library/GccLto/liblto-aarch64.a
 .rela.rodata.CSWTCH.58
                0x000000000002a878       0x90 /home/alastair/pftf-rpi4/edk2/ArmPkg/Library/GccLto/liblto-aarch64.a
 .rela.rodata.mUefiDevicePathLibToTextTableGeneric
                0x000000000002a908       0x78 /home/alastair/pftf-rpi4/edk2/ArmPkg/Library/GccLto/liblto-aarch64.a

.hii
 *(.hii)

.build-id       0x000000000002a980       0x24
 *(.note.gnu.build-id)
 .note.gnu.build-id
                0x000000000002a980       0x24 /home/alastair/pftf-rpi4/edk2/ArmPkg/Library/GccLto/liblto-aarch64.a

/DISCARD/
 *(.note.GNU-stack)
 *(.gnu_debuglink)
 *(.interp)
 *(.dynsym)
 *(.dynstr)
 *(.dynamic)
 *(.hash .gnu.hash)
 *(.comment)
 *(COMMON)
                0x0000000000000228                PECOFF_HEADER_SIZE = 0x228
OUTPUT(/home/alastair/pftf-rpi4/Build/RPi4/DEBUG_GCC5/AARCH64/MdeModulePkg/Application/UiApp/UiApp/DEBUG/UiApp.dll elf64-littleaarch64)
LOAD linker stubs

.debug_info     0x0000000000000000    0xb49df
 .debug_info    0x0000000000000000     0xeb3e /tmp/UiApp.dll.9PSgum.ltrans0.ltrans.o
 .debug_info    0x000000000000eb3e     0xc1bf /tmp/UiApp.dll.9PSgum.ltrans1.ltrans.o
 .debug_info    0x000000000001acfd     0xcf98 /tmp/UiApp.dll.9PSgum.ltrans2.ltrans.o
 .debug_info    0x0000000000027c95     0x1929 /tmp/ccBUZWTl.debug.temp.o
                0x0000000000027c95                ApplicationEntryPoint.c.95c936b6
 .debug_info    0x00000000000295be      0x187 /tmp/ccCrHJLn.debug.temp.o
                0x00000000000295be                BaseStackCheckGcc.c.9918e4ed
 .debug_info    0x0000000000029745      0x1d7 /tmp/ccnRYQim.debug.temp.o
                0x0000000000029745                memcpy.c.992e94b8
 .debug_info    0x000000000002991c      0x188 /tmp/cc5C0BWm.debug.temp.o
                0x000000000002991c                memset.c.d190684e
 .debug_info    0x0000000000029aa4     0x2236 /tmp/cc3OtT0j.debug.temp.o
                0x0000000000029aa4                AutoGen.c.d4fdd9f6
 .debug_info    0x000000000002bcda     0x4316 /tmp/cchpOaOl.debug.temp.o
                0x000000000002bcda                FrontPage.c.e5223586
 .debug_info    0x000000000002fff0     0x2fb5 /tmp/ccDEiuek.debug.temp.o
                0x000000000002fff0                String.c.2ccd3aa8
 .debug_info    0x0000000000032fa5     0x318b /tmp/ccOu3wOm.debug.temp.o
                0x0000000000032fa5                FrontPageCustomizedUi.c.378c83d1
 .debug_info    0x0000000000036130     0x3389 /tmp/cchd8sXn.debug.temp.o
                0x0000000000036130                FrontPageCustomizedUiSupport.c.afd76691
 .debug_info    0x00000000000394b9      0x5ca /tmp/ccUWRfhk.debug.temp.o
                0x00000000000394b9                FrontPageVfr.c.0f12f905
 .debug_info    0x0000000000039a83     0x2beb /tmp/ccccmM8n.debug.temp.o
                0x0000000000039a83                DxePcdLib.c.27e87d0b
 .debug_info    0x000000000003c66e      0x21d /tmp/ccdo80Ek.debug.temp.o
                0x000000000003c66e                MemLibGuid.c.2ca06148
 .debug_info    0x000000000003c88b      0x191 /tmp/ccR1G8ok.debug.temp.o
                0x000000000003c88b                CopyMemWrapper.c.8ed793a8
 .debug_info    0x000000000003ca1c      0x1db /tmp/ccU9Z76m.debug.temp.o
                0x000000000003ca1c                RShiftU64.c.a990dafe
 .debug_info    0x000000000003cbf7      0x1d0 /tmp/ccHhNlak.debug.temp.o
                0x000000000003cbf7                CpuDeadLoop.c.e33e7959
 .debug_info    0x000000000003cdc7     0x1004 /tmp/ccWg9Cvm.debug.temp.o
                0x000000000003cdc7                SafeString.c.d8550fea
 .debug_info    0x000000000003ddcb      0x7f3 /tmp/ccKAcYEk.debug.temp.o
                0x000000000003ddcb                String.c.753c3495
 .debug_info    0x000000000003e5be      0x43c /tmp/cc3j06En.debug.temp.o
                0x000000000003e5be                Math64.c.5e992ad5
 .debug_info    0x000000000003e9fa      0x1db /tmp/cceDFyPl.debug.temp.o
                0x000000000003e9fa                MultU64x32.c.c8a7ecd3
 .debug_info    0x000000000003ebd5      0x1db /tmp/ccr3Y5wn.debug.temp.o
                0x000000000003ebd5                LShiftU64.c.b38ec6e2
 .debug_info    0x000000000003edb0      0x68f /tmp/ccvLqbbl.debug.temp.o
                0x000000000003edb0                PrintLib.c.260a037f
 .debug_info    0x000000000003f43f      0x79a /tmp/ccKicW7n.debug.temp.o
                0x000000000003f43f                PrintLibInternal.c.92769e0a
 .debug_info    0x000000000003fbd9      0x3f2 /tmp/ccHQ87zl.debug.temp.o
                0x000000000003fbd9                DebugLib.c.0df38b98
 .debug_info    0x000000000003ffcb     0x18e1 /tmp/ccy8DaEk.debug.temp.o
                0x000000000003ffcb                UefiBootServicesTableLib.c.c00a3dd8
 .debug_info    0x00000000000418ac     0x1de0 /tmp/ccwqnGwl.debug.temp.o
                0x00000000000418ac                MemoryAllocationLib.c.774777c4
 .debug_info    0x000000000004368c     0x18b2 /tmp/cclB0d7j.debug.temp.o
                0x000000000004368c                UefiRuntimeServicesTableLib.c.7b9e7237
 .debug_info    0x0000000000044f3e     0x1953 /tmp/ccqB92ho.debug.temp.o
                0x0000000000044f3e                DevicePathUtilitiesDxeSmm.c.e3408512
 .debug_info    0x0000000000046891     0x1afe /tmp/cclLuctl.debug.temp.o
                0x0000000000046891                UefiDevicePathLib.c.c981cbf5
 .debug_info    0x000000000004838f     0x1d7d /tmp/ccOtQDFl.debug.temp.o
                0x000000000004838f                DevicePathUtilities.c.94f518f0
 .debug_info    0x000000000004a10c     0x3d60 /tmp/cc12ZPvm.debug.temp.o
                0x000000000004a10c                DevicePathToText.c.c18353b7
 .debug_info    0x000000000004de6c     0x1cda /tmp/ccSBbg3m.debug.temp.o
                0x000000000004de6c                Console.c.85380a39
 .debug_info    0x000000000004fb46     0x27ac /tmp/ccdTNLJj.debug.temp.o
                0x000000000004fb46                UefiLib.c.2c69044c
 .debug_info    0x00000000000522f2     0x2966 /tmp/ccAeOMXk.debug.temp.o
                0x00000000000522f2                UefiHiiServicesLib.c.57cd5a7f
 .debug_info    0x0000000000054c58     0x1eae /tmp/ccDucOon.debug.temp.o
                0x0000000000054c58                DxeServicesTableLib.c.0552c477
 .debug_info    0x0000000000056b06     0x22fe /tmp/ccShVGzm.debug.temp.o
                0x0000000000056b06                HobLib.c.fefb3825
 .debug_info    0x0000000000058e04     0x50c1 /tmp/ccGrWl6j.debug.temp.o
                0x0000000000058e04                HiiLib.c.b2279ad8
 .debug_info    0x000000000005dec5     0x2b6a /tmp/ccjvTaVm.debug.temp.o
                0x000000000005dec5                HiiString.c.d0f43445
 .debug_info    0x0000000000060a2f     0x2a1b /tmp/ccDX9u9l.debug.temp.o
                0x0000000000060a2f                HiiLanguage.c.1635079f
 .debug_info    0x000000000006344a      0x502 /tmp/ccsBEBwn.debug.temp.o
                0x000000000006344a                BaseReportStatusCodeLib.c.f05e4fbb
 .debug_info    0x000000000006394c     0x272c /tmp/cc92zawm.debug.temp.o
                0x000000000006394c                BmConnect.c.61ed0be0
 .debug_info    0x0000000000066078     0x2b62 /tmp/ccBHb5tk.debug.temp.o
                0x0000000000066078                BmConsole.c.eabdfa4b
 .debug_info    0x0000000000068bda     0x3e41 /tmp/ccBOJAon.debug.temp.o
                0x0000000000068bda                BmBoot.c.fc5b4c66
 .debug_info    0x000000000006ca1b     0x5375 /tmp/ccOjCfnk.debug.temp.o
                0x000000000006ca1b                BmBootDescription.c.881fae43
 .debug_info    0x0000000000071d90     0x3384 /tmp/ccR3Ixsn.debug.temp.o
                0x0000000000071d90                BmLoadOption.c.af141ef8
 .debug_info    0x0000000000075114     0x2e99 /tmp/ccLvSNmn.debug.temp.o
                0x0000000000075114                BmHotkey.c.c30e9ef0
 .debug_info    0x0000000000077fad     0x281e /tmp/ccRCt5Am.debug.temp.o
                0x0000000000077fad                BmDriverHealth.c.f9829727
 .debug_info    0x000000000007a7cb     0x253b /tmp/cc23PZ5k.debug.temp.o
                0x000000000007a7cb                BmMisc.c.65e95ac4
 .debug_info    0x000000000007cd06     0x2f60 /tmp/ccfSQmKk.debug.temp.o
                0x000000000007cd06                FileExplorer.c.31be6e5a
 .debug_info    0x000000000007fc66      0x282 /tmp/ccyd41Kj.debug.temp.o
                0x000000000007fc66                AutoGen.c.14fff343
 .debug_info    0x000000000007fee8      0x296 /tmp/ccAILC6j.debug.temp.o
                0x000000000007fee8                FileExplorerVfr.c.669b19e7
 .debug_info    0x000000000008017e     0x3451 /tmp/ccMMamnm.debug.temp.o
                0x000000000008017e                DeviceManager.c.9d8fed3b
 .debug_info    0x00000000000835cf      0x26a /tmp/cctvOkRn.debug.temp.o
                0x00000000000835cf                AutoGen.c.15419cce
 .debug_info    0x0000000000083839      0x27f /tmp/ccq2JzJl.debug.temp.o
                0x0000000000083839                DeviceManagerVfr.c.3042c31d
 .debug_info    0x0000000000083ab8     0x2a41 /tmp/cc89M3km.debug.temp.o
                0x0000000000083ab8                BootManager.c.20393c43
 .debug_info    0x00000000000864f9      0x282 /tmp/cca7wZ8m.debug.temp.o
                0x00000000000864f9                AutoGen.c.bad56f82
 .debug_info    0x000000000008677b      0x296 /tmp/cc9Hm65m.debug.temp.o
                0x000000000008677b                BootManagerVfr.c.bfcc7dfa
 .debug_info    0x0000000000086a11     0x1a62 /tmp/ccfx0GVj.debug.temp.o
                0x0000000000086a11                PlatformUiAppLib.c.a0e4ac29
 .debug_info    0x0000000000088473     0x44c1 /tmp/ccds3S7l.debug.temp.o
                0x0000000000088473                BootMaintenance.c.7ea55645
 .debug_info    0x000000000008c934     0x45fb /tmp/ccZm1tlm.debug.temp.o
                0x000000000008c934                BootOption.c.36c32231
 .debug_info    0x0000000000090f2f     0x4724 /tmp/ccrKERmk.debug.temp.o
                0x0000000000090f2f                ConsoleOption.c.0ba3e0c7
 .debug_info    0x0000000000095653     0x3cf8 /tmp/ccPso3tk.debug.temp.o
                0x0000000000095653                Data.c.3301c021
 .debug_info    0x000000000009934b     0x4200 /tmp/ccq5IJYk.debug.temp.o
                0x000000000009934b                Variable.c.adfe4b89
 .debug_info    0x000000000009d54b     0x4143 /tmp/ccToEdUk.debug.temp.o
                0x000000000009d54b                UpdatePage.c.43d00576
 .debug_info    0x00000000000a168e     0x3c7d /tmp/cczTALnl.debug.temp.o
                0x00000000000a168e                BmLib.c.0534f97d
 .debug_info    0x00000000000a530b      0x55d /tmp/cc2ASeom.debug.temp.o
                0x00000000000a530b                BootMaintenanceManagerCustomizedUi.c.0b65157e
 .debug_info    0x00000000000a5868     0x401e /tmp/cc1QRMxn.debug.temp.o
                0x00000000000a5868                BootMaintenanceManagerCustomizedUiSupport.c.1135565e
 .debug_info    0x00000000000a9886      0x2ca /tmp/ccqY8BYm.debug.temp.o
                0x00000000000a9886                AutoGen.c.e6589fbf
 .debug_info    0x00000000000a9b50      0x2df /tmp/ccWNBi9n.debug.temp.o
                0x00000000000a9b50                BootMaintenanceManager.c.fdcdf172
 .debug_info    0x00000000000a9e2f      0x17a /tmp/ccsLkdTk.debug.temp.o
                0x00000000000a9e2f                ZeroMemWrapper.c.8dc042f6
 .debug_info    0x00000000000a9fa9      0x1a7 /tmp/cc9urpRl.debug.temp.o
                0x00000000000a9fa9                CompareMemWrapper.c.96cbdc30
 .debug_info    0x00000000000aa150      0x186 /tmp/ccCRvMNn.debug.temp.o
                0x00000000000aa150                SetMem16Wrapper.c.ab3f09e9
 .debug_info    0x00000000000aa2d6      0x1bb /tmp/ccBOlDKl.debug.temp.o
                0x00000000000aa2d6                SetMemWrapper.c.36d74bb8
 .debug_info    0x00000000000aa491      0x183 /tmp/cccIfV1j.debug.temp.o
                0x00000000000aa491                IsZeroBufferWrapper.c.fee66244
 .debug_info    0x00000000000aa614      0x28a /tmp/ccvesLzm.debug.temp.o
                0x00000000000aa614                ScanMemGeneric.c.8b8547a5
 .debug_info    0x00000000000aa89e      0x1e5 /tmp/ccoYrNRj.debug.temp.o
                0x00000000000aa89e                DivU64x32Remainder.c.19070deb
 .debug_info    0x00000000000aaa83      0x428 /tmp/cctPAEao.debug.temp.o
                0x00000000000aaa83                LinkedList.c.6e13becc
 .debug_info    0x00000000000aaeab      0x33d /tmp/ccWgit5j.debug.temp.o
                0x00000000000aaeab                Unaligned.c.4a0798dc
 .debug_info    0x00000000000ab1e8      0x18d /tmp/cc6sn5Ml.debug.temp.o
                0x00000000000ab1e8                BaseDebugPrintErrorLevelLib.c.afda57b5
 .debug_info    0x00000000000ab375      0x201 /tmp/cc9SyI5m.debug.temp.o
                0x00000000000ab375                DebugDualSerialPortLib.c.3fe30e88
 .debug_info    0x00000000000ab576      0x2e6 /tmp/cciW1Iao.debug.temp.o
                0x00000000000ab576                DualSerialPortLibCommon.c.2dc6badf
 .debug_info    0x00000000000ab85c     0x2762 /tmp/ccUij9Hk.debug.temp.o
                0x00000000000ab85c                UefiLibPrint.c.10301016
 .debug_info    0x00000000000adfbe     0x1c06 /tmp/ccuHHpem.debug.temp.o
                0x00000000000adfbe                UefiNotTiano.c.c6756db9
 .debug_info    0x00000000000afbc4     0x2756 /tmp/ccackKRl.debug.temp.o
                0x00000000000afbc4                DxeServicesLib.c.7e331950
 .debug_info    0x00000000000b231a     0x1c8c /tmp/cc8i1ccm.debug.temp.o
                0x00000000000b231a                DxePerformanceLib.c.c601e708
 .debug_info    0x00000000000b3fa6      0x503 /tmp/ccftCXok.debug.temp.o
                0x00000000000b3fa6                IoLibNoIo.c.335a48c4
 .debug_info    0x00000000000b44a9      0x536 /tmp/cc1aKqpl.debug.temp.o
                0x00000000000b44a9                PL011UartLib.c.f54a0051

.debug_abbrev   0x0000000000000000     0x9b7d
 .debug_abbrev  0x0000000000000000      0x2f7 /tmp/UiApp.dll.9PSgum.ltrans0.ltrans.o
 .debug_abbrev  0x00000000000002f7      0x261 /tmp/UiApp.dll.9PSgum.ltrans1.ltrans.o
 .debug_abbrev  0x0000000000000558      0x2ae /tmp/UiApp.dll.9PSgum.ltrans2.ltrans.o
 .debug_abbrev  0x0000000000000806      0x1fc /tmp/ccBUZWTl.debug.temp.o
 .debug_abbrev  0x0000000000000a02       0xc7 /tmp/ccCrHJLn.debug.temp.o
 .debug_abbrev  0x0000000000000ac9       0xee /tmp/ccnRYQim.debug.temp.o
 .debug_abbrev  0x0000000000000bb7       0xc0 /tmp/cc5C0BWm.debug.temp.o
 .debug_abbrev  0x0000000000000c77      0x236 /tmp/cc3OtT0j.debug.temp.o
 .debug_abbrev  0x0000000000000ead      0x30c /tmp/cchpOaOl.debug.temp.o
 .debug_abbrev  0x00000000000011b9      0x24b /tmp/ccDEiuek.debug.temp.o
 .debug_abbrev  0x0000000000001404      0x25c /tmp/ccOu3wOm.debug.temp.o
 .debug_abbrev  0x0000000000001660      0x2c8 /tmp/cchd8sXn.debug.temp.o
 .debug_abbrev  0x0000000000001928       0xbc /tmp/ccUWRfhk.debug.temp.o
 .debug_abbrev  0x00000000000019e4      0x25c /tmp/ccccmM8n.debug.temp.o
 .debug_abbrev  0x0000000000001c40       0xce /tmp/ccdo80Ek.debug.temp.o
 .debug_abbrev  0x0000000000001d0e       0xb8 /tmp/ccR1G8ok.debug.temp.o
 .debug_abbrev  0x0000000000001dc6       0xb1 /tmp/ccU9Z76m.debug.temp.o
 .debug_abbrev  0x0000000000001e77       0xb6 /tmp/ccHhNlak.debug.temp.o
 .debug_abbrev  0x0000000000001f2d      0x138 /tmp/ccWg9Cvm.debug.temp.o
 .debug_abbrev  0x0000000000002065      0x126 /tmp/ccKAcYEk.debug.temp.o
 .debug_abbrev  0x000000000000218b       0xf9 /tmp/cc3j06En.debug.temp.o
 .debug_abbrev  0x0000000000002284       0xc0 /tmp/cceDFyPl.debug.temp.o
 .debug_abbrev  0x0000000000002344       0xb1 /tmp/ccr3Y5wn.debug.temp.o
 .debug_abbrev  0x00000000000023f5      0x150 /tmp/ccvLqbbl.debug.temp.o
 .debug_abbrev  0x0000000000002545      0x161 /tmp/ccKicW7n.debug.temp.o
 .debug_abbrev  0x00000000000026a6      0x165 /tmp/ccHQ87zl.debug.temp.o
 .debug_abbrev  0x000000000000280b      0x1dd /tmp/ccy8DaEk.debug.temp.o
 .debug_abbrev  0x00000000000029e8      0x242 /tmp/ccwqnGwl.debug.temp.o
 .debug_abbrev  0x0000000000002c2a      0x1c3 /tmp/cclB0d7j.debug.temp.o
 .debug_abbrev  0x0000000000002ded      0x1d4 /tmp/ccqB92ho.debug.temp.o
 .debug_abbrev  0x0000000000002fc1      0x1fe /tmp/cclLuctl.debug.temp.o
 .debug_abbrev  0x00000000000031bf      0x240 /tmp/ccOtQDFl.debug.temp.o
 .debug_abbrev  0x00000000000033ff      0x2ca /tmp/cc12ZPvm.debug.temp.o
 .debug_abbrev  0x00000000000036c9      0x276 /tmp/ccSBbg3m.debug.temp.o
 .debug_abbrev  0x000000000000393f      0x267 /tmp/ccdTNLJj.debug.temp.o
 .debug_abbrev  0x0000000000003ba6      0x216 /tmp/ccAeOMXk.debug.temp.o
 .debug_abbrev  0x0000000000003dbc      0x1ea /tmp/ccDucOon.debug.temp.o
 .debug_abbrev  0x0000000000003fa6      0x25a /tmp/ccShVGzm.debug.temp.o
 .debug_abbrev  0x0000000000004200      0x315 /tmp/ccGrWl6j.debug.temp.o
 .debug_abbrev  0x0000000000004515      0x249 /tmp/ccjvTaVm.debug.temp.o
 .debug_abbrev  0x000000000000475e      0x209 /tmp/ccDX9u9l.debug.temp.o
 .debug_abbrev  0x0000000000004967      0x124 /tmp/ccsBEBwn.debug.temp.o
 .debug_abbrev  0x0000000000004a8b      0x214 /tmp/cc92zawm.debug.temp.o
 .debug_abbrev  0x0000000000004c9f      0x258 /tmp/ccBHb5tk.debug.temp.o
 .debug_abbrev  0x0000000000004ef7      0x281 /tmp/ccBOJAon.debug.temp.o
 .debug_abbrev  0x0000000000005178      0x382 /tmp/ccOjCfnk.debug.temp.o
 .debug_abbrev  0x00000000000054fa      0x2b7 /tmp/ccR3Ixsn.debug.temp.o
 .debug_abbrev  0x00000000000057b1      0x2e5 /tmp/ccLvSNmn.debug.temp.o
 .debug_abbrev  0x0000000000005a96      0x26c /tmp/ccRCt5Am.debug.temp.o
 .debug_abbrev  0x0000000000005d02      0x25a /tmp/cc23PZ5k.debug.temp.o
 .debug_abbrev  0x0000000000005f5c      0x2c0 /tmp/ccfSQmKk.debug.temp.o
 .debug_abbrev  0x000000000000621c       0xa8 /tmp/ccyd41Kj.debug.temp.o
 .debug_abbrev  0x00000000000062c4       0xac /tmp/ccAILC6j.debug.temp.o
 .debug_abbrev  0x0000000000006370      0x2d5 /tmp/ccMMamnm.debug.temp.o
 .debug_abbrev  0x0000000000006645       0xa8 /tmp/cctvOkRn.debug.temp.o
 .debug_abbrev  0x00000000000066ed       0xb5 /tmp/ccq2JzJl.debug.temp.o
 .debug_abbrev  0x00000000000067a2      0x28e /tmp/cc89M3km.debug.temp.o
 .debug_abbrev  0x0000000000006a30       0xa8 /tmp/cca7wZ8m.debug.temp.o
 .debug_abbrev  0x0000000000006ad8       0xac /tmp/cc9Hm65m.debug.temp.o
 .debug_abbrev  0x0000000000006b84      0x1e7 /tmp/ccfx0GVj.debug.temp.o
 .debug_abbrev  0x0000000000006d6b      0x2fe /tmp/ccds3S7l.debug.temp.o
 .debug_abbrev  0x0000000000007069      0x309 /tmp/ccZm1tlm.debug.temp.o
 .debug_abbrev  0x0000000000007372      0x330 /tmp/ccrKERmk.debug.temp.o
 .debug_abbrev  0x00000000000076a2      0x249 /tmp/ccPso3tk.debug.temp.o
 .debug_abbrev  0x00000000000078eb      0x2db /tmp/ccq5IJYk.debug.temp.o
 .debug_abbrev  0x0000000000007bc6      0x2be /tmp/ccToEdUk.debug.temp.o
 .debug_abbrev  0x0000000000007e84      0x282 /tmp/cczTALnl.debug.temp.o
 .debug_abbrev  0x0000000000008106      0x144 /tmp/cc2ASeom.debug.temp.o
 .debug_abbrev  0x000000000000824a      0x2c0 /tmp/cc1QRMxn.debug.temp.o
 .debug_abbrev  0x000000000000850a       0xa8 /tmp/ccqY8BYm.debug.temp.o
 .debug_abbrev  0x00000000000085b2       0xb5 /tmp/ccWNBi9n.debug.temp.o
 .debug_abbrev  0x0000000000008667       0xb1 /tmp/ccsLkdTk.debug.temp.o
 .debug_abbrev  0x0000000000008718       0xb1 /tmp/cc9urpRl.debug.temp.o
 .debug_abbrev  0x00000000000087c9       0xb1 /tmp/ccCRvMNn.debug.temp.o
 .debug_abbrev  0x000000000000887a       0xc6 /tmp/ccBOlDKl.debug.temp.o
 .debug_abbrev  0x0000000000008940       0xb1 /tmp/cccIfV1j.debug.temp.o
 .debug_abbrev  0x00000000000089f1       0xc7 /tmp/ccvesLzm.debug.temp.o
 .debug_abbrev  0x0000000000008ab8       0xb3 /tmp/ccoYrNRj.debug.temp.o
 .debug_abbrev  0x0000000000008b6b      0x139 /tmp/cctPAEao.debug.temp.o
 .debug_abbrev  0x0000000000008ca4       0xc9 /tmp/ccWgit5j.debug.temp.o
 .debug_abbrev  0x0000000000008d6d       0xc6 /tmp/cc6sn5Ml.debug.temp.o
 .debug_abbrev  0x0000000000008e33       0xc4 /tmp/cc9SyI5m.debug.temp.o
 .debug_abbrev  0x0000000000008ef7      0x108 /tmp/cciW1Iao.debug.temp.o
 .debug_abbrev  0x0000000000008fff      0x283 /tmp/ccUij9Hk.debug.temp.o
 .debug_abbrev  0x0000000000009282      0x233 /tmp/ccuHHpem.debug.temp.o
 .debug_abbrev  0x00000000000094b5      0x225 /tmp/ccackKRl.debug.temp.o
 .debug_abbrev  0x00000000000096da      0x240 /tmp/cc8i1ccm.debug.temp.o
 .debug_abbrev  0x000000000000991a      0x11f /tmp/ccftCXok.debug.temp.o
 .debug_abbrev  0x0000000000009a39      0x144 /tmp/cc1aKqpl.debug.temp.o

.debug_loc      0x0000000000000000    0x32d58
 .debug_loc     0x0000000000000000    0x12b63 /tmp/UiApp.dll.9PSgum.ltrans0.ltrans.o
 .debug_loc     0x0000000000012b63     0xee67 /tmp/UiApp.dll.9PSgum.ltrans1.ltrans.o
 .debug_loc     0x00000000000219ca    0x1138e /tmp/UiApp.dll.9PSgum.ltrans2.ltrans.o

.debug_aranges  0x0000000000000000     0x1380
 .debug_aranges
                0x0000000000000000      0x650 /tmp/UiApp.dll.9PSgum.ltrans0.ltrans.o
 .debug_aranges
                0x0000000000000650      0x430 /tmp/UiApp.dll.9PSgum.ltrans1.ltrans.o
 .debug_aranges
                0x0000000000000a80      0x900 /tmp/UiApp.dll.9PSgum.ltrans2.ltrans.o

.debug_ranges   0x0000000000000000     0x6090
 .debug_ranges  0x0000000000000000     0x2350 /tmp/UiApp.dll.9PSgum.ltrans0.ltrans.o
 .debug_ranges  0x0000000000002350     0x1f40 /tmp/UiApp.dll.9PSgum.ltrans1.ltrans.o
 .debug_ranges  0x0000000000004290     0x1e00 /tmp/UiApp.dll.9PSgum.ltrans2.ltrans.o

.debug_line     0x0000000000000000    0x28180
 .debug_line    0x0000000000000000     0x80d0 /tmp/UiApp.dll.9PSgum.ltrans0.ltrans.o
 .debug_line    0x00000000000080d0     0x6e12 /tmp/UiApp.dll.9PSgum.ltrans1.ltrans.o
 .debug_line    0x000000000000eee2     0x6e47 /tmp/UiApp.dll.9PSgum.ltrans2.ltrans.o
 .debug_line    0x0000000000015d29      0x34f /tmp/ccBUZWTl.debug.temp.o
 .debug_line    0x0000000000016078      0x170 /tmp/ccCrHJLn.debug.temp.o
 .debug_line    0x00000000000161e8      0x171 /tmp/ccnRYQim.debug.temp.o
 .debug_line    0x0000000000016359      0x171 /tmp/cc5C0BWm.debug.temp.o
 .debug_line    0x00000000000164ca      0x2ee /tmp/cc3OtT0j.debug.temp.o
 .debug_line    0x00000000000167b8      0x588 /tmp/cchpOaOl.debug.temp.o
 .debug_line    0x0000000000016d40      0x4c8 /tmp/ccDEiuek.debug.temp.o
 .debug_line    0x0000000000017208      0x4ec /tmp/ccOu3wOm.debug.temp.o
 .debug_line    0x00000000000176f4      0x4ce /tmp/cchd8sXn.debug.temp.o
 .debug_line    0x0000000000017bc2      0x25f /tmp/ccUWRfhk.debug.temp.o
 .debug_line    0x0000000000017e21      0x384 /tmp/ccccmM8n.debug.temp.o
 .debug_line    0x00000000000181a5      0x173 /tmp/ccdo80Ek.debug.temp.o
 .debug_line    0x0000000000018318      0x173 /tmp/ccR1G8ok.debug.temp.o
 .debug_line    0x000000000001848b      0x14a /tmp/ccU9Z76m.debug.temp.o
 .debug_line    0x00000000000185d5      0x14c /tmp/ccHhNlak.debug.temp.o
 .debug_line    0x0000000000018721      0x14b /tmp/ccWg9Cvm.debug.temp.o
 .debug_line    0x000000000001886c      0x147 /tmp/ccKAcYEk.debug.temp.o
 .debug_line    0x00000000000189b3      0x147 /tmp/cc3j06En.debug.temp.o
 .debug_line    0x0000000000018afa      0x14b /tmp/cceDFyPl.debug.temp.o
 .debug_line    0x0000000000018c45      0x14a /tmp/ccr3Y5wn.debug.temp.o
 .debug_line    0x0000000000018d8f      0x166 /tmp/ccvLqbbl.debug.temp.o
 .debug_line    0x0000000000018ef5      0x184 /tmp/ccKicW7n.debug.temp.o
 .debug_line    0x0000000000019079      0x20c /tmp/ccHQ87zl.debug.temp.o
 .debug_line    0x0000000000019285      0x330 /tmp/ccy8DaEk.debug.temp.o
 .debug_line    0x00000000000195b5      0x328 /tmp/ccwqnGwl.debug.temp.o
 .debug_line    0x00000000000198dd      0x2e9 /tmp/cclB0d7j.debug.temp.o
 .debug_line    0x0000000000019bc6      0x372 /tmp/ccqB92ho.debug.temp.o
 .debug_line    0x0000000000019f38      0x36a /tmp/cclLuctl.debug.temp.o
 .debug_line    0x000000000001a2a2      0x36c /tmp/ccOtQDFl.debug.temp.o
 .debug_line    0x000000000001a60e      0x3db /tmp/cc12ZPvm.debug.temp.o
 .debug_line    0x000000000001a9e9      0x34a /tmp/ccSBbg3m.debug.temp.o
 .debug_line    0x000000000001ad33      0x36d /tmp/ccdTNLJj.debug.temp.o
 .debug_line    0x000000000001b0a0      0x400 /tmp/ccAeOMXk.debug.temp.o
 .debug_line    0x000000000001b4a0      0x42d /tmp/ccDucOon.debug.temp.o
 .debug_line    0x000000000001b8cd      0x3c1 /tmp/ccShVGzm.debug.temp.o
 .debug_line    0x000000000001bc8e      0x515 /tmp/ccGrWl6j.debug.temp.o
 .debug_line    0x000000000001c1a3      0x4f8 /tmp/ccjvTaVm.debug.temp.o
 .debug_line    0x000000000001c69b      0x4fa /tmp/ccDX9u9l.debug.temp.o
 .debug_line    0x000000000001cb95      0x2b0 /tmp/ccsBEBwn.debug.temp.o
 .debug_line    0x000000000001ce45      0x4d7 /tmp/cc92zawm.debug.temp.o
 .debug_line    0x000000000001d31c      0x573 /tmp/ccBHb5tk.debug.temp.o
 .debug_line    0x000000000001d88f      0x61f /tmp/ccBOJAon.debug.temp.o
 .debug_line    0x000000000001deae      0x5f0 /tmp/ccOjCfnk.debug.temp.o
 .debug_line    0x000000000001e49e      0x5c8 /tmp/ccR3Ixsn.debug.temp.o
 .debug_line    0x000000000001ea66      0x539 /tmp/ccLvSNmn.debug.temp.o
 .debug_line    0x000000000001ef9f      0x56c /tmp/ccRCt5Am.debug.temp.o
 .debug_line    0x000000000001f50b      0x56e /tmp/cc23PZ5k.debug.temp.o
 .debug_line    0x000000000001fa79      0x55e /tmp/ccfSQmKk.debug.temp.o
 .debug_line    0x000000000001ffd7      0x286 /tmp/ccyd41Kj.debug.temp.o
 .debug_line    0x000000000002025d      0x28e /tmp/ccAILC6j.debug.temp.o
 .debug_line    0x00000000000204eb      0x4ea /tmp/ccMMamnm.debug.temp.o
 .debug_line    0x00000000000209d5      0x28f /tmp/cctvOkRn.debug.temp.o
 .debug_line    0x0000000000020c64      0x298 /tmp/ccq2JzJl.debug.temp.o
 .debug_line    0x0000000000020efc      0x5e2 /tmp/cc89M3km.debug.temp.o
 .debug_line    0x00000000000214de      0x289 /tmp/cca7wZ8m.debug.temp.o
 .debug_line    0x0000000000021767      0x290 /tmp/cc9Hm65m.debug.temp.o
 .debug_line    0x00000000000219f7      0x420 /tmp/ccfx0GVj.debug.temp.o
 .debug_line    0x0000000000021e17      0x6a0 /tmp/ccds3S7l.debug.temp.o
 .debug_line    0x00000000000224b7      0x6bf /tmp/ccZm1tlm.debug.temp.o
 .debug_line    0x0000000000022b76      0x688 /tmp/ccrKERmk.debug.temp.o
 .debug_line    0x00000000000231fe      0x67f /tmp/ccPso3tk.debug.temp.o
 .debug_line    0x000000000002387d      0x69b /tmp/ccq5IJYk.debug.temp.o
 .debug_line    0x0000000000023f18      0x685 /tmp/ccToEdUk.debug.temp.o
 .debug_line    0x000000000002459d      0x680 /tmp/cczTALnl.debug.temp.o
 .debug_line    0x0000000000024c1d      0x37c /tmp/cc2ASeom.debug.temp.o
 .debug_line    0x0000000000024f99      0x6d3 /tmp/cc1QRMxn.debug.temp.o
 .debug_line    0x000000000002566c      0x2aa /tmp/ccqY8BYm.debug.temp.o
 .debug_line    0x0000000000025916      0x2b9 /tmp/ccWNBi9n.debug.temp.o
 .debug_line    0x0000000000025bcf      0x173 /tmp/ccsLkdTk.debug.temp.o
 .debug_line    0x0000000000025d42      0x176 /tmp/cc9urpRl.debug.temp.o
 .debug_line    0x0000000000025eb8      0x174 /tmp/ccCRvMNn.debug.temp.o
 .debug_line    0x000000000002602c      0x172 /tmp/ccBOlDKl.debug.temp.o
 .debug_line    0x000000000002619e      0x178 /tmp/cccIfV1j.debug.temp.o
 .debug_line    0x0000000000026316      0x177 /tmp/ccvesLzm.debug.temp.o
 .debug_line    0x000000000002648d      0x153 /tmp/ccoYrNRj.debug.temp.o
 .debug_line    0x00000000000265e0      0x14b /tmp/cctPAEao.debug.temp.o
 .debug_line    0x000000000002672b      0x14e /tmp/ccWgit5j.debug.temp.o
 .debug_line    0x0000000000026879      0x198 /tmp/cc6sn5Ml.debug.temp.o
 .debug_line    0x0000000000026a11      0x228 /tmp/cc9SyI5m.debug.temp.o
 .debug_line    0x0000000000026c39      0x240 /tmp/cciW1Iao.debug.temp.o
 .debug_line    0x0000000000026e79      0x3a1 /tmp/ccUij9Hk.debug.temp.o
 .debug_line    0x000000000002721a      0x341 /tmp/ccuHHpem.debug.temp.o
 .debug_line    0x000000000002755b      0x48b /tmp/ccackKRl.debug.temp.o
 .debug_line    0x00000000000279e6      0x386 /tmp/cc8i1ccm.debug.temp.o
 .debug_line    0x0000000000027d6c      0x16b /tmp/ccftCXok.debug.temp.o
 .debug_line    0x0000000000027ed7      0x2a9 /tmp/cc1aKqpl.debug.temp.o

.debug_str      0x0000000000000000    0x12904
 .debug_str     0x0000000000000000      0x5d6 /tmp/UiApp.dll.9PSgum.ltrans0.ltrans.o
                                        0x5dd (size before relaxing)
 .debug_str     0x00000000000005d6      0x1a2 /tmp/UiApp.dll.9PSgum.ltrans1.ltrans.o
                                        0x584 (size before relaxing)
 .debug_str     0x0000000000000778       0xf6 /tmp/UiApp.dll.9PSgum.ltrans2.ltrans.o
                                        0x5c9 (size before relaxing)
 .debug_str     0x000000000000086e     0x13e6 /tmp/ccBUZWTl.debug.temp.o
                                       0x157f (size before relaxing)
 .debug_str     0x0000000000001c54      0x27a /tmp/ccCrHJLn.debug.temp.o
                                        0x3af (size before relaxing)
 .debug_str     0x0000000000001ece       0xd3 /tmp/ccnRYQim.debug.temp.o
                                        0x34e (size before relaxing)
 .debug_str     0x0000000000001fa1       0x55 /tmp/cc5C0BWm.debug.temp.o
                                        0x342 (size before relaxing)
 .debug_str     0x0000000000001ff6      0xfe5 /tmp/cc3OtT0j.debug.temp.o
                                       0x2519 (size before relaxing)
 .debug_str     0x0000000000002fdb     0x1ac5 /tmp/cchpOaOl.debug.temp.o
                                       0x3c7a (size before relaxing)
 .debug_str     0x0000000000004aa0      0x14c /tmp/ccDEiuek.debug.temp.o
                                       0x2bac (size before relaxing)
 .debug_str     0x0000000000004bec       0xc0 /tmp/ccOu3wOm.debug.temp.o
                                       0x2cdf (size before relaxing)
 .debug_str     0x0000000000004cac      0x27a /tmp/cchd8sXn.debug.temp.o
                                       0x2d71 (size before relaxing)
 .debug_str     0x0000000000004f26       0x71 /tmp/ccUWRfhk.debug.temp.o
                                        0xca8 (size before relaxing)
 .debug_str     0x0000000000004f97      0x995 /tmp/ccccmM8n.debug.temp.o
                                       0x2118 (size before relaxing)
 .debug_str     0x000000000000592c      0x10c /tmp/ccdo80Ek.debug.temp.o
                                        0x3ad (size before relaxing)
 .debug_str     0x0000000000005a38       0x71 /tmp/ccR1G8ok.debug.temp.o
                                        0x370 (size before relaxing)
 .debug_str     0x0000000000005aa9       0x9f /tmp/ccU9Z76m.debug.temp.o
                                        0x465 (size before relaxing)
 .debug_str     0x0000000000005b48       0x4f /tmp/ccHhNlak.debug.temp.o
                                        0x461 (size before relaxing)
 .debug_str     0x0000000000005b97      0x2c8 /tmp/ccWg9Cvm.debug.temp.o
                                        0x82d (size before relaxing)
 .debug_str     0x0000000000005e5f      0x2e1 /tmp/ccKAcYEk.debug.temp.o
                                        0x7e2 (size before relaxing)
 .debug_str     0x0000000000006140      0x1b0 /tmp/cc3j06En.debug.temp.o
                                        0x5df (size before relaxing)
 .debug_str     0x00000000000062f0       0x42 /tmp/cceDFyPl.debug.temp.o
                                        0x472 (size before relaxing)
 .debug_str     0x0000000000006332       0x41 /tmp/ccr3Y5wn.debug.temp.o
                                        0x465 (size before relaxing)
 .debug_str     0x0000000000006373      0x261 /tmp/ccvLqbbl.debug.temp.o
                                        0x5a2 (size before relaxing)
 .debug_str     0x00000000000065d4      0x243 /tmp/ccKicW7n.debug.temp.o
                                        0x70c (size before relaxing)
 .debug_str     0x0000000000006817      0x1c2 /tmp/ccHQ87zl.debug.temp.o
                                        0x5c4 (size before relaxing)
 .debug_str     0x00000000000069d9       0xfd /tmp/ccy8DaEk.debug.temp.o
                                       0x156d (size before relaxing)
 .debug_str     0x0000000000006ad6      0x300 /tmp/ccwqnGwl.debug.temp.o
                                       0x17d9 (size before relaxing)
 .debug_str     0x0000000000006dd6      0x10c /tmp/cclB0d7j.debug.temp.o
                                       0x156f (size before relaxing)
 .debug_str     0x0000000000006ee2      0x142 /tmp/ccqB92ho.debug.temp.o
                                       0x1658 (size before relaxing)
 .debug_str     0x0000000000007024       0xf2 /tmp/cclLuctl.debug.temp.o
                                       0x17d8 (size before relaxing)
 .debug_str     0x0000000000007116      0x283 /tmp/ccOtQDFl.debug.temp.o
                                       0x1974 (size before relaxing)
 .debug_str     0x0000000000007399      0xdb6 /tmp/cc12ZPvm.debug.temp.o
                                       0x25ec (size before relaxing)
 .debug_str     0x000000000000814f      0x228 /tmp/ccSBbg3m.debug.temp.o
                                       0x1a3a (size before relaxing)
 .debug_str     0x0000000000008377      0x604 /tmp/ccdTNLJj.debug.temp.o
                                       0x20b1 (size before relaxing)
 .debug_str     0x000000000000897b       0xeb /tmp/ccAeOMXk.debug.temp.o
                                       0x21db (size before relaxing)
 .debug_str     0x0000000000008a66      0x63a /tmp/ccDucOon.debug.temp.o
                                       0x1c34 (size before relaxing)
 .debug_str     0x00000000000090a0      0x5c1 /tmp/ccShVGzm.debug.temp.o
                                       0x1c13 (size before relaxing)
 .debug_str     0x0000000000009661      0xd65 /tmp/ccGrWl6j.debug.temp.o
                                       0x35e9 (size before relaxing)
 .debug_str     0x000000000000a3c6       0xc6 /tmp/ccjvTaVm.debug.temp.o
                                       0x2450 (size before relaxing)
 .debug_str     0x000000000000a48c       0x89 /tmp/ccDX9u9l.debug.temp.o
                                       0x23c2 (size before relaxing)
 .debug_str     0x000000000000a515      0x257 /tmp/ccsBEBwn.debug.temp.o
                                        0x6b3 (size before relaxing)
 .debug_str     0x000000000000a76c      0x760 /tmp/cc92zawm.debug.temp.o
                                       0x2812 (size before relaxing)
 .debug_str     0x000000000000aecc      0x3f5 /tmp/ccBHb5tk.debug.temp.o
                                       0x2b95 (size before relaxing)
 .debug_str     0x000000000000b2c1      0xfce /tmp/ccBOJAon.debug.temp.o
                                       0x3656 (size before relaxing)
 .debug_str     0x000000000000c28f      0xd51 /tmp/ccOjCfnk.debug.temp.o
                                       0x42eb (size before relaxing)
 .debug_str     0x000000000000cfe0      0x8c5 /tmp/ccR3Ixsn.debug.temp.o
                                       0x2d44 (size before relaxing)
 .debug_str     0x000000000000d8a5      0x5ee /tmp/ccLvSNmn.debug.temp.o
                                       0x2a4b (size before relaxing)
 .debug_str     0x000000000000de93      0x41d /tmp/ccRCt5Am.debug.temp.o
                                       0x27e8 (size before relaxing)
 .debug_str     0x000000000000e2b0      0x27a /tmp/cc23PZ5k.debug.temp.o
                                       0x251d (size before relaxing)
 .debug_str     0x000000000000e52a      0x6e9 /tmp/ccfSQmKk.debug.temp.o
                                       0x2538 (size before relaxing)
 .debug_str     0x000000000000ec13       0x7c /tmp/ccyd41Kj.debug.temp.o
                                        0x5a3 (size before relaxing)
 .debug_str     0x000000000000ec8f       0x84 /tmp/ccAILC6j.debug.temp.o
                                        0x5be (size before relaxing)
 .debug_str     0x000000000000ed13      0x3ab /tmp/ccMMamnm.debug.temp.o
                                       0x2a0b (size before relaxing)
 .debug_str     0x000000000000f0be       0x82 /tmp/cctvOkRn.debug.temp.o
                                        0x564 (size before relaxing)
 .debug_str     0x000000000000f140       0x8b /tmp/ccq2JzJl.debug.temp.o
                                        0x581 (size before relaxing)
 .debug_str     0x000000000000f1cb      0x50b /tmp/cc89M3km.debug.temp.o
                                       0x262a (size before relaxing)
 .debug_str     0x000000000000f6d6       0x7e /tmp/cca7wZ8m.debug.temp.o
                                        0x59b (size before relaxing)
 .debug_str     0x000000000000f754       0x85 /tmp/cc9Hm65m.debug.temp.o
                                        0x5b4 (size before relaxing)
 .debug_str     0x000000000000f7d9      0x13d /tmp/ccfx0GVj.debug.temp.o
                                       0x1790 (size before relaxing)
 .debug_str     0x000000000000f916      0xaf7 /tmp/ccds3S7l.debug.temp.o
                                       0x38b9 (size before relaxing)
 .debug_str     0x000000000001040d      0x2c6 /tmp/ccZm1tlm.debug.temp.o
                                       0x391b (size before relaxing)
 .debug_str     0x00000000000106d3      0x4b9 /tmp/ccrKERmk.debug.temp.o
                                       0x384b (size before relaxing)
 .debug_str     0x0000000000010b8c       0x56 /tmp/ccPso3tk.debug.temp.o
                                       0x3280 (size before relaxing)
 .debug_str     0x0000000000010be2      0x1be /tmp/ccq5IJYk.debug.temp.o
                                       0x35dc (size before relaxing)
 .debug_str     0x0000000000010da0      0x1da /tmp/ccToEdUk.debug.temp.o
                                       0x350c (size before relaxing)
 .debug_str     0x0000000000010f7a       0x9c /tmp/cczTALnl.debug.temp.o
                                       0x326f (size before relaxing)
 .debug_str     0x0000000000011016       0x9c /tmp/cc2ASeom.debug.temp.o
                                        0x86c (size before relaxing)
 .debug_str     0x00000000000110b2      0x170 /tmp/cc1QRMxn.debug.temp.o
                                       0x34c4 (size before relaxing)
 .debug_str     0x0000000000011222       0x94 /tmp/ccqY8BYm.debug.temp.o
                                        0x670 (size before relaxing)
 .debug_str     0x00000000000112b6       0xa3 /tmp/ccWNBi9n.debug.temp.o
                                        0x699 (size before relaxing)
 .debug_str     0x0000000000011359       0x52 /tmp/ccsLkdTk.debug.temp.o
                                        0x358 (size before relaxing)
 .debug_str     0x00000000000113ab       0x55 /tmp/cc9urpRl.debug.temp.o
                                        0x381 (size before relaxing)
 .debug_str     0x0000000000011400       0x53 /tmp/ccCRvMNn.debug.temp.o
                                        0x360 (size before relaxing)
 .debug_str     0x0000000000011453       0x59 /tmp/ccBOlDKl.debug.temp.o
                                        0x364 (size before relaxing)
 .debug_str     0x00000000000114ac       0x57 /tmp/cccIfV1j.debug.temp.o
                                        0x362 (size before relaxing)
 .debug_str     0x0000000000011503       0xb8 /tmp/ccvesLzm.debug.temp.o
                                        0x3ca (size before relaxing)
 .debug_str     0x00000000000115bb       0x5d /tmp/ccoYrNRj.debug.temp.o
                                        0x47e (size before relaxing)
 .debug_str     0x0000000000011618      0x11a /tmp/cctPAEao.debug.temp.o
                                        0x571 (size before relaxing)
 .debug_str     0x0000000000011732       0xde /tmp/ccWgit5j.debug.temp.o
                                        0x508 (size before relaxing)
 .debug_str     0x0000000000011810      0x115 /tmp/cc6sn5Ml.debug.temp.o
                                        0x3e0 (size before relaxing)
 .debug_str     0x0000000000011925      0x102 /tmp/cc9SyI5m.debug.temp.o
                                        0x516 (size before relaxing)
 .debug_str     0x0000000000011a27       0xf3 /tmp/cciW1Iao.debug.temp.o
                                        0x5b3 (size before relaxing)
 .debug_str     0x0000000000011b1a      0x278 /tmp/ccUij9Hk.debug.temp.o
                                       0x2174 (size before relaxing)
 .debug_str     0x0000000000011d92      0x15f /tmp/ccuHHpem.debug.temp.o
                                       0x1a6f (size before relaxing)
 .debug_str     0x0000000000011ef1      0x3e3 /tmp/ccackKRl.debug.temp.o
                                       0x1f13 (size before relaxing)
 .debug_str     0x00000000000122d4      0x2ee /tmp/cc8i1ccm.debug.temp.o
                                       0x1885 (size before relaxing)
 .debug_str     0x00000000000125c2      0x1ab /tmp/ccftCXok.debug.temp.o
                                        0x44d (size before relaxing)
 .debug_str     0x000000000001276d      0x197 /tmp/cc1aKqpl.debug.temp.o
                                        0x818 (size before relaxing)

.debug_frame    0x0000000000000000     0x3d98
 .debug_frame   0x0000000000000000     0x1538 /tmp/UiApp.dll.9PSgum.ltrans0.ltrans.o
 .debug_frame   0x0000000000001538      0xfa8 /tmp/UiApp.dll.9PSgum.ltrans1.ltrans.o
 .debug_frame   0x00000000000024e0     0x18b8 /tmp/UiApp.dll.9PSgum.ltrans2.ltrans.o
