Archive member included to satisfy reference by file (symbol)

/home/alastair/pftf-rpi4/Build/RPi4/RELEASE_GCC5/AARCH64/MdePkg/Library/DxeCoreEntryPoint/DxeCoreEntryPoint/OUTPUT/DxeCoreEntryPoint.lib(DxeCoreEntryPoint.obj)
                              (_ModuleEntryPoint)
/home/alastair/pftf-rpi4/Build/RPi4/RELEASE_GCC5/AARCH64/MdePkg/Library/BaseStackCheckLib/BaseStackCheckLib/OUTPUT/BaseStackCheckLib.lib(BaseStackCheckGcc.obj)
                              /home/alastair/pftf-rpi4/edk2/ArmPkg/Library/GccLto/liblto-aarch64.a (__stack_chk_fail)
/home/alastair/pftf-rpi4/Build/RPi4/RELEASE_GCC5/AARCH64/ArmPkg/Library/CompilerIntrinsicsLib/CompilerIntrinsicsLib/OUTPUT/CompilerIntrinsicsLib.lib(memcpy.obj)
                              /home/alastair/pftf-rpi4/edk2/ArmPkg/Library/GccLto/liblto-aarch64.a (memcpy)
/home/alastair/pftf-rpi4/Build/RPi4/RELEASE_GCC5/AARCH64/ArmPkg/Library/CompilerIntrinsicsLib/CompilerIntrinsicsLib/OUTPUT/CompilerIntrinsicsLib.lib(memset.obj)
                              /home/alastair/pftf-rpi4/edk2/ArmPkg/Library/GccLto/liblto-aarch64.a (memset)
/home/alastair/pftf-rpi4/Build/RPi4/RELEASE_GCC5/AARCH64/MdeModulePkg/Core/Dxe/DxeMain/OUTPUT/DxeCore.lib(AutoGen.obj)
                              DxeCoreEntryPoint.obj (symbol from plugin) (ProcessModuleEntryPointList)
/home/alastair/pftf-rpi4/Build/RPi4/RELEASE_GCC5/AARCH64/MdeModulePkg/Core/Dxe/DxeMain/OUTPUT/DxeCore.lib(DxeMain.obj)
                              AutoGen.obj (symbol from plugin) (DxeMain)
/home/alastair/pftf-rpi4/Build/RPi4/RELEASE_GCC5/AARCH64/MdeModulePkg/Core/Dxe/DxeMain/OUTPUT/DxeCore.lib(CoreSectionExtraction.obj)
                              DxeMain.obj (symbol from plugin) (InitializeSectionExtraction)
/home/alastair/pftf-rpi4/Build/RPi4/RELEASE_GCC5/AARCH64/MdeModulePkg/Core/Dxe/DxeMain/OUTPUT/DxeCore.lib(Image.obj)
                              DxeMain.obj (symbol from plugin) (CoreInitializeImageServices)
/home/alastair/pftf-rpi4/Build/RPi4/RELEASE_GCC5/AARCH64/MdeModulePkg/Core/Dxe/DxeMain/OUTPUT/DxeCore.lib(DebugImageInfo.obj)
                              DxeMain.obj (symbol from plugin) (CoreInitializeDebugImageInfoTable)
/home/alastair/pftf-rpi4/Build/RPi4/RELEASE_GCC5/AARCH64/MdeModulePkg/Core/Dxe/DxeMain/OUTPUT/DxeCore.lib(Stall.obj)
                              DxeMain.obj (symbol from plugin) (CoreStall)
/home/alastair/pftf-rpi4/Build/RPi4/RELEASE_GCC5/AARCH64/MdeModulePkg/Core/Dxe/DxeMain/OUTPUT/DxeCore.lib(SetWatchdogTimer.obj)
                              DxeMain.obj (symbol from plugin) (CoreSetWatchdogTimer)
/home/alastair/pftf-rpi4/Build/RPi4/RELEASE_GCC5/AARCH64/MdeModulePkg/Core/Dxe/DxeMain/OUTPUT/DxeCore.lib(InstallConfigurationTable.obj)
                              DxeMain.obj (symbol from plugin) (CoreInstallConfigurationTable)
/home/alastair/pftf-rpi4/Build/RPi4/RELEASE_GCC5/AARCH64/MdeModulePkg/Core/Dxe/DxeMain/OUTPUT/DxeCore.lib(MemoryAttributesTable.obj)
                              DxeMain.obj (symbol from plugin) (CoreInitializeMemoryAttributesTable)
/home/alastair/pftf-rpi4/Build/RPi4/RELEASE_GCC5/AARCH64/MdeModulePkg/Core/Dxe/DxeMain/OUTPUT/DxeCore.lib(MemoryProtection.obj)
                              Image.obj (symbol from plugin) (ProtectUefiImage)
/home/alastair/pftf-rpi4/Build/RPi4/RELEASE_GCC5/AARCH64/MdeModulePkg/Core/Dxe/DxeMain/OUTPUT/DxeCore.lib(Library.obj)
                              MemoryAttributesTable.obj (symbol from plugin) (CoreAcquireLock)
/home/alastair/pftf-rpi4/Build/RPi4/RELEASE_GCC5/AARCH64/MdeModulePkg/Core/Dxe/DxeMain/OUTPUT/DxeCore.lib(DriverSupport.obj)
                              DxeMain.obj (symbol from plugin) (CoreConnectController)
/home/alastair/pftf-rpi4/Build/RPi4/RELEASE_GCC5/AARCH64/MdeModulePkg/Core/Dxe/DxeMain/OUTPUT/DxeCore.lib(Notify.obj)
                              DxeMain.obj (symbol from plugin) (CoreRegisterProtocolNotify)
/home/alastair/pftf-rpi4/Build/RPi4/RELEASE_GCC5/AARCH64/MdeModulePkg/Core/Dxe/DxeMain/OUTPUT/DxeCore.lib(Locate.obj)
                              DxeMain.obj (symbol from plugin) (CoreLocateHandle)
/home/alastair/pftf-rpi4/Build/RPi4/RELEASE_GCC5/AARCH64/MdeModulePkg/Core/Dxe/DxeMain/OUTPUT/DxeCore.lib(Handle.obj)
                              DriverSupport.obj (symbol from plugin) (CoreAcquireProtocolLock)
/home/alastair/pftf-rpi4/Build/RPi4/RELEASE_GCC5/AARCH64/MdeModulePkg/Core/Dxe/DxeMain/OUTPUT/DxeCore.lib(Gcd.obj)
                              MemoryProtection.obj (symbol from plugin) (CoreAcquireGcdMemoryLock)
/home/alastair/pftf-rpi4/Build/RPi4/RELEASE_GCC5/AARCH64/MdeModulePkg/Core/Dxe/DxeMain/OUTPUT/DxeCore.lib(Pool.obj)
                              Gcd.obj (symbol from plugin) (CoreInitializePool)
/home/alastair/pftf-rpi4/Build/RPi4/RELEASE_GCC5/AARCH64/MdeModulePkg/Core/Dxe/DxeMain/OUTPUT/DxeCore.lib(Page.obj)
                              Pool.obj (symbol from plugin) (CoreAcquireMemoryLock)
/home/alastair/pftf-rpi4/Build/RPi4/RELEASE_GCC5/AARCH64/MdeModulePkg/Core/Dxe/DxeMain/OUTPUT/DxeCore.lib(MemData.obj)
                              Page.obj (symbol from plugin) (gMemoryMap)
/home/alastair/pftf-rpi4/Build/RPi4/RELEASE_GCC5/AARCH64/MdeModulePkg/Core/Dxe/DxeMain/OUTPUT/DxeCore.lib(MemoryProfileRecord.obj)
                              DxeMain.obj (symbol from plugin) (MemoryProfileInit)
/home/alastair/pftf-rpi4/Build/RPi4/RELEASE_GCC5/AARCH64/MdeModulePkg/Core/Dxe/DxeMain/OUTPUT/DxeCore.lib(HeapGuard.obj)
                              Gcd.obj (symbol from plugin) (mOnGuarding)
/home/alastair/pftf-rpi4/Build/RPi4/RELEASE_GCC5/AARCH64/MdeModulePkg/Core/Dxe/DxeMain/OUTPUT/DxeCore.lib(FwVolBlock.obj)
                              DxeMain.obj (symbol from plugin) (FwVolBlockDriverInit)
/home/alastair/pftf-rpi4/Build/RPi4/RELEASE_GCC5/AARCH64/MdeModulePkg/Core/Dxe/DxeMain/OUTPUT/DxeCore.lib(FwVol.obj)
                              DxeMain.obj (symbol from plugin) (FwVolDriverInit)
/home/alastair/pftf-rpi4/Build/RPi4/RELEASE_GCC5/AARCH64/MdeModulePkg/Core/Dxe/DxeMain/OUTPUT/DxeCore.lib(Tpl.obj)
                              DxeMain.obj (symbol from plugin) (CoreRaiseTpl)
/home/alastair/pftf-rpi4/Build/RPi4/RELEASE_GCC5/AARCH64/MdeModulePkg/Core/Dxe/DxeMain/OUTPUT/DxeCore.lib(Timer.obj)
                              DxeMain.obj (symbol from plugin) (CoreSetTimer)
/home/alastair/pftf-rpi4/Build/RPi4/RELEASE_GCC5/AARCH64/MdeModulePkg/Core/Dxe/DxeMain/OUTPUT/DxeCore.lib(Event.obj)
                              Tpl.obj (symbol from plugin) (CoreDispatchEventNotifies)
/home/alastair/pftf-rpi4/Build/RPi4/RELEASE_GCC5/AARCH64/MdeModulePkg/Core/Dxe/DxeMain/OUTPUT/DxeCore.lib(Dispatcher.obj)
                              DxeMain.obj (symbol from plugin) (CoreSchedule)
/home/alastair/pftf-rpi4/Build/RPi4/RELEASE_GCC5/AARCH64/MdeModulePkg/Core/Dxe/DxeMain/OUTPUT/DxeCore.lib(DxeProtocolNotify.obj)
                              DxeMain.obj (symbol from plugin) (CoreAllEfiServicesAvailable)
/home/alastair/pftf-rpi4/Build/RPi4/RELEASE_GCC5/AARCH64/MdeModulePkg/Core/Dxe/DxeMain/OUTPUT/DxeCore.lib(FwVolWrite.obj)
                              FwVol.obj (symbol from plugin) (FvWriteFile)
/home/alastair/pftf-rpi4/Build/RPi4/RELEASE_GCC5/AARCH64/MdeModulePkg/Core/Dxe/DxeMain/OUTPUT/DxeCore.lib(FwVolRead.obj)
                              FwVol.obj (symbol from plugin) (FvGetNextFile)
/home/alastair/pftf-rpi4/Build/RPi4/RELEASE_GCC5/AARCH64/MdeModulePkg/Core/Dxe/DxeMain/OUTPUT/DxeCore.lib(FwVolAttrib.obj)
                              FwVol.obj (symbol from plugin) (FvGetVolumeAttributes)
/home/alastair/pftf-rpi4/Build/RPi4/RELEASE_GCC5/AARCH64/MdeModulePkg/Core/Dxe/DxeMain/OUTPUT/DxeCore.lib(Ffs.obj)
                              FwVol.obj (symbol from plugin) (GetFileState)
/home/alastair/pftf-rpi4/Build/RPi4/RELEASE_GCC5/AARCH64/MdeModulePkg/Core/Dxe/DxeMain/OUTPUT/DxeCore.lib(Dependency.obj)
                              Dispatcher.obj (symbol from plugin) (CorePreProcessDepex)
/home/alastair/pftf-rpi4/Build/RPi4/RELEASE_GCC5/AARCH64/MdePkg/Library/BaseDebugLibNull/BaseDebugLibNull/OUTPUT/BaseDebugLibNull.lib(DebugLib.obj)
                              Pool.obj (symbol from plugin) (DebugClearMemory)
/home/alastair/pftf-rpi4/Build/RPi4/RELEASE_GCC5/AARCH64/MdePkg/Library/BaseLib/BaseLib/OUTPUT/BaseLib.lib(CheckSum.obj)
                              Ffs.obj (symbol from plugin) (CalculateSum8)
/home/alastair/pftf-rpi4/Build/RPi4/RELEASE_GCC5/AARCH64/MdePkg/Library/BaseLib/BaseLib/OUTPUT/BaseLib.lib(LongJump.obj)
                              Image.obj (symbol from plugin) (LongJump)
/home/alastair/pftf-rpi4/Build/RPi4/RELEASE_GCC5/AARCH64/MdePkg/Library/BaseLib/BaseLib/OUTPUT/BaseLib.lib(SetJump.obj)
                              LongJump.obj (symbol from plugin) (InternalAssertJumpBuffer)
/home/alastair/pftf-rpi4/Build/RPi4/RELEASE_GCC5/AARCH64/MdePkg/Library/BaseLib/BaseLib/OUTPUT/BaseLib.lib(RShiftU64.obj)
                              Stall.obj (symbol from plugin) (RShiftU64)
/home/alastair/pftf-rpi4/Build/RPi4/RELEASE_GCC5/AARCH64/MdePkg/Library/BaseLib/BaseLib/OUTPUT/BaseLib.lib(MultU64x32.obj)
                              Stall.obj (symbol from plugin) (MultU64x32)
/home/alastair/pftf-rpi4/Build/RPi4/RELEASE_GCC5/AARCH64/MdePkg/Library/BaseLib/BaseLib/OUTPUT/BaseLib.lib(LShiftU64.obj)
                              Image.obj (symbol from plugin) (LShiftU64)
/home/alastair/pftf-rpi4/Build/RPi4/RELEASE_GCC5/AARCH64/MdePkg/Library/BaseLib/BaseLib/OUTPUT/BaseLib.lib(HighBitSet64.obj)
                              Tpl.obj (symbol from plugin) (HighBitSet64)
/home/alastair/pftf-rpi4/Build/RPi4/RELEASE_GCC5/AARCH64/MdePkg/Library/BaseLib/BaseLib/OUTPUT/BaseLib.lib(HighBitSet32.obj)
                              HighBitSet64.obj (symbol from plugin) (HighBitSet32)
/home/alastair/pftf-rpi4/Build/RPi4/RELEASE_GCC5/AARCH64/MdePkg/Library/BaseLib/BaseLib/OUTPUT/BaseLib.lib(DivU64x32Remainder.obj)
                              Stall.obj (symbol from plugin) (DivU64x32Remainder)
/home/alastair/pftf-rpi4/Build/RPi4/RELEASE_GCC5/AARCH64/MdePkg/Library/BaseLib/BaseLib/OUTPUT/BaseLib.lib(CpuDeadLoop.obj)
                              DxeCoreEntryPoint.obj (symbol from plugin) (CpuDeadLoop)
/home/alastair/pftf-rpi4/Build/RPi4/RELEASE_GCC5/AARCH64/MdePkg/Library/BaseLib/BaseLib/OUTPUT/BaseLib.lib(LinkedList.obj)
                              CoreSectionExtraction.obj (symbol from plugin) (InitializeListHead)
/home/alastair/pftf-rpi4/Build/RPi4/RELEASE_GCC5/AARCH64/MdePkg/Library/BaseLib/BaseLib/OUTPUT/BaseLib.lib(String.obj)
                              MemoryProfileRecord.obj (symbol from plugin) (AsciiStrSize)
/home/alastair/pftf-rpi4/Build/RPi4/RELEASE_GCC5/AARCH64/MdePkg/Library/BaseLib/BaseLib/OUTPUT/BaseLib.lib(Unaligned.obj)
                              Dispatcher.obj (symbol from plugin) (ReadUnaligned16)
/home/alastair/pftf-rpi4/Build/RPi4/RELEASE_GCC5/AARCH64/MdePkg/Library/BaseLib/BaseLib/OUTPUT/BaseLib.lib(Math64.obj)
                              LShiftU64.obj (symbol from plugin) (InternalMathLShiftU64)
/home/alastair/pftf-rpi4/Build/RPi4/RELEASE_GCC5/AARCH64/MdePkg/Library/BaseLib/BaseLib/OUTPUT/BaseLib.lib(SetJumpLongJump.obj)
                              Image.obj (symbol from plugin) (SetJump)
/home/alastair/pftf-rpi4/Build/RPi4/RELEASE_GCC5/AARCH64/MdePkg/Library/BaseLib/BaseLib/OUTPUT/BaseLib.lib(CpuBreakpoint.obj)
                              BaseStackCheckGcc.obj (symbol from plugin) (CpuBreakpoint)
/home/alastair/pftf-rpi4/Build/RPi4/RELEASE_GCC5/AARCH64/MdePkg/Library/BaseLib/BaseLib/OUTPUT/BaseLib.lib(SwapBytes32.obj)
                              Math64.obj (symbol from plugin) (SwapBytes32)
/home/alastair/pftf-rpi4/Build/RPi4/RELEASE_GCC5/AARCH64/MdePkg/Library/BaseLib/BaseLib/OUTPUT/BaseLib.lib(SwapBytes16.obj)
                              SwapBytes32.obj (symbol from plugin) (SwapBytes16)
/home/alastair/pftf-rpi4/Build/RPi4/RELEASE_GCC5/AARCH64/MdePkg/Library/BaseLib/BaseLib/OUTPUT/BaseLib.lib(SafeString.obj)
                              String.obj (symbol from plugin) (StrDecimalToUintnS)
/home/alastair/pftf-rpi4/Build/RPi4/RELEASE_GCC5/AARCH64/MdePkg/Library/BaseLib/BaseLib/OUTPUT/BaseLib.lib(DivU64x32.obj)
                              SafeString.obj (symbol from plugin) (DivU64x32)
/home/alastair/pftf-rpi4/Build/RPi4/RELEASE_GCC5/AARCH64/MdePkg/Library/BaseMemoryLibOptDxe/BaseMemoryLibOptDxe/OUTPUT/BaseMemoryLibOptDxe.lib(MemLibGuid.obj)
                              InstallConfigurationTable.obj (symbol from plugin) (CopyGuid)
/home/alastair/pftf-rpi4/Build/RPi4/RELEASE_GCC5/AARCH64/MdePkg/Library/BaseMemoryLibOptDxe/BaseMemoryLibOptDxe/OUTPUT/BaseMemoryLibOptDxe.lib(ZeroMemWrapper.obj)
                              DxeMain.obj (symbol from plugin) (ZeroMem)
/home/alastair/pftf-rpi4/Build/RPi4/RELEASE_GCC5/AARCH64/MdePkg/Library/BaseMemoryLibOptDxe/BaseMemoryLibOptDxe/OUTPUT/BaseMemoryLibOptDxe.lib(CompareMemWrapper.obj)
                              Locate.obj (symbol from plugin) (CompareMem)
/home/alastair/pftf-rpi4/Build/RPi4/RELEASE_GCC5/AARCH64/MdePkg/Library/BaseMemoryLibOptDxe/BaseMemoryLibOptDxe/OUTPUT/BaseMemoryLibOptDxe.lib(SetMem64Wrapper.obj)
                              HeapGuard.obj (symbol from plugin) (SetMem64)
/home/alastair/pftf-rpi4/Build/RPi4/RELEASE_GCC5/AARCH64/MdePkg/Library/BaseMemoryLibOptDxe/BaseMemoryLibOptDxe/OUTPUT/BaseMemoryLibOptDxe.lib(SetMemWrapper.obj)
                              DxeMain.obj (symbol from plugin) (SetMem)
/home/alastair/pftf-rpi4/Build/RPi4/RELEASE_GCC5/AARCH64/MdePkg/Library/BaseMemoryLibOptDxe/BaseMemoryLibOptDxe/OUTPUT/BaseMemoryLibOptDxe.lib(CopyMemWrapper.obj)
                              DxeMain.obj (symbol from plugin) (CopyMem)
/home/alastair/pftf-rpi4/Build/RPi4/RELEASE_GCC5/AARCH64/MdePkg/Library/BaseMemoryLibOptDxe/BaseMemoryLibOptDxe/OUTPUT/BaseMemoryLibOptDxe.lib(SetMem.obj)
                              SetMem64Wrapper.obj (symbol from plugin) (InternalMemSetMem64)
/home/alastair/pftf-rpi4/Build/RPi4/RELEASE_GCC5/AARCH64/MdePkg/Library/BaseMemoryLibOptDxe/BaseMemoryLibOptDxe/OUTPUT/BaseMemoryLibOptDxe.lib(CopyMem.obj)
                              MemLibGuid.obj (symbol from plugin) (InternalMemCopyMem)
/home/alastair/pftf-rpi4/Build/RPi4/RELEASE_GCC5/AARCH64/MdePkg/Library/BaseMemoryLibOptDxe/BaseMemoryLibOptDxe/OUTPUT/BaseMemoryLibOptDxe.lib(CompareMem.obj)
                              CompareMemWrapper.obj (symbol from plugin) (InternalMemCompareMem)
/home/alastair/pftf-rpi4/Build/RPi4/RELEASE_GCC5/AARCH64/MdePkg/Library/BaseMemoryLibOptDxe/BaseMemoryLibOptDxe/OUTPUT/BaseMemoryLibOptDxe.lib(CompareGuid.obj)
                              MemLibGuid.obj (symbol from plugin) (InternalMemCompareGuid)
/home/alastair/pftf-rpi4/Build/RPi4/RELEASE_GCC5/AARCH64/MdePkg/Library/UefiBootServicesTableLib/UefiBootServicesTableLib/OUTPUT/UefiBootServicesTableLib.lib(UefiBootServicesTableLib.obj)
                              AutoGen.obj (symbol from plugin) (UefiBootServicesTableLibConstructor)
/home/alastair/pftf-rpi4/Build/RPi4/RELEASE_GCC5/AARCH64/MdeModulePkg/Library/DxeCoreMemoryAllocationLib/DxeCoreMemoryAllocationLib/OUTPUT/DxeCoreMemoryAllocationLib.lib(MemoryAllocationLib.obj)
                              Dispatcher.obj (symbol from plugin) (AllocateAlignedPages)
/home/alastair/pftf-rpi4/Build/RPi4/RELEASE_GCC5/AARCH64/MdeModulePkg/Library/DxeCoreMemoryAllocationLib/DxeCoreMemoryAllocationLib/OUTPUT/DxeCoreMemoryAllocationLib.lib(DxeCoreMemoryProfileLibNull.obj)
                              MemoryAllocationLib.obj (symbol from plugin) (MemoryProfileLibRecord)
/home/alastair/pftf-rpi4/Build/RPi4/RELEASE_GCC5/AARCH64/MdePkg/Library/UefiRuntimeServicesTableLib/UefiRuntimeServicesTableLib/OUTPUT/UefiRuntimeServicesTableLib.lib(UefiRuntimeServicesTableLib.obj)
                              AutoGen.obj (symbol from plugin) (UefiRuntimeServicesTableLibConstructor)
/home/alastair/pftf-rpi4/Build/RPi4/RELEASE_GCC5/AARCH64/MdePkg/Library/UefiDevicePathLib/UefiDevicePathLib/OUTPUT/UefiDevicePathLib.lib(DevicePathUtilities.obj)
                              MemoryProfileRecord.obj (symbol from plugin) (DevicePathSubType)
/home/alastair/pftf-rpi4/Build/RPi4/RELEASE_GCC5/AARCH64/MdePkg/Library/UefiDevicePathLib/UefiDevicePathLib/OUTPUT/UefiDevicePathLib.lib(DevicePathUtilitiesDxeSmm.obj)
                              Image.obj (symbol from plugin) (DevicePathFromHandle)
/home/alastair/pftf-rpi4/Build/RPi4/RELEASE_GCC5/AARCH64/MdePkg/Library/UefiDevicePathLib/UefiDevicePathLib/OUTPUT/UefiDevicePathLib.lib(UefiDevicePathLib.obj)
                              Image.obj (symbol from plugin) (GetDevicePathSize)
/home/alastair/pftf-rpi4/Build/RPi4/RELEASE_GCC5/AARCH64/MdePkg/Library/UefiDevicePathLib/UefiDevicePathLib/OUTPUT/UefiDevicePathLib.lib(DevicePathToText.obj)
                              UefiDevicePathLib.obj (symbol from plugin) (UefiDevicePathLibConvertDeviceNodeToText)
/home/alastair/pftf-rpi4/Build/RPi4/RELEASE_GCC5/AARCH64/MdePkg/Library/UefiDevicePathLib/UefiDevicePathLib/OUTPUT/UefiDevicePathLib.lib(DevicePathFromText.obj)
                              UefiDevicePathLib.obj (symbol from plugin) (UefiDevicePathLibConvertTextToDeviceNode)
/home/alastair/pftf-rpi4/Build/RPi4/RELEASE_GCC5/AARCH64/MdePkg/Library/BasePeCoffGetEntryPointLib/BasePeCoffGetEntryPointLib/OUTPUT/BasePeCoffGetEntryPointLib.lib(PeCoffGetEntryPoint.obj)
                              DxeMain.obj (symbol from plugin) (PeCoffLoaderGetEntryPoint)
/home/alastair/pftf-rpi4/Build/RPi4/RELEASE_GCC5/AARCH64/MdePkg/Library/UefiLib/UefiLib/OUTPUT/UefiLib.lib(UefiNotTiano.obj)
                              MemoryProfileRecord.obj (symbol from plugin) (EfiGetNameGuidFromFwVolDevicePathNode)
/home/alastair/pftf-rpi4/Build/RPi4/RELEASE_GCC5/AARCH64/MdePkg/Library/UefiLib/UefiLib/OUTPUT/UefiLib.lib(UefiLib.obj)
                              Event.obj (symbol from plugin) (EfiEventEmptyFunction)
/home/alastair/pftf-rpi4/Build/RPi4/RELEASE_GCC5/AARCH64/ArmPkg/Library/ArmArchTimerLib/ArmArchTimerLib/OUTPUT/ArmArchTimerLib.lib(ArmArchTimerLib.obj)
                              AutoGen.obj (symbol from plugin) (TimerConstructor)
/home/alastair/pftf-rpi4/Build/RPi4/RELEASE_GCC5/AARCH64/MdePkg/Library/DxeServicesLib/DxeServicesLib/OUTPUT/DxeServicesLib.lib(DxeServicesLib.obj)
                              Image.obj (symbol from plugin) (GetFileBufferByFilePath)
/home/alastair/pftf-rpi4/Build/RPi4/RELEASE_GCC5/AARCH64/MdePkg/Library/BaseReportStatusCodeLibNull/BaseReportStatusCodeLibNull/OUTPUT/BaseReportStatusCodeLibNull.lib(BaseReportStatusCodeLib.obj)
                              DxeMain.obj (symbol from plugin) (ReportStatusCode)
/home/alastair/pftf-rpi4/Build/RPi4/RELEASE_GCC5/AARCH64/MdePkg/Library/DxeCoreHobLib/DxeCoreHobLib/OUTPUT/DxeCoreHobLib.lib(HobLib.obj)
                              MemoryProtection.obj (symbol from plugin) (GetHobList)
/home/alastair/pftf-rpi4/Build/RPi4/RELEASE_GCC5/AARCH64/ArmPkg/Library/DebugPeCoffExtraActionLib/DebugPeCoffExtraActionLib/OUTPUT/DebugUnixPeCoffExtraActionLib.lib(DebugPeCoffExtraActionLib.obj)
                              DxeMain.obj (symbol from plugin) (PeCoffLoaderRelocateImageExtraAction)
/home/alastair/pftf-rpi4/Build/RPi4/RELEASE_GCC5/AARCH64/ArmPkg/Library/ArmCacheMaintenanceLib/ArmCacheMaintenanceLib/OUTPUT/ArmCacheMaintenanceLib.lib(ArmCacheMaintenanceLib.obj)
                              Image.obj (symbol from plugin) (InvalidateInstructionCacheRange)
/home/alastair/pftf-rpi4/Build/RPi4/RELEASE_GCC5/AARCH64/MdePkg/Library/DxeExtractGuidedSectionLib/DxeExtractGuidedSectionLib/OUTPUT/DxeExtractGuidedSectionLib.lib(DxeExtractGuidedSectionLib.obj)
                              AutoGen.obj (symbol from plugin) (DxeExtractGuidedSectionLibConstructor)
/home/alastair/pftf-rpi4/Build/RPi4/RELEASE_GCC5/AARCH64/MdePkg/Library/BaseUefiDecompressLib/BaseUefiDecompressLib/OUTPUT/BaseUefiDecompressLib.lib(BaseUefiDecompressLib.obj)
                              DxeMain.obj (symbol from plugin) (UefiDecompressGetInfo)
/home/alastair/pftf-rpi4/Build/RPi4/RELEASE_GCC5/AARCH64/MdeModulePkg/Library/DxeCorePerformanceLib/DxeCorePerformanceLib/OUTPUT/DxeCorePerformanceLib.lib(DxeCorePerformanceLib.obj)
                              AutoGen.obj (symbol from plugin) (DxeCorePerformanceLibConstructor)
/home/alastair/pftf-rpi4/Build/RPi4/RELEASE_GCC5/AARCH64/MdePkg/Library/BasePeCoffLib/BasePeCoffLib/OUTPUT/BasePeCoffLib.lib(BasePeCoff.obj)
                              Image.obj (symbol from plugin) (PeCoffLoaderGetImageInfo)
/home/alastair/pftf-rpi4/Build/RPi4/RELEASE_GCC5/AARCH64/MdePkg/Library/BasePeCoffLib/BasePeCoffLib/OUTPUT/BasePeCoffLib.lib(PeCoffLoaderEx.obj)
                              BasePeCoff.obj (symbol from plugin) (PeCoffLoaderRelocateImageEx)
/home/alastair/pftf-rpi4/Build/RPi4/RELEASE_GCC5/AARCH64/MdeModulePkg/Library/DebugAgentLibNull/DebugAgentLibNull/OUTPUT/DebugAgentLibNull.lib(DebugAgentLibNull.obj)
                              DxeMain.obj (symbol from plugin) (InitializeDebugAgent)
/home/alastair/pftf-rpi4/Build/RPi4/RELEASE_GCC5/AARCH64/ArmPkg/Library/ArmExceptionLib/ArmExceptionLib/OUTPUT/ArmExceptionLib.lib(ArmExceptionLib.obj)
                              DxeMain.obj (symbol from plugin) (InitializeCpuExceptionHandlersEx)
/home/alastair/pftf-rpi4/Build/RPi4/RELEASE_GCC5/AARCH64/ArmPkg/Library/ArmExceptionLib/ArmExceptionLib/OUTPUT/ArmExceptionLib.lib(AArch64Exception.obj)
                              ArmExceptionLib.obj (symbol from plugin) (ArchVectorConfig)
/home/alastair/pftf-rpi4/Build/RPi4/RELEASE_GCC5/AARCH64/ArmPkg/Library/ArmExceptionLib/ArmExceptionLib/OUTPUT/ArmExceptionLib.lib(ExceptionSupport.obj)
                              AArch64Exception.obj (symbol from plugin) (RegisterEl0Stack)
/home/alastair/pftf-rpi4/Build/RPi4/RELEASE_GCC5/AARCH64/MdeModulePkg/Library/DxeCrc32GuidedSectionExtractLib/DxeCrc32GuidedSectionExtractLib/OUTPUT/DxeCrc32GuidedSectionExtractLib.lib(DxeCrc32GuidedSectionExtractLib.obj)
                              AutoGen.obj (symbol from plugin) (DxeCrc32GuidedSectionExtractLibConstructor)
/home/alastair/pftf-rpi4/Build/RPi4/RELEASE_GCC5/AARCH64/MdePkg/Library/BaseLib/BaseLib/OUTPUT/BaseLib.lib(SwapBytes64.obj)
                              DevicePathFromText.obj (symbol from plugin) (SwapBytes64)
/home/alastair/pftf-rpi4/Build/RPi4/RELEASE_GCC5/AARCH64/MdePkg/Library/BaseLib/BaseLib/OUTPUT/BaseLib.lib(MultU64x64.obj)
                              ArmArchTimerLib.obj (symbol from plugin) (MultU64x64)
/home/alastair/pftf-rpi4/Build/RPi4/RELEASE_GCC5/AARCH64/MdePkg/Library/BaseMemoryLibOptDxe/BaseMemoryLibOptDxe/OUTPUT/BaseMemoryLibOptDxe.lib(SetMem16Wrapper.obj)
                              BaseUefiDecompressLib.obj (symbol from plugin) (SetMem16)
/home/alastair/pftf-rpi4/Build/RPi4/RELEASE_GCC5/AARCH64/MdePkg/Library/BasePrintLib/BasePrintLib/OUTPUT/BasePrintLib.lib(PrintLib.obj)
                              DevicePathToText.obj (symbol from plugin) (UnicodeVSPrint)
/home/alastair/pftf-rpi4/Build/RPi4/RELEASE_GCC5/AARCH64/MdePkg/Library/BasePrintLib/BasePrintLib/OUTPUT/BasePrintLib.lib(PrintLibInternal.obj)
                              PrintLib.obj (symbol from plugin) (BasePrintLibConvertValueToStringS)
/home/alastair/pftf-rpi4/Build/RPi4/RELEASE_GCC5/AARCH64/ArmPkg/Library/ArmLib/ArmBaseLib/OUTPUT/ArmBaseLib.lib(ArmLib.obj)
                              ArmCacheMaintenanceLib.obj (symbol from plugin) (ArmDataCacheLineLength)
/home/alastair/pftf-rpi4/Build/RPi4/RELEASE_GCC5/AARCH64/ArmPkg/Library/ArmLib/ArmBaseLib/OUTPUT/ArmBaseLib.lib(ArmLibSupport.obj)
                              ArmLib.obj (symbol from plugin) (ArmCacheInfo)
/home/alastair/pftf-rpi4/Build/RPi4/RELEASE_GCC5/AARCH64/ArmPkg/Library/ArmLib/ArmBaseLib/OUTPUT/ArmBaseLib.lib(AArch64Support.obj)
                              ArmCacheMaintenanceLib.obj (symbol from plugin) (ArmInvalidateDataCacheEntryByMVA)
/home/alastair/pftf-rpi4/Build/RPi4/RELEASE_GCC5/AARCH64/ArmPkg/Library/ArmGenericTimerPhyCounterLib/ArmGenericTimerPhyCounterLib/OUTPUT/ArmGenericTimerPhyCounterLib.lib(ArmGenericTimerPhyCounterLib.obj)
                              ArmArchTimerLib.obj (symbol from plugin) (ArmGenericTimerGetTimerFreq)
/home/alastair/pftf-rpi4/Build/RPi4/RELEASE_GCC5/AARCH64/MdePkg/Library/DxeServicesLib/DxeServicesLib/OUTPUT/DxeServicesLib.lib(Allocate.obj)
                              DxeCorePerformanceLib.obj (symbol from plugin) (AllocatePeiAccessiblePages)
/home/alastair/pftf-rpi4/Build/RPi4/RELEASE_GCC5/AARCH64/ArmPkg/Library/DefaultExceptionHandlerLib/DefaultExceptionHandlerLib/OUTPUT/DefaultExceptionHandlerLib.lib(DefaultExceptionHandler.obj)
                              ArmExceptionLib.obj (symbol from plugin) (DefaultExceptionHandler)
/home/alastair/pftf-rpi4/Build/RPi4/RELEASE_GCC5/AARCH64/ArmPkg/Library/DefaultExceptionHandlerLib/DefaultExceptionHandlerLib/OUTPUT/DefaultExceptionHandlerLib.lib(DefaultExceptionHandlerUefi.obj)
                              DefaultExceptionHandler.obj (symbol from plugin) (GetImageName)
/home/alastair/pftf-rpi4/Build/RPi4/RELEASE_GCC5/AARCH64/ArmPkg/Library/ArmLib/ArmBaseLib/OUTPUT/ArmBaseLib.lib(AArch64ArchTimerSupport.obj)
                              ArmGenericTimerPhyCounterLib.obj (symbol from plugin) (ArmReadCntFrq)
/home/alastair/pftf-rpi4/Build/RPi4/RELEASE_GCC5/AARCH64/MdePkg/Library/UefiLib/UefiLib/OUTPUT/UefiLib.lib(UefiLibPrint.obj)
                              DefaultExceptionHandler.obj (symbol from plugin) (AsciiPrint)
/home/alastair/pftf-rpi4/Build/RPi4/RELEASE_GCC5/AARCH64/Platform/RaspberryPi/Library/DualSerialPortLib/DebugDualSerialPortLib/OUTPUT/DebugDualSerialPortLib.lib(DualSerialPortLibCommon.obj)
                              DefaultExceptionHandler.obj (symbol from plugin) (SerialPortWrite)
/home/alastair/pftf-rpi4/Build/RPi4/RELEASE_GCC5/AARCH64/MdePkg/Library/BaseIoLibIntrinsic/BaseIoLibIntrinsic/OUTPUT/BaseIoLibIntrinsic.lib(IoLibNoIo.obj)
                              DualSerialPortLibCommon.obj (symbol from plugin) (MmioRead8)
/home/alastair/pftf-rpi4/Build/RPi4/RELEASE_GCC5/AARCH64/ArmPlatformPkg/Library/PL011UartLib/PL011UartLib/OUTPUT/PL011UartLib.lib(PL011UartLib.obj)
                              DualSerialPortLibCommon.obj (symbol from plugin) (PL011UartWrite)

Discarded input sections

 .text          0x0000000000000000       0x10 /home/alastair/pftf-rpi4/edk2/ArmPkg/Library/GccLto/liblto-aarch64.a
 .data          0x0000000000000000        0x0 /home/alastair/pftf-rpi4/edk2/ArmPkg/Library/GccLto/liblto-aarch64.a
 .bss           0x0000000000000000        0x0 /home/alastair/pftf-rpi4/edk2/ArmPkg/Library/GccLto/liblto-aarch64.a
 .text          0x0000000000000000        0x0 /tmp/DxeCore.dll.yq5Mi7.ltrans0.ltrans.o
 .data          0x0000000000000000        0x0 /tmp/DxeCore.dll.yq5Mi7.ltrans0.ltrans.o
 .bss           0x0000000000000000        0x0 /tmp/DxeCore.dll.yq5Mi7.ltrans0.ltrans.o
 .text.ReportStatusCodeWithExtendedData.constprop.0
                0x0000000000000000        0x8 /tmp/DxeCore.dll.yq5Mi7.ltrans0.ltrans.o
 .text.ReportStatusCodeEx.constprop.0
                0x0000000000000000        0x8 /tmp/DxeCore.dll.yq5Mi7.ltrans0.ltrans.o
 .text.ProfileProtocolSetRecordingState
                0x0000000000000000       0x28 /tmp/DxeCore.dll.yq5Mi7.ltrans0.ltrans.o
 .text.ProfileProtocolGetRecordingState
                0x0000000000000000       0x38 /tmp/DxeCore.dll.yq5Mi7.ltrans0.ltrans.o
 .text.ProfileProtocolRecord
                0x0000000000000000       0x18 /tmp/DxeCore.dll.yq5Mi7.ltrans0.ltrans.o
 .text.ReportStatusCode.constprop.0
                0x0000000000000000        0x8 /tmp/DxeCore.dll.yq5Mi7.ltrans0.ltrans.o
 .text.DebugClearMemory.constprop.0
                0x0000000000000000        0x4 /tmp/DxeCore.dll.yq5Mi7.ltrans0.ltrans.o
 .text.InternalAssertJumpBuffer.constprop.0
                0x0000000000000000        0x4 /tmp/DxeCore.dll.yq5Mi7.ltrans0.ltrans.o
 .text.InitializeDebugAgent.constprop.0
                0x0000000000000000        0x4 /tmp/DxeCore.dll.yq5Mi7.ltrans0.ltrans.o
 .text.SaveAndSetDebugTimerInterrupt.constprop.0
                0x0000000000000000        0x8 /tmp/DxeCore.dll.yq5Mi7.ltrans0.ltrans.o
 .text.PeCoffLoaderUnloadImage
                0x0000000000000000        0x8 /tmp/DxeCore.dll.yq5Mi7.ltrans0.ltrans.o
 .text.PeCoffLoaderGetMachineType
                0x0000000000000000       0x50 /tmp/DxeCore.dll.yq5Mi7.ltrans0.ltrans.o
 .text.ProfileProtocolUnregisterImage
                0x0000000000000000       0x88 /tmp/DxeCore.dll.yq5Mi7.ltrans0.ltrans.o
 .text.ProfileProtocolRegisterImage
                0x0000000000000000       0xa4 /tmp/DxeCore.dll.yq5Mi7.ltrans0.ltrans.o
 .text.GetImageName
                0x0000000000000000       0xf8 /tmp/DxeCore.dll.yq5Mi7.ltrans0.ltrans.o
 .text.ProfileProtocolGetData
                0x0000000000000000      0x194 /tmp/DxeCore.dll.yq5Mi7.ltrans0.ltrans.o
 .text.IsMemoryTypeToGuard.part.0
                0x0000000000000000       0x7c /tmp/DxeCore.dll.yq5Mi7.ltrans0.ltrans.o
 .text.IsMemoryGuarded
                0x0000000000000000       0x7c /tmp/DxeCore.dll.yq5Mi7.ltrans0.ltrans.o
 .text.GetFileNameFromFilePath.part.0
                0x0000000000000000       0x58 /tmp/DxeCore.dll.yq5Mi7.ltrans0.ltrans.o
 .bss.mMemoryProfileContextPtr
                0x0000000000000000        0x8 /tmp/DxeCore.dll.yq5Mi7.ltrans0.ltrans.o
 .bss.mMemoryProfileGettingStatus
                0x0000000000000000        0x1 /tmp/DxeCore.dll.yq5Mi7.ltrans0.ltrans.o
 .bss.mMemoryProfileRecordingEnable
                0x0000000000000000        0x1 /tmp/DxeCore.dll.yq5Mi7.ltrans0.ltrans.o
 .rodata._gPcd_FixedAtBuild_PcdEdkiiFpdtStringRecordEnableOnly
                0x0000000000000000        0x1 /tmp/DxeCore.dll.yq5Mi7.ltrans0.ltrans.o
 .rodata._gPcd_FixedAtBuild_PcdHeapGuardPoolType
                0x0000000000000000        0x8 /tmp/DxeCore.dll.yq5Mi7.ltrans0.ltrans.o
 .rodata._gPcd_FixedAtBuild_PcdPerformanceLibraryPropertyMask
                0x0000000000000000        0x1 /tmp/DxeCore.dll.yq5Mi7.ltrans0.ltrans.o
 .rodata.gDxeCoreDS
                0x0000000000000000        0x8 /tmp/DxeCore.dll.yq5Mi7.ltrans0.ltrans.o
 .comment       0x0000000000000000       0x2b /tmp/DxeCore.dll.yq5Mi7.ltrans0.ltrans.o
 .note.GNU-stack
                0x0000000000000000        0x0 /tmp/DxeCore.dll.yq5Mi7.ltrans0.ltrans.o
 .text          0x0000000000000000        0x0 /tmp/DxeCore.dll.yq5Mi7.ltrans1.ltrans.o
 .data          0x0000000000000000        0x0 /tmp/DxeCore.dll.yq5Mi7.ltrans1.ltrans.o
 .bss           0x0000000000000000        0x0 /tmp/DxeCore.dll.yq5Mi7.ltrans1.ltrans.o
 .text.GetMemoryProfileAllocInfoFromAddress
                0x0000000000000000       0x7c /tmp/DxeCore.dll.yq5Mi7.ltrans1.ltrans.o
 .text.GetMemoryProfileDriverInfoFromAddress
                0x0000000000000000       0x48 /tmp/DxeCore.dll.yq5Mi7.ltrans1.ltrans.o
 .text.GetPermissionAttributeForMemoryType
                0x0000000000000000        0x8 /tmp/DxeCore.dll.yq5Mi7.ltrans1.ltrans.o
 .text.NeedRecordThisDriver
                0x0000000000000000       0xc4 /tmp/DxeCore.dll.yq5Mi7.ltrans1.ltrans.o
 .text.InternalPeCoffGetEntryPoint
                0x0000000000000000       0x70 /tmp/DxeCore.dll.yq5Mi7.ltrans1.ltrans.o
 .text.InternalPeCoffGetSubsystem
                0x0000000000000000       0x64 /tmp/DxeCore.dll.yq5Mi7.ltrans1.ltrans.o
 .text.__memset
                0x0000000000000000       0x1c /tmp/DxeCore.dll.yq5Mi7.ltrans1.ltrans.o
 .text.CoreUpdateProfileAllocate
                0x0000000000000000      0x250 /tmp/DxeCore.dll.yq5Mi7.ltrans1.ltrans.o
 .text.BuildDriverInfo
                0x0000000000000000      0x204 /tmp/DxeCore.dll.yq5Mi7.ltrans1.ltrans.o
 .text.RegisterMemoryProfileImage
                0x0000000000000000        0x8 /tmp/DxeCore.dll.yq5Mi7.ltrans1.ltrans.o
 .text.CoreUpdateProfileFree
                0x0000000000000000      0x214 /tmp/DxeCore.dll.yq5Mi7.ltrans1.ltrans.o
 .text.CoreUpdateProfile
                0x0000000000000000        0x8 /tmp/DxeCore.dll.yq5Mi7.ltrans1.ltrans.o
 .text.UnregisterMemoryProfileImage
                0x0000000000000000        0x8 /tmp/DxeCore.dll.yq5Mi7.ltrans1.ltrans.o
 .text.DisableNullDetectionAtTheEndOfDxe
                0x0000000000000000       0x90 /tmp/DxeCore.dll.yq5Mi7.ltrans1.ltrans.o
 .bss._gPcd_BinaryPatch_PcdLoadFixAddressBootTimeCodePageNumber
                0x0000000000000000        0x4 /tmp/DxeCore.dll.yq5Mi7.ltrans1.ltrans.o
 .bss._gPcd_BinaryPatch_PcdLoadFixAddressRuntimeCodePageNumber
                0x0000000000000000        0x4 /tmp/DxeCore.dll.yq5Mi7.ltrans1.ltrans.o
 .bss.mMemoryProfileDriverPath
                0x0000000000000000        0x8 /tmp/DxeCore.dll.yq5Mi7.ltrans1.ltrans.o
 .bss.mMemoryProfileDriverPathSize
                0x0000000000000000        0x8 /tmp/DxeCore.dll.yq5Mi7.ltrans1.ltrans.o
 .comment       0x0000000000000000       0x2b /tmp/DxeCore.dll.yq5Mi7.ltrans1.ltrans.o
 .note.GNU-stack
                0x0000000000000000        0x0 /tmp/DxeCore.dll.yq5Mi7.ltrans1.ltrans.o
 .comment       0x0000000000000000       0x2b /tmp/cc2Hi0f9.debug.temp.o
 .note.GNU-stack
                0x0000000000000000        0x0 /tmp/cc2Hi0f9.debug.temp.o
 .comment       0x0000000000000000       0x2b /tmp/ccy6pla9.debug.temp.o
 .note.GNU-stack
                0x0000000000000000        0x0 /tmp/ccy6pla9.debug.temp.o
 .comment       0x0000000000000000       0x2b /tmp/ccUW7uR9.debug.temp.o
 .note.GNU-stack
                0x0000000000000000        0x0 /tmp/ccUW7uR9.debug.temp.o
 .comment       0x0000000000000000       0x2b /tmp/ccDs5hC8.debug.temp.o
 .note.GNU-stack
                0x0000000000000000        0x0 /tmp/ccDs5hC8.debug.temp.o
 .comment       0x0000000000000000       0x2b /tmp/cc9Xw6N9.debug.temp.o
 .note.GNU-stack
                0x0000000000000000        0x0 /tmp/cc9Xw6N9.debug.temp.o
 .comment       0x0000000000000000       0x2b /tmp/ccTyOHPa.debug.temp.o
 .note.GNU-stack
                0x0000000000000000        0x0 /tmp/ccTyOHPa.debug.temp.o
 .comment       0x0000000000000000       0x2b /tmp/cctaE2x6.debug.temp.o
 .note.GNU-stack
                0x0000000000000000        0x0 /tmp/cctaE2x6.debug.temp.o
 .comment       0x0000000000000000       0x2b /tmp/ccFLcnH9.debug.temp.o
 .note.GNU-stack
                0x0000000000000000        0x0 /tmp/ccFLcnH9.debug.temp.o
 .comment       0x0000000000000000       0x2b /tmp/ccgZIt57.debug.temp.o
 .note.GNU-stack
                0x0000000000000000        0x0 /tmp/ccgZIt57.debug.temp.o
 .comment       0x0000000000000000       0x2b /tmp/ccQZ6di6.debug.temp.o
 .note.GNU-stack
                0x0000000000000000        0x0 /tmp/ccQZ6di6.debug.temp.o
 .comment       0x0000000000000000       0x2b /tmp/ccRYXtO7.debug.temp.o
 .note.GNU-stack
                0x0000000000000000        0x0 /tmp/ccRYXtO7.debug.temp.o
 .comment       0x0000000000000000       0x2b /tmp/ccNesjV7.debug.temp.o
 .note.GNU-stack
                0x0000000000000000        0x0 /tmp/ccNesjV7.debug.temp.o
 .comment       0x0000000000000000       0x2b /tmp/ccx7YdW9.debug.temp.o
 .note.GNU-stack
                0x0000000000000000        0x0 /tmp/ccx7YdW9.debug.temp.o
 .comment       0x0000000000000000       0x2b /tmp/ccfEJTA7.debug.temp.o
 .note.GNU-stack
                0x0000000000000000        0x0 /tmp/ccfEJTA7.debug.temp.o
 .comment       0x0000000000000000       0x2b /tmp/ccDnCFFa.debug.temp.o
 .note.GNU-stack
                0x0000000000000000        0x0 /tmp/ccDnCFFa.debug.temp.o
 .comment       0x0000000000000000       0x2b /tmp/ccojMSI7.debug.temp.o
 .note.GNU-stack
                0x0000000000000000        0x0 /tmp/ccojMSI7.debug.temp.o
 .comment       0x0000000000000000       0x2b /tmp/ccVlDA86.debug.temp.o
 .note.GNU-stack
                0x0000000000000000        0x0 /tmp/ccVlDA86.debug.temp.o
 .comment       0x0000000000000000       0x2b /tmp/ccyzx0v6.debug.temp.o
 .note.GNU-stack
                0x0000000000000000        0x0 /tmp/ccyzx0v6.debug.temp.o
 .comment       0x0000000000000000       0x2b /tmp/ccL3gad7.debug.temp.o
 .note.GNU-stack
                0x0000000000000000        0x0 /tmp/ccL3gad7.debug.temp.o
 .comment       0x0000000000000000       0x2b /tmp/ccWFChr8.debug.temp.o
 .note.GNU-stack
                0x0000000000000000        0x0 /tmp/ccWFChr8.debug.temp.o
 .comment       0x0000000000000000       0x2b /tmp/cc9XuPv8.debug.temp.o
 .note.GNU-stack
                0x0000000000000000        0x0 /tmp/cc9XuPv8.debug.temp.o
 .comment       0x0000000000000000       0x2b /tmp/ccb5VQU8.debug.temp.o
 .note.GNU-stack
                0x0000000000000000        0x0 /tmp/ccb5VQU8.debug.temp.o
 .comment       0x0000000000000000       0x2b /tmp/cc2HSl78.debug.temp.o
 .note.GNU-stack
                0x0000000000000000        0x0 /tmp/cc2HSl78.debug.temp.o
 .comment       0x0000000000000000       0x2b /tmp/cc0uJTZ9.debug.temp.o
 .note.GNU-stack
                0x0000000000000000        0x0 /tmp/cc0uJTZ9.debug.temp.o
 .comment       0x0000000000000000       0x2b /tmp/ccCo9Qwa.debug.temp.o
 .note.GNU-stack
                0x0000000000000000        0x0 /tmp/ccCo9Qwa.debug.temp.o
 .comment       0x0000000000000000       0x2b /tmp/ccwddho6.debug.temp.o
 .note.GNU-stack
                0x0000000000000000        0x0 /tmp/ccwddho6.debug.temp.o
 .comment       0x0000000000000000       0x2b /tmp/cc6UnAda.debug.temp.o
 .note.GNU-stack
                0x0000000000000000        0x0 /tmp/cc6UnAda.debug.temp.o
 .comment       0x0000000000000000       0x2b /tmp/ccaa7tL7.debug.temp.o
 .note.GNU-stack
                0x0000000000000000        0x0 /tmp/ccaa7tL7.debug.temp.o
 .comment       0x0000000000000000       0x2b /tmp/ccbtGWG7.debug.temp.o
 .note.GNU-stack
                0x0000000000000000        0x0 /tmp/ccbtGWG7.debug.temp.o
 .comment       0x0000000000000000       0x2b /tmp/ccBJJR69.debug.temp.o
 .note.GNU-stack
                0x0000000000000000        0x0 /tmp/ccBJJR69.debug.temp.o
 .comment       0x0000000000000000       0x2b /tmp/cc5Ldrl7.debug.temp.o
 .note.GNU-stack
                0x0000000000000000        0x0 /tmp/cc5Ldrl7.debug.temp.o
 .comment       0x0000000000000000       0x2b /tmp/cckKRa48.debug.temp.o
 .note.GNU-stack
                0x0000000000000000        0x0 /tmp/cckKRa48.debug.temp.o
 .comment       0x0000000000000000       0x2b /tmp/ccXFU4B6.debug.temp.o
 .note.GNU-stack
                0x0000000000000000        0x0 /tmp/ccXFU4B6.debug.temp.o
 .comment       0x0000000000000000       0x2b /tmp/ccZowZR6.debug.temp.o
 .note.GNU-stack
                0x0000000000000000        0x0 /tmp/ccZowZR6.debug.temp.o
 .comment       0x0000000000000000       0x2b /tmp/cciePHe7.debug.temp.o
 .note.GNU-stack
                0x0000000000000000        0x0 /tmp/cciePHe7.debug.temp.o
 .comment       0x0000000000000000       0x2b /tmp/ccCaHeN8.debug.temp.o
 .note.GNU-stack
                0x0000000000000000        0x0 /tmp/ccCaHeN8.debug.temp.o
 .comment       0x0000000000000000       0x2b /tmp/ccHjRlx8.debug.temp.o
 .note.GNU-stack
                0x0000000000000000        0x0 /tmp/ccHjRlx8.debug.temp.o
 .comment       0x0000000000000000       0x2b /tmp/ccb8PDz8.debug.temp.o
 .note.GNU-stack
                0x0000000000000000        0x0 /tmp/ccb8PDz8.debug.temp.o
 .comment       0x0000000000000000       0x2b /tmp/ccrekuB7.debug.temp.o
 .note.GNU-stack
                0x0000000000000000        0x0 /tmp/ccrekuB7.debug.temp.o
 .comment       0x0000000000000000       0x2b /tmp/ccR0zYr6.debug.temp.o
 .note.GNU-stack
                0x0000000000000000        0x0 /tmp/ccR0zYr6.debug.temp.o
 .comment       0x0000000000000000       0x2b /tmp/cctxtfE8.debug.temp.o
 .note.GNU-stack
                0x0000000000000000        0x0 /tmp/cctxtfE8.debug.temp.o
 .comment       0x0000000000000000       0x2b /tmp/ccqN8418.debug.temp.o
 .note.GNU-stack
                0x0000000000000000        0x0 /tmp/ccqN8418.debug.temp.o
 .comment       0x0000000000000000       0x2b /tmp/ccIkAgk9.debug.temp.o
 .note.GNU-stack
                0x0000000000000000        0x0 /tmp/ccIkAgk9.debug.temp.o
 .comment       0x0000000000000000       0x2b /tmp/ccPI88C8.debug.temp.o
 .note.GNU-stack
                0x0000000000000000        0x0 /tmp/ccPI88C8.debug.temp.o
 .comment       0x0000000000000000       0x2b /tmp/cc5f3Om7.debug.temp.o
 .note.GNU-stack
                0x0000000000000000        0x0 /tmp/cc5f3Om7.debug.temp.o
 .comment       0x0000000000000000       0x2b /tmp/ccDKWCe9.debug.temp.o
 .note.GNU-stack
                0x0000000000000000        0x0 /tmp/ccDKWCe9.debug.temp.o
 .comment       0x0000000000000000       0x2b /tmp/ccs2zyp8.debug.temp.o
 .note.GNU-stack
                0x0000000000000000        0x0 /tmp/ccs2zyp8.debug.temp.o
 .comment       0x0000000000000000       0x2b /tmp/cclTkES7.debug.temp.o
 .note.GNU-stack
                0x0000000000000000        0x0 /tmp/cclTkES7.debug.temp.o
 .comment       0x0000000000000000       0x2b /tmp/cc16GTZ8.debug.temp.o
 .note.GNU-stack
                0x0000000000000000        0x0 /tmp/cc16GTZ8.debug.temp.o
 .comment       0x0000000000000000       0x2b /tmp/ccjcwHP8.debug.temp.o
 .note.GNU-stack
                0x0000000000000000        0x0 /tmp/ccjcwHP8.debug.temp.o
 .comment       0x0000000000000000       0x2b /tmp/ccFavrm6.debug.temp.o
 .note.GNU-stack
                0x0000000000000000        0x0 /tmp/ccFavrm6.debug.temp.o
 .comment       0x0000000000000000       0x2b /tmp/ccNjrLba.debug.temp.o
 .note.GNU-stack
                0x0000000000000000        0x0 /tmp/ccNjrLba.debug.temp.o
 .debug_info    0x0000000000000000      0x1db /tmp/ccCOju99.debug.temp.o
 .debug_abbrev  0x0000000000000000       0xc0 /tmp/ccCOju99.debug.temp.o
 .debug_line    0x0000000000000000      0x14e /tmp/ccCOju99.debug.temp.o
 .debug_str     0x0000000000000000      0x474 /tmp/ccCOju99.debug.temp.o
 .comment       0x0000000000000000       0x2b /tmp/ccCOju99.debug.temp.o
 .note.GNU-stack
                0x0000000000000000        0x0 /tmp/ccCOju99.debug.temp.o
 .debug_info    0x0000000000000000      0x1c3 /tmp/ccooeca9.debug.temp.o
 .debug_abbrev  0x0000000000000000       0xb1 /tmp/ccooeca9.debug.temp.o
 .debug_line    0x0000000000000000      0x14e /tmp/ccooeca9.debug.temp.o
 .debug_str     0x0000000000000000      0x45d /tmp/ccooeca9.debug.temp.o
 .comment       0x0000000000000000       0x2b /tmp/ccooeca9.debug.temp.o
 .note.GNU-stack
                0x0000000000000000        0x0 /tmp/ccooeca9.debug.temp.o
 .comment       0x0000000000000000       0x2b /tmp/ccNyn6ua.debug.temp.o
 .note.GNU-stack
                0x0000000000000000        0x0 /tmp/ccNyn6ua.debug.temp.o
 .comment       0x0000000000000000       0x2b /tmp/ccu29xqa.debug.temp.o
 .note.GNU-stack
                0x0000000000000000        0x0 /tmp/ccu29xqa.debug.temp.o
 .comment       0x0000000000000000       0x2b /tmp/ccNazIB7.debug.temp.o
 .note.GNU-stack
                0x0000000000000000        0x0 /tmp/ccNazIB7.debug.temp.o
 .comment       0x0000000000000000       0x2b /tmp/ccCstdEa.debug.temp.o
 .note.GNU-stack
                0x0000000000000000        0x0 /tmp/ccCstdEa.debug.temp.o
 .comment       0x0000000000000000       0x2b /tmp/ccS29SY8.debug.temp.o
 .note.GNU-stack
                0x0000000000000000        0x0 /tmp/ccS29SY8.debug.temp.o
 .comment       0x0000000000000000       0x2b /tmp/cciCVYca.debug.temp.o
 .note.GNU-stack
                0x0000000000000000        0x0 /tmp/cciCVYca.debug.temp.o
 .comment       0x0000000000000000       0x2b /tmp/ccavUY56.debug.temp.o
 .note.GNU-stack
                0x0000000000000000        0x0 /tmp/ccavUY56.debug.temp.o
 .comment       0x0000000000000000       0x2b /tmp/ccqoQZr8.debug.temp.o
 .note.GNU-stack
                0x0000000000000000        0x0 /tmp/ccqoQZr8.debug.temp.o
 .comment       0x0000000000000000       0x2b /tmp/ccWCkyw8.debug.temp.o
 .note.GNU-stack
                0x0000000000000000        0x0 /tmp/ccWCkyw8.debug.temp.o
 .comment       0x0000000000000000       0x2b /tmp/ccrgkuC6.debug.temp.o
 .note.GNU-stack
                0x0000000000000000        0x0 /tmp/ccrgkuC6.debug.temp.o
 .comment       0x0000000000000000       0x2b /tmp/ccuQH9b8.debug.temp.o
 .note.GNU-stack
                0x0000000000000000        0x0 /tmp/ccuQH9b8.debug.temp.o
 .comment       0x0000000000000000       0x2b /tmp/ccYSNnwa.debug.temp.o
 .note.GNU-stack
                0x0000000000000000        0x0 /tmp/ccYSNnwa.debug.temp.o
 .comment       0x0000000000000000       0x2b /tmp/ccfY5PB7.debug.temp.o
 .note.GNU-stack
                0x0000000000000000        0x0 /tmp/ccfY5PB7.debug.temp.o
 .comment       0x0000000000000000       0x2b /tmp/ccblZJb7.debug.temp.o
 .note.GNU-stack
                0x0000000000000000        0x0 /tmp/ccblZJb7.debug.temp.o
 .comment       0x0000000000000000       0x2b /tmp/ccylyyH7.debug.temp.o
 .note.GNU-stack
                0x0000000000000000        0x0 /tmp/ccylyyH7.debug.temp.o
 .comment       0x0000000000000000       0x2b /tmp/ccWmv4z8.debug.temp.o
 .note.GNU-stack
                0x0000000000000000        0x0 /tmp/ccWmv4z8.debug.temp.o
 .debug_info    0x0000000000000000     0x45d4 /tmp/ccw3hrL8.debug.temp.o
 .debug_abbrev  0x0000000000000000      0x2b0 /tmp/ccw3hrL8.debug.temp.o
 .debug_line    0x0000000000000000      0x3d1 /tmp/ccw3hrL8.debug.temp.o
 .debug_str     0x0000000000000000     0x2f13 /tmp/ccw3hrL8.debug.temp.o
 .comment       0x0000000000000000       0x2b /tmp/ccw3hrL8.debug.temp.o
 .note.GNU-stack
                0x0000000000000000        0x0 /tmp/ccw3hrL8.debug.temp.o
 .comment       0x0000000000000000       0x2b /tmp/ccY9An18.debug.temp.o
 .note.GNU-stack
                0x0000000000000000        0x0 /tmp/ccY9An18.debug.temp.o
 .comment       0x0000000000000000       0x2b /tmp/ccfBBJB9.debug.temp.o
 .note.GNU-stack
                0x0000000000000000        0x0 /tmp/ccfBBJB9.debug.temp.o
 .comment       0x0000000000000000       0x2b /tmp/ccyBxcCa.debug.temp.o
 .note.GNU-stack
                0x0000000000000000        0x0 /tmp/ccyBxcCa.debug.temp.o
 .comment       0x0000000000000000       0x2b /tmp/ccH3O939.debug.temp.o
 .note.GNU-stack
                0x0000000000000000        0x0 /tmp/ccH3O939.debug.temp.o
 .comment       0x0000000000000000       0x2b /tmp/ccfmA446.debug.temp.o
 .note.GNU-stack
                0x0000000000000000        0x0 /tmp/ccfmA446.debug.temp.o
 .comment       0x0000000000000000       0x2b /tmp/ccsZ4zNa.debug.temp.o
 .note.GNU-stack
                0x0000000000000000        0x0 /tmp/ccsZ4zNa.debug.temp.o
 .comment       0x0000000000000000       0x2b /tmp/ccbqLP77.debug.temp.o
 .note.GNU-stack
                0x0000000000000000        0x0 /tmp/ccbqLP77.debug.temp.o
 .comment       0x0000000000000000       0x2b /tmp/ccv6Cji6.debug.temp.o
 .note.GNU-stack
                0x0000000000000000        0x0 /tmp/ccv6Cji6.debug.temp.o
 .comment       0x0000000000000000       0x2b /tmp/ccRxYJC6.debug.temp.o
 .note.GNU-stack
                0x0000000000000000        0x0 /tmp/ccRxYJC6.debug.temp.o
 .comment       0x0000000000000000       0x2b /tmp/ccvZRPQ7.debug.temp.o
 .note.GNU-stack
                0x0000000000000000        0x0 /tmp/ccvZRPQ7.debug.temp.o
 .comment       0x0000000000000000       0x2b /tmp/cczqHxR6.debug.temp.o
 .note.GNU-stack
                0x0000000000000000        0x0 /tmp/cczqHxR6.debug.temp.o
 .comment       0x0000000000000000       0x2b /tmp/ccpUQtt8.debug.temp.o
 .note.GNU-stack
                0x0000000000000000        0x0 /tmp/ccpUQtt8.debug.temp.o
 .comment       0x0000000000000000       0x2b /tmp/ccCK5ZA7.debug.temp.o
 .note.GNU-stack
                0x0000000000000000        0x0 /tmp/ccCK5ZA7.debug.temp.o
 .comment       0x0000000000000000       0x2b /tmp/ccwMUMv8.debug.temp.o
 .note.GNU-stack
                0x0000000000000000        0x0 /tmp/ccwMUMv8.debug.temp.o
 .comment       0x0000000000000000       0x2b /tmp/ccA7t9w6.debug.temp.o
 .note.GNU-stack
                0x0000000000000000        0x0 /tmp/ccA7t9w6.debug.temp.o
 .comment       0x0000000000000000       0x2b /tmp/cco5Max6.debug.temp.o
 .note.GNU-stack
                0x0000000000000000        0x0 /tmp/cco5Max6.debug.temp.o
 .comment       0x0000000000000000       0x2b /tmp/ccy1lBA6.debug.temp.o
 .note.GNU-stack
                0x0000000000000000        0x0 /tmp/ccy1lBA6.debug.temp.o
 .comment       0x0000000000000000       0x2b /tmp/ccGAtbg6.debug.temp.o
 .note.GNU-stack
                0x0000000000000000        0x0 /tmp/ccGAtbg6.debug.temp.o
 .debug_info    0x0000000000000000      0x1c3 /tmp/ccBKgRM8.debug.temp.o
 .debug_abbrev  0x0000000000000000       0xb1 /tmp/ccBKgRM8.debug.temp.o
 .debug_line    0x0000000000000000      0x14e /tmp/ccBKgRM8.debug.temp.o
 .debug_str     0x0000000000000000      0x45d /tmp/ccBKgRM8.debug.temp.o
 .comment       0x0000000000000000       0x2b /tmp/ccBKgRM8.debug.temp.o
 .note.GNU-stack
                0x0000000000000000        0x0 /tmp/ccBKgRM8.debug.temp.o
 .comment       0x0000000000000000       0x2b /tmp/cc7juy76.debug.temp.o
 .note.GNU-stack
                0x0000000000000000        0x0 /tmp/cc7juy76.debug.temp.o
 .comment       0x0000000000000000       0x2b /tmp/ccCzd0w8.debug.temp.o
 .note.GNU-stack
                0x0000000000000000        0x0 /tmp/ccCzd0w8.debug.temp.o
 .comment       0x0000000000000000       0x2b /tmp/ccxe7Is6.debug.temp.o
 .note.GNU-stack
                0x0000000000000000        0x0 /tmp/ccxe7Is6.debug.temp.o
 .comment       0x0000000000000000       0x2b /tmp/cc3orrq6.debug.temp.o
 .note.GNU-stack
                0x0000000000000000        0x0 /tmp/cc3orrq6.debug.temp.o
 .comment       0x0000000000000000       0x2b /tmp/ccJZl2ha.debug.temp.o
 .note.GNU-stack
                0x0000000000000000        0x0 /tmp/ccJZl2ha.debug.temp.o
 .comment       0x0000000000000000       0x2b /tmp/ccGVYhn9.debug.temp.o
 .note.GNU-stack
                0x0000000000000000        0x0 /tmp/ccGVYhn9.debug.temp.o
 .comment       0x0000000000000000       0x2b /tmp/ccqWy9Z7.debug.temp.o
 .note.GNU-stack
                0x0000000000000000        0x0 /tmp/ccqWy9Z7.debug.temp.o
 .comment       0x0000000000000000       0x2b /tmp/ccMh8mO6.debug.temp.o
 .note.GNU-stack
                0x0000000000000000        0x0 /tmp/ccMh8mO6.debug.temp.o
 .comment       0x0000000000000000       0x2b /tmp/ccKQPtF9.debug.temp.o
 .note.GNU-stack
                0x0000000000000000        0x0 /tmp/ccKQPtF9.debug.temp.o
 .comment       0x0000000000000000       0x2b /tmp/cchQvuX6.debug.temp.o
 .note.GNU-stack
                0x0000000000000000        0x0 /tmp/cchQvuX6.debug.temp.o
 .comment       0x0000000000000000       0x2b /tmp/ccarn2n8.debug.temp.o
 .note.GNU-stack
                0x0000000000000000        0x0 /tmp/ccarn2n8.debug.temp.o
 .comment       0x0000000000000000       0x2b /tmp/ccuhhcp8.debug.temp.o
 .note.GNU-stack
                0x0000000000000000        0x0 /tmp/ccuhhcp8.debug.temp.o
 .comment       0x0000000000000000       0x2b /tmp/ccdoe1P7.debug.temp.o
 .note.GNU-stack
                0x0000000000000000        0x0 /tmp/ccdoe1P7.debug.temp.o
 .data          0x0000000000000000        0x0 /home/alastair/pftf-rpi4/Build/RPi4/RELEASE_GCC5/AARCH64/MdePkg/Library/BaseLib/BaseLib/OUTPUT/BaseLib.lib(SetJumpLongJump.obj)
 .bss           0x0000000000000000        0x0 /home/alastair/pftf-rpi4/Build/RPi4/RELEASE_GCC5/AARCH64/MdePkg/Library/BaseLib/BaseLib/OUTPUT/BaseLib.lib(SetJumpLongJump.obj)
 .text          0x0000000000000000        0x8 /home/alastair/pftf-rpi4/Build/RPi4/RELEASE_GCC5/AARCH64/MdePkg/Library/BaseLib/BaseLib/OUTPUT/BaseLib.lib(CpuBreakpoint.obj)
 .data          0x0000000000000000        0x0 /home/alastair/pftf-rpi4/Build/RPi4/RELEASE_GCC5/AARCH64/MdePkg/Library/BaseLib/BaseLib/OUTPUT/BaseLib.lib(CpuBreakpoint.obj)
 .bss           0x0000000000000000        0x0 /home/alastair/pftf-rpi4/Build/RPi4/RELEASE_GCC5/AARCH64/MdePkg/Library/BaseLib/BaseLib/OUTPUT/BaseLib.lib(CpuBreakpoint.obj)
 .data          0x0000000000000000        0x0 /home/alastair/pftf-rpi4/Build/RPi4/RELEASE_GCC5/AARCH64/MdePkg/Library/BaseMemoryLibOptDxe/BaseMemoryLibOptDxe/OUTPUT/BaseMemoryLibOptDxe.lib(SetMem.obj)
 .bss           0x0000000000000000        0x0 /home/alastair/pftf-rpi4/Build/RPi4/RELEASE_GCC5/AARCH64/MdePkg/Library/BaseMemoryLibOptDxe/BaseMemoryLibOptDxe/OUTPUT/BaseMemoryLibOptDxe.lib(SetMem.obj)
 .data          0x0000000000000000        0x0 /home/alastair/pftf-rpi4/Build/RPi4/RELEASE_GCC5/AARCH64/MdePkg/Library/BaseMemoryLibOptDxe/BaseMemoryLibOptDxe/OUTPUT/BaseMemoryLibOptDxe.lib(CopyMem.obj)
 .bss           0x0000000000000000        0x0 /home/alastair/pftf-rpi4/Build/RPi4/RELEASE_GCC5/AARCH64/MdePkg/Library/BaseMemoryLibOptDxe/BaseMemoryLibOptDxe/OUTPUT/BaseMemoryLibOptDxe.lib(CopyMem.obj)
 .data          0x0000000000000000        0x0 /home/alastair/pftf-rpi4/Build/RPi4/RELEASE_GCC5/AARCH64/MdePkg/Library/BaseMemoryLibOptDxe/BaseMemoryLibOptDxe/OUTPUT/BaseMemoryLibOptDxe.lib(CompareMem.obj)
 .bss           0x0000000000000000        0x0 /home/alastair/pftf-rpi4/Build/RPi4/RELEASE_GCC5/AARCH64/MdePkg/Library/BaseMemoryLibOptDxe/BaseMemoryLibOptDxe/OUTPUT/BaseMemoryLibOptDxe.lib(CompareMem.obj)
 .data          0x0000000000000000        0x0 /home/alastair/pftf-rpi4/Build/RPi4/RELEASE_GCC5/AARCH64/MdePkg/Library/BaseMemoryLibOptDxe/BaseMemoryLibOptDxe/OUTPUT/BaseMemoryLibOptDxe.lib(CompareGuid.obj)
 .bss           0x0000000000000000        0x0 /home/alastair/pftf-rpi4/Build/RPi4/RELEASE_GCC5/AARCH64/MdePkg/Library/BaseMemoryLibOptDxe/BaseMemoryLibOptDxe/OUTPUT/BaseMemoryLibOptDxe.lib(CompareGuid.obj)
 .data          0x0000000000000000        0x0 /home/alastair/pftf-rpi4/Build/RPi4/RELEASE_GCC5/AARCH64/ArmPkg/Library/ArmExceptionLib/ArmExceptionLib/OUTPUT/ArmExceptionLib.lib(ExceptionSupport.obj)
 .bss           0x0000000000000000        0x0 /home/alastair/pftf-rpi4/Build/RPi4/RELEASE_GCC5/AARCH64/ArmPkg/Library/ArmExceptionLib/ArmExceptionLib/OUTPUT/ArmExceptionLib.lib(ExceptionSupport.obj)
 .text          0x0000000000000000        0x0 /home/alastair/pftf-rpi4/Build/RPi4/RELEASE_GCC5/AARCH64/ArmPkg/Library/ArmLib/ArmBaseLib/OUTPUT/ArmBaseLib.lib(ArmLibSupport.obj)
 .data          0x0000000000000000        0x0 /home/alastair/pftf-rpi4/Build/RPi4/RELEASE_GCC5/AARCH64/ArmPkg/Library/ArmLib/ArmBaseLib/OUTPUT/ArmBaseLib.lib(ArmLibSupport.obj)
 .bss           0x0000000000000000        0x0 /home/alastair/pftf-rpi4/Build/RPi4/RELEASE_GCC5/AARCH64/ArmPkg/Library/ArmLib/ArmBaseLib/OUTPUT/ArmBaseLib.lib(ArmLibSupport.obj)
 .text.ArmReadMidr
                0x0000000000000000        0x8 /home/alastair/pftf-rpi4/Build/RPi4/RELEASE_GCC5/AARCH64/ArmPkg/Library/ArmLib/ArmBaseLib/OUTPUT/ArmBaseLib.lib(ArmLibSupport.obj)
 .text.ArmGetInterruptState
                0x0000000000000000       0x10 /home/alastair/pftf-rpi4/Build/RPi4/RELEASE_GCC5/AARCH64/ArmPkg/Library/ArmLib/ArmBaseLib/OUTPUT/ArmBaseLib.lib(ArmLibSupport.obj)
 .text.ArmGetFiqState
                0x0000000000000000       0x10 /home/alastair/pftf-rpi4/Build/RPi4/RELEASE_GCC5/AARCH64/ArmPkg/Library/ArmLib/ArmBaseLib/OUTPUT/ArmBaseLib.lib(ArmLibSupport.obj)
 .text.ArmWriteCpacr
                0x0000000000000000        0x8 /home/alastair/pftf-rpi4/Build/RPi4/RELEASE_GCC5/AARCH64/ArmPkg/Library/ArmLib/ArmBaseLib/OUTPUT/ArmBaseLib.lib(ArmLibSupport.obj)
 .text.ArmWriteAuxCr
                0x0000000000000000       0x28 /home/alastair/pftf-rpi4/Build/RPi4/RELEASE_GCC5/AARCH64/ArmPkg/Library/ArmLib/ArmBaseLib/OUTPUT/ArmBaseLib.lib(ArmLibSupport.obj)
 .text.ArmReadAuxCr
                0x0000000000000000       0x28 /home/alastair/pftf-rpi4/Build/RPi4/RELEASE_GCC5/AARCH64/ArmPkg/Library/ArmLib/ArmBaseLib/OUTPUT/ArmBaseLib.lib(ArmLibSupport.obj)
 .text.ArmSetTTBR0
                0x0000000000000000       0x34 /home/alastair/pftf-rpi4/Build/RPi4/RELEASE_GCC5/AARCH64/ArmPkg/Library/ArmLib/ArmBaseLib/OUTPUT/ArmBaseLib.lib(ArmLibSupport.obj)
 .text.ArmGetTTBR0BaseAddress
                0x0000000000000000       0x30 /home/alastair/pftf-rpi4/Build/RPi4/RELEASE_GCC5/AARCH64/ArmPkg/Library/ArmLib/ArmBaseLib/OUTPUT/ArmBaseLib.lib(ArmLibSupport.obj)
 .text.ArmGetTCR
                0x0000000000000000       0x34 /home/alastair/pftf-rpi4/Build/RPi4/RELEASE_GCC5/AARCH64/ArmPkg/Library/ArmLib/ArmBaseLib/OUTPUT/ArmBaseLib.lib(ArmLibSupport.obj)
 .text.ArmSetTCR
                0x0000000000000000       0x34 /home/alastair/pftf-rpi4/Build/RPi4/RELEASE_GCC5/AARCH64/ArmPkg/Library/ArmLib/ArmBaseLib/OUTPUT/ArmBaseLib.lib(ArmLibSupport.obj)
 .text.ArmGetMAIR
                0x0000000000000000       0x34 /home/alastair/pftf-rpi4/Build/RPi4/RELEASE_GCC5/AARCH64/ArmPkg/Library/ArmLib/ArmBaseLib/OUTPUT/ArmBaseLib.lib(ArmLibSupport.obj)
 .text.ArmSetMAIR
                0x0000000000000000       0x34 /home/alastair/pftf-rpi4/Build/RPi4/RELEASE_GCC5/AARCH64/ArmPkg/Library/ArmLib/ArmBaseLib/OUTPUT/ArmBaseLib.lib(ArmLibSupport.obj)
 .text.ArmUpdateTranslationTableEntry
                0x0000000000000000       0x54 /home/alastair/pftf-rpi4/Build/RPi4/RELEASE_GCC5/AARCH64/ArmPkg/Library/ArmLib/ArmBaseLib/OUTPUT/ArmBaseLib.lib(ArmLibSupport.obj)
 .text.ArmInvalidateTlb
                0x0000000000000000       0x38 /home/alastair/pftf-rpi4/Build/RPi4/RELEASE_GCC5/AARCH64/ArmPkg/Library/ArmLib/ArmBaseLib/OUTPUT/ArmBaseLib.lib(ArmLibSupport.obj)
 .text.ArmWriteCptr
                0x0000000000000000        0x8 /home/alastair/pftf-rpi4/Build/RPi4/RELEASE_GCC5/AARCH64/ArmPkg/Library/ArmLib/ArmBaseLib/OUTPUT/ArmBaseLib.lib(ArmLibSupport.obj)
 .text.ArmWriteScr
                0x0000000000000000        0xc /home/alastair/pftf-rpi4/Build/RPi4/RELEASE_GCC5/AARCH64/ArmPkg/Library/ArmLib/ArmBaseLib/OUTPUT/ArmBaseLib.lib(ArmLibSupport.obj)
 .text.ArmWriteMVBar
                0x0000000000000000        0x8 /home/alastair/pftf-rpi4/Build/RPi4/RELEASE_GCC5/AARCH64/ArmPkg/Library/ArmLib/ArmBaseLib/OUTPUT/ArmBaseLib.lib(ArmLibSupport.obj)
 .text.ArmCallWFE
                0x0000000000000000        0x8 /home/alastair/pftf-rpi4/Build/RPi4/RELEASE_GCC5/AARCH64/ArmPkg/Library/ArmLib/ArmBaseLib/OUTPUT/ArmBaseLib.lib(ArmLibSupport.obj)
 .text.ArmCallSEV
                0x0000000000000000        0x8 /home/alastair/pftf-rpi4/Build/RPi4/RELEASE_GCC5/AARCH64/ArmPkg/Library/ArmLib/ArmBaseLib/OUTPUT/ArmBaseLib.lib(ArmLibSupport.obj)
 .text.ArmReadCpuActlr
                0x0000000000000000        0x8 /home/alastair/pftf-rpi4/Build/RPi4/RELEASE_GCC5/AARCH64/ArmPkg/Library/ArmLib/ArmBaseLib/OUTPUT/ArmBaseLib.lib(ArmLibSupport.obj)
 .text.ArmWriteCpuActlr
                0x0000000000000000       0x10 /home/alastair/pftf-rpi4/Build/RPi4/RELEASE_GCC5/AARCH64/ArmPkg/Library/ArmLib/ArmBaseLib/OUTPUT/ArmBaseLib.lib(ArmLibSupport.obj)
 .text.ArmReadSctlr
                0x0000000000000000       0x30 /home/alastair/pftf-rpi4/Build/RPi4/RELEASE_GCC5/AARCH64/ArmPkg/Library/ArmLib/ArmBaseLib/OUTPUT/ArmBaseLib.lib(ArmLibSupport.obj)
 .text.ArmWriteSctlr
                0x0000000000000000       0x30 /home/alastair/pftf-rpi4/Build/RPi4/RELEASE_GCC5/AARCH64/ArmPkg/Library/ArmLib/ArmBaseLib/OUTPUT/ArmBaseLib.lib(ArmLibSupport.obj)
 .text.ArmGetPhysicalAddressBits
                0x0000000000000000       0x24 /home/alastair/pftf-rpi4/Build/RPi4/RELEASE_GCC5/AARCH64/ArmPkg/Library/ArmLib/ArmBaseLib/OUTPUT/ArmBaseLib.lib(ArmLibSupport.obj)
 .text          0x0000000000000000        0x0 /home/alastair/pftf-rpi4/Build/RPi4/RELEASE_GCC5/AARCH64/ArmPkg/Library/ArmLib/ArmBaseLib/OUTPUT/ArmBaseLib.lib(AArch64Support.obj)
 .data          0x0000000000000000        0x0 /home/alastair/pftf-rpi4/Build/RPi4/RELEASE_GCC5/AARCH64/ArmPkg/Library/ArmLib/ArmBaseLib/OUTPUT/ArmBaseLib.lib(AArch64Support.obj)
 .bss           0x0000000000000000        0x0 /home/alastair/pftf-rpi4/Build/RPi4/RELEASE_GCC5/AARCH64/ArmPkg/Library/ArmLib/ArmBaseLib/OUTPUT/ArmBaseLib.lib(AArch64Support.obj)
 .text.ArmInvalidateDataCacheEntryByMVA
                0x0000000000000000        0x8 /home/alastair/pftf-rpi4/Build/RPi4/RELEASE_GCC5/AARCH64/ArmPkg/Library/ArmLib/ArmBaseLib/OUTPUT/ArmBaseLib.lib(AArch64Support.obj)
 .text.ArmCleanDataCacheEntryByMVA
                0x0000000000000000        0x8 /home/alastair/pftf-rpi4/Build/RPi4/RELEASE_GCC5/AARCH64/ArmPkg/Library/ArmLib/ArmBaseLib/OUTPUT/ArmBaseLib.lib(AArch64Support.obj)
 .text.ArmCleanInvalidateDataCacheEntryByMVA
                0x0000000000000000        0x8 /home/alastair/pftf-rpi4/Build/RPi4/RELEASE_GCC5/AARCH64/ArmPkg/Library/ArmLib/ArmBaseLib/OUTPUT/ArmBaseLib.lib(AArch64Support.obj)
 .text.ArmInvalidateDataCacheEntryBySetWay
                0x0000000000000000        0x8 /home/alastair/pftf-rpi4/Build/RPi4/RELEASE_GCC5/AARCH64/ArmPkg/Library/ArmLib/ArmBaseLib/OUTPUT/ArmBaseLib.lib(AArch64Support.obj)
 .text.ArmCleanInvalidateDataCacheEntryBySetWay
                0x0000000000000000        0x8 /home/alastair/pftf-rpi4/Build/RPi4/RELEASE_GCC5/AARCH64/ArmPkg/Library/ArmLib/ArmBaseLib/OUTPUT/ArmBaseLib.lib(AArch64Support.obj)
 .text.ArmCleanDataCacheEntryBySetWay
                0x0000000000000000        0x8 /home/alastair/pftf-rpi4/Build/RPi4/RELEASE_GCC5/AARCH64/ArmPkg/Library/ArmLib/ArmBaseLib/OUTPUT/ArmBaseLib.lib(AArch64Support.obj)
 .text.ArmInvalidateInstructionCache
                0x0000000000000000       0x10 /home/alastair/pftf-rpi4/Build/RPi4/RELEASE_GCC5/AARCH64/ArmPkg/Library/ArmLib/ArmBaseLib/OUTPUT/ArmBaseLib.lib(AArch64Support.obj)
 .text.ArmEnableMmu
                0x0000000000000000       0x88 /home/alastair/pftf-rpi4/Build/RPi4/RELEASE_GCC5/AARCH64/ArmPkg/Library/ArmLib/ArmBaseLib/OUTPUT/ArmBaseLib.lib(AArch64Support.obj)
 .text.ArmDisableMmu
                0x0000000000000000       0x74 /home/alastair/pftf-rpi4/Build/RPi4/RELEASE_GCC5/AARCH64/ArmPkg/Library/ArmLib/ArmBaseLib/OUTPUT/ArmBaseLib.lib(AArch64Support.obj)
 .text.ArmDisableCachesAndMmu
                0x0000000000000000       0x6c /home/alastair/pftf-rpi4/Build/RPi4/RELEASE_GCC5/AARCH64/ArmPkg/Library/ArmLib/ArmBaseLib/OUTPUT/ArmBaseLib.lib(AArch64Support.obj)
 .text.ArmMmuEnabled
                0x0000000000000000       0x34 /home/alastair/pftf-rpi4/Build/RPi4/RELEASE_GCC5/AARCH64/ArmPkg/Library/ArmLib/ArmBaseLib/OUTPUT/ArmBaseLib.lib(AArch64Support.obj)
 .text.ArmEnableDataCache
                0x0000000000000000       0x68 /home/alastair/pftf-rpi4/Build/RPi4/RELEASE_GCC5/AARCH64/ArmPkg/Library/ArmLib/ArmBaseLib/OUTPUT/ArmBaseLib.lib(AArch64Support.obj)
 .text.ArmDisableDataCache
                0x0000000000000000       0x68 /home/alastair/pftf-rpi4/Build/RPi4/RELEASE_GCC5/AARCH64/ArmPkg/Library/ArmLib/ArmBaseLib/OUTPUT/ArmBaseLib.lib(AArch64Support.obj)
 .text.ArmEnableInstructionCache
                0x0000000000000000       0x68 /home/alastair/pftf-rpi4/Build/RPi4/RELEASE_GCC5/AARCH64/ArmPkg/Library/ArmLib/ArmBaseLib/OUTPUT/ArmBaseLib.lib(AArch64Support.obj)
 .text.ArmDisableInstructionCache
                0x0000000000000000       0x68 /home/alastair/pftf-rpi4/Build/RPi4/RELEASE_GCC5/AARCH64/ArmPkg/Library/ArmLib/ArmBaseLib/OUTPUT/ArmBaseLib.lib(AArch64Support.obj)
 .text.ArmEnableAlignmentCheck
                0x0000000000000000       0x58 /home/alastair/pftf-rpi4/Build/RPi4/RELEASE_GCC5/AARCH64/ArmPkg/Library/ArmLib/ArmBaseLib/OUTPUT/ArmBaseLib.lib(AArch64Support.obj)
 .text.ArmDisableAlignmentCheck
                0x0000000000000000       0x68 /home/alastair/pftf-rpi4/Build/RPi4/RELEASE_GCC5/AARCH64/ArmPkg/Library/ArmLib/ArmBaseLib/OUTPUT/ArmBaseLib.lib(AArch64Support.obj)
 .text.ArmEnableStackAlignmentCheck
                0x0000000000000000       0x58 /home/alastair/pftf-rpi4/Build/RPi4/RELEASE_GCC5/AARCH64/ArmPkg/Library/ArmLib/ArmBaseLib/OUTPUT/ArmBaseLib.lib(AArch64Support.obj)
 .text.ArmDisableStackAlignmentCheck
                0x0000000000000000       0x68 /home/alastair/pftf-rpi4/Build/RPi4/RELEASE_GCC5/AARCH64/ArmPkg/Library/ArmLib/ArmBaseLib/OUTPUT/ArmBaseLib.lib(AArch64Support.obj)
 .text.ArmEnableBranchPrediction
                0x0000000000000000        0x4 /home/alastair/pftf-rpi4/Build/RPi4/RELEASE_GCC5/AARCH64/ArmPkg/Library/ArmLib/ArmBaseLib/OUTPUT/ArmBaseLib.lib(AArch64Support.obj)
 .text.ArmDisableBranchPrediction
                0x0000000000000000        0x4 /home/alastair/pftf-rpi4/Build/RPi4/RELEASE_GCC5/AARCH64/ArmPkg/Library/ArmLib/ArmBaseLib/OUTPUT/ArmBaseLib.lib(AArch64Support.obj)
 .text.AArch64AllDataCachesOperation
                0x0000000000000000       0xa8 /home/alastair/pftf-rpi4/Build/RPi4/RELEASE_GCC5/AARCH64/ArmPkg/Library/ArmLib/ArmBaseLib/OUTPUT/ArmBaseLib.lib(AArch64Support.obj)
 .text.ArmDataMemoryBarrier
                0x0000000000000000        0x8 /home/alastair/pftf-rpi4/Build/RPi4/RELEASE_GCC5/AARCH64/ArmPkg/Library/ArmLib/ArmBaseLib/OUTPUT/ArmBaseLib.lib(AArch64Support.obj)
 .text.ArmReadVBar
                0x0000000000000000       0x30 /home/alastair/pftf-rpi4/Build/RPi4/RELEASE_GCC5/AARCH64/ArmPkg/Library/ArmLib/ArmBaseLib/OUTPUT/ArmBaseLib.lib(AArch64Support.obj)
 .text.ArmEnableVFP
                0x0000000000000000       0x64 /home/alastair/pftf-rpi4/Build/RPi4/RELEASE_GCC5/AARCH64/ArmPkg/Library/ArmLib/ArmBaseLib/OUTPUT/ArmBaseLib.lib(AArch64Support.obj)
 .text.ArmCallWFI
                0x0000000000000000        0x8 /home/alastair/pftf-rpi4/Build/RPi4/RELEASE_GCC5/AARCH64/ArmPkg/Library/ArmLib/ArmBaseLib/OUTPUT/ArmBaseLib.lib(AArch64Support.obj)
 .text.ArmReadIdAA64Mmfr2
                0x0000000000000000        0x8 /home/alastair/pftf-rpi4/Build/RPi4/RELEASE_GCC5/AARCH64/ArmPkg/Library/ArmLib/ArmBaseLib/OUTPUT/ArmBaseLib.lib(AArch64Support.obj)
 .text.ArmReadMpidr
                0x0000000000000000        0x8 /home/alastair/pftf-rpi4/Build/RPi4/RELEASE_GCC5/AARCH64/ArmPkg/Library/ArmLib/ArmBaseLib/OUTPUT/ArmBaseLib.lib(AArch64Support.obj)
 .text.ArmReadTpidrurw
                0x0000000000000000        0x8 /home/alastair/pftf-rpi4/Build/RPi4/RELEASE_GCC5/AARCH64/ArmPkg/Library/ArmLib/ArmBaseLib/OUTPUT/ArmBaseLib.lib(AArch64Support.obj)
 .text.ArmWriteTpidrurw
                0x0000000000000000        0x8 /home/alastair/pftf-rpi4/Build/RPi4/RELEASE_GCC5/AARCH64/ArmPkg/Library/ArmLib/ArmBaseLib/OUTPUT/ArmBaseLib.lib(AArch64Support.obj)
 .text.ArmReadIdAA64Pfr0
                0x0000000000000000        0x8 /home/alastair/pftf-rpi4/Build/RPi4/RELEASE_GCC5/AARCH64/ArmPkg/Library/ArmLib/ArmBaseLib/OUTPUT/ArmBaseLib.lib(AArch64Support.obj)
 .text.ArmReadCntHctl
                0x0000000000000000        0x8 /home/alastair/pftf-rpi4/Build/RPi4/RELEASE_GCC5/AARCH64/ArmPkg/Library/ArmLib/ArmBaseLib/OUTPUT/ArmBaseLib.lib(AArch64Support.obj)
 .text.ArmWriteCntHctl
                0x0000000000000000        0x8 /home/alastair/pftf-rpi4/Build/RPi4/RELEASE_GCC5/AARCH64/ArmPkg/Library/ArmLib/ArmBaseLib/OUTPUT/ArmBaseLib.lib(AArch64Support.obj)
 .text          0x0000000000000000        0x0 /home/alastair/pftf-rpi4/Build/RPi4/RELEASE_GCC5/AARCH64/ArmPkg/Library/ArmLib/ArmBaseLib/OUTPUT/ArmBaseLib.lib(AArch64ArchTimerSupport.obj)
 .data          0x0000000000000000        0x0 /home/alastair/pftf-rpi4/Build/RPi4/RELEASE_GCC5/AARCH64/ArmPkg/Library/ArmLib/ArmBaseLib/OUTPUT/ArmBaseLib.lib(AArch64ArchTimerSupport.obj)
 .bss           0x0000000000000000        0x0 /home/alastair/pftf-rpi4/Build/RPi4/RELEASE_GCC5/AARCH64/ArmPkg/Library/ArmLib/ArmBaseLib/OUTPUT/ArmBaseLib.lib(AArch64ArchTimerSupport.obj)
 .text.ArmWriteCntFrq
                0x0000000000000000        0x8 /home/alastair/pftf-rpi4/Build/RPi4/RELEASE_GCC5/AARCH64/ArmPkg/Library/ArmLib/ArmBaseLib/OUTPUT/ArmBaseLib.lib(AArch64ArchTimerSupport.obj)
 .text.ArmReadCntkCtl
                0x0000000000000000        0x8 /home/alastair/pftf-rpi4/Build/RPi4/RELEASE_GCC5/AARCH64/ArmPkg/Library/ArmLib/ArmBaseLib/OUTPUT/ArmBaseLib.lib(AArch64ArchTimerSupport.obj)
 .text.ArmWriteCntkCtl
                0x0000000000000000        0x8 /home/alastair/pftf-rpi4/Build/RPi4/RELEASE_GCC5/AARCH64/ArmPkg/Library/ArmLib/ArmBaseLib/OUTPUT/ArmBaseLib.lib(AArch64ArchTimerSupport.obj)
 .text.ArmReadCntpTval
                0x0000000000000000        0x8 /home/alastair/pftf-rpi4/Build/RPi4/RELEASE_GCC5/AARCH64/ArmPkg/Library/ArmLib/ArmBaseLib/OUTPUT/ArmBaseLib.lib(AArch64ArchTimerSupport.obj)
 .text.ArmWriteCntpTval
                0x0000000000000000        0x8 /home/alastair/pftf-rpi4/Build/RPi4/RELEASE_GCC5/AARCH64/ArmPkg/Library/ArmLib/ArmBaseLib/OUTPUT/ArmBaseLib.lib(AArch64ArchTimerSupport.obj)
 .text.ArmReadCntpCtl
                0x0000000000000000        0x8 /home/alastair/pftf-rpi4/Build/RPi4/RELEASE_GCC5/AARCH64/ArmPkg/Library/ArmLib/ArmBaseLib/OUTPUT/ArmBaseLib.lib(AArch64ArchTimerSupport.obj)
 .text.ArmWriteCntpCtl
                0x0000000000000000        0x8 /home/alastair/pftf-rpi4/Build/RPi4/RELEASE_GCC5/AARCH64/ArmPkg/Library/ArmLib/ArmBaseLib/OUTPUT/ArmBaseLib.lib(AArch64ArchTimerSupport.obj)
 .text.ArmReadCntvTval
                0x0000000000000000        0x8 /home/alastair/pftf-rpi4/Build/RPi4/RELEASE_GCC5/AARCH64/ArmPkg/Library/ArmLib/ArmBaseLib/OUTPUT/ArmBaseLib.lib(AArch64ArchTimerSupport.obj)
 .text.ArmWriteCntvTval
                0x0000000000000000        0x8 /home/alastair/pftf-rpi4/Build/RPi4/RELEASE_GCC5/AARCH64/ArmPkg/Library/ArmLib/ArmBaseLib/OUTPUT/ArmBaseLib.lib(AArch64ArchTimerSupport.obj)
 .text.ArmReadCntvCtl
                0x0000000000000000        0x8 /home/alastair/pftf-rpi4/Build/RPi4/RELEASE_GCC5/AARCH64/ArmPkg/Library/ArmLib/ArmBaseLib/OUTPUT/ArmBaseLib.lib(AArch64ArchTimerSupport.obj)
 .text.ArmWriteCntvCtl
                0x0000000000000000        0x8 /home/alastair/pftf-rpi4/Build/RPi4/RELEASE_GCC5/AARCH64/ArmPkg/Library/ArmLib/ArmBaseLib/OUTPUT/ArmBaseLib.lib(AArch64ArchTimerSupport.obj)
 .text.ArmReadCntvCt
                0x0000000000000000        0x8 /home/alastair/pftf-rpi4/Build/RPi4/RELEASE_GCC5/AARCH64/ArmPkg/Library/ArmLib/ArmBaseLib/OUTPUT/ArmBaseLib.lib(AArch64ArchTimerSupport.obj)
 .text.ArmReadCntpCval
                0x0000000000000000        0x8 /home/alastair/pftf-rpi4/Build/RPi4/RELEASE_GCC5/AARCH64/ArmPkg/Library/ArmLib/ArmBaseLib/OUTPUT/ArmBaseLib.lib(AArch64ArchTimerSupport.obj)
 .text.ArmWriteCntpCval
                0x0000000000000000        0x8 /home/alastair/pftf-rpi4/Build/RPi4/RELEASE_GCC5/AARCH64/ArmPkg/Library/ArmLib/ArmBaseLib/OUTPUT/ArmBaseLib.lib(AArch64ArchTimerSupport.obj)
 .text.ArmReadCntvCval
                0x0000000000000000        0x8 /home/alastair/pftf-rpi4/Build/RPi4/RELEASE_GCC5/AARCH64/ArmPkg/Library/ArmLib/ArmBaseLib/OUTPUT/ArmBaseLib.lib(AArch64ArchTimerSupport.obj)
 .text.ArmWriteCntvCval
                0x0000000000000000        0x8 /home/alastair/pftf-rpi4/Build/RPi4/RELEASE_GCC5/AARCH64/ArmPkg/Library/ArmLib/ArmBaseLib/OUTPUT/ArmBaseLib.lib(AArch64ArchTimerSupport.obj)
 .text.ArmReadCntvOff
                0x0000000000000000        0x8 /home/alastair/pftf-rpi4/Build/RPi4/RELEASE_GCC5/AARCH64/ArmPkg/Library/ArmLib/ArmBaseLib/OUTPUT/ArmBaseLib.lib(AArch64ArchTimerSupport.obj)
 .text.ArmWriteCntvOff
                0x0000000000000000        0x8 /home/alastair/pftf-rpi4/Build/RPi4/RELEASE_GCC5/AARCH64/ArmPkg/Library/ArmLib/ArmBaseLib/OUTPUT/ArmBaseLib.lib(AArch64ArchTimerSupport.obj)

Memory Configuration

Name             Origin             Length             Attributes
*default*        0x0000000000000000 0xffffffffffffffff

Linker script and memory map

LOAD /home/alastair/pftf-rpi4/edk2/ArmPkg/Library/GccLto/liblto-aarch64.a
START GROUP
LOAD /tmp/DxeCore.dll.yq5Mi7.ltrans0.ltrans.o
LOAD /tmp/DxeCore.dll.yq5Mi7.ltrans1.ltrans.o
LOAD /tmp/cc2Hi0f9.debug.temp.o
LOAD /tmp/ccy6pla9.debug.temp.o
LOAD /tmp/ccUW7uR9.debug.temp.o
LOAD /tmp/ccDs5hC8.debug.temp.o
LOAD /tmp/cc9Xw6N9.debug.temp.o
LOAD /tmp/ccTyOHPa.debug.temp.o
LOAD /tmp/cctaE2x6.debug.temp.o
LOAD /tmp/ccFLcnH9.debug.temp.o
LOAD /tmp/ccgZIt57.debug.temp.o
LOAD /tmp/ccQZ6di6.debug.temp.o
LOAD /tmp/ccRYXtO7.debug.temp.o
LOAD /tmp/ccNesjV7.debug.temp.o
LOAD /tmp/ccx7YdW9.debug.temp.o
LOAD /tmp/ccfEJTA7.debug.temp.o
LOAD /tmp/ccDnCFFa.debug.temp.o
LOAD /tmp/ccojMSI7.debug.temp.o
LOAD /tmp/ccVlDA86.debug.temp.o
LOAD /tmp/ccyzx0v6.debug.temp.o
LOAD /tmp/ccL3gad7.debug.temp.o
LOAD /tmp/ccWFChr8.debug.temp.o
LOAD /tmp/cc9XuPv8.debug.temp.o
LOAD /tmp/ccb5VQU8.debug.temp.o
LOAD /tmp/cc2HSl78.debug.temp.o
LOAD /tmp/cc0uJTZ9.debug.temp.o
LOAD /tmp/ccCo9Qwa.debug.temp.o
LOAD /tmp/ccwddho6.debug.temp.o
LOAD /tmp/cc6UnAda.debug.temp.o
LOAD /tmp/ccaa7tL7.debug.temp.o
LOAD /tmp/ccbtGWG7.debug.temp.o
LOAD /tmp/ccBJJR69.debug.temp.o
LOAD /tmp/cc5Ldrl7.debug.temp.o
LOAD /tmp/cckKRa48.debug.temp.o
LOAD /tmp/ccXFU4B6.debug.temp.o
LOAD /tmp/ccZowZR6.debug.temp.o
LOAD /tmp/cciePHe7.debug.temp.o
LOAD /tmp/ccCaHeN8.debug.temp.o
LOAD /tmp/ccHjRlx8.debug.temp.o
LOAD /tmp/ccb8PDz8.debug.temp.o
LOAD /tmp/ccrekuB7.debug.temp.o
LOAD /tmp/ccR0zYr6.debug.temp.o
LOAD /tmp/cctxtfE8.debug.temp.o
LOAD /tmp/ccqN8418.debug.temp.o
LOAD /tmp/ccIkAgk9.debug.temp.o
LOAD /tmp/ccPI88C8.debug.temp.o
LOAD /tmp/cc5f3Om7.debug.temp.o
LOAD /tmp/ccDKWCe9.debug.temp.o
LOAD /tmp/ccs2zyp8.debug.temp.o
LOAD /tmp/cclTkES7.debug.temp.o
LOAD /tmp/cc16GTZ8.debug.temp.o
LOAD /tmp/ccjcwHP8.debug.temp.o
LOAD /tmp/ccFavrm6.debug.temp.o
LOAD /tmp/ccNjrLba.debug.temp.o
LOAD /tmp/ccCOju99.debug.temp.o
LOAD /tmp/ccooeca9.debug.temp.o
LOAD /tmp/ccNyn6ua.debug.temp.o
LOAD /tmp/ccu29xqa.debug.temp.o
LOAD /tmp/ccNazIB7.debug.temp.o
LOAD /tmp/ccCstdEa.debug.temp.o
LOAD /tmp/ccS29SY8.debug.temp.o
LOAD /tmp/cciCVYca.debug.temp.o
LOAD /tmp/ccavUY56.debug.temp.o
LOAD /tmp/ccqoQZr8.debug.temp.o
LOAD /tmp/ccWCkyw8.debug.temp.o
LOAD /tmp/ccrgkuC6.debug.temp.o
LOAD /tmp/ccuQH9b8.debug.temp.o
LOAD /tmp/ccYSNnwa.debug.temp.o
LOAD /tmp/ccfY5PB7.debug.temp.o
LOAD /tmp/ccblZJb7.debug.temp.o
LOAD /tmp/ccylyyH7.debug.temp.o
LOAD /tmp/ccWmv4z8.debug.temp.o
LOAD /tmp/ccw3hrL8.debug.temp.o
LOAD /tmp/ccY9An18.debug.temp.o
LOAD /tmp/ccfBBJB9.debug.temp.o
LOAD /tmp/ccyBxcCa.debug.temp.o
LOAD /tmp/ccH3O939.debug.temp.o
LOAD /tmp/ccfmA446.debug.temp.o
LOAD /tmp/ccsZ4zNa.debug.temp.o
LOAD /tmp/ccbqLP77.debug.temp.o
LOAD /tmp/ccv6Cji6.debug.temp.o
LOAD /tmp/ccRxYJC6.debug.temp.o
LOAD /tmp/ccvZRPQ7.debug.temp.o
LOAD /tmp/cczqHxR6.debug.temp.o
LOAD /tmp/ccpUQtt8.debug.temp.o
LOAD /tmp/ccCK5ZA7.debug.temp.o
LOAD /tmp/ccwMUMv8.debug.temp.o
LOAD /tmp/ccA7t9w6.debug.temp.o
LOAD /tmp/cco5Max6.debug.temp.o
LOAD /tmp/ccy1lBA6.debug.temp.o
LOAD /tmp/ccGAtbg6.debug.temp.o
LOAD /tmp/ccBKgRM8.debug.temp.o
LOAD /tmp/cc7juy76.debug.temp.o
LOAD /tmp/ccCzd0w8.debug.temp.o
LOAD /tmp/ccxe7Is6.debug.temp.o
LOAD /tmp/cc3orrq6.debug.temp.o
LOAD /tmp/ccJZl2ha.debug.temp.o
LOAD /tmp/ccGVYhn9.debug.temp.o
LOAD /tmp/ccqWy9Z7.debug.temp.o
LOAD /tmp/ccMh8mO6.debug.temp.o
LOAD /tmp/ccKQPtF9.debug.temp.o
LOAD /tmp/cchQvuX6.debug.temp.o
LOAD /tmp/ccarn2n8.debug.temp.o
LOAD /tmp/ccuhhcp8.debug.temp.o
LOAD /tmp/ccdoe1P7.debug.temp.o
LOAD /home/alastair/pftf-rpi4/Build/RPi4/RELEASE_GCC5/AARCH64/MdeModulePkg/Core/Dxe/DxeMain/OUTPUT/DxeCore.lib
LOAD /home/alastair/pftf-rpi4/Build/RPi4/RELEASE_GCC5/AARCH64/MdePkg/Library/DxePcdLib/DxePcdLib/OUTPUT/DxePcdLib.lib
LOAD /home/alastair/pftf-rpi4/Build/RPi4/RELEASE_GCC5/AARCH64/MdePkg/Library/BaseDebugLibNull/BaseDebugLibNull/OUTPUT/BaseDebugLibNull.lib
LOAD /home/alastair/pftf-rpi4/Build/RPi4/RELEASE_GCC5/AARCH64/MdePkg/Library/BaseLib/BaseLib/OUTPUT/BaseLib.lib
LOAD /home/alastair/pftf-rpi4/Build/RPi4/RELEASE_GCC5/AARCH64/MdePkg/Library/BaseMemoryLibOptDxe/BaseMemoryLibOptDxe/OUTPUT/BaseMemoryLibOptDxe.lib
LOAD /home/alastair/pftf-rpi4/Build/RPi4/RELEASE_GCC5/AARCH64/MdePkg/Library/UefiBootServicesTableLib/UefiBootServicesTableLib/OUTPUT/UefiBootServicesTableLib.lib
LOAD /home/alastair/pftf-rpi4/Build/RPi4/RELEASE_GCC5/AARCH64/MdePkg/Library/BasePrintLib/BasePrintLib/OUTPUT/BasePrintLib.lib
LOAD /home/alastair/pftf-rpi4/Build/RPi4/RELEASE_GCC5/AARCH64/MdeModulePkg/Library/DxeCoreMemoryAllocationLib/DxeCoreMemoryAllocationLib/OUTPUT/DxeCoreMemoryAllocationLib.lib
LOAD /home/alastair/pftf-rpi4/Build/RPi4/RELEASE_GCC5/AARCH64/MdePkg/Library/BaseIoLibIntrinsic/BaseIoLibIntrinsic/OUTPUT/BaseIoLibIntrinsic.lib
LOAD /home/alastair/pftf-rpi4/Build/RPi4/RELEASE_GCC5/AARCH64/ArmPkg/Library/ArmLib/ArmBaseLib/OUTPUT/ArmBaseLib.lib
LOAD /home/alastair/pftf-rpi4/Build/RPi4/RELEASE_GCC5/AARCH64/MdePkg/Library/UefiRuntimeServicesTableLib/UefiRuntimeServicesTableLib/OUTPUT/UefiRuntimeServicesTableLib.lib
LOAD /home/alastair/pftf-rpi4/Build/RPi4/RELEASE_GCC5/AARCH64/MdePkg/Library/UefiDevicePathLib/UefiDevicePathLib/OUTPUT/UefiDevicePathLib.lib
LOAD /home/alastair/pftf-rpi4/Build/RPi4/RELEASE_GCC5/AARCH64/ArmPlatformPkg/Library/PL011UartLib/PL011UartLib/OUTPUT/PL011UartLib.lib
LOAD /home/alastair/pftf-rpi4/Build/RPi4/RELEASE_GCC5/AARCH64/MdePkg/Library/BasePeCoffGetEntryPointLib/BasePeCoffGetEntryPointLib/OUTPUT/BasePeCoffGetEntryPointLib.lib
LOAD /home/alastair/pftf-rpi4/Build/RPi4/RELEASE_GCC5/AARCH64/ArmPkg/Library/ArmGenericTimerPhyCounterLib/ArmGenericTimerPhyCounterLib/OUTPUT/ArmGenericTimerPhyCounterLib.lib
LOAD /home/alastair/pftf-rpi4/Build/RPi4/RELEASE_GCC5/AARCH64/MdePkg/Library/UefiLib/UefiLib/OUTPUT/UefiLib.lib
LOAD /home/alastair/pftf-rpi4/Build/RPi4/RELEASE_GCC5/AARCH64/MdePkg/Library/DxeCoreEntryPoint/DxeCoreEntryPoint/OUTPUT/DxeCoreEntryPoint.lib
LOAD /home/alastair/pftf-rpi4/Build/RPi4/RELEASE_GCC5/AARCH64/Platform/RaspberryPi/Library/DualSerialPortLib/DebugDualSerialPortLib/OUTPUT/DebugDualSerialPortLib.lib
LOAD /home/alastair/pftf-rpi4/Build/RPi4/RELEASE_GCC5/AARCH64/ArmPkg/Library/ArmDisassemblerLib/ArmDisassemblerLib/OUTPUT/ArmDisassemblerLib.lib
LOAD /home/alastair/pftf-rpi4/Build/RPi4/RELEASE_GCC5/AARCH64/ArmPkg/Library/ArmArchTimerLib/ArmArchTimerLib/OUTPUT/ArmArchTimerLib.lib
LOAD /home/alastair/pftf-rpi4/Build/RPi4/RELEASE_GCC5/AARCH64/MdePkg/Library/DxeServicesLib/DxeServicesLib/OUTPUT/DxeServicesLib.lib
LOAD /home/alastair/pftf-rpi4/Build/RPi4/RELEASE_GCC5/AARCH64/MdePkg/Library/BaseReportStatusCodeLibNull/BaseReportStatusCodeLibNull/OUTPUT/BaseReportStatusCodeLibNull.lib
LOAD /home/alastair/pftf-rpi4/Build/RPi4/RELEASE_GCC5/AARCH64/MdePkg/Library/DxeCoreHobLib/DxeCoreHobLib/OUTPUT/DxeCoreHobLib.lib
LOAD /home/alastair/pftf-rpi4/Build/RPi4/RELEASE_GCC5/AARCH64/ArmPkg/Library/DebugPeCoffExtraActionLib/DebugPeCoffExtraActionLib/OUTPUT/DebugUnixPeCoffExtraActionLib.lib
LOAD /home/alastair/pftf-rpi4/Build/RPi4/RELEASE_GCC5/AARCH64/ArmPkg/Library/DefaultExceptionHandlerLib/DefaultExceptionHandlerLib/OUTPUT/DefaultExceptionHandlerLib.lib
LOAD /home/alastair/pftf-rpi4/Build/RPi4/RELEASE_GCC5/AARCH64/ArmPkg/Library/ArmCacheMaintenanceLib/ArmCacheMaintenanceLib/OUTPUT/ArmCacheMaintenanceLib.lib
LOAD /home/alastair/pftf-rpi4/Build/RPi4/RELEASE_GCC5/AARCH64/MdePkg/Library/DxeExtractGuidedSectionLib/DxeExtractGuidedSectionLib/OUTPUT/DxeExtractGuidedSectionLib.lib
LOAD /home/alastair/pftf-rpi4/Build/RPi4/RELEASE_GCC5/AARCH64/MdePkg/Library/BaseUefiDecompressLib/BaseUefiDecompressLib/OUTPUT/BaseUefiDecompressLib.lib
LOAD /home/alastair/pftf-rpi4/Build/RPi4/RELEASE_GCC5/AARCH64/MdeModulePkg/Library/DxeCorePerformanceLib/DxeCorePerformanceLib/OUTPUT/DxeCorePerformanceLib.lib
LOAD /home/alastair/pftf-rpi4/Build/RPi4/RELEASE_GCC5/AARCH64/MdePkg/Library/BasePeCoffLib/BasePeCoffLib/OUTPUT/BasePeCoffLib.lib
LOAD /home/alastair/pftf-rpi4/Build/RPi4/RELEASE_GCC5/AARCH64/MdeModulePkg/Library/DebugAgentLibNull/DebugAgentLibNull/OUTPUT/DebugAgentLibNull.lib
LOAD /home/alastair/pftf-rpi4/Build/RPi4/RELEASE_GCC5/AARCH64/ArmPkg/Library/ArmExceptionLib/ArmExceptionLib/OUTPUT/ArmExceptionLib.lib
LOAD /home/alastair/pftf-rpi4/Build/RPi4/RELEASE_GCC5/AARCH64/MdePkg/Library/BaseStackCheckLib/BaseStackCheckLib/OUTPUT/BaseStackCheckLib.lib
LOAD /home/alastair/pftf-rpi4/Build/RPi4/RELEASE_GCC5/AARCH64/ArmPkg/Library/CompilerIntrinsicsLib/CompilerIntrinsicsLib/OUTPUT/CompilerIntrinsicsLib.lib
LOAD /home/alastair/pftf-rpi4/Build/RPi4/RELEASE_GCC5/AARCH64/MdeModulePkg/Library/DxeCrc32GuidedSectionExtractLib/DxeCrc32GuidedSectionExtractLib/OUTPUT/DxeCrc32GuidedSectionExtractLib.lib
END GROUP
                0x0000000000000228                . = PECOFF_HEADER_SIZE

.gnu.version_d  0x0000000000000228        0x0
 .gnu.version_d
                0x0000000000000228        0x0 /home/alastair/pftf-rpi4/edk2/ArmPkg/Library/GccLto/liblto-aarch64.a

.gnu.version    0x0000000000000228        0x0
 .gnu.version   0x0000000000000228        0x0 /home/alastair/pftf-rpi4/edk2/ArmPkg/Library/GccLto/liblto-aarch64.a

.gnu.version_r  0x0000000000000228        0x0
 .gnu.version_r
                0x0000000000000228        0x0 /home/alastair/pftf-rpi4/edk2/ArmPkg/Library/GccLto/liblto-aarch64.a

.text           0x0000000000001000    0x183d0
 *(.text .text.* .stub .gnu.linkonce.t.*)
 .text.InternalGetSectionFromFv.constprop.0
                0x0000000000001000       0xb4 /tmp/DxeCore.dll.yq5Mi7.ltrans0.ltrans.o
 .text.SerialPortWritable.constprop.0
                0x00000000000010b4        0x8 /tmp/DxeCore.dll.yq5Mi7.ltrans0.ltrans.o
 .text.SerialPortWrite
                0x00000000000010bc      0x120 /tmp/DxeCore.dll.yq5Mi7.ltrans0.ltrans.o
 .text.BasePrintLibFillBuffer
                0x00000000000011dc       0x34 /tmp/DxeCore.dll.yq5Mi7.ltrans0.ltrans.o
 .text.PeCoffLoaderImageAddress
                0x0000000000001210       0x30 /tmp/DxeCore.dll.yq5Mi7.ltrans0.ltrans.o
 .text.FillBuf  0x0000000000001240       0x90 /tmp/DxeCore.dll.yq5Mi7.ltrans0.ltrans.o
 .text.GetBits  0x00000000000012d0       0x28 /tmp/DxeCore.dll.yq5Mi7.ltrans0.ltrans.o
 .text.EfiEventEmptyFunction
                0x00000000000012f8        0x4 /tmp/DxeCore.dll.yq5Mi7.ltrans0.ltrans.o
                0x00000000000012f8                EfiEventEmptyFunction
 .text.AsciiStrnLenS
                0x00000000000012fc       0x3c /tmp/DxeCore.dll.yq5Mi7.ltrans0.ltrans.o
 .text.AsciiStrCpyS.constprop.0
                0x0000000000001338       0xa4 /tmp/DxeCore.dll.yq5Mi7.ltrans0.ltrans.o
 .text.AsciiStrnCpyS
                0x00000000000013dc       0xec /tmp/DxeCore.dll.yq5Mi7.ltrans0.ltrans.o
 .text.StrnLenS
                0x00000000000014c8       0x3c /tmp/DxeCore.dll.yq5Mi7.ltrans0.ltrans.o
 .text.UnicodeStrnToAsciiStrS
                0x0000000000001504       0xf4 /tmp/DxeCore.dll.yq5Mi7.ltrans0.ltrans.o
 .text.WriteUnaligned16
                0x00000000000015f8       0x18 /tmp/DxeCore.dll.yq5Mi7.ltrans0.ltrans.o
 .text.AsciiStrCmp
                0x0000000000001610       0x28 /tmp/DxeCore.dll.yq5Mi7.ltrans0.ltrans.o
 .text.IsKnownTokens.part.0
                0x0000000000001638       0xe4 /tmp/DxeCore.dll.yq5Mi7.ltrans0.ltrans.o
 .text.AsciiStrLen
                0x000000000000171c       0x1c /tmp/DxeCore.dll.yq5Mi7.ltrans0.ltrans.o
 .text.StrSize  0x0000000000001738       0x18 /tmp/DxeCore.dll.yq5Mi7.ltrans0.ltrans.o
 .text.HighBitSet64
                0x0000000000001750       0x68 /tmp/DxeCore.dll.yq5Mi7.ltrans0.ltrans.o
 .text.CalculateSum16
                0x00000000000017b8       0x30 /tmp/DxeCore.dll.yq5Mi7.ltrans0.ltrans.o
 .text.CalculateSum8
                0x00000000000017e8       0x2c /tmp/DxeCore.dll.yq5Mi7.ltrans0.ltrans.o
 .text.CalculateCheckSum8
                0x0000000000001814       0x18 /tmp/DxeCore.dll.yq5Mi7.ltrans0.ltrans.o
 .text.PopBool  0x000000000000182c       0x38 /tmp/DxeCore.dll.yq5Mi7.ltrans0.ltrans.o
 .text.GetFileState
                0x0000000000001864       0x3c /tmp/DxeCore.dll.yq5Mi7.ltrans0.ltrans.o
 .text.FvSetVolumeInfo
                0x00000000000018a0        0x8 /tmp/DxeCore.dll.yq5Mi7.ltrans0.ltrans.o
 .text.FvGetVolumeInfo
                0x00000000000018a8        0x8 /tmp/DxeCore.dll.yq5Mi7.ltrans0.ltrans.o
 .text.FwVolBlockSetAttributes
                0x00000000000018b0        0x8 /tmp/DxeCore.dll.yq5Mi7.ltrans0.ltrans.o
 .text.FvSetVolumeAttributes
                0x00000000000018b8        0x8 /tmp/DxeCore.dll.yq5Mi7.ltrans0.ltrans.o
 .text.FvGetVolumeAttributes
                0x00000000000018c0       0x68 /tmp/DxeCore.dll.yq5Mi7.ltrans0.ltrans.o
 .text.FfsAttributes2FvFileAttributes
                0x0000000000001928       0x34 /tmp/DxeCore.dll.yq5Mi7.ltrans0.ltrans.o
 .text.FvWriteFile
                0x000000000000195c        0x8 /tmp/DxeCore.dll.yq5Mi7.ltrans0.ltrans.o
 .text.CoreSetInterruptState
                0x0000000000001964       0x98 /tmp/DxeCore.dll.yq5Mi7.ltrans0.ltrans.o
 .text.CoreRaiseTpl
                0x00000000000019fc       0x4c /tmp/DxeCore.dll.yq5Mi7.ltrans0.ltrans.o
                0x00000000000019fc                CoreRaiseTpl
 .text.ReadFvbData
                0x0000000000001a48      0x198 /tmp/DxeCore.dll.yq5Mi7.ltrans0.ltrans.o
 .text.FwVolBlockGetBlockSize
                0x0000000000001be0       0x64 /tmp/DxeCore.dll.yq5Mi7.ltrans0.ltrans.o
 .text.FwVolBlockGetPhysicalAddress
                0x0000000000001c44       0x24 /tmp/DxeCore.dll.yq5Mi7.ltrans0.ltrans.o
 .text.FwVolBlockWriteBlock
                0x0000000000001c68        0x8 /tmp/DxeCore.dll.yq5Mi7.ltrans0.ltrans.o
 .text.FwVolBlockEraseBlock
                0x0000000000001c70        0x8 /tmp/DxeCore.dll.yq5Mi7.ltrans0.ltrans.o
 .text.FwVolBlockGetAttributes
                0x0000000000001c78       0x14 /tmp/DxeCore.dll.yq5Mi7.ltrans0.ltrans.o
 .text.UnsetGuardPage
                0x0000000000001c8c       0x4c /tmp/DxeCore.dll.yq5Mi7.ltrans0.ltrans.o
 .text.GetTimeInNanoSecond
                0x0000000000001cd8       0x40 /tmp/DxeCore.dll.yq5Mi7.ltrans0.ltrans.o
 .text.MakeTable
                0x0000000000001d18      0x2b8 /tmp/DxeCore.dll.yq5Mi7.ltrans0.ltrans.o
 .text.GetPerformanceCounter
                0x0000000000001fd0        0x4 /tmp/DxeCore.dll.yq5Mi7.ltrans0.ltrans.o
 .text.CopyMem  0x0000000000001fd4       0x1c /tmp/DxeCore.dll.yq5Mi7.ltrans0.ltrans.o
                0x0000000000001fd4                CopyMem
 .text.PeCoffLoaderImageReadFromMemory
                0x0000000000001ff0       0x24 /tmp/DxeCore.dll.yq5Mi7.ltrans0.ltrans.o
                0x0000000000001ff0                PeCoffLoaderImageReadFromMemory
 .text.CoreGetDepexSectionAndPreProccess
                0x0000000000002014      0x104 /tmp/DxeCore.dll.yq5Mi7.ltrans0.ltrans.o
 .text.FwVolBlockReadBlock
                0x0000000000002118       0xb0 /tmp/DxeCore.dll.yq5Mi7.ltrans0.ltrans.o
 .text.SetMem   0x00000000000021c8       0x10 /tmp/DxeCore.dll.yq5Mi7.ltrans0.ltrans.o
                0x00000000000021c8                SetMem
 .text.ReadPTLen
                0x00000000000021d8      0x174 /tmp/DxeCore.dll.yq5Mi7.ltrans0.ltrans.o
 .text.SetMem64
                0x000000000000234c        0x8 /tmp/DxeCore.dll.yq5Mi7.ltrans0.ltrans.o
 .text.IsZeroGuid
                0x0000000000002354        0x8 /tmp/DxeCore.dll.yq5Mi7.ltrans0.ltrans.o
 .text.CoreReleaseDispatcherLock
                0x000000000000235c        0xc /tmp/DxeCore.dll.yq5Mi7.ltrans0.ltrans.o
 .text.CoreReleaseEventLock
                0x0000000000002368        0xc /tmp/DxeCore.dll.yq5Mi7.ltrans0.ltrans.o
 .text.CoreAcquireDispatcherLock
                0x0000000000002374        0xc /tmp/DxeCore.dll.yq5Mi7.ltrans0.ltrans.o
 .text.CoreAcquireEventLock
                0x0000000000002380        0xc /tmp/DxeCore.dll.yq5Mi7.ltrans0.ltrans.o
 .text.MergeMemoryMapDescriptor.constprop.0
                0x000000000000238c       0x88 /tmp/DxeCore.dll.yq5Mi7.ltrans0.ltrans.o
                0x000000000000238c                MergeMemoryMapDescriptor.constprop.0
 .text.DivU64x32Remainder
                0x0000000000002414       0x18 /tmp/DxeCore.dll.yq5Mi7.ltrans0.ltrans.o
                0x0000000000002414                DivU64x32Remainder
 .text.IsNull.constprop.0
                0x000000000000242c       0x14 /tmp/DxeCore.dll.yq5Mi7.ltrans0.ltrans.o
                0x000000000000242c                IsNull.constprop.0
 .text.GetNextNode.constprop.0
                0x0000000000002440        0x8 /tmp/DxeCore.dll.yq5Mi7.ltrans0.ltrans.o
                0x0000000000002440                GetNextNode.constprop.0
 .text.LongJump.constprop.0
                0x0000000000002448        0x8 /tmp/DxeCore.dll.yq5Mi7.ltrans0.ltrans.o
                0x0000000000002448                LongJump.constprop.0
 .text.GetPerformanceCounterProperties.constprop.0
                0x0000000000002450       0x14 /tmp/DxeCore.dll.yq5Mi7.ltrans0.ltrans.o
                0x0000000000002450                GetPerformanceCounterProperties.constprop.0
 .text.InitializeCpuExceptionHandlersEx.constprop.0
                0x0000000000002464       0x54 /tmp/DxeCore.dll.yq5Mi7.ltrans0.ltrans.o
                0x0000000000002464                InitializeCpuExceptionHandlersEx.constprop.0
 .text.DebugCodeEnabled
                0x00000000000024b8        0x8 /tmp/DxeCore.dll.yq5Mi7.ltrans0.ltrans.o
                0x00000000000024b8                DebugClearMemoryEnabled
                0x00000000000024b8                ReportProgressCodeEnabled
                0x00000000000024b8                ReportDebugCodeEnabled
                0x00000000000024b8                ReportErrorCodeEnabled
                0x00000000000024b8                DebugCodeEnabled
 .text.CoreDumpGcdMemorySpaceMap.constprop.0
                0x00000000000024c0       0x64 /tmp/DxeCore.dll.yq5Mi7.ltrans0.ltrans.o
                0x00000000000024c0                CoreDumpGcdMemorySpaceMap.constprop.0
 .text.CoreDumpGcdIoSpaceMap.constprop.0
                0x0000000000002524       0x64 /tmp/DxeCore.dll.yq5Mi7.ltrans0.ltrans.o
                0x0000000000002524                CoreDumpGcdIoSpaceMap.constprop.0
 .text.PeCoffLoaderRelocateImage
                0x0000000000002588      0x290 /tmp/DxeCore.dll.yq5Mi7.ltrans0.ltrans.o
                0x0000000000002588                PeCoffLoaderRelocateImage
 .text.PeCoffLoaderGetImageInfo
                0x0000000000002818      0x814 /tmp/DxeCore.dll.yq5Mi7.ltrans0.ltrans.o
                0x0000000000002818                PeCoffLoaderGetImageInfo
 .text.LogPerformanceMeasurementEnabled
                0x000000000000302c        0x8 /tmp/DxeCore.dll.yq5Mi7.ltrans0.ltrans.o
                0x000000000000302c                LogPerformanceMeasurementEnabled
 .text.UefiDecompress
                0x0000000000003034      0x428 /tmp/DxeCore.dll.yq5Mi7.ltrans0.ltrans.o
                0x0000000000003034                UefiDecompress
 .text.LShiftU64
                0x000000000000345c        0x8 /tmp/DxeCore.dll.yq5Mi7.ltrans0.ltrans.o
                0x000000000000345c                LShiftU64
 .text.InvalidateInstructionCacheRange
                0x0000000000003464       0xa4 /tmp/DxeCore.dll.yq5Mi7.ltrans0.ltrans.o
                0x0000000000003464                InvalidateInstructionCacheRange
 .text.GetNextHob
                0x0000000000003508       0x34 /tmp/DxeCore.dll.yq5Mi7.ltrans0.ltrans.o
                0x0000000000003508                GetNextHob
 .text.TimerConstructor
                0x000000000000353c       0x18 /tmp/DxeCore.dll.yq5Mi7.ltrans0.ltrans.o
                0x000000000000353c                TimerConstructor
 .text.EfiCreateProtocolNotifyEvent
                0x0000000000003554       0x98 /tmp/DxeCore.dll.yq5Mi7.ltrans0.ltrans.o
                0x0000000000003554                EfiCreateProtocolNotifyEvent
 .text.PeCoffGetSizeOfHeaders
                0x00000000000035ec       0x5c /tmp/DxeCore.dll.yq5Mi7.ltrans0.ltrans.o
                0x00000000000035ec                PeCoffGetSizeOfHeaders
 .text.PeCoffLoaderGetPdbPointer
                0x0000000000003648      0x178 /tmp/DxeCore.dll.yq5Mi7.ltrans0.ltrans.o
                0x0000000000003648                PeCoffLoaderGetPdbPointer
 .text.PeCoffLoaderGetEntryPoint
                0x00000000000037c0       0x70 /tmp/DxeCore.dll.yq5Mi7.ltrans0.ltrans.o
                0x00000000000037c0                PeCoffLoaderGetEntryPoint
 .text.DevicePathFromHandle
                0x0000000000003830       0x6c /tmp/DxeCore.dll.yq5Mi7.ltrans0.ltrans.o
                0x0000000000003830                DevicePathFromHandle
 .text.IsDevicePathEnd
                0x000000000000389c       0x24 /tmp/DxeCore.dll.yq5Mi7.ltrans0.ltrans.o
                0x000000000000389c                IsDevicePathEnd
 .text.InternalAllocatePool
                0x00000000000038c0       0x5c /tmp/DxeCore.dll.yq5Mi7.ltrans0.ltrans.o
                0x00000000000038c0                InternalAllocatePool
 .text.AllocateCopyPool
                0x000000000000391c       0x3c /tmp/DxeCore.dll.yq5Mi7.ltrans0.ltrans.o
                0x000000000000391c                AllocateCopyPool
 .text.AllocateRuntimeCopyPool
                0x0000000000003958       0x3c /tmp/DxeCore.dll.yq5Mi7.ltrans0.ltrans.o
                0x0000000000003958                AllocateRuntimeCopyPool
 .text.AllocatePool
                0x0000000000003994       0x1c /tmp/DxeCore.dll.yq5Mi7.ltrans0.ltrans.o
                0x0000000000003994                AllocatePool
 .text.GetEfiGlobalVariable2.constprop.0
                0x00000000000039b0       0xfc /tmp/DxeCore.dll.yq5Mi7.ltrans0.ltrans.o
 .text.PushBool
                0x0000000000003aac       0xc8 /tmp/DxeCore.dll.yq5Mi7.ltrans0.ltrans.o
 .text.CompareMem
                0x0000000000003b74       0x18 /tmp/DxeCore.dll.yq5Mi7.ltrans0.ltrans.o
                0x0000000000003b74                CompareMem
 .text.ZeroMem  0x0000000000003b8c        0xc /tmp/DxeCore.dll.yq5Mi7.ltrans0.ltrans.o
                0x0000000000003b8c                ZeroMem
 .text.PeCoffLoaderLoadImage
                0x0000000000003b98      0x580 /tmp/DxeCore.dll.yq5Mi7.ltrans0.ltrans.o
                0x0000000000003b98                PeCoffLoaderLoadImage
 .text.InternalAllocateZeroPool
                0x0000000000004118       0x34 /tmp/DxeCore.dll.yq5Mi7.ltrans0.ltrans.o
 .text.ReallocatePool
                0x000000000000414c       0x60 /tmp/DxeCore.dll.yq5Mi7.ltrans0.ltrans.o
                0x000000000000414c                ReallocatePool
 .text.ReallocateExtractHandlerTable
                0x00000000000041ac       0xd0 /tmp/DxeCore.dll.yq5Mi7.ltrans0.ltrans.o
                0x00000000000041ac                ReallocateExtractHandlerTable
 .text.AllocateZeroPool
                0x000000000000427c       0x1c /tmp/DxeCore.dll.yq5Mi7.ltrans0.ltrans.o
                0x000000000000427c                AllocateZeroPool
 .text.CoreNewDebugImageInfoEntry.constprop.0
                0x0000000000004298      0x124 /tmp/DxeCore.dll.yq5Mi7.ltrans0.ltrans.o
                0x0000000000004298                CoreNewDebugImageInfoEntry.constprop.0
 .text.CompareGuid
                0x00000000000043bc        0x4 /tmp/DxeCore.dll.yq5Mi7.ltrans0.ltrans.o
                0x00000000000043bc                CompareGuid
 .text.Crc32GuidedSectionHandler
                0x00000000000043c0      0x18c /tmp/DxeCore.dll.yq5Mi7.ltrans0.ltrans.o
                0x00000000000043c0                Crc32GuidedSectionHandler
 .text.Crc32GuidedSectionGetInfo
                0x000000000000454c       0xd4 /tmp/DxeCore.dll.yq5Mi7.ltrans0.ltrans.o
                0x000000000000454c                Crc32GuidedSectionGetInfo
 .text.GetNextGuidHob
                0x0000000000004620       0x50 /tmp/DxeCore.dll.yq5Mi7.ltrans0.ltrans.o
                0x0000000000004620                GetNextGuidHob
 .text.EfiGetSystemConfigurationTable
                0x0000000000004670       0x94 /tmp/DxeCore.dll.yq5Mi7.ltrans0.ltrans.o
                0x0000000000004670                EfiGetSystemConfigurationTable
 .text.CoreSchedule
                0x0000000000004704       0x8c /tmp/DxeCore.dll.yq5Mi7.ltrans0.ltrans.o
 .text.GetFwVolHeader
                0x0000000000004790      0x124 /tmp/DxeCore.dll.yq5Mi7.ltrans0.ltrans.o
 .text.CopyGuid
                0x00000000000048b4        0x8 /tmp/DxeCore.dll.yq5Mi7.ltrans0.ltrans.o
                0x00000000000048b4                CopyGuid
 .text.GetModuleInfoFromHandle.constprop.0
                0x00000000000048bc      0x41c /tmp/DxeCore.dll.yq5Mi7.ltrans0.ltrans.o
 .text.ProduceFVBProtocolOnBuffer.constprop.0
                0x0000000000004cd8      0x1f0 /tmp/DxeCore.dll.yq5Mi7.ltrans0.ltrans.o
                0x0000000000004cd8                ProduceFVBProtocolOnBuffer.constprop.0
 .text.CoreProcessFirmwareVolume
                0x0000000000004ec8       0x98 /tmp/DxeCore.dll.yq5Mi7.ltrans0.ltrans.o
 .text.ReportFpdtRecordBuffer
                0x0000000000004f60      0x3b4 /tmp/DxeCore.dll.yq5Mi7.ltrans0.ltrans.o
                0x0000000000004f60                ReportFpdtRecordBuffer
 .text.EfiInitializeFwVolDevicepathNode
                0x0000000000005314       0x30 /tmp/DxeCore.dll.yq5Mi7.ltrans0.ltrans.o
                0x0000000000005314                EfiInitializeFwVolDevicepathNode
 .text.FvGetNextFile
                0x0000000000005344      0x158 /tmp/DxeCore.dll.yq5Mi7.ltrans0.ltrans.o
 .text.FvReadFile
                0x000000000000549c      0x1ec /tmp/DxeCore.dll.yq5Mi7.ltrans0.ltrans.o
 .text.ReadUnaligned16
                0x0000000000005688       0x30 /tmp/DxeCore.dll.yq5Mi7.ltrans0.ltrans.o
                0x0000000000005688                ReadUnaligned16
 .text.IsDevicePathValid.part.0
                0x00000000000056b8       0xac /tmp/DxeCore.dll.yq5Mi7.ltrans0.ltrans.o
                0x00000000000056b8                IsDevicePathValid.part.0
 .text.UefiDevicePathLibGetDevicePathSize
                0x0000000000005764       0x6c /tmp/DxeCore.dll.yq5Mi7.ltrans0.ltrans.o
                0x0000000000005764                UefiDevicePathLibGetDevicePathSize
 .text.UefiDevicePathLibDuplicateDevicePath
                0x00000000000057d0       0x28 /tmp/DxeCore.dll.yq5Mi7.ltrans0.ltrans.o
                0x00000000000057d0                UefiDevicePathLibDuplicateDevicePath
 .text.UefiDevicePathLibAppendDevicePath
                0x00000000000057f8       0xcc /tmp/DxeCore.dll.yq5Mi7.ltrans0.ltrans.o
                0x00000000000057f8                UefiDevicePathLibAppendDevicePath
 .text.CoreFvToDevicePath.constprop.0
                0x00000000000058c4       0xa0 /tmp/DxeCore.dll.yq5Mi7.ltrans0.ltrans.o
 .text.ReadUnaligned32
                0x0000000000005964       0x28 /tmp/DxeCore.dll.yq5Mi7.ltrans0.ltrans.o
 .text.BasePrintLibSPrintMarker.constprop.0
                0x000000000000598c      0xdc4 /tmp/DxeCore.dll.yq5Mi7.ltrans0.ltrans.o
 .text.BasePrintLibSPrint.constprop.0
                0x0000000000006750       0xa0 /tmp/DxeCore.dll.yq5Mi7.ltrans0.ltrans.o
 .text.AsciiSPrint.constprop.0
                0x00000000000067f0       0xac /tmp/DxeCore.dll.yq5Mi7.ltrans0.ltrans.o
 .text.SPrintLength
                0x000000000000689c       0x40 /tmp/DxeCore.dll.yq5Mi7.ltrans0.ltrans.o
 .text.UnicodeVSPrintAsciiFormat
                0x00000000000068dc       0x54 /tmp/DxeCore.dll.yq5Mi7.ltrans0.ltrans.o
 .text.AsciiPrint
                0x0000000000006930      0x114 /tmp/DxeCore.dll.yq5Mi7.ltrans0.ltrans.o
 .text.UnicodeVSPrint
                0x0000000000006a44       0x54 /tmp/DxeCore.dll.yq5Mi7.ltrans0.ltrans.o
 .text.UnicodeSPrint.constprop.0
                0x0000000000006a98       0x98 /tmp/DxeCore.dll.yq5Mi7.ltrans0.ltrans.o
 .text.UefiDevicePathLibCatPrint
                0x0000000000006b30      0x158 /tmp/DxeCore.dll.yq5Mi7.ltrans0.ltrans.o
 .text.DevPathToTextNodeGeneric
                0x0000000000006c88       0xe8 /tmp/DxeCore.dll.yq5Mi7.ltrans0.ltrans.o
 .text.DevPathToTextEndInstance
                0x0000000000006d70        0xc /tmp/DxeCore.dll.yq5Mi7.ltrans0.ltrans.o
 .text.DevPathToTextBBS
                0x0000000000006d7c       0xa0 /tmp/DxeCore.dll.yq5Mi7.ltrans0.ltrans.o
 .text.DevPathToTextRamDisk
                0x0000000000006e1c      0x1a0 /tmp/DxeCore.dll.yq5Mi7.ltrans0.ltrans.o
 .text.DevPathRelativeOffsetRange
                0x0000000000006fbc       0x10 /tmp/DxeCore.dll.yq5Mi7.ltrans0.ltrans.o
 .text.DevPathToTextFvFile
                0x0000000000006fcc       0x10 /tmp/DxeCore.dll.yq5Mi7.ltrans0.ltrans.o
 .text.DevPathToTextFv
                0x0000000000006fdc       0x10 /tmp/DxeCore.dll.yq5Mi7.ltrans0.ltrans.o
 .text.DevPathToTextMediaProtocol
                0x0000000000006fec       0x10 /tmp/DxeCore.dll.yq5Mi7.ltrans0.ltrans.o
 .text.DevPathToTextFilePath
                0x0000000000006ffc       0x10 /tmp/DxeCore.dll.yq5Mi7.ltrans0.ltrans.o
 .text.DevPathToTextCDROM
                0x000000000000700c       0x30 /tmp/DxeCore.dll.yq5Mi7.ltrans0.ltrans.o
 .text.DevPathToTextHardDrive
                0x000000000000703c       0x8c /tmp/DxeCore.dll.yq5Mi7.ltrans0.ltrans.o
 .text.DevPathToTextUri
                0x00000000000070c8       0x6c /tmp/DxeCore.dll.yq5Mi7.ltrans0.ltrans.o
 .text.DevPathToTextBluetoothLE
                0x0000000000007134       0x44 /tmp/DxeCore.dll.yq5Mi7.ltrans0.ltrans.o
 .text.DevPathToTextWiFi
                0x0000000000007178       0x70 /tmp/DxeCore.dll.yq5Mi7.ltrans0.ltrans.o
 .text.DevPathToTextBluetooth
                0x00000000000071e8       0x24 /tmp/DxeCore.dll.yq5Mi7.ltrans0.ltrans.o
 .text.DevPathToTextVlan
                0x000000000000720c       0x10 /tmp/DxeCore.dll.yq5Mi7.ltrans0.ltrans.o
 .text.DevPathToTextiSCSI
                0x000000000000721c      0x10c /tmp/DxeCore.dll.yq5Mi7.ltrans0.ltrans.o
 .text.DevPathToTextUart
                0x0000000000007328      0x118 /tmp/DxeCore.dll.yq5Mi7.ltrans0.ltrans.o
 .text.DevPathToTextInfiniBand
                0x0000000000007440       0x1c /tmp/DxeCore.dll.yq5Mi7.ltrans0.ltrans.o
 .text.CatIPv6Address
                0x000000000000745c       0x8c /tmp/DxeCore.dll.yq5Mi7.ltrans0.ltrans.o
 .text.CatIPv4Address
                0x00000000000074e8       0x1c /tmp/DxeCore.dll.yq5Mi7.ltrans0.ltrans.o
 .text.DevPathToTextDns
                0x0000000000007504       0xc4 /tmp/DxeCore.dll.yq5Mi7.ltrans0.ltrans.o
 .text.CatNetworkProtocol
                0x00000000000075c8       0x38 /tmp/DxeCore.dll.yq5Mi7.ltrans0.ltrans.o
 .text.DevPathToTextIPv6
                0x0000000000007600       0xec /tmp/DxeCore.dll.yq5Mi7.ltrans0.ltrans.o
 .text.DevPathToTextIPv4
                0x00000000000076ec       0xf4 /tmp/DxeCore.dll.yq5Mi7.ltrans0.ltrans.o
 .text.DevPathToTextMacAddr
                0x00000000000077e0       0x8c /tmp/DxeCore.dll.yq5Mi7.ltrans0.ltrans.o
 .text.DevPathToTextI2O
                0x000000000000786c       0x10 /tmp/DxeCore.dll.yq5Mi7.ltrans0.ltrans.o
 .text.DevPathToTextSata
                0x000000000000787c       0x18 /tmp/DxeCore.dll.yq5Mi7.ltrans0.ltrans.o
 .text.DevPathToTextUsbClass
                0x0000000000007894      0x194 /tmp/DxeCore.dll.yq5Mi7.ltrans0.ltrans.o
 .text.DevPathToTextLogicalUnit
                0x0000000000007a28       0x10 /tmp/DxeCore.dll.yq5Mi7.ltrans0.ltrans.o
 .text.DevPathToTextUsbWWID
                0x0000000000007a38       0x8c /tmp/DxeCore.dll.yq5Mi7.ltrans0.ltrans.o
 .text.DevPathToTextUsb
                0x0000000000007ac4       0x14 /tmp/DxeCore.dll.yq5Mi7.ltrans0.ltrans.o
 .text.DevPathToText1394
                0x0000000000007ad8       0x10 /tmp/DxeCore.dll.yq5Mi7.ltrans0.ltrans.o
 .text.DevPathToTextEmmc
                0x0000000000007ae8       0x10 /tmp/DxeCore.dll.yq5Mi7.ltrans0.ltrans.o
 .text.DevPathToTextSd
                0x0000000000007af8       0x10 /tmp/DxeCore.dll.yq5Mi7.ltrans0.ltrans.o
 .text.DevPathToTextUfs
                0x0000000000007b08       0x14 /tmp/DxeCore.dll.yq5Mi7.ltrans0.ltrans.o
 .text.DevPathToTextNVMe
                0x0000000000007b1c       0x54 /tmp/DxeCore.dll.yq5Mi7.ltrans0.ltrans.o
 .text.DevPathToTextSasEx
                0x0000000000007b70      0x18c /tmp/DxeCore.dll.yq5Mi7.ltrans0.ltrans.o
 .text.DevPathToTextFibreEx
                0x0000000000007cfc       0xa8 /tmp/DxeCore.dll.yq5Mi7.ltrans0.ltrans.o
 .text.DevPathToTextFibre
                0x0000000000007da4       0x10 /tmp/DxeCore.dll.yq5Mi7.ltrans0.ltrans.o
 .text.DevPathToTextScsi
                0x0000000000007db4       0x14 /tmp/DxeCore.dll.yq5Mi7.ltrans0.ltrans.o
 .text.DevPathToTextAtapi
                0x0000000000007dc8       0x60 /tmp/DxeCore.dll.yq5Mi7.ltrans0.ltrans.o
 .text.DevPathToTextAcpiAdr
                0x0000000000007e28       0x9c /tmp/DxeCore.dll.yq5Mi7.ltrans0.ltrans.o
 .text.DevPathToTextAcpiEx
                0x0000000000007ec4      0x288 /tmp/DxeCore.dll.yq5Mi7.ltrans0.ltrans.o
 .text.DevPathToTextAcpi
                0x000000000000814c       0xc0 /tmp/DxeCore.dll.yq5Mi7.ltrans0.ltrans.o
 .text.DevPathToTextController
                0x000000000000820c       0x10 /tmp/DxeCore.dll.yq5Mi7.ltrans0.ltrans.o
 .text.DevPathToTextVendor
                0x000000000000821c      0x34c /tmp/DxeCore.dll.yq5Mi7.ltrans0.ltrans.o
 .text.DevPathToTextMemMap
                0x0000000000008568       0x14 /tmp/DxeCore.dll.yq5Mi7.ltrans0.ltrans.o
 .text.DevPathToTextPccard
                0x000000000000857c       0x10 /tmp/DxeCore.dll.yq5Mi7.ltrans0.ltrans.o
 .text.DevPathToTextPci
                0x000000000000858c       0x14 /tmp/DxeCore.dll.yq5Mi7.ltrans0.ltrans.o
 .text.UefiDecompressGetInfo
                0x00000000000085a0       0x70 /tmp/DxeCore.dll.yq5Mi7.ltrans0.ltrans.o
                0x00000000000085a0                UefiDecompressGetInfo
 .text.ReadUnaligned64
                0x0000000000008610       0x28 /tmp/DxeCore.dll.yq5Mi7.ltrans0.ltrans.o
                0x0000000000008610                ReadUnaligned64
 .text.DevPathToTextBmc
                0x0000000000008638       0x34 /tmp/DxeCore.dll.yq5Mi7.ltrans0.ltrans.o
 .text.CoreProcessFvImageFile
                0x000000000000866c      0x31c /tmp/DxeCore.dll.yq5Mi7.ltrans0.ltrans.o
 .text.AsciiStrSize
                0x0000000000008988       0x18 /tmp/DxeCore.dll.yq5Mi7.ltrans0.ltrans.o
                0x0000000000008988                AsciiStrSize
 .text.CopyStringIntoPerfRecordAndUpdateLength
                0x00000000000089a0       0x68 /tmp/DxeCore.dll.yq5Mi7.ltrans0.ltrans.o
 .text.CreatePerformanceMeasurement
                0x0000000000008a08      0x90c /tmp/DxeCore.dll.yq5Mi7.ltrans0.ltrans.o
                0x0000000000008a08                CreatePerformanceMeasurement
 .text.LogPerformanceMeasurement.constprop.0
                0x0000000000009314       0x1c /tmp/DxeCore.dll.yq5Mi7.ltrans0.ltrans.o
                0x0000000000009314                LogPerformanceMeasurement.constprop.0
 .text.RemoveEntryList
                0x0000000000009330       0x14 /tmp/DxeCore.dll.yq5Mi7.ltrans0.ltrans.o
                0x0000000000009330                RemoveEntryList
 .text.SwapListEntries
                0x0000000000009344       0x8c /tmp/DxeCore.dll.yq5Mi7.ltrans0.ltrans.o
                0x0000000000009344                SwapListEntries
 .text.IsNodeAtEnd
                0x00000000000093d0       0x20 /tmp/DxeCore.dll.yq5Mi7.ltrans0.ltrans.o
                0x00000000000093d0                IsNodeAtEnd
 .text.IsListEmpty
                0x00000000000093f0       0x10 /tmp/DxeCore.dll.yq5Mi7.ltrans0.ltrans.o
                0x00000000000093f0                IsListEmpty
 .text.CoreRestoreTpl
                0x0000000000009400      0x120 /tmp/DxeCore.dll.yq5Mi7.ltrans0.ltrans.o
                0x0000000000009400                CoreRestoreTpl
 .text.GetFirstNode
                0x0000000000009520        0x8 /tmp/DxeCore.dll.yq5Mi7.ltrans0.ltrans.o
                0x0000000000009520                GetFirstNode
 .text.FindChildNode.constprop.0
                0x0000000000009528      0x210 /tmp/DxeCore.dll.yq5Mi7.ltrans0.ltrans.o
 .text.FvReadFileSection
                0x0000000000009738      0x2f8 /tmp/DxeCore.dll.yq5Mi7.ltrans0.ltrans.o
 .text.InsertTailList
                0x0000000000009a30       0x18 /tmp/DxeCore.dll.yq5Mi7.ltrans0.ltrans.o
                0x0000000000009a30                InsertTailList
 .text.GenericProtocolNotify
                0x0000000000009a48      0x1a0 /tmp/DxeCore.dll.yq5Mi7.ltrans0.ltrans.o
 .text.CoreAddToDriverList
                0x0000000000009be8       0xa8 /tmp/DxeCore.dll.yq5Mi7.ltrans0.ltrans.o
 .text.CoreFwVolEventProtocolNotify
                0x0000000000009c90      0x4b8 /tmp/DxeCore.dll.yq5Mi7.ltrans0.ltrans.o
                0x0000000000009c90                CoreFwVolEventProtocolNotify
 .text.CoreInsertOnScheduledQueueWhileProcessingBeforeAndAfter
                0x000000000000a148       0xf8 /tmp/DxeCore.dll.yq5Mi7.ltrans0.ltrans.o
 .text.CoreTrust
                0x000000000000a240       0x9c /tmp/DxeCore.dll.yq5Mi7.ltrans0.ltrans.o
 .text.CoreNotifyEvent
                0x000000000000a2dc       0x64 /tmp/DxeCore.dll.yq5Mi7.ltrans0.ltrans.o
 .text.CoreCheckEvent
                0x000000000000a340       0xac /tmp/DxeCore.dll.yq5Mi7.ltrans0.ltrans.o
                0x000000000000a340                CoreCheckEvent
 .text.CoreInsertEventTimer
                0x000000000000a3ec       0x38 /tmp/DxeCore.dll.yq5Mi7.ltrans0.ltrans.o
 .text.InsertHeadList
                0x000000000000a424       0x14 /tmp/DxeCore.dll.yq5Mi7.ltrans0.ltrans.o
                0x000000000000a424                InsertHeadList
 .text.InitializeListHead
                0x000000000000a438        0x8 /tmp/DxeCore.dll.yq5Mi7.ltrans0.ltrans.o
                0x000000000000a438                InitializeListHead
 .text.NotifyFwVolBlock
                0x000000000000a440      0x5e0 /tmp/DxeCore.dll.yq5Mi7.ltrans0.ltrans.o
                0x000000000000a440                NotifyFwVolBlock
 .text.CpuDeadLoop
                0x000000000000aa20       0x18 /tmp/DxeCore.dll.yq5Mi7.ltrans0.ltrans.o
                0x000000000000aa20                CpuDeadLoop
 .text.CommonCExceptionHandler
                0x000000000000aa38      0x10c /tmp/DxeCore.dll.yq5Mi7.ltrans0.ltrans.o
                0x000000000000aa38                CommonCExceptionHandler
 .text.RShiftU64
                0x000000000000ab44        0x8 /tmp/DxeCore.dll.yq5Mi7.ltrans0.ltrans.o
                0x000000000000ab44                RShiftU64
 .text.Uint64ToBinString.part.0
                0x000000000000ab4c       0x38 /tmp/DxeCore.dll.yq5Mi7.ltrans0.ltrans.o
 .text.DumpGuardedMemoryBitmap.part.0
                0x000000000000ab84      0x1a0 /tmp/DxeCore.dll.yq5Mi7.ltrans0.ltrans.o
 .text.FindGuardedMemoryMap
                0x000000000000ad24      0x1e0 /tmp/DxeCore.dll.yq5Mi7.ltrans0.ltrans.o
 .text.SetGuardedMemoryBits
                0x000000000000af04      0x134 /tmp/DxeCore.dll.yq5Mi7.ltrans0.ltrans.o
 .text.MultU64x32
                0x000000000000b038        0xc /tmp/DxeCore.dll.yq5Mi7.ltrans0.ltrans.o
                0x000000000000b038                MultU64x32
 .text.CoreCreateEventInternal.part.0
                0x000000000000b044      0x1d0 /tmp/DxeCore.dll.yq5Mi7.ltrans0.ltrans.o
                0x000000000000b044                CoreCreateEventInternal.part.0
 .text.CoreCreateEventEx
                0x000000000000b214       0x30 /tmp/DxeCore.dll.yq5Mi7.ltrans0.ltrans.o
                0x000000000000b214                CoreCreateEventEx
 .text.CoreCreateEvent
                0x000000000000b244        0xc /tmp/DxeCore.dll.yq5Mi7.ltrans0.ltrans.o
                0x000000000000b244                CoreCreateEvent
 .text.CoreNotifyOnProtocolEntryTable
                0x000000000000b250       0x58 /tmp/DxeCore.dll.yq5Mi7.ltrans0.ltrans.o
                0x000000000000b250                CoreNotifyOnProtocolEntryTable
 .text.CoreNotifySignalList
                0x000000000000b2a8       0x64 /tmp/DxeCore.dll.yq5Mi7.ltrans0.ltrans.o
                0x000000000000b2a8                CoreNotifySignalList
 .text.CoreSignalEvent
                0x000000000000b30c       0x94 /tmp/DxeCore.dll.yq5Mi7.ltrans0.ltrans.o
                0x000000000000b30c                CoreSignalEvent
 .text.CoreTimerTick
                0x000000000000b3a0       0x70 /tmp/DxeCore.dll.yq5Mi7.ltrans0.ltrans.o
 .text.CoreWaitForEvent
                0x000000000000b410       0xa0 /tmp/DxeCore.dll.yq5Mi7.ltrans0.ltrans.o
                0x000000000000b410                CoreWaitForEvent
 .text.CoreSetTimer
                0x000000000000b4b0      0x10c /tmp/DxeCore.dll.yq5Mi7.ltrans0.ltrans.o
                0x000000000000b4b0                CoreSetTimer
 .text.CoreCloseEvent
                0x000000000000b5bc      0x110 /tmp/DxeCore.dll.yq5Mi7.ltrans0.ltrans.o
                0x000000000000b5bc                CoreCloseEvent
 .text.CoreDispatcher
                0x000000000000b6cc      0x3fc /tmp/DxeCore.dll.yq5Mi7.ltrans0.ltrans.o
                0x000000000000b6cc                CoreDispatcher
 .text.CoreCheckTimers
                0x000000000000bac8       0xd4 /tmp/DxeCore.dll.yq5Mi7.ltrans0.ltrans.o
                0x000000000000bac8                CoreCheckTimers
 .text.GuardFreedPages.part.0
                0x000000000000bb9c       0x5c /tmp/DxeCore.dll.yq5Mi7.ltrans0.ltrans.o
                0x000000000000bb9c                GuardFreedPages.part.0
 .text.GetLastGuardedFreePageAddress
                0x000000000000bbf8       0x9c /tmp/DxeCore.dll.yq5Mi7.ltrans0.ltrans.o
                0x000000000000bbf8                GetLastGuardedFreePageAddress
 .text.IsHeapGuardEnabled
                0x000000000000bc94        0x8 /tmp/DxeCore.dll.yq5Mi7.ltrans0.ltrans.o
                0x000000000000bc94                IsHeapGuardEnabled
 .text.CoreConvertPagesEx.constprop.0
                0x000000000000bc9c      0x334 /tmp/DxeCore.dll.yq5Mi7.ltrans0.ltrans.o
                0x000000000000bc9c                CoreConvertPagesEx.constprop.0
 .text.DumpGuardedMemoryBitmap
                0x000000000000bfd0       0x48 /tmp/DxeCore.dll.yq5Mi7.ltrans0.ltrans.o
                0x000000000000bfd0                DumpGuardedMemoryBitmap
 .text.GuardFreedPagesChecked
                0x000000000000c018       0x3c /tmp/DxeCore.dll.yq5Mi7.ltrans0.ltrans.o
                0x000000000000c018                GuardFreedPagesChecked
 .text.SetGuardPage
                0x000000000000c054       0x4c /tmp/DxeCore.dll.yq5Mi7.ltrans0.ltrans.o
                0x000000000000c054                SetGuardPage
 .text.GetGuardedMemoryBits
                0x000000000000c0a0      0x134 /tmp/DxeCore.dll.yq5Mi7.ltrans0.ltrans.o
                0x000000000000c0a0                GetGuardedMemoryBits
 .text.AdjustMemoryF
                0x000000000000c1d4       0x8c /tmp/DxeCore.dll.yq5Mi7.ltrans0.ltrans.o
                0x000000000000c1d4                AdjustMemoryF
 .text.IsGuardPage
                0x000000000000c260       0x38 /tmp/DxeCore.dll.yq5Mi7.ltrans0.ltrans.o
                0x000000000000c260                IsGuardPage
 .text.SetGuardForMemory
                0x000000000000c298       0x68 /tmp/DxeCore.dll.yq5Mi7.ltrans0.ltrans.o
                0x000000000000c298                SetGuardForMemory
 .text.ClearGuardedMemoryBits
                0x000000000000c300      0x134 /tmp/DxeCore.dll.yq5Mi7.ltrans0.ltrans.o
                0x000000000000c300                ClearGuardedMemoryBits
 .text.UnsetGuardForMemory.part.0
                0x000000000000c434       0x84 /tmp/DxeCore.dll.yq5Mi7.ltrans0.ltrans.o
                0x000000000000c434                UnsetGuardForMemory.part.0
 .text.CoreConvertPagesWithGuard
                0x000000000000c4b8       0xb4 /tmp/DxeCore.dll.yq5Mi7.ltrans0.ltrans.o
                0x000000000000c4b8                CoreConvertPagesWithGuard
 .text.GetPoolIndexFromSize
                0x000000000000c56c       0x2c /tmp/DxeCore.dll.yq5Mi7.ltrans1.ltrans.o
 .text.CoreConvertResourceDescriptorHobAttributesToCapabilities
                0x000000000000c598       0x48 /tmp/DxeCore.dll.yq5Mi7.ltrans1.ltrans.o
 .text.CoreSearchGcdMapEntry
                0x000000000000c5e0       0x7c /tmp/DxeCore.dll.yq5Mi7.ltrans1.ltrans.o
 .text.CoreValidateHandle
                0x000000000000c65c       0x40 /tmp/DxeCore.dll.yq5Mi7.ltrans1.ltrans.o
 .text.CoreGetNextLocateByProtocol
                0x000000000000c69c       0x54 /tmp/DxeCore.dll.yq5Mi7.ltrans1.ltrans.o
 .text.CoreGetNextLocateByRegisterNotify
                0x000000000000c6f0       0x40 /tmp/DxeCore.dll.yq5Mi7.ltrans1.ltrans.o
 .text.CoreGetNextLocateAllHandles
                0x000000000000c730       0x2c /tmp/DxeCore.dll.yq5Mi7.ltrans1.ltrans.o
 .text.IsImageRecordCodeSectionValid
                0x000000000000c75c       0x80 /tmp/DxeCore.dll.yq5Mi7.ltrans1.ltrans.o
 .text.SortImageRecordCodeSection
                0x000000000000c7dc       0x50 /tmp/DxeCore.dll.yq5Mi7.ltrans1.ltrans.o
 .text.GetImageRecordByAddress
                0x000000000000c82c       0x4c /tmp/DxeCore.dll.yq5Mi7.ltrans1.ltrans.o
 .text.CoreEfiNotAvailableYetArg5
                0x000000000000c878        0xc /tmp/DxeCore.dll.yq5Mi7.ltrans1.ltrans.o
                0x000000000000c878                CoreEfiNotAvailableYetArg5
 .text.CoreEfiNotAvailableYetArg4
                0x000000000000c884        0xc /tmp/DxeCore.dll.yq5Mi7.ltrans1.ltrans.o
                0x000000000000c884                CoreEfiNotAvailableYetArg4
 .text.CoreEfiNotAvailableYetArg3
                0x000000000000c890        0xc /tmp/DxeCore.dll.yq5Mi7.ltrans1.ltrans.o
                0x000000000000c890                CoreEfiNotAvailableYetArg3
 .text.CoreEfiNotAvailableYetArg2
                0x000000000000c89c        0xc /tmp/DxeCore.dll.yq5Mi7.ltrans1.ltrans.o
                0x000000000000c89c                CoreEfiNotAvailableYetArg2
 .text.CoreEfiNotAvailableYetArg1
                0x000000000000c8a8        0xc /tmp/DxeCore.dll.yq5Mi7.ltrans1.ltrans.o
                0x000000000000c8a8                CoreEfiNotAvailableYetArg1
 .text.SortMemoryMap.lto_priv.0
                0x000000000000c8b4       0xd8 /tmp/DxeCore.dll.yq5Mi7.ltrans1.ltrans.o
 .text.CoreReadImageFile
                0x000000000000c98c       0x80 /tmp/DxeCore.dll.yq5Mi7.ltrans1.ltrans.o
 .text.PageAlignAddress
                0x000000000000ca0c       0x38 /tmp/DxeCore.dll.yq5Mi7.ltrans1.ltrans.o
 .text.PageAlignLength
                0x000000000000ca44       0x30 /tmp/DxeCore.dll.yq5Mi7.ltrans1.ltrans.o
 .text.CoreGetProtocolInterface
                0x000000000000ca74       0x6c /tmp/DxeCore.dll.yq5Mi7.ltrans1.ltrans.o
 .text.EfiSizeToPages
                0x000000000000cae0       0x2c /tmp/DxeCore.dll.yq5Mi7.ltrans1.ltrans.o
 .text.CoreInternalWaitForTick
                0x000000000000cb0c       0x60 /tmp/DxeCore.dll.yq5Mi7.ltrans1.ltrans.o
 .text.CoreFindFreePagesI.part.0
                0x000000000000cb6c      0x180 /tmp/DxeCore.dll.yq5Mi7.ltrans1.ltrans.o
 .text.ApplyMemoryProtectionPolicy
                0x000000000000ccec       0x64 /tmp/DxeCore.dll.yq5Mi7.ltrans1.ltrans.o
 .text.MergeMemoryMap
                0x000000000000cd50      0x158 /tmp/DxeCore.dll.yq5Mi7.ltrans1.ltrans.o
 .text.CoreInsertGcdMapEntry
                0x000000000000cea8       0xac /tmp/DxeCore.dll.yq5Mi7.ltrans1.ltrans.o
 .text.FindLargestFreeRegion
                0x000000000000cf54      0x128 /tmp/DxeCore.dll.yq5Mi7.ltrans1.ltrans.o
 .text.CoreFindProtocolEntry
                0x000000000000d07c       0xb4 /tmp/DxeCore.dll.yq5Mi7.ltrans1.ltrans.o
 .text.CoreFindProtocolInterface
                0x000000000000d130       0x70 /tmp/DxeCore.dll.yq5Mi7.ltrans1.ltrans.o
 .text.CoreRemoveInterfaceFromProtocol
                0x000000000000d1a0       0x5c /tmp/DxeCore.dll.yq5Mi7.ltrans1.ltrans.o
 .text.CoreSetWatchdogTimer
                0x000000000000d1fc       0x58 /tmp/DxeCore.dll.yq5Mi7.ltrans1.ltrans.o
 .text.CoreStall
                0x000000000000d254       0xdc /tmp/DxeCore.dll.yq5Mi7.ltrans1.ltrans.o
 .text.DxeMainUefiDecompressGetInfo
                0x000000000000d330       0x30 /tmp/DxeCore.dll.yq5Mi7.ltrans1.ltrans.o
 .text.DxeMainUefiDecompress
                0x000000000000d360       0xc4 /tmp/DxeCore.dll.yq5Mi7.ltrans1.ltrans.o
 .text.CoreConvertPages
                0x000000000000d424       0x10 /tmp/DxeCore.dll.yq5Mi7.ltrans1.ltrans.o
                0x000000000000d424                CoreConvertPages
 .text.RemoveMemoryMapEntry
                0x000000000000d434       0x4c /tmp/DxeCore.dll.yq5Mi7.ltrans1.ltrans.o
                0x000000000000d434                RemoveMemoryMapEntry
 .text.CoreAddRange
                0x000000000000d480      0x134 /tmp/DxeCore.dll.yq5Mi7.ltrans1.ltrans.o
                0x000000000000d480                CoreAddRange
 .text.CoreReleaseLock
                0x000000000000d5b4       0x10 /tmp/DxeCore.dll.yq5Mi7.ltrans1.ltrans.o
                0x000000000000d5b4                CoreReleaseLock
 .text.CoreReleaseMemoryLock
                0x000000000000d5c4        0xc /tmp/DxeCore.dll.yq5Mi7.ltrans1.ltrans.o
 .text.CoreReleaseGcdMemoryLock
                0x000000000000d5d0        0xc /tmp/DxeCore.dll.yq5Mi7.ltrans1.ltrans.o
 .text.CoreReleaseProtocolLock
                0x000000000000d5dc        0xc /tmp/DxeCore.dll.yq5Mi7.ltrans1.ltrans.o
                0x000000000000d5dc                CoreReleaseProtocolLock
 .text.CoreLocateProtocol.part.0
                0x000000000000d5e8      0x120 /tmp/DxeCore.dll.yq5Mi7.ltrans1.ltrans.o
                0x000000000000d5e8                CoreLocateProtocol.part.0
 .text.CoreLocateProtocol
                0x000000000000d708       0x1c /tmp/DxeCore.dll.yq5Mi7.ltrans1.ltrans.o
                0x000000000000d708                CoreLocateProtocol
 .text.VerifyGuidedSectionGuid
                0x000000000000d724       0xa4 /tmp/DxeCore.dll.yq5Mi7.ltrans1.ltrans.o
 .text.CoreAcquireLock
                0x000000000000d7c8       0x30 /tmp/DxeCore.dll.yq5Mi7.ltrans1.ltrans.o
                0x000000000000d7c8                CoreAcquireLock
 .text.CoreAcquireMemoryLock
                0x000000000000d7f8        0xc /tmp/DxeCore.dll.yq5Mi7.ltrans1.ltrans.o
 .text.CoreFreePoolPagesI
                0x000000000000d804       0x60 /tmp/DxeCore.dll.yq5Mi7.ltrans1.ltrans.o
 .text.CoreGetIoSpaceMap
                0x000000000000d864       0xec /tmp/DxeCore.dll.yq5Mi7.ltrans1.ltrans.o
                0x000000000000d864                CoreGetIoSpaceMap
 .text.CoreGetIoSpaceDescriptor
                0x000000000000d950       0xe4 /tmp/DxeCore.dll.yq5Mi7.ltrans1.ltrans.o
                0x000000000000d950                CoreGetIoSpaceDescriptor
 .text.CoreAcquireGcdMemoryLock
                0x000000000000da34        0xc /tmp/DxeCore.dll.yq5Mi7.ltrans1.ltrans.o
 .text.CoreGetMemorySpaceDescriptor
                0x000000000000da40       0xe4 /tmp/DxeCore.dll.yq5Mi7.ltrans1.ltrans.o
                0x000000000000da40                CoreGetMemorySpaceDescriptor
 .text.FindFreePages
                0x000000000000db24      0x348 /tmp/DxeCore.dll.yq5Mi7.ltrans1.ltrans.o
 .text.CoreInternalAllocatePages.part.0
                0x000000000000de6c      0x1dc /tmp/DxeCore.dll.yq5Mi7.ltrans1.ltrans.o
                0x000000000000de6c                CoreInternalAllocatePages.part.0
 .text.CoreAllocatePoolPagesI
                0x000000000000e048       0xd0 /tmp/DxeCore.dll.yq5Mi7.ltrans1.ltrans.o
 .text.CoreFreeMemoryMapStack
                0x000000000000e118      0x184 /tmp/DxeCore.dll.yq5Mi7.ltrans1.ltrans.o
                0x000000000000e118                CoreFreeMemoryMapStack
 .text.SetUefiImageMemoryAttributes
                0x000000000000e29c       0x90 /tmp/DxeCore.dll.yq5Mi7.ltrans1.ltrans.o
 .text.ProtectUefiImage
                0x000000000000e32c      0x324 /tmp/DxeCore.dll.yq5Mi7.ltrans1.ltrans.o
 .text.CoreAcquireProtocolLock
                0x000000000000e650        0xc /tmp/DxeCore.dll.yq5Mi7.ltrans1.ltrans.o
                0x000000000000e650                CoreAcquireProtocolLock
 .text.CoreProtocolsPerHandle
                0x000000000000e65c       0xd4 /tmp/DxeCore.dll.yq5Mi7.ltrans1.ltrans.o
 .text.CoreOpenProtocolInformation
                0x000000000000e730       0xf0 /tmp/DxeCore.dll.yq5Mi7.ltrans1.ltrans.o
 .text.CoreLocateHandle
                0x000000000000e820      0x184 /tmp/DxeCore.dll.yq5Mi7.ltrans1.ltrans.o
                0x000000000000e820                CoreLocateHandle
 .text.CoreLocateHandleBuffer
                0x000000000000e9a4      0x108 /tmp/DxeCore.dll.yq5Mi7.ltrans1.ltrans.o
 .text.CoreRegisterProtocolNotify
                0x000000000000eaac       0xc8 /tmp/DxeCore.dll.yq5Mi7.ltrans1.ltrans.o
                0x000000000000eaac                CoreRegisterProtocolNotify
 .text.FindStreamNode.part.0
                0x000000000000eb74       0x80 /tmp/DxeCore.dll.yq5Mi7.ltrans1.ltrans.o
                0x000000000000eb74                FindStreamNode.part.0
 .text.CalculateEfiHdrCrc
                0x000000000000ebf4       0x70 /tmp/DxeCore.dll.yq5Mi7.ltrans1.ltrans.o
                0x000000000000ebf4                CalculateEfiHdrCrc
 .text.memcpy   0x000000000000ec64       0x20 /tmp/DxeCore.dll.yq5Mi7.ltrans1.ltrans.o
                0x000000000000ec64                memcpy
 .text.__stack_chk_fail
                0x000000000000ec84        0x4 /tmp/DxeCore.dll.yq5Mi7.ltrans1.ltrans.o
                0x000000000000ec84                __stack_chk_fail
 .text.CoreAllocatePoolI
                0x000000000000ec88      0x2bc /tmp/DxeCore.dll.yq5Mi7.ltrans1.ltrans.o
 .text.CoreInternalAllocatePool.part.0
                0x000000000000ef44       0x88 /tmp/DxeCore.dll.yq5Mi7.ltrans1.ltrans.o
 .text.LookupPoolHead
                0x000000000000efcc       0xd4 /tmp/DxeCore.dll.yq5Mi7.ltrans1.ltrans.o
 .text.CoreFreePoolI
                0x000000000000f0a0      0x1fc /tmp/DxeCore.dll.yq5Mi7.ltrans1.ltrans.o
 .text.CoreInternalFreePool
                0x000000000000f29c       0x64 /tmp/DxeCore.dll.yq5Mi7.ltrans1.ltrans.o
 .text.CoreExitBootServices
                0x000000000000f300      0x180 /tmp/DxeCore.dll.yq5Mi7.ltrans1.ltrans.o
 .text.CoreGetMemoryMap
                0x000000000000f480      0x444 /tmp/DxeCore.dll.yq5Mi7.ltrans1.ltrans.o
 .text.CoreGetMemoryMapWithSeparatedImageSection.part.0
                0x000000000000f8c4      0x4f8 /tmp/DxeCore.dll.yq5Mi7.ltrans1.ltrans.o
 .text.InstallMemoryAttributesTable
                0x000000000000fdbc      0x22c /tmp/DxeCore.dll.yq5Mi7.ltrans1.ltrans.o
 .text.InstallMemoryAttributesTableOnEndOfDxe
                0x000000000000ffe8       0x10 /tmp/DxeCore.dll.yq5Mi7.ltrans1.ltrans.o
 .text.InstallMemoryAttributesTableOnReadyToBoot
                0x000000000000fff8       0x20 /tmp/DxeCore.dll.yq5Mi7.ltrans1.ltrans.o
 .text.InstallMemoryAttributesTableOnMemoryAllocation
                0x0000000000010018       0x20 /tmp/DxeCore.dll.yq5Mi7.ltrans1.ltrans.o
 .text.CoreFreePages
                0x0000000000010038      0x104 /tmp/DxeCore.dll.yq5Mi7.ltrans1.ltrans.o
                0x0000000000010038                CoreFreePages
 .text.CoreAllocatePages
                0x000000000001013c       0x94 /tmp/DxeCore.dll.yq5Mi7.ltrans1.ltrans.o
                0x000000000001013c                CoreAllocatePages
 .text.CoreAddMemoryDescriptor
                0x00000000000101d0      0x26c /tmp/DxeCore.dll.yq5Mi7.ltrans1.ltrans.o
 .text.CoreFreePool
                0x000000000001043c       0x60 /tmp/DxeCore.dll.yq5Mi7.ltrans1.ltrans.o
                0x000000000001043c                CoreFreePool
 .text.CoreGetMemorySpaceMap
                0x000000000001049c      0x130 /tmp/DxeCore.dll.yq5Mi7.ltrans1.ltrans.o
                0x000000000001049c                CoreGetMemorySpaceMap
 .text.CoreMergeGcdMapEntry
                0x00000000000105cc       0xd0 /tmp/DxeCore.dll.yq5Mi7.ltrans1.ltrans.o
 .text.CoreCleanupGcdMapEntry
                0x000000000001069c       0x80 /tmp/DxeCore.dll.yq5Mi7.ltrans1.ltrans.o
 .text.CoreAllocateGcdMapEntry
                0x000000000001071c       0x7c /tmp/DxeCore.dll.yq5Mi7.ltrans1.ltrans.o
 .text.CoreAllocateSpace.part.0
                0x0000000000010798      0x35c /tmp/DxeCore.dll.yq5Mi7.ltrans1.ltrans.o
 .text.CoreAllocateMemorySpace
                0x0000000000010af4       0x78 /tmp/DxeCore.dll.yq5Mi7.ltrans1.ltrans.o
                0x0000000000010af4                CoreAllocateMemorySpace
 .text.CoreAllocateIoSpace
                0x0000000000010b6c       0x78 /tmp/DxeCore.dll.yq5Mi7.ltrans1.ltrans.o
                0x0000000000010b6c                CoreAllocateIoSpace
 .text.CoreConvertSpace
                0x0000000000010be4      0x404 /tmp/DxeCore.dll.yq5Mi7.ltrans1.ltrans.o
 .text.CoreRemoveIoSpace
                0x0000000000010fe8       0x20 /tmp/DxeCore.dll.yq5Mi7.ltrans1.ltrans.o
                0x0000000000010fe8                CoreRemoveIoSpace
 .text.CoreFreeIoSpace
                0x0000000000011008       0x20 /tmp/DxeCore.dll.yq5Mi7.ltrans1.ltrans.o
                0x0000000000011008                CoreFreeIoSpace
 .text.CoreAddIoSpace
                0x0000000000011028       0x38 /tmp/DxeCore.dll.yq5Mi7.ltrans1.ltrans.o
                0x0000000000011028                CoreAddIoSpace
 .text.CoreSetMemorySpaceCapabilities
                0x0000000000011060       0x88 /tmp/DxeCore.dll.yq5Mi7.ltrans1.ltrans.o
                0x0000000000011060                CoreSetMemorySpaceCapabilities
 .text.CoreSetMemorySpaceAttributes
                0x00000000000110e8       0x20 /tmp/DxeCore.dll.yq5Mi7.ltrans1.ltrans.o
                0x00000000000110e8                CoreSetMemorySpaceAttributes
 .text.CoreRemoveMemorySpace
                0x0000000000011108       0x20 /tmp/DxeCore.dll.yq5Mi7.ltrans1.ltrans.o
                0x0000000000011108                CoreRemoveMemorySpace
 .text.CoreFreeMemorySpace
                0x0000000000011128       0x20 /tmp/DxeCore.dll.yq5Mi7.ltrans1.ltrans.o
                0x0000000000011128                CoreFreeMemorySpace
 .text.CoreAddMemorySpace
                0x0000000000011148      0x170 /tmp/DxeCore.dll.yq5Mi7.ltrans1.ltrans.o
                0x0000000000011148                CoreAddMemorySpace
 .text.CoreCloseProtocol
                0x00000000000112b8      0x108 /tmp/DxeCore.dll.yq5Mi7.ltrans1.ltrans.o
 .text.CoreDisconnectController
                0x00000000000113c0      0x39c /tmp/DxeCore.dll.yq5Mi7.ltrans1.ltrans.o
 .text.CoreOpenProtocol
                0x000000000001175c      0x29c /tmp/DxeCore.dll.yq5Mi7.ltrans1.ltrans.o
 .text.CoreHandleProtocol
                0x00000000000119f8       0x14 /tmp/DxeCore.dll.yq5Mi7.ltrans1.ltrans.o
                0x00000000000119f8                CoreHandleProtocol
 .text.CoreInstallProtocolInterfaceNotify.part.0
                0x0000000000011a0c      0x1b8 /tmp/DxeCore.dll.yq5Mi7.ltrans1.ltrans.o
 .text.CoreInstallProtocolInterface
                0x0000000000011bc4       0x2c /tmp/DxeCore.dll.yq5Mi7.ltrans1.ltrans.o
                0x0000000000011bc4                CoreInstallProtocolInterface
 .text.CoreLocateDevicePath
                0x0000000000011bf0      0x19c /tmp/DxeCore.dll.yq5Mi7.ltrans1.ltrans.o
 .text.AddSortedDriverBindingProtocol
                0x0000000000011d8c      0x168 /tmp/DxeCore.dll.yq5Mi7.ltrans1.ltrans.o
 .text.CoreLoadedImageInfo
                0x0000000000011ef4       0x68 /tmp/DxeCore.dll.yq5Mi7.ltrans1.ltrans.o
 .text.PeCoffEmuProtocolNotify
                0x0000000000011f5c       0xc0 /tmp/DxeCore.dll.yq5Mi7.ltrans1.ltrans.o
 .text.CoreConnectController
                0x000000000001201c      0x628 /tmp/DxeCore.dll.yq5Mi7.ltrans1.ltrans.o
 .text.CoreDisconnectControllersUsingProtocolInterface
                0x0000000000012644       0xec /tmp/DxeCore.dll.yq5Mi7.ltrans1.ltrans.o
 .text.CoreUninstallProtocolInterface
                0x0000000000012730       0xfc /tmp/DxeCore.dll.yq5Mi7.ltrans1.ltrans.o
 .text.CoreUninstallMultipleProtocolInterfaces
                0x000000000001282c      0x1bc /tmp/DxeCore.dll.yq5Mi7.ltrans1.ltrans.o
 .text.CoreInstallMultipleProtocolInterfaces
                0x00000000000129e8      0x264 /tmp/DxeCore.dll.yq5Mi7.ltrans1.ltrans.o
                0x00000000000129e8                CoreInstallMultipleProtocolInterfaces
 .text.CoreReinstallProtocolInterface
                0x0000000000012c4c      0x10c /tmp/DxeCore.dll.yq5Mi7.ltrans1.ltrans.o
 .text.CoreInstallConfigurationTable
                0x0000000000012d58      0x180 /tmp/DxeCore.dll.yq5Mi7.ltrans1.ltrans.o
 .text.CoreUnloadAndCloseImage
                0x0000000000012ed8      0x3b0 /tmp/DxeCore.dll.yq5Mi7.ltrans1.ltrans.o
 .text.CoreUnloadImage
                0x0000000000013288       0x74 /tmp/DxeCore.dll.yq5Mi7.ltrans1.ltrans.o
 .text.CoreExit
                0x00000000000132fc       0xd8 /tmp/DxeCore.dll.yq5Mi7.ltrans1.ltrans.o
 .text.CustomGuidedSectionExtract
                0x00000000000133d4      0x264 /tmp/DxeCore.dll.yq5Mi7.ltrans1.ltrans.o
 .text.CloseSectionStream
                0x0000000000013638      0x124 /tmp/DxeCore.dll.yq5Mi7.ltrans1.ltrans.o
                0x0000000000013638                CloseSectionStream
 .text.OpenSectionStreamEx
                0x000000000001375c       0xe4 /tmp/DxeCore.dll.yq5Mi7.ltrans1.ltrans.o
                0x000000000001375c                OpenSectionStreamEx
 .text.CreateChildNode
                0x0000000000013840      0x3fc /tmp/DxeCore.dll.yq5Mi7.ltrans1.ltrans.o
                0x0000000000013840                CreateChildNode
 .text.NotifyGuidedExtraction
                0x0000000000013c3c       0xf8 /tmp/DxeCore.dll.yq5Mi7.ltrans1.ltrans.o
 .text.CoreAllocatePool
                0x0000000000013d34       0x78 /tmp/DxeCore.dll.yq5Mi7.ltrans1.ltrans.o
                0x0000000000013d34                CoreAllocatePool
 .text.MemoryProtectionCpuArchProtocolNotify
                0x0000000000013dac      0x514 /tmp/DxeCore.dll.yq5Mi7.ltrans1.ltrans.o
 .text.CoreStartImage
                0x00000000000142c0      0x32c /tmp/DxeCore.dll.yq5Mi7.ltrans1.ltrans.o
                0x00000000000142c0                CoreStartImage
 .text.CoreLoadImage
                0x00000000000145ec      0xdcc /tmp/DxeCore.dll.yq5Mi7.ltrans1.ltrans.o
                0x00000000000145ec                CoreLoadImage
 .text._ModuleEntryPoint
                0x00000000000153b8     0x10e8 /tmp/DxeCore.dll.yq5Mi7.ltrans1.ltrans.o
                0x00000000000153b8                _ModuleEntryPoint
 .text          0x00000000000164a0       0x78 /home/alastair/pftf-rpi4/Build/RPi4/RELEASE_GCC5/AARCH64/MdePkg/Library/BaseLib/BaseLib/OUTPUT/BaseLib.lib(SetJumpLongJump.obj)
                0x00000000000164a0                SetJump
                0x00000000000164d8                InternalLongJump
 *fill*         0x0000000000016518        0x8 
 .text          0x0000000000016520      0x200 /home/alastair/pftf-rpi4/Build/RPi4/RELEASE_GCC5/AARCH64/MdePkg/Library/BaseMemoryLibOptDxe/BaseMemoryLibOptDxe/OUTPUT/BaseMemoryLibOptDxe.lib(SetMem.obj)
                0x0000000000016520                InternalMemSetMem16
                0x000000000001652c                InternalMemSetMem32
                0x0000000000016538                InternalMemSetMem64
                0x0000000000016544                InternalMemZeroMem
                0x000000000001654c                InternalMemSetMem
 .text          0x0000000000016720      0x218 /home/alastair/pftf-rpi4/Build/RPi4/RELEASE_GCC5/AARCH64/MdePkg/Library/BaseMemoryLibOptDxe/BaseMemoryLibOptDxe/OUTPUT/BaseMemoryLibOptDxe.lib(CopyMem.obj)
                0x000000000001688c                InternalMemCopyMem
 *fill*         0x0000000000016938        0x8 
 .text          0x0000000000016940       0xe0 /home/alastair/pftf-rpi4/Build/RPi4/RELEASE_GCC5/AARCH64/MdePkg/Library/BaseMemoryLibOptDxe/BaseMemoryLibOptDxe/OUTPUT/BaseMemoryLibOptDxe.lib(CompareMem.obj)
                0x0000000000016940                InternalMemCompareMem
 .text          0x0000000000016a20       0x20 /home/alastair/pftf-rpi4/Build/RPi4/RELEASE_GCC5/AARCH64/MdePkg/Library/BaseMemoryLibOptDxe/BaseMemoryLibOptDxe/OUTPUT/BaseMemoryLibOptDxe.lib(CompareGuid.obj)
                0x0000000000016a20                InternalMemCompareGuid
 .text          0x0000000000016a40      0x184 /home/alastair/pftf-rpi4/Build/RPi4/RELEASE_GCC5/AARCH64/ArmPkg/Library/ArmExceptionLib/ArmExceptionLib/OUTPUT/ArmExceptionLib.lib(ExceptionSupport.obj)
                0x0000000000016a40                ExceptionHandlersEnd
                0x0000000000016bbc                RegisterEl0Stack
 *fill*         0x0000000000016bc4      0x43c 
 .text.ExceptionHandlersStart
                0x0000000000017000      0x800 /home/alastair/pftf-rpi4/Build/RPi4/RELEASE_GCC5/AARCH64/ArmPkg/Library/ArmExceptionLib/ArmExceptionLib/OUTPUT/ArmExceptionLib.lib(ExceptionSupport.obj)
                0x0000000000017000                ExceptionHandlersStart
 .text.ArmCacheInfo
                0x0000000000017800        0x8 /home/alastair/pftf-rpi4/Build/RPi4/RELEASE_GCC5/AARCH64/ArmPkg/Library/ArmLib/ArmBaseLib/OUTPUT/ArmBaseLib.lib(ArmLibSupport.obj)
                0x0000000000017800                ArmCacheInfo
 .text.ArmCleanDataCacheEntryToPoUByMVA
                0x0000000000017808        0x8 /home/alastair/pftf-rpi4/Build/RPi4/RELEASE_GCC5/AARCH64/ArmPkg/Library/ArmLib/ArmBaseLib/OUTPUT/ArmBaseLib.lib(AArch64Support.obj)
                0x0000000000017808                ArmCleanDataCacheEntryToPoUByMVA
 .text.ArmInvalidateInstructionCacheEntryToPoUByMVA
                0x0000000000017810        0x8 /home/alastair/pftf-rpi4/Build/RPi4/RELEASE_GCC5/AARCH64/ArmPkg/Library/ArmLib/ArmBaseLib/OUTPUT/ArmBaseLib.lib(AArch64Support.obj)
                0x0000000000017810                ArmInvalidateInstructionCacheEntryToPoUByMVA
 .text.ArmDataSynchronizationBarrier
                0x0000000000017818        0x8 /home/alastair/pftf-rpi4/Build/RPi4/RELEASE_GCC5/AARCH64/ArmPkg/Library/ArmLib/ArmBaseLib/OUTPUT/ArmBaseLib.lib(AArch64Support.obj)
                0x0000000000017818                ArmDataSynchronizationBarrier
 .text.ArmInstructionSynchronizationBarrier
                0x0000000000017820        0x8 /home/alastair/pftf-rpi4/Build/RPi4/RELEASE_GCC5/AARCH64/ArmPkg/Library/ArmLib/ArmBaseLib/OUTPUT/ArmBaseLib.lib(AArch64Support.obj)
                0x0000000000017820                ArmInstructionSynchronizationBarrier
 .text.ArmWriteVBar
                0x0000000000017828       0x34 /home/alastair/pftf-rpi4/Build/RPi4/RELEASE_GCC5/AARCH64/ArmPkg/Library/ArmLib/ArmBaseLib/OUTPUT/ArmBaseLib.lib(AArch64Support.obj)
                0x0000000000017828                ArmWriteVBar
 .text.ArmIsArchTimerImplemented
                0x000000000001785c        0x8 /home/alastair/pftf-rpi4/Build/RPi4/RELEASE_GCC5/AARCH64/ArmPkg/Library/ArmLib/ArmBaseLib/OUTPUT/ArmBaseLib.lib(AArch64Support.obj)
                0x000000000001785c                ArmIsArchTimerImplemented
 .text.ArmWriteHcr
                0x0000000000017864        0x8 /home/alastair/pftf-rpi4/Build/RPi4/RELEASE_GCC5/AARCH64/ArmPkg/Library/ArmLib/ArmBaseLib/OUTPUT/ArmBaseLib.lib(AArch64Support.obj)
                0x0000000000017864                ArmWriteHcr
 .text.ArmReadHcr
                0x000000000001786c        0x8 /home/alastair/pftf-rpi4/Build/RPi4/RELEASE_GCC5/AARCH64/ArmPkg/Library/ArmLib/ArmBaseLib/OUTPUT/ArmBaseLib.lib(AArch64Support.obj)
                0x000000000001786c                ArmReadHcr
 .text.ArmReadCurrentEL
                0x0000000000017874        0x8 /home/alastair/pftf-rpi4/Build/RPi4/RELEASE_GCC5/AARCH64/ArmPkg/Library/ArmLib/ArmBaseLib/OUTPUT/ArmBaseLib.lib(AArch64Support.obj)
                0x0000000000017874                ArmReadCurrentEL
 .text.ArmReadCntFrq
                0x000000000001787c        0x8 /home/alastair/pftf-rpi4/Build/RPi4/RELEASE_GCC5/AARCH64/ArmPkg/Library/ArmLib/ArmBaseLib/OUTPUT/ArmBaseLib.lib(AArch64ArchTimerSupport.obj)
                0x000000000001787c                ArmReadCntFrq
 .text.ArmReadCntPct
                0x0000000000017884        0x8 /home/alastair/pftf-rpi4/Build/RPi4/RELEASE_GCC5/AARCH64/ArmPkg/Library/ArmLib/ArmBaseLib/OUTPUT/ArmBaseLib.lib(AArch64ArchTimerSupport.obj)
                0x0000000000017884                ArmReadCntPct
 *(.rodata .rodata.* .gnu.linkonce.r.*)
 .rodata.IsKnownTokens.part.0.str1.1
                0x000000000001788c       0x4b /tmp/DxeCore.dll.yq5Mi7.ltrans0.ltrans.o
 *fill*         0x00000000000178d7        0x1 
 .rodata.PeCoffLoaderRelocateImage
                0x00000000000178d8        0xb /tmp/DxeCore.dll.yq5Mi7.ltrans0.ltrans.o
 *fill*         0x00000000000178e3        0x1 
 .rodata.GetEfiGlobalVariable2.constprop.0.str2.2
                0x00000000000178e4       0x1a /tmp/DxeCore.dll.yq5Mi7.ltrans0.ltrans.o
 .rodata.ReportFpdtRecordBuffer.str2.2
                0x00000000000178fe       0x28 /tmp/DxeCore.dll.yq5Mi7.ltrans0.ltrans.o
 .rodata.BasePrintLibSPrintMarker.constprop.0.str1.1
                0x0000000000017926       0x7b /tmp/DxeCore.dll.yq5Mi7.ltrans0.ltrans.o
 *fill*         0x00000000000179a1        0x3 
 .rodata.BasePrintLibSPrintMarker.constprop.0
                0x00000000000179a4       0x5e /tmp/DxeCore.dll.yq5Mi7.ltrans0.ltrans.o
 .rodata.AsciiSPrint.constprop.0.str1.1
                0x0000000000017a02       0x1c /tmp/DxeCore.dll.yq5Mi7.ltrans0.ltrans.o
 .rodata.UnicodeSPrint.constprop.0.str2.2
                0x0000000000017a1e       0x16 /tmp/DxeCore.dll.yq5Mi7.ltrans0.ltrans.o
 .rodata.DevPathToTextNodeGeneric.str2.2
                0x0000000000017a34       0x22 /tmp/DxeCore.dll.yq5Mi7.ltrans0.ltrans.o
                                         0x34 (size before relaxing)
 .rodata.DevPathToTextBBS.str2.2
                0x0000000000017a56       0x2c /tmp/DxeCore.dll.yq5Mi7.ltrans0.ltrans.o
                                         0x3a (size before relaxing)
 .rodata.DevPathToTextRamDisk.str2.2
                0x0000000000017a82       0xca /tmp/DxeCore.dll.yq5Mi7.ltrans0.ltrans.o
                                        0x136 (size before relaxing)
 .rodata.DevPathRelativeOffsetRange.str2.2
                0x0000000000017b4c       0x28 /tmp/DxeCore.dll.yq5Mi7.ltrans0.ltrans.o
 .rodata.DevPathToTextFvFile.str2.2
                0x0000000000017b74       0x16 /tmp/DxeCore.dll.yq5Mi7.ltrans0.ltrans.o
 .rodata.DevPathToTextFv.str2.2
                0x0000000000017b8a        0xe /tmp/DxeCore.dll.yq5Mi7.ltrans0.ltrans.o
 .rodata.DevPathToTextMediaProtocol.str2.2
                0x0000000000017b98       0x14 /tmp/DxeCore.dll.yq5Mi7.ltrans0.ltrans.o
 .rodata.DevPathToTextFilePath.str2.2
                0x0000000000017bac        0x6 /tmp/DxeCore.dll.yq5Mi7.ltrans0.ltrans.o
 .rodata.DevPathToTextCDROM.str2.2
                0x0000000000017bb2       0x48 /tmp/DxeCore.dll.yq5Mi7.ltrans0.ltrans.o
 .rodata.DevPathToTextHardDrive.str2.2
                0x0000000000017bfa       0x64 /tmp/DxeCore.dll.yq5Mi7.ltrans0.ltrans.o
                                         0x7e (size before relaxing)
 .rodata.DevPathToTextUri.str2.2
                0x0000000000017c5e       0x10 /tmp/DxeCore.dll.yq5Mi7.ltrans0.ltrans.o
 .rodata.DevPathToTextBluetoothLE.str2.2
                0x0000000000017c6e       0x5a /tmp/DxeCore.dll.yq5Mi7.ltrans0.ltrans.o
 .rodata.DevPathToTextWiFi.str2.2
                0x0000000000017cc8       0x14 /tmp/DxeCore.dll.yq5Mi7.ltrans0.ltrans.o
 .rodata.DevPathToTextBluetooth.str2.2
                0x0000000000017cdc       0x48 /tmp/DxeCore.dll.yq5Mi7.ltrans0.ltrans.o
 .rodata.DevPathToTextVlan.str2.2
                0x0000000000017d24       0x12 /tmp/DxeCore.dll.yq5Mi7.ltrans0.ltrans.o
 .rodata.DevPathToTextiSCSI.str2.2
                0x0000000000017d36       0x76 /tmp/DxeCore.dll.yq5Mi7.ltrans0.ltrans.o
                                         0x90 (size before relaxing)
 .rodata.DevPathToTextUart.str2.2
                0x0000000000017dac       0x5c /tmp/DxeCore.dll.yq5Mi7.ltrans0.ltrans.o
                                         0x74 (size before relaxing)
 .rodata.DevPathToTextUart
                0x0000000000017e08        0x4 /tmp/DxeCore.dll.yq5Mi7.ltrans0.ltrans.o
 .rodata.DevPathToTextInfiniBand.str2.2
                0x0000000000017e0c       0x4c /tmp/DxeCore.dll.yq5Mi7.ltrans0.ltrans.o
 .rodata.CatIPv6Address.str2.2
                0x0000000000017e58       0x90 /tmp/DxeCore.dll.yq5Mi7.ltrans0.ltrans.o
 .rodata.CatIPv4Address.str2.2
                0x0000000000017ee8       0x18 /tmp/DxeCore.dll.yq5Mi7.ltrans0.ltrans.o
 .rodata.DevPathToTextDns.str2.2
                0x0000000000017f00        0xa /tmp/DxeCore.dll.yq5Mi7.ltrans0.ltrans.o
 .rodata.CatNetworkProtocol.str2.2
                0x0000000000017f0a        0x8 /tmp/DxeCore.dll.yq5Mi7.ltrans0.ltrans.o
                                         0x12 (size before relaxing)
 .rodata.DevPathToTextIPv6.str2.2
                0x0000000000017f12       0x80 /tmp/DxeCore.dll.yq5Mi7.ltrans0.ltrans.o
                                         0x8e (size before relaxing)
 .rodata.DevPathToTextIPv4.str2.2
                0x0000000000017f92       0x24 /tmp/DxeCore.dll.yq5Mi7.ltrans0.ltrans.o
 .rodata.DevPathToTextMacAddr.str2.2
                0x0000000000017fb6        0xa /tmp/DxeCore.dll.yq5Mi7.ltrans0.ltrans.o
 .rodata.DevPathToTextI2O.str2.2
                0x0000000000017fc0       0x14 /tmp/DxeCore.dll.yq5Mi7.ltrans0.ltrans.o
 .rodata.DevPathToTextSata.str2.2
                0x0000000000017fd4       0x2a /tmp/DxeCore.dll.yq5Mi7.ltrans0.ltrans.o
 .rodata.DevPathToTextUsbClass.str2.2
                0x0000000000017ffe      0x250 /tmp/DxeCore.dll.yq5Mi7.ltrans0.ltrans.o
 *fill*         0x000000000001824e        0x2 
 .rodata.DevPathToTextUsbClass
                0x0000000000018250        0xe /tmp/DxeCore.dll.yq5Mi7.ltrans0.ltrans.o
 .rodata.DevPathToTextLogicalUnit.str2.2
                0x000000000001825e       0x16 /tmp/DxeCore.dll.yq5Mi7.ltrans0.ltrans.o
 .rodata.DevPathToTextUsbWWID.str2.2
                0x0000000000018274       0x3a /tmp/DxeCore.dll.yq5Mi7.ltrans0.ltrans.o
 .rodata.DevPathToTextUsb.str2.2
                0x00000000000182ae       0x1e /tmp/DxeCore.dll.yq5Mi7.ltrans0.ltrans.o
 .rodata.DevPathToText1394.str2.2
                0x00000000000182cc       0x1c /tmp/DxeCore.dll.yq5Mi7.ltrans0.ltrans.o
 .rodata.DevPathToTextEmmc.str2.2
                0x00000000000182e8       0x16 /tmp/DxeCore.dll.yq5Mi7.ltrans0.ltrans.o
 .rodata.DevPathToTextSd.str2.2
                0x00000000000182fe       0x12 /tmp/DxeCore.dll.yq5Mi7.ltrans0.ltrans.o
 .rodata.DevPathToTextUfs.str2.2
                0x0000000000018310       0x1e /tmp/DxeCore.dll.yq5Mi7.ltrans0.ltrans.o
 .rodata.DevPathToTextNVMe.str2.2
                0x000000000001832e       0x66 /tmp/DxeCore.dll.yq5Mi7.ltrans0.ltrans.o
 .rodata.DevPathToTextSasEx.str2.2
                0x0000000000018394       0xb4 /tmp/DxeCore.dll.yq5Mi7.ltrans0.ltrans.o
                                         0xc0 (size before relaxing)
 .rodata.DevPathToTextFibreEx.str2.2
                0x0000000000018448       0x16 /tmp/DxeCore.dll.yq5Mi7.ltrans0.ltrans.o
 .rodata.DevPathToTextFibre.str2.2
                0x000000000001845e       0x26 /tmp/DxeCore.dll.yq5Mi7.ltrans0.ltrans.o
 .rodata.DevPathToTextScsi.str2.2
                0x0000000000018484       0x20 /tmp/DxeCore.dll.yq5Mi7.ltrans0.ltrans.o
 .rodata.DevPathToTextAtapi.str2.2
                0x00000000000184a4       0x72 /tmp/DxeCore.dll.yq5Mi7.ltrans0.ltrans.o
 .rodata.DevPathToTextAcpiAdr.str2.2
                0x0000000000018516       0x26 /tmp/DxeCore.dll.yq5Mi7.ltrans0.ltrans.o
 .rodata.DevPathToTextAcpiEx.str2.2
                0x000000000001853c      0x116 /tmp/DxeCore.dll.yq5Mi7.ltrans0.ltrans.o
                                        0x132 (size before relaxing)
 .rodata.DevPathToTextAcpi.str2.2
                0x0000000000018652       0xc2 /tmp/DxeCore.dll.yq5Mi7.ltrans0.ltrans.o
 .rodata.DevPathToTextController.str2.2
                0x0000000000018714       0x16 /tmp/DxeCore.dll.yq5Mi7.ltrans0.ltrans.o
 .rodata.DevPathToTextVendor.str2.2
                0x000000000001872a      0x154 /tmp/DxeCore.dll.yq5Mi7.ltrans0.ltrans.o
                                        0x166 (size before relaxing)
 .rodata.DevPathToTextMemMap.str2.2
                0x000000000001887e       0x3e /tmp/DxeCore.dll.yq5Mi7.ltrans0.ltrans.o
 .rodata.DevPathToTextPccard.str2.2
                0x00000000000188bc       0x1a /tmp/DxeCore.dll.yq5Mi7.ltrans0.ltrans.o
 .rodata.DevPathToTextPci.str2.2
                0x00000000000188d6       0x1e /tmp/DxeCore.dll.yq5Mi7.ltrans0.ltrans.o
 .rodata.DevPathToTextBmc.str2.2
                0x00000000000188f4       0x20 /tmp/DxeCore.dll.yq5Mi7.ltrans0.ltrans.o
 .rodata.CreatePerformanceMeasurement.str1.1
                0x0000000000018914       0x13 /tmp/DxeCore.dll.yq5Mi7.ltrans0.ltrans.o
 *fill*         0x0000000000018927        0x1 
 .rodata.CreatePerformanceMeasurement.str2.2
                0x0000000000018928        0x4 /tmp/DxeCore.dll.yq5Mi7.ltrans0.ltrans.o
 .rodata.CreatePerformanceMeasurement
                0x000000000001892c       0x44 /tmp/DxeCore.dll.yq5Mi7.ltrans0.ltrans.o
 .rodata.CoreDispatcher
                0x0000000000018970        0x7 /tmp/DxeCore.dll.yq5Mi7.ltrans0.ltrans.o
 *fill*         0x0000000000018977        0x1 
 .rodata.str2.2
                0x0000000000018978       0x96 /tmp/DxeCore.dll.yq5Mi7.ltrans0.ltrans.o
 .rodata.str1.1
                0x0000000000018a0e       0x1b /tmp/DxeCore.dll.yq5Mi7.ltrans0.ltrans.o
 .rodata.CSWTCH.42
                0x0000000000018a29        0x6 /tmp/DxeCore.dll.yq5Mi7.ltrans0.ltrans.o
 *fill*         0x0000000000018a2f        0x1 
 .rodata.CSWTCH.58
                0x0000000000018a30       0x30 /tmp/DxeCore.dll.yq5Mi7.ltrans0.ltrans.o
 .rodata.Message.12519
                0x0000000000018a60       0x3b /tmp/DxeCore.dll.yq5Mi7.ltrans0.ltrans.o
 .rodata.__FUNCTION__.18307
                0x0000000000018a9b        0xf /tmp/DxeCore.dll.yq5Mi7.ltrans0.ltrans.o
 *fill*         0x0000000000018aaa        0x6 
 .rodata.gExceptionHandlers
                0x0000000000018ab0       0x20 /tmp/DxeCore.dll.yq5Mi7.ltrans0.ltrans.o
 .rodata.gExceptionTypeString
                0x0000000000018ad0       0x20 /tmp/DxeCore.dll.yq5Mi7.ltrans0.ltrans.o
 .rodata.mDxeFileTypes
                0x0000000000018af0        0x5 /tmp/DxeCore.dll.yq5Mi7.ltrans0.ltrans.o
 .rodata.mErrorString
                0x0000000000018af5      0x2b5 /tmp/DxeCore.dll.yq5Mi7.ltrans0.ltrans.o
 *fill*         0x0000000000018daa        0x2 
 .rodata.mEventTable
                0x0000000000018dac       0x20 /tmp/DxeCore.dll.yq5Mi7.ltrans0.ltrans.o
 .rodata.mFvAttributes
                0x0000000000018dcc        0x8 /tmp/DxeCore.dll.yq5Mi7.ltrans0.ltrans.o
 .rodata.mFvAttributes2
                0x0000000000018dd4        0x8 /tmp/DxeCore.dll.yq5Mi7.ltrans0.ltrans.o
 .rodata.mHexStr
                0x0000000000018ddc       0x10 /tmp/DxeCore.dll.yq5Mi7.ltrans0.ltrans.o
 .rodata.mUefiDevicePathLibEndDevicePath
                0x0000000000018dec        0x4 /tmp/DxeCore.dll.yq5Mi7.ltrans0.ltrans.o
                0x0000000000018dec                mUefiDevicePathLibEndDevicePath
 .rodata.mUefiDevicePathLibToTextTable
                0x0000000000018df0      0x320 /tmp/DxeCore.dll.yq5Mi7.ltrans0.ltrans.o
 .rodata.mUefiDevicePathLibToTextTableGeneric
                0x0000000000019110       0x60 /tmp/DxeCore.dll.yq5Mi7.ltrans0.ltrans.o
 .rodata.mWarningString
                0x0000000000019170       0x96 /tmp/DxeCore.dll.yq5Mi7.ltrans0.ltrans.o
 *fill*         0x0000000000019206        0x2 
 .rodata.CoreConvertSpace
                0x0000000000019208        0xe /tmp/DxeCore.dll.yq5Mi7.ltrans1.ltrans.o
 .rodata._ModuleEntryPoint.str1.1
                0x0000000000019216        0x8 /tmp/DxeCore.dll.yq5Mi7.ltrans1.ltrans.o
 *fill*         0x0000000000019216        0x2 
 .rodata._ModuleEntryPoint
                0x0000000000019218        0x7 /tmp/DxeCore.dll.yq5Mi7.ltrans1.ltrans.o
 .rodata.str1.1
                0x000000000001921f       0x7a /tmp/DxeCore.dll.yq5Mi7.ltrans1.ltrans.o
                                         0x81 (size before relaxing)
 .rodata.__FUNCTION__.18454
                0x0000000000019299       0x19 /tmp/DxeCore.dll.yq5Mi7.ltrans1.ltrans.o
 *fill*         0x00000000000192b2        0x6 
 .rodata.mMissingProtocols
                0x00000000000192b8       0xe0 /tmp/DxeCore.dll.yq5Mi7.ltrans1.ltrans.o
 .rodata.mPoolSizeTable
                0x0000000000019398       0x18 /tmp/DxeCore.dll.yq5Mi7.ltrans1.ltrans.o
 *(.got .got.*)
 .got           0x00000000000193b0        0x8 /home/alastair/pftf-rpi4/edk2/ArmPkg/Library/GccLto/liblto-aarch64.a
                0x00000000000193b0                _GLOBAL_OFFSET_TABLE_
 .got.plt       0x00000000000193b8       0x18 /home/alastair/pftf-rpi4/edk2/ArmPkg/Library/GccLto/liblto-aarch64.a
 *:AutoGen.obj(.data.g*Guid)

.plt            0x00000000000193d0        0x0
 .plt           0x00000000000193d0        0x0 /home/alastair/pftf-rpi4/edk2/ArmPkg/Library/GccLto/liblto-aarch64.a

.data           0x000000000001a000    0x1c960
 *(.data .data.* .gnu.linkonce.d.*)
 .data.rel.ro   0x000000000001a000        0x0 /home/alastair/pftf-rpi4/edk2/ArmPkg/Library/GccLto/liblto-aarch64.a
 .data.gAprioriGuid
                0x000000000001a000       0x10 /tmp/DxeCore.dll.yq5Mi7.ltrans0.ltrans.o
 .data.gDxeCoreRT
                0x000000000001a010        0x8 /tmp/DxeCore.dll.yq5Mi7.ltrans0.ltrans.o
                0x000000000001a010                gDxeCoreRT
 .data.gEdkiiFpdtExtendedFirmwarePerformanceGuid
                0x000000000001a018       0x10 /tmp/DxeCore.dll.yq5Mi7.ltrans0.ltrans.o
                0x000000000001a018                gEdkiiFpdtExtendedFirmwarePerformanceGuid
 .data.gEdkiiPiSmmCommunicationRegionTableGuid
                0x000000000001a028       0x10 /tmp/DxeCore.dll.yq5Mi7.ltrans0.ltrans.o
 .data.gEfiBdsArchProtocolGuid
                0x000000000001a038       0x10 /tmp/DxeCore.dll.yq5Mi7.ltrans0.ltrans.o
                0x000000000001a038                gEfiBdsArchProtocolGuid
 .data.gEfiCallerIdGuid
                0x000000000001a048       0x10 /tmp/DxeCore.dll.yq5Mi7.ltrans0.ltrans.o
                0x000000000001a048                gEfiCallerIdGuid
 .data.gEfiCapsuleArchProtocolGuid
                0x000000000001a058       0x10 /tmp/DxeCore.dll.yq5Mi7.ltrans0.ltrans.o
                0x000000000001a058                gEfiCapsuleArchProtocolGuid
 .data.gEfiComponentName2ProtocolGuid
                0x000000000001a068       0x10 /tmp/DxeCore.dll.yq5Mi7.ltrans0.ltrans.o
 .data.gEfiCpuArchProtocolGuid
                0x000000000001a078       0x10 /tmp/DxeCore.dll.yq5Mi7.ltrans0.ltrans.o
                0x000000000001a078                gEfiCpuArchProtocolGuid
 .data.gEfiCrc32GuidedSectionExtractionGuid
                0x000000000001a088       0x10 /tmp/DxeCore.dll.yq5Mi7.ltrans0.ltrans.o
                0x000000000001a088                gEfiCrc32GuidedSectionExtractionGuid
 .data.gEfiCurrentTpl
                0x000000000001a098        0x8 /tmp/DxeCore.dll.yq5Mi7.ltrans0.ltrans.o
                0x000000000001a098                gEfiCurrentTpl
 .data.gEfiDebugImageInfoTableGuid
                0x000000000001a0a0       0x10 /tmp/DxeCore.dll.yq5Mi7.ltrans0.ltrans.o
                0x000000000001a0a0                gEfiDebugImageInfoTableGuid
 .data.gEfiDebugPortProtocolGuid
                0x000000000001a0b0       0x10 /tmp/DxeCore.dll.yq5Mi7.ltrans0.ltrans.o
 .data.gEfiDevicePathProtocolGuid
                0x000000000001a0c0       0x10 /tmp/DxeCore.dll.yq5Mi7.ltrans0.ltrans.o
                0x000000000001a0c0                gEfiDevicePathProtocolGuid
 .data.gEfiDriverBindingProtocolGuid
                0x000000000001a0d0       0x10 /tmp/DxeCore.dll.yq5Mi7.ltrans0.ltrans.o
                0x000000000001a0d0                gEfiDriverBindingProtocolGuid
 .data.gEfiEventDxeDispatchGuid
                0x000000000001a0e0       0x10 /tmp/DxeCore.dll.yq5Mi7.ltrans0.ltrans.o
 .data.gEfiEventExitBootServicesGuid
                0x000000000001a0f0       0x10 /tmp/DxeCore.dll.yq5Mi7.ltrans0.ltrans.o
                0x000000000001a0f0                gEfiEventExitBootServicesGuid
 .data.gEfiEventVirtualAddressChangeGuid
                0x000000000001a100       0x10 /tmp/DxeCore.dll.yq5Mi7.ltrans0.ltrans.o
 .data.gEfiFirmwareFileSystem2Guid
                0x000000000001a110       0x10 /tmp/DxeCore.dll.yq5Mi7.ltrans0.ltrans.o
 .data.gEfiFirmwareFileSystem3Guid
                0x000000000001a120       0x10 /tmp/DxeCore.dll.yq5Mi7.ltrans0.ltrans.o
 .data.gEfiFirmwarePerformanceGuid
                0x000000000001a130       0x10 /tmp/DxeCore.dll.yq5Mi7.ltrans0.ltrans.o
 .data.gEfiFirmwareVolume2ProtocolGuid
                0x000000000001a140       0x10 /tmp/DxeCore.dll.yq5Mi7.ltrans0.ltrans.o
                0x000000000001a140                gEfiFirmwareVolume2ProtocolGuid
 .data.gEfiFirmwareVolumeBlockProtocolGuid
                0x000000000001a150       0x10 /tmp/DxeCore.dll.yq5Mi7.ltrans0.ltrans.o
                0x000000000001a150                gEfiFirmwareVolumeBlockProtocolGuid
 .data.gEfiGlobalVariableGuid
                0x000000000001a160       0x10 /tmp/DxeCore.dll.yq5Mi7.ltrans0.ltrans.o
 .data.gEfiLoadedImageProtocolGuid
                0x000000000001a170       0x10 /tmp/DxeCore.dll.yq5Mi7.ltrans0.ltrans.o
                0x000000000001a170                gEfiLoadedImageProtocolGuid
 .data.gEfiMetronomeArchProtocolGuid
                0x000000000001a180       0x10 /tmp/DxeCore.dll.yq5Mi7.ltrans0.ltrans.o
                0x000000000001a180                gEfiMetronomeArchProtocolGuid
 .data.gEfiMonotonicCounterArchProtocolGuid
                0x000000000001a190       0x10 /tmp/DxeCore.dll.yq5Mi7.ltrans0.ltrans.o
                0x000000000001a190                gEfiMonotonicCounterArchProtocolGuid
 .data.gEfiPcAnsiGuid
                0x000000000001a1a0       0x10 /tmp/DxeCore.dll.yq5Mi7.ltrans0.ltrans.o
 .data.gEfiPersistentVirtualCdGuid
                0x000000000001a1b0       0x10 /tmp/DxeCore.dll.yq5Mi7.ltrans0.ltrans.o
 .data.gEfiPersistentVirtualDiskGuid
                0x000000000001a1c0       0x10 /tmp/DxeCore.dll.yq5Mi7.ltrans0.ltrans.o
 .data.gEfiRealTimeClockArchProtocolGuid
                0x000000000001a1d0       0x10 /tmp/DxeCore.dll.yq5Mi7.ltrans0.ltrans.o
                0x000000000001a1d0                gEfiRealTimeClockArchProtocolGuid
 .data.gEfiResetArchProtocolGuid
                0x000000000001a1e0       0x10 /tmp/DxeCore.dll.yq5Mi7.ltrans0.ltrans.o
                0x000000000001a1e0                gEfiResetArchProtocolGuid
 .data.gEfiRuntimeArchProtocolGuid
                0x000000000001a1f0       0x10 /tmp/DxeCore.dll.yq5Mi7.ltrans0.ltrans.o
                0x000000000001a1f0                gEfiRuntimeArchProtocolGuid
 .data.gEfiSasDevicePathGuid
                0x000000000001a200       0x10 /tmp/DxeCore.dll.yq5Mi7.ltrans0.ltrans.o
 .data.gEfiSecurityArchProtocolGuid
                0x000000000001a210       0x10 /tmp/DxeCore.dll.yq5Mi7.ltrans0.ltrans.o
                0x000000000001a210                gEfiSecurityArchProtocolGuid
 .data.gEfiSecurityPolicyProtocolGuid
                0x000000000001a220       0x10 /tmp/DxeCore.dll.yq5Mi7.ltrans0.ltrans.o
 .data.gEfiSmmCommunicationProtocolGuid
                0x000000000001a230       0x10 /tmp/DxeCore.dll.yq5Mi7.ltrans0.ltrans.o
 .data.gEfiTimerArchProtocolGuid
                0x000000000001a240       0x10 /tmp/DxeCore.dll.yq5Mi7.ltrans0.ltrans.o
                0x000000000001a240                gEfiTimerArchProtocolGuid
 .data.gEfiUartDevicePathGuid
                0x000000000001a250       0x10 /tmp/DxeCore.dll.yq5Mi7.ltrans0.ltrans.o
 .data.gEfiVT100Guid
                0x000000000001a260       0x10 /tmp/DxeCore.dll.yq5Mi7.ltrans0.ltrans.o
 .data.gEfiVT100PlusGuid
                0x000000000001a270       0x10 /tmp/DxeCore.dll.yq5Mi7.ltrans0.ltrans.o
 .data.gEfiVTUTF8Guid
                0x000000000001a280       0x10 /tmp/DxeCore.dll.yq5Mi7.ltrans0.ltrans.o
 .data.gEfiVariableArchProtocolGuid
                0x000000000001a290       0x10 /tmp/DxeCore.dll.yq5Mi7.ltrans0.ltrans.o
                0x000000000001a290                gEfiVariableArchProtocolGuid
 .data.gEfiVariableWriteArchProtocolGuid
                0x000000000001a2a0       0x10 /tmp/DxeCore.dll.yq5Mi7.ltrans0.ltrans.o
                0x000000000001a2a0                gEfiVariableWriteArchProtocolGuid
 .data.gEfiVirtualCdGuid
                0x000000000001a2b0       0x10 /tmp/DxeCore.dll.yq5Mi7.ltrans0.ltrans.o
 .data.gEfiVirtualDiskGuid
                0x000000000001a2c0       0x10 /tmp/DxeCore.dll.yq5Mi7.ltrans0.ltrans.o
 .data.gEfiWatchdogTimerArchProtocolGuid
                0x000000000001a2d0       0x10 /tmp/DxeCore.dll.yq5Mi7.ltrans0.ltrans.o
                0x000000000001a2d0                gEfiWatchdogTimerArchProtocolGuid
 .data.gEventQueueLock
                0x000000000001a2e0       0x18 /tmp/DxeCore.dll.yq5Mi7.ltrans0.ltrans.o
 .data.gEventSignalQueue
                0x000000000001a2f8       0x10 /tmp/DxeCore.dll.yq5Mi7.ltrans0.ltrans.o
 .data.gMemoryMap
                0x000000000001a308       0x10 /tmp/DxeCore.dll.yq5Mi7.ltrans0.ltrans.o
                0x000000000001a308                gMemoryMap
 .data.gMemoryTypeInformation
                0x000000000001a318       0x80 /tmp/DxeCore.dll.yq5Mi7.ltrans0.ltrans.o
                0x000000000001a318                gMemoryTypeInformation
 .data.gRuntime
                0x000000000001a398        0x8 /tmp/DxeCore.dll.yq5Mi7.ltrans0.ltrans.o
                0x000000000001a398                gRuntime
 .data.gRuntimeTemplate
                0x000000000001a3a0       0x50 /tmp/DxeCore.dll.yq5Mi7.ltrans0.ltrans.o
 .data.mArchProtocols
                0x000000000001a3f0      0x230 /tmp/DxeCore.dll.yq5Mi7.ltrans0.ltrans.o
                0x000000000001a3f0                mArchProtocols
 .data.mBootPerformanceTableTemplate
                0x000000000001a620       0x38 /tmp/DxeCore.dll.yq5Mi7.ltrans0.ltrans.o
 .data.mDefaultBaseAddress
                0x000000000001a658        0x8 /tmp/DxeCore.dll.yq5Mi7.ltrans0.ltrans.o
                0x000000000001a658                mDefaultBaseAddress
 .data.mDefaultMaximumAddress
                0x000000000001a660        0x8 /tmp/DxeCore.dll.yq5Mi7.ltrans0.ltrans.o
                0x000000000001a660                mDefaultMaximumAddress
 .data.mDiscoveredList
                0x000000000001a668       0x10 /tmp/DxeCore.dll.yq5Mi7.ltrans0.ltrans.o
                0x000000000001a668                mDiscoveredList
 .data.mDispatcherLock
                0x000000000001a678       0x18 /tmp/DxeCore.dll.yq5Mi7.ltrans0.ltrans.o
 .data.mDxeServices
                0x000000000001a690       0xa8 /tmp/DxeCore.dll.yq5Mi7.ltrans0.ltrans.o
                0x000000000001a690                mDxeServices
 .data.mEfiRuntimeServicesTableTemplate
                0x000000000001a738       0x88 /tmp/DxeCore.dll.yq5Mi7.ltrans0.ltrans.o
                0x000000000001a738                mEfiRuntimeServicesTableTemplate
 .data.mEfiSystemTimeLock
                0x000000000001a7c0       0x18 /tmp/DxeCore.dll.yq5Mi7.ltrans0.ltrans.o
 .data.mEfiTimerList
                0x000000000001a7d8       0x10 /tmp/DxeCore.dll.yq5Mi7.ltrans0.ltrans.o
 .data.mEfiTimerLock
                0x000000000001a7e8       0x18 /tmp/DxeCore.dll.yq5Mi7.ltrans0.ltrans.o
 .data.mFvDevice
                0x000000000001a800       0xa0 /tmp/DxeCore.dll.yq5Mi7.ltrans0.ltrans.o
 .data.mFvHandleList
                0x000000000001a8a0       0x10 /tmp/DxeCore.dll.yq5Mi7.ltrans0.ltrans.o
 .data.mFvMemmapDevicePathTemplate
                0x000000000001a8b0       0x1c /tmp/DxeCore.dll.yq5Mi7.ltrans0.ltrans.o
 .data.mFvPIWGDevicePathTemplate
                0x000000000001a8cc       0x18 /tmp/DxeCore.dll.yq5Mi7.ltrans0.ltrans.o
 *fill*         0x000000000001a8e4        0x4 
 .data.mFwVolBlock
                0x000000000001a8e8       0x80 /tmp/DxeCore.dll.yq5Mi7.ltrans0.ltrans.o
 .data.mLevelMask
                0x000000000001a968       0x28 /tmp/DxeCore.dll.yq5Mi7.ltrans0.ltrans.o
                0x000000000001a968                mLevelMask
 .data.mLevelShift
                0x000000000001a990       0x28 /tmp/DxeCore.dll.yq5Mi7.ltrans0.ltrans.o
                0x000000000001a990                mLevelShift
 .data.mMapLevel
                0x000000000001a9b8        0x8 /tmp/DxeCore.dll.yq5Mi7.ltrans0.ltrans.o
                0x000000000001a9b8                mMapLevel
 .data.mMemoryTypeStatistics
                0x000000000001a9c0      0x300 /tmp/DxeCore.dll.yq5Mi7.ltrans0.ltrans.o
                0x000000000001a9c0                mMemoryTypeStatistics
 .data.mProtocolDatabase
                0x000000000001acc0       0x10 /tmp/DxeCore.dll.yq5Mi7.ltrans0.ltrans.o
                0x000000000001acc0                mProtocolDatabase
 .data.mScheduledQueue
                0x000000000001acd0       0x10 /tmp/DxeCore.dll.yq5Mi7.ltrans0.ltrans.o
 .data.mStreamRoot
                0x000000000001ace0       0x10 /tmp/DxeCore.dll.yq5Mi7.ltrans0.ltrans.o
                0x000000000001ace0                mStreamRoot
 .data.__stack_chk_guard
                0x000000000001acf0        0x8 /tmp/DxeCore.dll.yq5Mi7.ltrans1.ltrans.o
                0x000000000001acf0                __stack_chk_guard
 .data.gEdkiiPeCoffImageEmulatorProtocolGuid
                0x000000000001acf8       0x10 /tmp/DxeCore.dll.yq5Mi7.ltrans1.ltrans.o
 .data.gEdkiiPerformanceMeasurementProtocolGuid
                0x000000000001ad08       0x10 /tmp/DxeCore.dll.yq5Mi7.ltrans1.ltrans.o
 .data.gEfiBusSpecificDriverOverrideProtocolGuid
                0x000000000001ad18       0x10 /tmp/DxeCore.dll.yq5Mi7.ltrans1.ltrans.o
 .data.gEfiDecompress
                0x000000000001ad28       0x10 /tmp/DxeCore.dll.yq5Mi7.ltrans1.ltrans.o
 .data.gEfiDecompressProtocolGuid
                0x000000000001ad38       0x10 /tmp/DxeCore.dll.yq5Mi7.ltrans1.ltrans.o
 .data.gEfiDriverFamilyOverrideProtocolGuid
                0x000000000001ad48       0x10 /tmp/DxeCore.dll.yq5Mi7.ltrans1.ltrans.o
 .data.gEfiDxeServicesTableGuid
                0x000000000001ad58       0x10 /tmp/DxeCore.dll.yq5Mi7.ltrans1.ltrans.o
 .data.gEfiEndOfDxeEventGroupGuid
                0x000000000001ad68       0x10 /tmp/DxeCore.dll.yq5Mi7.ltrans1.ltrans.o
 .data.gEfiEventMemoryMapChangeGuid
                0x000000000001ad78       0x10 /tmp/DxeCore.dll.yq5Mi7.ltrans1.ltrans.o
 .data.gEfiEventReadyToBootGuid
                0x000000000001ad88       0x10 /tmp/DxeCore.dll.yq5Mi7.ltrans1.ltrans.o
 .data.gEfiFileInfoGuid
                0x000000000001ad98       0x10 /tmp/DxeCore.dll.yq5Mi7.ltrans1.ltrans.o
 .data.gEfiHiiPackageListProtocolGuid
                0x000000000001ada8       0x10 /tmp/DxeCore.dll.yq5Mi7.ltrans1.ltrans.o
 .data.gEfiHobListGuid
                0x000000000001adb8       0x10 /tmp/DxeCore.dll.yq5Mi7.ltrans1.ltrans.o
 .data.gEfiHobMemoryAllocModuleGuid
                0x000000000001adc8       0x10 /tmp/DxeCore.dll.yq5Mi7.ltrans1.ltrans.o
 .data.gEfiLoadFile2ProtocolGuid
                0x000000000001add8       0x10 /tmp/DxeCore.dll.yq5Mi7.ltrans1.ltrans.o
 .data.gEfiLoadFileProtocolGuid
                0x000000000001ade8       0x10 /tmp/DxeCore.dll.yq5Mi7.ltrans1.ltrans.o
 .data.gEfiLoadedImageDevicePathProtocolGuid
                0x000000000001adf8       0x10 /tmp/DxeCore.dll.yq5Mi7.ltrans1.ltrans.o
 .data.gEfiMemoryAttributesTableGuid
                0x000000000001ae08       0x10 /tmp/DxeCore.dll.yq5Mi7.ltrans1.ltrans.o
 .data.gEfiMemoryTypeInformationGuid
                0x000000000001ae18       0x10 /tmp/DxeCore.dll.yq5Mi7.ltrans1.ltrans.o
 .data.gEfiPlatformDriverOverrideProtocolGuid
                0x000000000001ae28       0x10 /tmp/DxeCore.dll.yq5Mi7.ltrans1.ltrans.o
 .data.gEfiSecurity2ArchProtocolGuid
                0x000000000001ae38       0x10 /tmp/DxeCore.dll.yq5Mi7.ltrans1.ltrans.o
 .data.gEfiSimpleFileSystemProtocolGuid
                0x000000000001ae48       0x10 /tmp/DxeCore.dll.yq5Mi7.ltrans1.ltrans.o
 .data.gEfiSmmBase2ProtocolGuid
                0x000000000001ae58       0x10 /tmp/DxeCore.dll.yq5Mi7.ltrans1.ltrans.o
 .data.gEfiVectorHandoffInfoPpiGuid
                0x000000000001ae68       0x10 /tmp/DxeCore.dll.yq5Mi7.ltrans1.ltrans.o
 .data.gEfiVectorHandoffTableGuid
                0x000000000001ae78       0x10 /tmp/DxeCore.dll.yq5Mi7.ltrans1.ltrans.o
 .data.gEventExitBootServicesFailedGuid
                0x000000000001ae88       0x10 /tmp/DxeCore.dll.yq5Mi7.ltrans1.ltrans.o
 .data.gHandleList
                0x000000000001ae98       0x10 /tmp/DxeCore.dll.yq5Mi7.ltrans1.ltrans.o
 .data.gIdleLoopEventGuid
                0x000000000001aea8       0x10 /tmp/DxeCore.dll.yq5Mi7.ltrans1.ltrans.o
 .data.gMemoryLock
                0x000000000001aeb8       0x18 /tmp/DxeCore.dll.yq5Mi7.ltrans1.ltrans.o
 .data.gPerformanceProtocolGuid
                0x000000000001aed0       0x10 /tmp/DxeCore.dll.yq5Mi7.ltrans1.ltrans.o
 .data.gProtocolDatabaseLock
                0x000000000001aee0       0x18 /tmp/DxeCore.dll.yq5Mi7.ltrans1.ltrans.o
 .data.mAttributeConversionTable
                0x000000000001aef8      0x168 /tmp/DxeCore.dll.yq5Mi7.ltrans1.ltrans.o
 .data.mBootServices
                0x000000000001b060      0x178 /tmp/DxeCore.dll.yq5Mi7.ltrans1.ltrans.o
 .data.mCorePrivateImage
                0x000000000001b1d8      0x188 /tmp/DxeCore.dll.yq5Mi7.ltrans1.ltrans.o
 .data.mCustomGuidedSectionExtractionProtocol
                0x000000000001b360        0x8 /tmp/DxeCore.dll.yq5Mi7.ltrans1.ltrans.o
 .data.mEfiSystemTableTemplate
                0x000000000001b368       0x78 /tmp/DxeCore.dll.yq5Mi7.ltrans1.ltrans.o
 .data.mFreeMemoryMapEntryList
                0x000000000001b3e0       0x10 /tmp/DxeCore.dll.yq5Mi7.ltrans1.ltrans.o
 .data.mGcdIoSpaceLock
                0x000000000001b3f0       0x18 /tmp/DxeCore.dll.yq5Mi7.ltrans1.ltrans.o
 .data.mGcdIoSpaceMap
                0x000000000001b408       0x10 /tmp/DxeCore.dll.yq5Mi7.ltrans1.ltrans.o
 .data.mGcdIoSpaceMapEntryTemplate
                0x000000000001b418       0x50 /tmp/DxeCore.dll.yq5Mi7.ltrans1.ltrans.o
 .data.mGcdMemorySpaceLock
                0x000000000001b468       0x18 /tmp/DxeCore.dll.yq5Mi7.ltrans1.ltrans.o
 .data.mGcdMemorySpaceMap
                0x000000000001b480       0x10 /tmp/DxeCore.dll.yq5Mi7.ltrans1.ltrans.o
 .data.mGcdMemorySpaceMapEntryTemplate
                0x000000000001b490       0x50 /tmp/DxeCore.dll.yq5Mi7.ltrans1.ltrans.o
 .data.mImagePropertiesPrivateData
                0x000000000001b4e0       0x28 /tmp/DxeCore.dll.yq5Mi7.ltrans1.ltrans.o
 .data.mLastPromotedPage
                0x000000000001b508        0x8 /tmp/DxeCore.dll.yq5Mi7.ltrans1.ltrans.o
 .data.mMemoryAttributesTableEnable
                0x000000000001b510        0x1 /tmp/DxeCore.dll.yq5Mi7.ltrans1.ltrans.o
 *fill*         0x000000000001b511        0x7 
 .data.mMemoryAttributesTableLock
                0x000000000001b518       0x18 /tmp/DxeCore.dll.yq5Mi7.ltrans1.ltrans.o
 .data.mOptionalProtocols
                0x000000000001b530       0x78 /tmp/DxeCore.dll.yq5Mi7.ltrans1.ltrans.o
 .data.mPerformanceMeasurementInterface
                0x000000000001b5a8        0x8 /tmp/DxeCore.dll.yq5Mi7.ltrans1.ltrans.o
 .data.mPoolHeadList
                0x000000000001b5b0       0x10 /tmp/DxeCore.dll.yq5Mi7.ltrans1.ltrans.o
 .data.mPoolMemoryLock
                0x000000000001b5c0       0x18 /tmp/DxeCore.dll.yq5Mi7.ltrans1.ltrans.o
 *(.bss .bss.*)
 .bss.UsePl011Uart
                0x000000000001b5d8        0x1 /tmp/DxeCore.dll.yq5Mi7.ltrans0.ltrans.o
 .bss.UsePl011UartSet
                0x000000000001b5d9        0x1 /tmp/DxeCore.dll.yq5Mi7.ltrans0.ltrans.o
 *fill*         0x000000000001b5da        0x6 
 .bss.gBS       0x000000000001b5e0        0x8 /tmp/DxeCore.dll.yq5Mi7.ltrans0.ltrans.o
                0x000000000001b5e0                gBS
 .bss.gBds      0x000000000001b5e8        0x8 /tmp/DxeCore.dll.yq5Mi7.ltrans0.ltrans.o
                0x000000000001b5e8                gBds
 .bss.gCpu      0x000000000001b5f0        0x8 /tmp/DxeCore.dll.yq5Mi7.ltrans0.ltrans.o
                0x000000000001b5f0                gCpu
 .bss.gDispatcherRunning
                0x000000000001b5f8        0x1 /tmp/DxeCore.dll.yq5Mi7.ltrans0.ltrans.o
 *fill*         0x000000000001b5f9        0x7 
 .bss.gDxeCoreFileName
                0x000000000001b600        0x8 /tmp/DxeCore.dll.yq5Mi7.ltrans0.ltrans.o
                0x000000000001b600                gDxeCoreFileName
 .bss.gDxeCoreImageHandle
                0x000000000001b608        0x8 /tmp/DxeCore.dll.yq5Mi7.ltrans0.ltrans.o
                0x000000000001b608                gDxeCoreImageHandle
 .bss.gDxeCoreLoadedImage
                0x000000000001b610        0x8 /tmp/DxeCore.dll.yq5Mi7.ltrans0.ltrans.o
                0x000000000001b610                gDxeCoreLoadedImage
 .bss.gDxeCoreST
                0x000000000001b618        0x8 /tmp/DxeCore.dll.yq5Mi7.ltrans0.ltrans.o
                0x000000000001b618                gDxeCoreST
 .bss.gEfiFwVolBlockNotifyReg
                0x000000000001b620        0x8 /tmp/DxeCore.dll.yq5Mi7.ltrans0.ltrans.o
                0x000000000001b620                gEfiFwVolBlockNotifyReg
 .bss.gEventPending
                0x000000000001b628        0x8 /tmp/DxeCore.dll.yq5Mi7.ltrans0.ltrans.o
 .bss.gEventQueue
                0x000000000001b630      0x200 /tmp/DxeCore.dll.yq5Mi7.ltrans0.ltrans.o
                0x000000000001b630                gEventQueue
 .bss.gHobList  0x000000000001b830        0x8 /tmp/DxeCore.dll.yq5Mi7.ltrans0.ltrans.o
                0x000000000001b830                gHobList
 .bss.gIdleLoopEvent
                0x000000000001b838        0x8 /tmp/DxeCore.dll.yq5Mi7.ltrans0.ltrans.o
                0x000000000001b838                gIdleLoopEvent
 .bss.gImageHandle
                0x000000000001b840        0x8 /tmp/DxeCore.dll.yq5Mi7.ltrans0.ltrans.o
                0x000000000001b840                gImageHandle
 .bss.gMetronome
                0x000000000001b848        0x8 /tmp/DxeCore.dll.yq5Mi7.ltrans0.ltrans.o
                0x000000000001b848                gMetronome
 .bss.gRT       0x000000000001b850        0x8 /tmp/DxeCore.dll.yq5Mi7.ltrans0.ltrans.o
                0x000000000001b850                gRT
 .bss.gST       0x000000000001b858        0x8 /tmp/DxeCore.dll.yq5Mi7.ltrans0.ltrans.o
                0x000000000001b858                gST
 .bss.gSecurity
                0x000000000001b860        0x8 /tmp/DxeCore.dll.yq5Mi7.ltrans0.ltrans.o
                0x000000000001b860                gSecurity
 .bss.gSmmBase2
                0x000000000001b868        0x8 /tmp/DxeCore.dll.yq5Mi7.ltrans0.ltrans.o
                0x000000000001b868                gSmmBase2
 .bss.gTimer    0x000000000001b870        0x8 /tmp/DxeCore.dll.yq5Mi7.ltrans0.ltrans.o
                0x000000000001b870                gTimer
 .bss.gWatchdogTimer
                0x000000000001b878        0x8 /tmp/DxeCore.dll.yq5Mi7.ltrans0.ltrans.o
                0x000000000001b878                gWatchdogTimer
 .bss.gZeroGuid
                0x000000000001b880       0x10 /tmp/DxeCore.dll.yq5Mi7.ltrans0.ltrans.o
 .bss.mAcpiBootPerformanceTable
                0x000000000001b890        0x8 /tmp/DxeCore.dll.yq5Mi7.ltrans0.ltrans.o
 .bss.mAvailableEmulators.lto_priv.0
                0x000000000001b898       0x10 /tmp/DxeCore.dll.yq5Mi7.ltrans0.ltrans.o
                0x000000000001b898                mAvailableEmulators.lto_priv.0
 .bss.mBootRecordBuffer
                0x000000000001b8a8        0x8 /tmp/DxeCore.dll.yq5Mi7.ltrans0.ltrans.o
 .bss.mBootRecordMaxSize
                0x000000000001b8b0        0x4 /tmp/DxeCore.dll.yq5Mi7.ltrans0.ltrans.o
 .bss.mBootRecordSize
                0x000000000001b8b4        0x4 /tmp/DxeCore.dll.yq5Mi7.ltrans0.ltrans.o
 .bss.mCacheHandleGuidTable
                0x000000000001b8b8    0x18000 /tmp/DxeCore.dll.yq5Mi7.ltrans0.ltrans.o
 .bss.mCachePairCount
                0x00000000000338b8        0x8 /tmp/DxeCore.dll.yq5Mi7.ltrans0.ltrans.o
 .bss.mCachedLength
                0x00000000000338c0        0x4 /tmp/DxeCore.dll.yq5Mi7.ltrans0.ltrans.o
 *fill*         0x00000000000338c4        0x4 
 .bss.mDebugInfoTableHeader
                0x00000000000338c8       0x10 /tmp/DxeCore.dll.yq5Mi7.ltrans0.ltrans.o
                0x00000000000338c8                mDebugInfoTableHeader
 .bss.mDebugTable
                0x00000000000338d8        0x8 /tmp/DxeCore.dll.yq5Mi7.ltrans0.ltrans.o
                0x00000000000338d8                mDebugTable
 .bss.mDepexEvaluationStack
                0x00000000000338e0        0x8 /tmp/DxeCore.dll.yq5Mi7.ltrans0.ltrans.o
 .bss.mDepexEvaluationStackEnd
                0x00000000000338e8        0x8 /tmp/DxeCore.dll.yq5Mi7.ltrans0.ltrans.o
 .bss.mDepexEvaluationStackPointer
                0x00000000000338f0        0x8 /tmp/DxeCore.dll.yq5Mi7.ltrans0.ltrans.o
 .bss.mEfiCheckTimerEvent
                0x00000000000338f8        0x8 /tmp/DxeCore.dll.yq5Mi7.ltrans0.ltrans.o
                0x00000000000338f8                mEfiCheckTimerEvent
 .bss.mEfiSystemTime
                0x0000000000033900        0x8 /tmp/DxeCore.dll.yq5Mi7.ltrans0.ltrans.o
 .bss.mExtractDecodeHandlerTable
                0x0000000000033908        0x8 /tmp/DxeCore.dll.yq5Mi7.ltrans0.ltrans.o
                0x0000000000033908                mExtractDecodeHandlerTable
 .bss.mExtractGetInfoHandlerTable
                0x0000000000033910        0x8 /tmp/DxeCore.dll.yq5Mi7.ltrans0.ltrans.o
                0x0000000000033910                mExtractGetInfoHandlerTable
 .bss.mExtractHandlerGuidTable
                0x0000000000033918        0x8 /tmp/DxeCore.dll.yq5Mi7.ltrans0.ltrans.o
                0x0000000000033918                mExtractHandlerGuidTable
 .bss.mFpdtBufferIsReported
                0x0000000000033920        0x1 /tmp/DxeCore.dll.yq5Mi7.ltrans0.ltrans.o
 .bss.mFvDevicePath
                0x0000000000033921       0x18 /tmp/DxeCore.dll.yq5Mi7.ltrans0.ltrans.o
 *fill*         0x0000000000033939        0x7 
 .bss.mFwVolEventRegistration
                0x0000000000033940        0x8 /tmp/DxeCore.dll.yq5Mi7.ltrans0.ltrans.o
                0x0000000000033940                mFwVolEventRegistration
 .bss.mGuardedMemoryMap
                0x0000000000033948        0x8 /tmp/DxeCore.dll.yq5Mi7.ltrans0.ltrans.o
                0x0000000000033948                mGuardedMemoryMap
 .bss.mLackSpaceIsReported
                0x0000000000033950        0x1 /tmp/DxeCore.dll.yq5Mi7.ltrans0.ltrans.o
 *fill*         0x0000000000033951        0x3 
 .bss.mLoadImageCount
                0x0000000000033954        0x4 /tmp/DxeCore.dll.yq5Mi7.ltrans0.ltrans.o
                0x0000000000033954                mLoadImageCount
 .bss.mLockInsertRecord
                0x0000000000033958        0x1 /tmp/DxeCore.dll.yq5Mi7.ltrans0.ltrans.o
 *fill*         0x0000000000033959        0x7 
 .bss.mMapDepth
                0x0000000000033960        0x8 /tmp/DxeCore.dll.yq5Mi7.ltrans0.ltrans.o
                0x0000000000033960                mMapDepth
 .bss.mMapStack
                0x0000000000033968      0x180 /tmp/DxeCore.dll.yq5Mi7.ltrans0.ltrans.o
                0x0000000000033968                mMapStack
 .bss.mMaxNumberOfExtractHandler
                0x0000000000033ae8        0x4 /tmp/DxeCore.dll.yq5Mi7.ltrans0.ltrans.o
                0x0000000000033ae8                mMaxNumberOfExtractHandler
 .bss.mMaxPerformanceLength
                0x0000000000033aec        0x4 /tmp/DxeCore.dll.yq5Mi7.ltrans0.ltrans.o
                0x0000000000033aec                mMaxPerformanceLength
 .bss.mMaxTableEntries
                0x0000000000033af0        0x8 /tmp/DxeCore.dll.yq5Mi7.ltrans0.ltrans.o
                0x0000000000033af0                mMaxTableEntries
 .bss.mNewStackBase
                0x0000000000033af8     0x2000 /tmp/DxeCore.dll.yq5Mi7.ltrans0.ltrans.o
 .bss.mOnGuarding
                0x0000000000035af8        0x1 /tmp/DxeCore.dll.yq5Mi7.ltrans0.ltrans.o
                0x0000000000035af8                mOnGuarding
 *fill*         0x0000000000035af9        0x3 
 .bss.mPerformanceLength
                0x0000000000035afc        0x4 /tmp/DxeCore.dll.yq5Mi7.ltrans0.ltrans.o
                0x0000000000035afc                mPerformanceLength
 .bss.mPerformancePointer
                0x0000000000035b00        0x8 /tmp/DxeCore.dll.yq5Mi7.ltrans0.ltrans.o
                0x0000000000035b00                mPerformancePointer
 .bss.mPerformanceProperty
                0x0000000000035b08       0x20 /tmp/DxeCore.dll.yq5Mi7.ltrans0.ltrans.o
                0x0000000000035b08                mPerformanceProperty
 .bss.mPlatformLanguage
                0x0000000000035b28        0x8 /tmp/DxeCore.dll.yq5Mi7.ltrans0.ltrans.o
 .bss.mRecursiveException
                0x0000000000035b30        0x1 /tmp/DxeCore.dll.yq5Mi7.ltrans0.ltrans.o
 *fill*         0x0000000000035b31        0x7 
 .bss.gHandleDatabaseKey
                0x0000000000035b38        0x8 /tmp/DxeCore.dll.yq5Mi7.ltrans1.ltrans.o
 .bss.gMemoryMapTerminated
                0x0000000000035b40        0x1 /tmp/DxeCore.dll.yq5Mi7.ltrans1.ltrans.o
 *fill*         0x0000000000035b41        0x7 
 .bss.gSecurity2
                0x0000000000035b48        0x8 /tmp/DxeCore.dll.yq5Mi7.ltrans1.ltrans.o
 .bss.mCurrentImage
                0x0000000000035b50        0x8 /tmp/DxeCore.dll.yq5Mi7.ltrans1.ltrans.o
 .bss.mDecompressHandle
                0x0000000000035b58        0x8 /tmp/DxeCore.dll.yq5Mi7.ltrans1.ltrans.o
 .bss.mEfiLocateHandleRequest
                0x0000000000035b60        0x8 /tmp/DxeCore.dll.yq5Mi7.ltrans1.ltrans.o
 .bss.mFreeMapStack
                0x0000000000035b68        0x8 /tmp/DxeCore.dll.yq5Mi7.ltrans1.ltrans.o
 .bss.mImageProtectionPolicy
                0x0000000000035b70        0x4 /tmp/DxeCore.dll.yq5Mi7.ltrans1.ltrans.o
 *fill*         0x0000000000035b74        0x4 
 .bss.mMemoryAttributesTable
                0x0000000000035b78        0x8 /tmp/DxeCore.dll.yq5Mi7.ltrans1.ltrans.o
 .bss.mMemoryAttributesTableEndOfDxe
                0x0000000000035b80        0x1 /tmp/DxeCore.dll.yq5Mi7.ltrans1.ltrans.o
 .bss.mMemoryAttributesTableReadyToBoot
                0x0000000000035b81        0x1 /tmp/DxeCore.dll.yq5Mi7.ltrans1.ltrans.o
 *fill*         0x0000000000035b82        0x6 
 .bss.mMemoryMapKey
                0x0000000000035b88        0x8 /tmp/DxeCore.dll.yq5Mi7.ltrans1.ltrans.o
 .bss.mMemoryTypeInformationInitialized
                0x0000000000035b90        0x1 /tmp/DxeCore.dll.yq5Mi7.ltrans1.ltrans.o
 *fill*         0x0000000000035b91        0x3 
 .bss.mNumberOfExtractHandler
                0x0000000000035b94        0x4 /tmp/DxeCore.dll.yq5Mi7.ltrans1.ltrans.o
 .bss.mPeCoffEmuProtocolNotifyRegistration
                0x0000000000035b98        0x8 /tmp/DxeCore.dll.yq5Mi7.ltrans1.ltrans.o
 .bss.mPeCoffEmuProtocolRegistrationEvent
                0x0000000000035ba0        0x8 /tmp/DxeCore.dll.yq5Mi7.ltrans1.ltrans.o
 .bss.mPoolHead
                0x0000000000035ba8      0xd98 /tmp/DxeCore.dll.yq5Mi7.ltrans1.ltrans.o
 .bss.mProtectedImageRecordList
                0x0000000000036940       0x10 /tmp/DxeCore.dll.yq5Mi7.ltrans1.ltrans.o
 .bss.mSectionExtractionHandle
                0x0000000000036950        0x8 /tmp/DxeCore.dll.yq5Mi7.ltrans1.ltrans.o
 .bss.mSystemTableAllocateSize
                0x0000000000036958        0x8 /tmp/DxeCore.dll.yq5Mi7.ltrans1.ltrans.o

.dynbss         0x0000000000036960        0x0
 .dynbss        0x0000000000036960        0x0 /home/alastair/pftf-rpi4/edk2/ArmPkg/Library/GccLto/liblto-aarch64.a

.eh_frame
 *(.eh_frame)

.rela           0x0000000000036960     0x16e0
 *(.rela .rela.*)
 .rela.got      0x0000000000036960        0x0 /home/alastair/pftf-rpi4/edk2/ArmPkg/Library/GccLto/liblto-aarch64.a
 .rela.plt      0x0000000000036960        0x0 /home/alastair/pftf-rpi4/edk2/ArmPkg/Library/GccLto/liblto-aarch64.a
 .rela.bss      0x0000000000036960        0x0 /home/alastair/pftf-rpi4/edk2/ArmPkg/Library/GccLto/liblto-aarch64.a
 .rela.data.rel.ro
                0x0000000000036960        0x0 /home/alastair/pftf-rpi4/edk2/ArmPkg/Library/GccLto/liblto-aarch64.a
 .rela.ifunc    0x0000000000036960        0x0 /home/alastair/pftf-rpi4/edk2/ArmPkg/Library/GccLto/liblto-aarch64.a
 .rela.data.gDxeCoreRT
                0x0000000000036960       0x18 /home/alastair/pftf-rpi4/edk2/ArmPkg/Library/GccLto/liblto-aarch64.a
 .rela.data.gEventSignalQueue
                0x0000000000036978       0x30 /home/alastair/pftf-rpi4/edk2/ArmPkg/Library/GccLto/liblto-aarch64.a
 .rela.data.gMemoryMap
                0x00000000000369a8       0x30 /home/alastair/pftf-rpi4/edk2/ArmPkg/Library/GccLto/liblto-aarch64.a
 .rela.data.gRuntime
                0x00000000000369d8       0x18 /home/alastair/pftf-rpi4/edk2/ArmPkg/Library/GccLto/liblto-aarch64.a
 .rela.data.gRuntimeTemplate
                0x00000000000369f0       0x60 /home/alastair/pftf-rpi4/edk2/ArmPkg/Library/GccLto/liblto-aarch64.a
 .rela.data.mArchProtocols
                0x0000000000036a50      0x1e0 /home/alastair/pftf-rpi4/edk2/ArmPkg/Library/GccLto/liblto-aarch64.a
 .rela.data.mDiscoveredList
                0x0000000000036c30       0x30 /home/alastair/pftf-rpi4/edk2/ArmPkg/Library/GccLto/liblto-aarch64.a
 .rela.data.mDxeServices
                0x0000000000036c60      0x1b0 /home/alastair/pftf-rpi4/edk2/ArmPkg/Library/GccLto/liblto-aarch64.a
 .rela.data.mEfiRuntimeServicesTableTemplate
                0x0000000000036e10      0x150 /home/alastair/pftf-rpi4/edk2/ArmPkg/Library/GccLto/liblto-aarch64.a
 .rela.data.mEfiTimerList
                0x0000000000036f60       0x30 /home/alastair/pftf-rpi4/edk2/ArmPkg/Library/GccLto/liblto-aarch64.a
 .rela.data.mFvDevice
                0x0000000000036f90       0xc0 /home/alastair/pftf-rpi4/edk2/ArmPkg/Library/GccLto/liblto-aarch64.a
 .rela.data.mFvHandleList
                0x0000000000037050       0x30 /home/alastair/pftf-rpi4/edk2/ArmPkg/Library/GccLto/liblto-aarch64.a
 .rela.data.mFwVolBlock
                0x0000000000037080       0xa8 /home/alastair/pftf-rpi4/edk2/ArmPkg/Library/GccLto/liblto-aarch64.a
 .rela.data.mProtocolDatabase
                0x0000000000037128       0x30 /home/alastair/pftf-rpi4/edk2/ArmPkg/Library/GccLto/liblto-aarch64.a
 .rela.data.mScheduledQueue
                0x0000000000037158       0x30 /home/alastair/pftf-rpi4/edk2/ArmPkg/Library/GccLto/liblto-aarch64.a
 .rela.data.mStreamRoot
                0x0000000000037188       0x30 /home/alastair/pftf-rpi4/edk2/ArmPkg/Library/GccLto/liblto-aarch64.a
 .rela.rodata.CSWTCH.58
                0x00000000000371b8       0x90 /home/alastair/pftf-rpi4/edk2/ArmPkg/Library/GccLto/liblto-aarch64.a
 .rela.rodata.gExceptionTypeString
                0x0000000000037248       0x60 /home/alastair/pftf-rpi4/edk2/ArmPkg/Library/GccLto/liblto-aarch64.a
 .rela.rodata.mUefiDevicePathLibToTextTable
                0x00000000000372a8      0x498 /home/alastair/pftf-rpi4/edk2/ArmPkg/Library/GccLto/liblto-aarch64.a
 .rela.rodata.mUefiDevicePathLibToTextTableGeneric
                0x0000000000037740       0x78 /home/alastair/pftf-rpi4/edk2/ArmPkg/Library/GccLto/liblto-aarch64.a
 .rela.data.gEfiDecompress
                0x00000000000377b8       0x30 /home/alastair/pftf-rpi4/edk2/ArmPkg/Library/GccLto/liblto-aarch64.a
 .rela.data.gHandleList
                0x00000000000377e8       0x30 /home/alastair/pftf-rpi4/edk2/ArmPkg/Library/GccLto/liblto-aarch64.a
 .rela.data.mBootServices
                0x0000000000037818      0x408 /home/alastair/pftf-rpi4/edk2/ArmPkg/Library/GccLto/liblto-aarch64.a
 .rela.data.mCustomGuidedSectionExtractionProtocol
                0x0000000000037c20       0x18 /home/alastair/pftf-rpi4/edk2/ArmPkg/Library/GccLto/liblto-aarch64.a
 .rela.data.mEfiSystemTableTemplate
                0x0000000000037c38       0x18 /home/alastair/pftf-rpi4/edk2/ArmPkg/Library/GccLto/liblto-aarch64.a
 .rela.data.mFreeMemoryMapEntryList
                0x0000000000037c50       0x30 /home/alastair/pftf-rpi4/edk2/ArmPkg/Library/GccLto/liblto-aarch64.a
 .rela.data.mGcdIoSpaceMap
                0x0000000000037c80       0x30 /home/alastair/pftf-rpi4/edk2/ArmPkg/Library/GccLto/liblto-aarch64.a
 .rela.data.mGcdMemorySpaceMap
                0x0000000000037cb0       0x30 /home/alastair/pftf-rpi4/edk2/ArmPkg/Library/GccLto/liblto-aarch64.a
 .rela.data.mImagePropertiesPrivateData
                0x0000000000037ce0       0x30 /home/alastair/pftf-rpi4/edk2/ArmPkg/Library/GccLto/liblto-aarch64.a
 .rela.data.mOptionalProtocols
                0x0000000000037d10       0x60 /home/alastair/pftf-rpi4/edk2/ArmPkg/Library/GccLto/liblto-aarch64.a
 .rela.data.mPerformanceMeasurementInterface
                0x0000000000037d70       0x18 /home/alastair/pftf-rpi4/edk2/ArmPkg/Library/GccLto/liblto-aarch64.a
 .rela.data.mPoolHeadList
                0x0000000000037d88       0x30 /home/alastair/pftf-rpi4/edk2/ArmPkg/Library/GccLto/liblto-aarch64.a
 .rela.rodata.mMissingProtocols
                0x0000000000037db8      0x288 /home/alastair/pftf-rpi4/edk2/ArmPkg/Library/GccLto/liblto-aarch64.a

.hii
 *(.hii)

.build-id       0x0000000000038040       0x24
 *(.note.gnu.build-id)
 .note.gnu.build-id
                0x0000000000038040       0x24 /home/alastair/pftf-rpi4/edk2/ArmPkg/Library/GccLto/liblto-aarch64.a

/DISCARD/
 *(.note.GNU-stack)
 *(.gnu_debuglink)
 *(.interp)
 *(.dynsym)
 *(.dynstr)
 *(.dynamic)
 *(.hash .gnu.hash)
 *(.comment)
 *(COMMON)
                0x0000000000000228                PECOFF_HEADER_SIZE = 0x228
OUTPUT(/home/alastair/pftf-rpi4/Build/RPi4/RELEASE_GCC5/AARCH64/MdeModulePkg/Core/Dxe/DxeMain/DEBUG/DxeCore.dll elf64-littleaarch64)
LOAD linker stubs

.debug_info     0x0000000000000000    0xf77ca
 .debug_info    0x0000000000000000    0x10a92 /tmp/DxeCore.dll.yq5Mi7.ltrans0.ltrans.o
 .debug_info    0x0000000000010a92     0xe920 /tmp/DxeCore.dll.yq5Mi7.ltrans1.ltrans.o
 .debug_info    0x000000000001f3b2      0x25f /tmp/cc2Hi0f9.debug.temp.o
                0x000000000001f3b2                DxeCoreEntryPoint.c.1f47d24f
 .debug_info    0x000000000001f611      0x17b /tmp/ccy6pla9.debug.temp.o
                0x000000000001f611                BaseStackCheckGcc.c.3fb9ce64
 .debug_info    0x000000000001f78c      0x1d7 /tmp/ccUW7uR9.debug.temp.o
                0x000000000001f78c                memcpy.c.79986cd0
 .debug_info    0x000000000001f963      0x188 /tmp/ccDs5hC8.debug.temp.o
                0x000000000001f963                memset.c.02de5c04
 .debug_info    0x000000000001faeb     0x2369 /tmp/cc9Xw6N9.debug.temp.o
                0x000000000001faeb                AutoGen.c.410fa051
 .debug_info    0x0000000000021e54     0x547b /tmp/ccTyOHPa.debug.temp.o
                0x0000000000021e54                DxeMain.c.c3d4709e
 .debug_info    0x00000000000272cf     0x539f /tmp/cctaE2x6.debug.temp.o
                0x00000000000272cf                CoreSectionExtraction.c.ad5f989a
 .debug_info    0x000000000002c66e     0x62d6 /tmp/ccFLcnH9.debug.temp.o
                0x000000000002c66e                Image.c.dc683f6b
 .debug_info    0x0000000000032944     0x4b06 /tmp/ccgZIt57.debug.temp.o
                0x0000000000032944                DebugImageInfo.c.52b97b03
 .debug_info    0x000000000003744a     0x4948 /tmp/ccQZ6di6.debug.temp.o
                0x000000000003744a                Stall.c.3629e30e
 .debug_info    0x000000000003bd92     0x493b /tmp/ccRYXtO7.debug.temp.o
                0x000000000003bd92                SetWatchdogTimer.c.0f96b8c9
 .debug_info    0x00000000000406cd     0x4947 /tmp/ccNesjV7.debug.temp.o
                0x00000000000406cd                InstallConfigurationTable.c.f6bc4ea0
 .debug_info    0x0000000000045014     0x5bcc /tmp/ccx7YdW9.debug.temp.o
                0x0000000000045014                MemoryAttributesTable.c.d355aee9
 .debug_info    0x000000000004abe0     0x5ed9 /tmp/ccfEJTA7.debug.temp.o
                0x000000000004abe0                MemoryProtection.c.8909d5e0
 .debug_info    0x0000000000050ab9     0x49b9 /tmp/ccDnCFFa.debug.temp.o
                0x0000000000050ab9                Library.c.1e340f6c
 .debug_info    0x0000000000055472     0x514f /tmp/ccojMSI7.debug.temp.o
                0x0000000000055472                DriverSupport.c.8642e099
 .debug_info    0x000000000005a5c1     0x4de6 /tmp/ccVlDA86.debug.temp.o
                0x000000000005a5c1                Notify.c.4924080c
 .debug_info    0x000000000005f3a7     0x4eea /tmp/ccyzx0v6.debug.temp.o
                0x000000000005f3a7                Locate.c.c50c0de6
 .debug_info    0x0000000000064291     0x539b /tmp/ccL3gad7.debug.temp.o
                0x0000000000064291                Handle.c.2a16bdfa
 .debug_info    0x000000000006962c     0x5eee /tmp/ccWFChr8.debug.temp.o
                0x000000000006962c                Gcd.c.b8c97659
 .debug_info    0x000000000006f51a     0x4fcb /tmp/cc9XuPv8.debug.temp.o
                0x000000000006f51a                Pool.c.7f99810d
 .debug_info    0x00000000000744e5     0x541b /tmp/ccb5VQU8.debug.temp.o
                0x00000000000744e5                Page.c.5110053d
 .debug_info    0x0000000000079900     0x4974 /tmp/cc2HSl78.debug.temp.o
                0x0000000000079900                MemData.c.5c656993
 .debug_info    0x000000000007e274     0x6bfd /tmp/cc0uJTZ9.debug.temp.o
                0x000000000007e274                MemoryProfileRecord.c.9ee3c857
 .debug_info    0x0000000000084e71     0x5420 /tmp/ccCo9Qwa.debug.temp.o
                0x0000000000084e71                HeapGuard.c.f1d0f290
 .debug_info    0x000000000008a291     0x5703 /tmp/ccwddho6.debug.temp.o
                0x000000000008a291                FwVolBlock.c.5bdca07f
 .debug_info    0x000000000008f994     0x5460 /tmp/cc6UnAda.debug.temp.o
                0x000000000008f994                FwVol.c.fb2e03a4
 .debug_info    0x0000000000094df4     0x4985 /tmp/ccaa7tL7.debug.temp.o
                0x0000000000094df4                Tpl.c.ba100563
 .debug_info    0x0000000000099779     0x4c13 /tmp/ccbtGWG7.debug.temp.o
                0x0000000000099779                Timer.c.d99a6b2e
 .debug_info    0x000000000009e38c     0x4e13 /tmp/ccBJJR69.debug.temp.o
                0x000000000009e38c                Event.c.2ca4d440
 .debug_info    0x00000000000a319f     0x5ded /tmp/cc5Ldrl7.debug.temp.o
                0x00000000000a319f                Dispatcher.c.451088a9
 .debug_info    0x00000000000a8f8c     0x4ab2 /tmp/cckKRa48.debug.temp.o
                0x00000000000a8f8c                DxeProtocolNotify.c.54f3fb12
 .debug_info    0x00000000000ada3e     0x4c14 /tmp/ccXFU4B6.debug.temp.o
                0x00000000000ada3e                FwVolWrite.c.4c88df12
 .debug_info    0x00000000000b2652     0x53aa /tmp/ccZowZR6.debug.temp.o
                0x00000000000b2652                FwVolRead.c.4b2010ba
 .debug_info    0x00000000000b79fc     0x5187 /tmp/cciePHe7.debug.temp.o
                0x00000000000b79fc                FwVolAttrib.c.40bc5f43
 .debug_info    0x00000000000bcb83     0x4cc4 /tmp/ccCaHeN8.debug.temp.o
                0x00000000000bcb83                Ffs.c.77754c99
 .debug_info    0x00000000000c1847     0x4e28 /tmp/ccHjRlx8.debug.temp.o
                0x00000000000c1847                Dependency.c.6561414b
 .debug_info    0x00000000000c666f      0x2ef /tmp/ccb8PDz8.debug.temp.o
                0x00000000000c666f                DebugLib.c.be4a5591
 .debug_info    0x00000000000c695e      0x457 /tmp/ccrekuB7.debug.temp.o
                0x00000000000c695e                CheckSum.c.55975dad
 .debug_info    0x00000000000c6db5      0x304 /tmp/ccR0zYr6.debug.temp.o
                0x00000000000c6db5                LongJump.c.a13cb708
 .debug_info    0x00000000000c70b9      0x2ec /tmp/cctxtfE8.debug.temp.o
                0x00000000000c70b9                SetJump.c.b3f14d59
 .debug_info    0x00000000000c73a5      0x1db /tmp/ccqN8418.debug.temp.o
                0x00000000000c73a5                RShiftU64.c.b1baacba
 .debug_info    0x00000000000c7580      0x1db /tmp/ccIkAgk9.debug.temp.o
                0x00000000000c7580                MultU64x32.c.37505239
 .debug_info    0x00000000000c775b      0x1db /tmp/ccPI88C8.debug.temp.o
                0x00000000000c775b                LShiftU64.c.89142a4c
 .debug_info    0x00000000000c7936      0x1db /tmp/cc5f3Om7.debug.temp.o
                0x00000000000c7936                HighBitSet64.c.ecf45599
 .debug_info    0x00000000000c7b11      0x1f3 /tmp/ccDKWCe9.debug.temp.o
                0x00000000000c7b11                HighBitSet32.c.626daae0
 .debug_info    0x00000000000c7d04      0x1e5 /tmp/ccs2zyp8.debug.temp.o
                0x00000000000c7d04                DivU64x32Remainder.c.f5241791
 .debug_info    0x00000000000c7ee9      0x1d0 /tmp/cclTkES7.debug.temp.o
                0x00000000000c7ee9                CpuDeadLoop.c.755e7c7b
 .debug_info    0x00000000000c80b9      0x428 /tmp/cc16GTZ8.debug.temp.o
                0x00000000000c80b9                LinkedList.c.7e1d43c9
 .debug_info    0x00000000000c84e1      0x7f3 /tmp/ccjcwHP8.debug.temp.o
                0x00000000000c84e1                String.c.76785ee4
 .debug_info    0x00000000000c8cd4      0x33d /tmp/ccFavrm6.debug.temp.o
                0x00000000000c8cd4                Unaligned.c.b480fc72
 .debug_info    0x00000000000c9011      0x43c /tmp/ccNjrLba.debug.temp.o
                0x00000000000c9011                Math64.c.fba6cbb7
 .debug_info    0x00000000000c944d      0xdc8 /tmp/ccNyn6ua.debug.temp.o
                0x00000000000c944d                SafeString.c.d93472dc
 .debug_info    0x00000000000ca215      0x1cf /tmp/ccu29xqa.debug.temp.o
                0x00000000000ca215                DivU64x32.c.1f026665
 .debug_info    0x00000000000ca3e4      0x21d /tmp/ccNazIB7.debug.temp.o
                0x00000000000ca3e4                MemLibGuid.c.89fba256
 .debug_info    0x00000000000ca601      0x16e /tmp/ccCstdEa.debug.temp.o
                0x00000000000ca601                ZeroMemWrapper.c.da3b248e
 .debug_info    0x00000000000ca76f      0x19b /tmp/ccS29SY8.debug.temp.o
                0x00000000000ca76f                CompareMemWrapper.c.df2c23b5
 .debug_info    0x00000000000ca90a      0x17a /tmp/cciCVYca.debug.temp.o
                0x00000000000ca90a                SetMem64Wrapper.c.3cfcec6f
 .debug_info    0x00000000000caa84      0x1af /tmp/ccavUY56.debug.temp.o
                0x00000000000caa84                SetMemWrapper.c.bdf1ad9c
 .debug_info    0x00000000000cac33      0x185 /tmp/ccqoQZr8.debug.temp.o
                0x00000000000cac33                CopyMemWrapper.c.4760c160
 .debug_info    0x00000000000cadb8     0x18e1 /tmp/ccWCkyw8.debug.temp.o
                0x00000000000cadb8                UefiBootServicesTableLib.c.1b9b5282
 .debug_info    0x00000000000cc699      0x940 /tmp/ccrgkuC6.debug.temp.o
                0x00000000000cc699                MemoryAllocationLib.c.55b5e54e
 .debug_info    0x00000000000ccfd9      0x36b /tmp/ccuQH9b8.debug.temp.o
                0x00000000000ccfd9                DxeCoreMemoryProfileLibNull.c.e1fb53b8
 .debug_info    0x00000000000cd344     0x18b2 /tmp/ccYSNnwa.debug.temp.o
                0x00000000000cd344                UefiRuntimeServicesTableLib.c.76abd5a8
 .debug_info    0x00000000000cebf6     0x1d7d /tmp/ccfY5PB7.debug.temp.o
                0x00000000000cebf6                DevicePathUtilities.c.1a32a0df
 .debug_info    0x00000000000d0973     0x1953 /tmp/ccblZJb7.debug.temp.o
                0x00000000000d0973                DevicePathUtilitiesDxeSmm.c.cb9de9d5
 .debug_info    0x00000000000d22c6     0x1afe /tmp/ccylyyH7.debug.temp.o
                0x00000000000d22c6                UefiDevicePathLib.c.0e9646b4
 .debug_info    0x00000000000d3dc4     0x3d60 /tmp/ccWmv4z8.debug.temp.o
                0x00000000000d3dc4                DevicePathToText.c.b542a65c
 .debug_info    0x00000000000d7b24      0xa9b /tmp/ccY9An18.debug.temp.o
                0x00000000000d7b24                PeCoffGetEntryPoint.c.269b98f9
 .debug_info    0x00000000000d85bf     0x1c06 /tmp/ccfBBJB9.debug.temp.o
                0x00000000000d85bf                UefiNotTiano.c.249077ca
 .debug_info    0x00000000000da1c5     0x27ac /tmp/ccyBxcCa.debug.temp.o
                0x00000000000da1c5                UefiLib.c.c9f50ead
 .debug_info    0x00000000000dc971      0x277 /tmp/ccH3O939.debug.temp.o
                0x00000000000dc971                ArmArchTimerLib.c.13763ff6
 .debug_info    0x00000000000dcbe8     0x2756 /tmp/ccfmA446.debug.temp.o
                0x00000000000dcbe8                DxeServicesLib.c.e274e40e
 .debug_info    0x00000000000df33e      0x502 /tmp/ccsZ4zNa.debug.temp.o
                0x00000000000df33e                BaseReportStatusCodeLib.c.354a94c6
 .debug_info    0x00000000000df840      0xc75 /tmp/ccbqLP77.debug.temp.o
                0x00000000000df840                HobLib.c.de4402ad
 .debug_info    0x00000000000e04b5      0x452 /tmp/ccv6Cji6.debug.temp.o
                0x00000000000e04b5                DebugPeCoffExtraActionLib.c.b50b7107
 .debug_info    0x00000000000e0907      0x287 /tmp/ccRxYJC6.debug.temp.o
                0x00000000000e0907                ArmCacheMaintenanceLib.c.276735df
 .debug_info    0x00000000000e0b8e     0x1c50 /tmp/ccvZRPQ7.debug.temp.o
                0x00000000000e0b8e                DxeExtractGuidedSectionLib.c.3c1cdecd
 .debug_info    0x00000000000e27de      0x6f9 /tmp/cczqHxR6.debug.temp.o
                0x00000000000e27de                BaseUefiDecompressLib.c.1f0309a6
 .debug_info    0x00000000000e2ed7     0x2eb0 /tmp/ccpUQtt8.debug.temp.o
                0x00000000000e2ed7                DxeCorePerformanceLib.c.5af890d6
 .debug_info    0x00000000000e5d87     0x135b /tmp/ccCK5ZA7.debug.temp.o
                0x00000000000e5d87                BasePeCoff.c.77856147
 .debug_info    0x00000000000e70e2      0x207 /tmp/ccwMUMv8.debug.temp.o
                0x00000000000e70e2                PeCoffLoaderEx.c.9fff28f9
 .debug_info    0x00000000000e72e9      0x1b0 /tmp/ccA7t9w6.debug.temp.o
                0x00000000000e72e9                DebugAgentLibNull.c.06be73e7
 .debug_info    0x00000000000e7499     0x1cd4 /tmp/cco5Max6.debug.temp.o
                0x00000000000e7499                ArmExceptionLib.c.d5df6014
 .debug_info    0x00000000000e916d     0x1a87 /tmp/ccy1lBA6.debug.temp.o
                0x00000000000e916d                AArch64Exception.c.6c951362
 .debug_info    0x00000000000eabf4     0x1b56 /tmp/ccGAtbg6.debug.temp.o
                0x00000000000eabf4                DxeCrc32GuidedSectionExtractLib.c.bcc33368
 .debug_info    0x00000000000ec74a      0x1db /tmp/cc7juy76.debug.temp.o
                0x00000000000ec74a                MultU64x64.c.6d92a6aa
 .debug_info    0x00000000000ec925      0x17a /tmp/ccCzd0w8.debug.temp.o
                0x00000000000ec925                SetMem16Wrapper.c.b8a3956a
 .debug_info    0x00000000000eca9f      0x683 /tmp/ccxe7Is6.debug.temp.o
                0x00000000000eca9f                PrintLib.c.9d1836b5
 .debug_info    0x00000000000ed122      0x79a /tmp/cc3orrq6.debug.temp.o
                0x00000000000ed122                PrintLibInternal.c.11bf8ed5
 .debug_info    0x00000000000ed8bc      0x1dc /tmp/ccJZl2ha.debug.temp.o
                0x00000000000ed8bc                ArmLib.c.c9f77be2
 .debug_info    0x00000000000eda98      0x21d /tmp/ccGVYhn9.debug.temp.o
                0x00000000000eda98                ArmGenericTimerPhyCounterLib.c.f1c70e49
 .debug_info    0x00000000000edcb5     0x194f /tmp/ccqWy9Z7.debug.temp.o
                0x00000000000edcb5                Allocate.c.2808b734
 .debug_info    0x00000000000ef604     0x3231 /tmp/ccMh8mO6.debug.temp.o
                0x00000000000ef604                DefaultExceptionHandler.c.55d7253c
 .debug_info    0x00000000000f2835     0x1b20 /tmp/ccKQPtF9.debug.temp.o
                0x00000000000f2835                DefaultExceptionHandlerUefi.c.5cda45e3
 .debug_info    0x00000000000f4355     0x2762 /tmp/cchQvuX6.debug.temp.o
                0x00000000000f4355                UefiLibPrint.c.d33c8baa
 .debug_info    0x00000000000f6ab7      0x2e6 /tmp/ccarn2n8.debug.temp.o
                0x00000000000f6ab7                DualSerialPortLibCommon.c.18411472
 .debug_info    0x00000000000f6d9d      0x4f7 /tmp/ccuhhcp8.debug.temp.o
                0x00000000000f6d9d                IoLibNoIo.c.df99a900
 .debug_info    0x00000000000f7294      0x536 /tmp/ccdoe1P7.debug.temp.o
                0x00000000000f7294                PL011UartLib.c.cd6f7a7d

.debug_abbrev   0x0000000000000000     0xb361
 .debug_abbrev  0x0000000000000000      0x344 /tmp/DxeCore.dll.yq5Mi7.ltrans0.ltrans.o
 .debug_abbrev  0x0000000000000344      0x295 /tmp/DxeCore.dll.yq5Mi7.ltrans1.ltrans.o
 .debug_abbrev  0x00000000000005d9       0xe2 /tmp/cc2Hi0f9.debug.temp.o
 .debug_abbrev  0x00000000000006bb       0xc7 /tmp/ccy6pla9.debug.temp.o
 .debug_abbrev  0x0000000000000782       0xee /tmp/ccUW7uR9.debug.temp.o
 .debug_abbrev  0x0000000000000870       0xc0 /tmp/ccDs5hC8.debug.temp.o
 .debug_abbrev  0x0000000000000930      0x21d /tmp/cc9Xw6N9.debug.temp.o
 .debug_abbrev  0x0000000000000b4d      0x2df /tmp/ccTyOHPa.debug.temp.o
 .debug_abbrev  0x0000000000000e2c      0x2a8 /tmp/cctaE2x6.debug.temp.o
 .debug_abbrev  0x00000000000010d4      0x30b /tmp/ccFLcnH9.debug.temp.o
 .debug_abbrev  0x00000000000013df      0x2a4 /tmp/ccgZIt57.debug.temp.o
 .debug_abbrev  0x0000000000001683      0x257 /tmp/ccQZ6di6.debug.temp.o
 .debug_abbrev  0x00000000000018da      0x244 /tmp/ccRYXtO7.debug.temp.o
 .debug_abbrev  0x0000000000001b1e      0x255 /tmp/ccNesjV7.debug.temp.o
 .debug_abbrev  0x0000000000001d73      0x319 /tmp/ccx7YdW9.debug.temp.o
 .debug_abbrev  0x000000000000208c      0x321 /tmp/ccfEJTA7.debug.temp.o
 .debug_abbrev  0x00000000000023ad      0x257 /tmp/ccDnCFFa.debug.temp.o
 .debug_abbrev  0x0000000000002604      0x297 /tmp/ccojMSI7.debug.temp.o
 .debug_abbrev  0x000000000000289b      0x264 /tmp/ccVlDA86.debug.temp.o
 .debug_abbrev  0x0000000000002aff      0x297 /tmp/ccyzx0v6.debug.temp.o
 .debug_abbrev  0x0000000000002d96      0x306 /tmp/ccL3gad7.debug.temp.o
 .debug_abbrev  0x000000000000309c      0x30d /tmp/ccWFChr8.debug.temp.o
 .debug_abbrev  0x00000000000033a9      0x2df /tmp/cc9XuPv8.debug.temp.o
 .debug_abbrev  0x0000000000003688      0x2e9 /tmp/ccb5VQU8.debug.temp.o
 .debug_abbrev  0x0000000000003971      0x224 /tmp/cc2HSl78.debug.temp.o
 .debug_abbrev  0x0000000000003b95      0x2bb /tmp/cc0uJTZ9.debug.temp.o
 .debug_abbrev  0x0000000000003e50      0x302 /tmp/ccCo9Qwa.debug.temp.o
 .debug_abbrev  0x0000000000004152      0x2d9 /tmp/ccwddho6.debug.temp.o
 .debug_abbrev  0x000000000000442b      0x2f9 /tmp/cc6UnAda.debug.temp.o
 .debug_abbrev  0x0000000000004724      0x26a /tmp/ccaa7tL7.debug.temp.o
 .debug_abbrev  0x000000000000498e      0x27b /tmp/ccbtGWG7.debug.temp.o
 .debug_abbrev  0x0000000000004c09      0x2bb /tmp/ccBJJR69.debug.temp.o
 .debug_abbrev  0x0000000000004ec4      0x302 /tmp/cc5Ldrl7.debug.temp.o
 .debug_abbrev  0x00000000000051c6      0x29b /tmp/cckKRa48.debug.temp.o
 .debug_abbrev  0x0000000000005461      0x235 /tmp/ccXFU4B6.debug.temp.o
 .debug_abbrev  0x0000000000005696      0x2d7 /tmp/ccZowZR6.debug.temp.o
 .debug_abbrev  0x000000000000596d      0x273 /tmp/cciePHe7.debug.temp.o
 .debug_abbrev  0x0000000000005be0      0x277 /tmp/ccCaHeN8.debug.temp.o
 .debug_abbrev  0x0000000000005e57      0x277 /tmp/ccHjRlx8.debug.temp.o
 .debug_abbrev  0x00000000000060ce      0x121 /tmp/ccb8PDz8.debug.temp.o
 .debug_abbrev  0x00000000000061ef      0x13e /tmp/ccrekuB7.debug.temp.o
 .debug_abbrev  0x000000000000632d       0xc2 /tmp/ccR0zYr6.debug.temp.o
 .debug_abbrev  0x00000000000063ef       0xc2 /tmp/cctxtfE8.debug.temp.o
 .debug_abbrev  0x00000000000064b1       0xb1 /tmp/ccqN8418.debug.temp.o
 .debug_abbrev  0x0000000000006562       0xc0 /tmp/ccIkAgk9.debug.temp.o
 .debug_abbrev  0x0000000000006622       0xb1 /tmp/ccPI88C8.debug.temp.o
 .debug_abbrev  0x00000000000066d3       0xb1 /tmp/cc5f3Om7.debug.temp.o
 .debug_abbrev  0x0000000000006784       0xc0 /tmp/ccDKWCe9.debug.temp.o
 .debug_abbrev  0x0000000000006844       0xb3 /tmp/ccs2zyp8.debug.temp.o
 .debug_abbrev  0x00000000000068f7       0xb6 /tmp/cclTkES7.debug.temp.o
 .debug_abbrev  0x00000000000069ad      0x139 /tmp/cc16GTZ8.debug.temp.o
 .debug_abbrev  0x0000000000006ae6      0x126 /tmp/ccjcwHP8.debug.temp.o
 .debug_abbrev  0x0000000000006c0c       0xc9 /tmp/ccFavrm6.debug.temp.o
 .debug_abbrev  0x0000000000006cd5       0xf9 /tmp/ccNjrLba.debug.temp.o
 .debug_abbrev  0x0000000000006dce      0x12d /tmp/ccNyn6ua.debug.temp.o
 .debug_abbrev  0x0000000000006efb       0xb1 /tmp/ccu29xqa.debug.temp.o
 .debug_abbrev  0x0000000000006fac       0xce /tmp/ccNazIB7.debug.temp.o
 .debug_abbrev  0x000000000000707a       0xb1 /tmp/ccCstdEa.debug.temp.o
 .debug_abbrev  0x000000000000712b       0xb1 /tmp/ccS29SY8.debug.temp.o
 .debug_abbrev  0x00000000000071dc       0xb1 /tmp/cciCVYca.debug.temp.o
 .debug_abbrev  0x000000000000728d       0xc6 /tmp/ccavUY56.debug.temp.o
 .debug_abbrev  0x0000000000007353       0xb8 /tmp/ccqoQZr8.debug.temp.o
 .debug_abbrev  0x000000000000740b      0x1dd /tmp/ccWCkyw8.debug.temp.o
 .debug_abbrev  0x00000000000075e8      0x171 /tmp/ccrgkuC6.debug.temp.o
 .debug_abbrev  0x0000000000007759       0xef /tmp/ccuQH9b8.debug.temp.o
 .debug_abbrev  0x0000000000007848      0x1c3 /tmp/ccYSNnwa.debug.temp.o
 .debug_abbrev  0x0000000000007a0b      0x240 /tmp/ccfY5PB7.debug.temp.o
 .debug_abbrev  0x0000000000007c4b      0x1d4 /tmp/ccblZJb7.debug.temp.o
 .debug_abbrev  0x0000000000007e1f      0x1fe /tmp/ccylyyH7.debug.temp.o
 .debug_abbrev  0x000000000000801d      0x2ca /tmp/ccWmv4z8.debug.temp.o
 .debug_abbrev  0x00000000000082e7      0x1a3 /tmp/ccY9An18.debug.temp.o
 .debug_abbrev  0x000000000000848a      0x233 /tmp/ccfBBJB9.debug.temp.o
 .debug_abbrev  0x00000000000086bd      0x267 /tmp/ccyBxcCa.debug.temp.o
 .debug_abbrev  0x0000000000008924      0x104 /tmp/ccH3O939.debug.temp.o
 .debug_abbrev  0x0000000000008a28      0x225 /tmp/ccfmA446.debug.temp.o
 .debug_abbrev  0x0000000000008c4d      0x124 /tmp/ccsZ4zNa.debug.temp.o
 .debug_abbrev  0x0000000000008d71      0x1c5 /tmp/ccbqLP77.debug.temp.o
 .debug_abbrev  0x0000000000008f36      0x116 /tmp/ccv6Cji6.debug.temp.o
 .debug_abbrev  0x000000000000904c       0xf2 /tmp/ccRxYJC6.debug.temp.o
 .debug_abbrev  0x000000000000913e      0x23a /tmp/ccvZRPQ7.debug.temp.o
 .debug_abbrev  0x0000000000009378      0x1a6 /tmp/cczqHxR6.debug.temp.o
 .debug_abbrev  0x000000000000951e      0x290 /tmp/ccpUQtt8.debug.temp.o
 .debug_abbrev  0x00000000000097ae      0x1eb /tmp/ccCK5ZA7.debug.temp.o
 .debug_abbrev  0x0000000000009999       0xce /tmp/ccwMUMv8.debug.temp.o
 .debug_abbrev  0x0000000000009a67       0xd4 /tmp/ccA7t9w6.debug.temp.o
 .debug_abbrev  0x0000000000009b3b      0x245 /tmp/cco5Max6.debug.temp.o
 .debug_abbrev  0x0000000000009d80      0x1ce /tmp/ccy1lBA6.debug.temp.o
 .debug_abbrev  0x0000000000009f4e      0x1e9 /tmp/ccGAtbg6.debug.temp.o
 .debug_abbrev  0x000000000000a137       0xc0 /tmp/cc7juy76.debug.temp.o
 .debug_abbrev  0x000000000000a1f7       0xb1 /tmp/ccCzd0w8.debug.temp.o
 .debug_abbrev  0x000000000000a2a8      0x150 /tmp/ccxe7Is6.debug.temp.o
 .debug_abbrev  0x000000000000a3f8      0x161 /tmp/cc3orrq6.debug.temp.o
 .debug_abbrev  0x000000000000a559       0xf2 /tmp/ccJZl2ha.debug.temp.o
 .debug_abbrev  0x000000000000a64b       0xee /tmp/ccGVYhn9.debug.temp.o
 .debug_abbrev  0x000000000000a739      0x1d4 /tmp/ccqWy9Z7.debug.temp.o
 .debug_abbrev  0x000000000000a90d      0x27e /tmp/ccMh8mO6.debug.temp.o
 .debug_abbrev  0x000000000000ab8b      0x1e8 /tmp/ccKQPtF9.debug.temp.o
 .debug_abbrev  0x000000000000ad73      0x283 /tmp/cchQvuX6.debug.temp.o
 .debug_abbrev  0x000000000000aff6      0x108 /tmp/ccarn2n8.debug.temp.o
 .debug_abbrev  0x000000000000b0fe      0x11f /tmp/ccuhhcp8.debug.temp.o
 .debug_abbrev  0x000000000000b21d      0x144 /tmp/ccdoe1P7.debug.temp.o

.debug_loc      0x0000000000000000    0x41aef
 .debug_loc     0x0000000000000000    0x2279a /tmp/DxeCore.dll.yq5Mi7.ltrans0.ltrans.o
 .debug_loc     0x000000000002279a    0x1f355 /tmp/DxeCore.dll.yq5Mi7.ltrans1.ltrans.o

.debug_aranges  0x0000000000000000     0x1910
 .debug_aranges
                0x0000000000000000     0x1000 /tmp/DxeCore.dll.yq5Mi7.ltrans0.ltrans.o
 .debug_aranges
                0x0000000000001000      0x910 /tmp/DxeCore.dll.yq5Mi7.ltrans1.ltrans.o

.debug_ranges   0x0000000000000000     0x75a0
 .debug_ranges  0x0000000000000000     0x3ab0 /tmp/DxeCore.dll.yq5Mi7.ltrans0.ltrans.o
 .debug_ranges  0x0000000000003ab0     0x3af0 /tmp/DxeCore.dll.yq5Mi7.ltrans1.ltrans.o

.debug_line     0x0000000000000000    0x2c36c
 .debug_line    0x0000000000000000     0xbe4d /tmp/DxeCore.dll.yq5Mi7.ltrans0.ltrans.o
 .debug_line    0x000000000000be4d     0xada5 /tmp/DxeCore.dll.yq5Mi7.ltrans1.ltrans.o
 .debug_line    0x0000000000016bf2      0x2ff /tmp/cc2Hi0f9.debug.temp.o
 .debug_line    0x0000000000016ef1      0x172 /tmp/ccy6pla9.debug.temp.o
 .debug_line    0x0000000000017063      0x173 /tmp/ccUW7uR9.debug.temp.o
 .debug_line    0x00000000000171d6      0x173 /tmp/ccDs5hC8.debug.temp.o
 .debug_line    0x0000000000017349      0x2c3 /tmp/cc9Xw6N9.debug.temp.o
 .debug_line    0x000000000001760c      0x639 /tmp/ccTyOHPa.debug.temp.o
 .debug_line    0x0000000000017c45      0x610 /tmp/cctaE2x6.debug.temp.o
 .debug_line    0x0000000000018255      0x669 /tmp/ccFLcnH9.debug.temp.o
 .debug_line    0x00000000000188be      0x5e4 /tmp/ccgZIt57.debug.temp.o
 .debug_line    0x0000000000018ea2      0x5c2 /tmp/ccQZ6di6.debug.temp.o
 .debug_line    0x0000000000019464      0x5cd /tmp/ccRYXtO7.debug.temp.o
 .debug_line    0x0000000000019a31      0x5d6 /tmp/ccNesjV7.debug.temp.o
 .debug_line    0x000000000001a007      0x6a5 /tmp/ccx7YdW9.debug.temp.o
 .debug_line    0x000000000001a6ac      0x693 /tmp/ccfEJTA7.debug.temp.o
 .debug_line    0x000000000001ad3f      0x5d4 /tmp/ccDnCFFa.debug.temp.o
 .debug_line    0x000000000001b313      0x64b /tmp/ccojMSI7.debug.temp.o
 .debug_line    0x000000000001b95e      0x621 /tmp/ccVlDA86.debug.temp.o
 .debug_line    0x000000000001bf7f      0x5dc /tmp/ccyzx0v6.debug.temp.o
 .debug_line    0x000000000001c55b      0x5ea /tmp/ccL3gad7.debug.temp.o
 .debug_line    0x000000000001cb45      0x637 /tmp/ccWFChr8.debug.temp.o
 .debug_line    0x000000000001d17c      0x5e6 /tmp/cc9XuPv8.debug.temp.o
 .debug_line    0x000000000001d762      0x5e6 /tmp/ccb5VQU8.debug.temp.o
 .debug_line    0x000000000001dd48      0x5d0 /tmp/cc2HSl78.debug.temp.o
 .debug_line    0x000000000001e318      0x695 /tmp/cc0uJTZ9.debug.temp.o
 .debug_line    0x000000000001e9ad      0x5eb /tmp/ccCo9Qwa.debug.temp.o
 .debug_line    0x000000000001ef98      0x60e /tmp/ccwddho6.debug.temp.o
 .debug_line    0x000000000001f5a6      0x613 /tmp/cc6UnAda.debug.temp.o
 .debug_line    0x000000000001fbb9      0x5cc /tmp/ccaa7tL7.debug.temp.o
 .debug_line    0x0000000000020185      0x5db /tmp/ccbtGWG7.debug.temp.o
 .debug_line    0x0000000000020760      0x5db /tmp/ccBJJR69.debug.temp.o
 .debug_line    0x0000000000020d3b      0x634 /tmp/cc5Ldrl7.debug.temp.o
 .debug_line    0x000000000002136f      0x5d1 /tmp/cckKRa48.debug.temp.o
 .debug_line    0x0000000000021940      0x607 /tmp/ccXFU4B6.debug.temp.o
 .debug_line    0x0000000000021f47      0x617 /tmp/ccZowZR6.debug.temp.o
 .debug_line    0x000000000002255e      0x619 /tmp/cciePHe7.debug.temp.o
 .debug_line    0x0000000000022b77      0x5eb /tmp/ccCaHeN8.debug.temp.o
 .debug_line    0x0000000000023162      0x60c /tmp/ccHjRlx8.debug.temp.o
 .debug_line    0x000000000002376e      0x174 /tmp/ccb8PDz8.debug.temp.o
 .debug_line    0x00000000000238e2      0x14b /tmp/ccrekuB7.debug.temp.o
 .debug_line    0x0000000000023a2d      0x18d /tmp/ccR0zYr6.debug.temp.o
 .debug_line    0x0000000000023bba      0x18c /tmp/cctxtfE8.debug.temp.o
 .debug_line    0x0000000000023d46      0x14c /tmp/ccqN8418.debug.temp.o
 .debug_line    0x0000000000023e92      0x14d /tmp/ccIkAgk9.debug.temp.o
 .debug_line    0x0000000000023fdf      0x14c /tmp/ccPI88C8.debug.temp.o
 .debug_line    0x000000000002412b      0x14f /tmp/cc5f3Om7.debug.temp.o
 .debug_line    0x000000000002427a      0x14f /tmp/ccDKWCe9.debug.temp.o
 .debug_line    0x00000000000243c9      0x155 /tmp/ccs2zyp8.debug.temp.o
 .debug_line    0x000000000002451e      0x14e /tmp/cclTkES7.debug.temp.o
 .debug_line    0x000000000002466c      0x14d /tmp/cc16GTZ8.debug.temp.o
 .debug_line    0x00000000000247b9      0x149 /tmp/ccjcwHP8.debug.temp.o
 .debug_line    0x0000000000024902      0x150 /tmp/ccFavrm6.debug.temp.o
 .debug_line    0x0000000000024a52      0x149 /tmp/ccNjrLba.debug.temp.o
 .debug_line    0x0000000000024b9b      0x14d /tmp/ccNyn6ua.debug.temp.o
 .debug_line    0x0000000000024ce8      0x14c /tmp/ccu29xqa.debug.temp.o
 .debug_line    0x0000000000024e34      0x175 /tmp/ccNazIB7.debug.temp.o
 .debug_line    0x0000000000024fa9      0x175 /tmp/ccCstdEa.debug.temp.o
 .debug_line    0x000000000002511e      0x178 /tmp/ccS29SY8.debug.temp.o
 .debug_line    0x0000000000025296      0x176 /tmp/cciCVYca.debug.temp.o
 .debug_line    0x000000000002540c      0x174 /tmp/ccavUY56.debug.temp.o
 .debug_line    0x0000000000025580      0x175 /tmp/ccqoQZr8.debug.temp.o
 .debug_line    0x00000000000256f5      0x332 /tmp/ccWCkyw8.debug.temp.o
 .debug_line    0x0000000000025a27      0x349 /tmp/ccrgkuC6.debug.temp.o
 .debug_line    0x0000000000025d70      0x343 /tmp/ccuQH9b8.debug.temp.o
 .debug_line    0x00000000000260b3      0x2eb /tmp/ccYSNnwa.debug.temp.o
 .debug_line    0x000000000002639e      0x36e /tmp/ccfY5PB7.debug.temp.o
 .debug_line    0x000000000002670c      0x374 /tmp/ccblZJb7.debug.temp.o
 .debug_line    0x0000000000026a80      0x36c /tmp/ccylyyH7.debug.temp.o
 .debug_line    0x0000000000026dec      0x3dd /tmp/ccWmv4z8.debug.temp.o
 .debug_line    0x00000000000271c9      0x1da /tmp/ccY9An18.debug.temp.o
 .debug_line    0x00000000000273a3      0x343 /tmp/ccfBBJB9.debug.temp.o
 .debug_line    0x00000000000276e6      0x36f /tmp/ccyBxcCa.debug.temp.o
 .debug_line    0x0000000000027a55      0x16a /tmp/ccH3O939.debug.temp.o
 .debug_line    0x0000000000027bbf      0x48d /tmp/ccfmA446.debug.temp.o
 .debug_line    0x000000000002804c      0x2b2 /tmp/ccsZ4zNa.debug.temp.o
 .debug_line    0x00000000000282fe      0x347 /tmp/ccbqLP77.debug.temp.o
 .debug_line    0x0000000000028645      0x317 /tmp/ccv6Cji6.debug.temp.o
 .debug_line    0x000000000002895c      0x1c7 /tmp/ccRxYJC6.debug.temp.o
 .debug_line    0x0000000000028b23      0x3ad /tmp/ccvZRPQ7.debug.temp.o
 .debug_line    0x0000000000028ed0      0x1a6 /tmp/cczqHxR6.debug.temp.o
 .debug_line    0x0000000000029076      0x668 /tmp/ccpUQtt8.debug.temp.o
 .debug_line    0x00000000000296de      0x1ee /tmp/ccCK5ZA7.debug.temp.o
 .debug_line    0x00000000000298cc      0x163 /tmp/ccwMUMv8.debug.temp.o
 .debug_line    0x0000000000029a2f      0x1cc /tmp/ccA7t9w6.debug.temp.o
 .debug_line    0x0000000000029bfb      0x353 /tmp/cco5Max6.debug.temp.o
 .debug_line    0x0000000000029f4e      0x2b4 /tmp/ccy1lBA6.debug.temp.o
 .debug_line    0x000000000002a202      0x3b0 /tmp/ccGAtbg6.debug.temp.o
 .debug_line    0x000000000002a5b2      0x14d /tmp/cc7juy76.debug.temp.o
 .debug_line    0x000000000002a6ff      0x176 /tmp/ccCzd0w8.debug.temp.o
 .debug_line    0x000000000002a875      0x168 /tmp/ccxe7Is6.debug.temp.o
 .debug_line    0x000000000002a9dd      0x186 /tmp/cc3orrq6.debug.temp.o
 .debug_line    0x000000000002ab63      0x14a /tmp/ccJZl2ha.debug.temp.o
 .debug_line    0x000000000002acad      0x19e /tmp/ccGVYhn9.debug.temp.o
 .debug_line    0x000000000002ae4b      0x316 /tmp/ccqWy9Z7.debug.temp.o
 .debug_line    0x000000000002b161      0x436 /tmp/ccMh8mO6.debug.temp.o
 .debug_line    0x000000000002b597      0x3d8 /tmp/ccKQPtF9.debug.temp.o
 .debug_line    0x000000000002b96f      0x3a3 /tmp/cchQvuX6.debug.temp.o
 .debug_line    0x000000000002bd12      0x242 /tmp/ccarn2n8.debug.temp.o
 .debug_line    0x000000000002bf54      0x16d /tmp/ccuhhcp8.debug.temp.o
 .debug_line    0x000000000002c0c1      0x2ab /tmp/ccdoe1P7.debug.temp.o

.debug_str      0x0000000000000000    0x11bef
 .debug_str     0x0000000000000000      0x619 /tmp/DxeCore.dll.yq5Mi7.ltrans0.ltrans.o
                                        0x632 (size before relaxing)
 .debug_str     0x0000000000000619      0x134 /tmp/DxeCore.dll.yq5Mi7.ltrans1.ltrans.o
                                        0x47f (size before relaxing)
 .debug_str     0x000000000000074d      0x479 /tmp/cc2Hi0f9.debug.temp.o
                                        0x4db (size before relaxing)
 .debug_str     0x0000000000000bc6      0x27c /tmp/ccy6pla9.debug.temp.o
                                        0x3a9 (size before relaxing)
 .debug_str     0x0000000000000e42       0xd5 /tmp/ccUW7uR9.debug.temp.o
                                        0x350 (size before relaxing)
 .debug_str     0x0000000000000f17       0x55 /tmp/ccDs5hC8.debug.temp.o
                                        0x344 (size before relaxing)
 .debug_str     0x0000000000000f6c     0x1fe2 /tmp/cc9Xw6N9.debug.temp.o
                                       0x2844 (size before relaxing)
 .debug_str     0x0000000000002f4e     0x1bf8 /tmp/ccTyOHPa.debug.temp.o
                                       0x4206 (size before relaxing)
 .debug_str     0x0000000000004b46      0x696 /tmp/cctaE2x6.debug.temp.o
                                       0x420e (size before relaxing)
 .debug_str     0x00000000000051dc      0xa19 /tmp/ccFLcnH9.debug.temp.o
                                       0x4b49 (size before relaxing)
 .debug_str     0x0000000000005bf5      0x1fb /tmp/ccgZIt57.debug.temp.o
                                       0x3c47 (size before relaxing)
 .debug_str     0x0000000000005df0       0x70 /tmp/ccQZ6di6.debug.temp.o
                                       0x3a8a (size before relaxing)
 .debug_str     0x0000000000005e60       0x83 /tmp/ccRYXtO7.debug.temp.o
                                       0x3a95 (size before relaxing)
 .debug_str     0x0000000000005ee3       0xab /tmp/ccNesjV7.debug.temp.o
                                       0x3abe (size before relaxing)
 .debug_str     0x0000000000005f8e      0x8a5 /tmp/ccx7YdW9.debug.temp.o
                                       0x4893 (size before relaxing)
 .debug_str     0x0000000000006833      0x336 /tmp/ccfEJTA7.debug.temp.o
                                       0x4945 (size before relaxing)
 .debug_str     0x0000000000006b69       0x7c /tmp/ccDnCFFa.debug.temp.o
                                       0x3ad9 (size before relaxing)
 .debug_str     0x0000000000006be5      0x5a7 /tmp/ccojMSI7.debug.temp.o
                                       0x41b0 (size before relaxing)
 .debug_str     0x000000000000718c      0x17a /tmp/ccVlDA86.debug.temp.o
                                       0x3d29 (size before relaxing)
 .debug_str     0x0000000000007306      0x188 /tmp/ccyzx0v6.debug.temp.o
                                       0x3d5a (size before relaxing)
 .debug_str     0x000000000000748e      0x372 /tmp/ccL3gad7.debug.temp.o
                                       0x3f73 (size before relaxing)
 .debug_str     0x0000000000007800      0x6ce /tmp/ccWFChr8.debug.temp.o
                                       0x4656 (size before relaxing)
 .debug_str     0x0000000000007ece      0x283 /tmp/cc9XuPv8.debug.temp.o
                                       0x3d7c (size before relaxing)
 .debug_str     0x0000000000008151      0x3f1 /tmp/ccb5VQU8.debug.temp.o
                                       0x40b2 (size before relaxing)
 .debug_str     0x0000000000008542       0x42 /tmp/cc2HSl78.debug.temp.o
                                       0x3ab6 (size before relaxing)
 .debug_str     0x0000000000008584      0x853 /tmp/cc0uJTZ9.debug.temp.o
                                       0x5069 (size before relaxing)
 .debug_str     0x0000000000008dd7      0x441 /tmp/ccCo9Qwa.debug.temp.o
                                       0x3fce (size before relaxing)
 .debug_str     0x0000000000009218      0x4bf /tmp/ccwddho6.debug.temp.o
                                       0x439d (size before relaxing)
 .debug_str     0x00000000000096d7      0x3aa /tmp/cc6UnAda.debug.temp.o
                                       0x4165 (size before relaxing)
 .debug_str     0x0000000000009a81       0x84 /tmp/ccaa7tL7.debug.temp.o
                                       0x3aa9 (size before relaxing)
 .debug_str     0x0000000000009b05      0x118 /tmp/ccbtGWG7.debug.temp.o
                                       0x3c71 (size before relaxing)
 .debug_str     0x0000000000009c1d      0x1bd /tmp/ccBJJR69.debug.temp.o
                                       0x3d18 (size before relaxing)
 .debug_str     0x0000000000009dda      0x47c /tmp/cc5Ldrl7.debug.temp.o
                                       0x47f3 (size before relaxing)
 .debug_str     0x000000000000a256      0x180 /tmp/cckKRa48.debug.temp.o
                                       0x3bbf (size before relaxing)
 .debug_str     0x000000000000a3d6       0x76 /tmp/ccXFU4B6.debug.temp.o
                                       0x3c54 (size before relaxing)
 .debug_str     0x000000000000a44c      0x147 /tmp/ccZowZR6.debug.temp.o
                                       0x40fd (size before relaxing)
 .debug_str     0x000000000000a593       0xa4 /tmp/cciePHe7.debug.temp.o
                                       0x3fe1 (size before relaxing)
 .debug_str     0x000000000000a637       0xc9 /tmp/ccCaHeN8.debug.temp.o
                                       0x3c89 (size before relaxing)
 .debug_str     0x000000000000a700      0x10e /tmp/ccHjRlx8.debug.temp.o
                                       0x3de0 (size before relaxing)
 .debug_str     0x000000000000a80e      0x18f /tmp/ccb8PDz8.debug.temp.o
                                        0x480 (size before relaxing)
 .debug_str     0x000000000000a99d      0x132 /tmp/ccrekuB7.debug.temp.o
                                        0x51a (size before relaxing)
 .debug_str     0x000000000000aacf       0x40 /tmp/ccR0zYr6.debug.temp.o
                                        0x481 (size before relaxing)
 .debug_str     0x000000000000ab0f       0x58 /tmp/cctxtfE8.debug.temp.o
                                        0x484 (size before relaxing)
 .debug_str     0x000000000000ab67       0x49 /tmp/ccqN8418.debug.temp.o
                                        0x467 (size before relaxing)
 .debug_str     0x000000000000abb0       0x5a /tmp/ccIkAgk9.debug.temp.o
                                        0x474 (size before relaxing)
 .debug_str     0x000000000000ac0a       0x41 /tmp/ccPI88C8.debug.temp.o
                                        0x467 (size before relaxing)
 .debug_str     0x000000000000ac4b       0x51 /tmp/cc5f3Om7.debug.temp.o
                                        0x46c (size before relaxing)
 .debug_str     0x000000000000ac9c       0x51 /tmp/ccDKWCe9.debug.temp.o
                                        0x47b (size before relaxing)
 .debug_str     0x000000000000aced       0x6e /tmp/ccs2zyp8.debug.temp.o
                                        0x480 (size before relaxing)
 .debug_str     0x000000000000ad5b       0x4f /tmp/cclTkES7.debug.temp.o
                                        0x463 (size before relaxing)
 .debug_str     0x000000000000adaa      0x11a /tmp/cc16GTZ8.debug.temp.o
                                        0x573 (size before relaxing)
 .debug_str     0x000000000000aec4      0x2d7 /tmp/ccjcwHP8.debug.temp.o
                                        0x7e4 (size before relaxing)
 .debug_str     0x000000000000b19b       0xf5 /tmp/ccFavrm6.debug.temp.o
                                        0x50a (size before relaxing)
 .debug_str     0x000000000000b290      0x170 /tmp/ccNjrLba.debug.temp.o
                                        0x5e1 (size before relaxing)
 .debug_str     0x000000000000b400      0x2b0 /tmp/ccNyn6ua.debug.temp.o
                                        0x822 (size before relaxing)
 .debug_str     0x000000000000b6b0       0x41 /tmp/ccu29xqa.debug.temp.o
                                        0x464 (size before relaxing)
 .debug_str     0x000000000000b6f1      0x10e /tmp/ccNazIB7.debug.temp.o
                                        0x3af (size before relaxing)
 .debug_str     0x000000000000b7ff       0x52 /tmp/ccCstdEa.debug.temp.o
                                        0x352 (size before relaxing)
 .debug_str     0x000000000000b851       0x67 /tmp/ccS29SY8.debug.temp.o
                                        0x37b (size before relaxing)
 .debug_str     0x000000000000b8b8       0x53 /tmp/cciCVYca.debug.temp.o
                                        0x35a (size before relaxing)
 .debug_str     0x000000000000b90b       0x59 /tmp/ccavUY56.debug.temp.o
                                        0x35e (size before relaxing)
 .debug_str     0x000000000000b964       0x52 /tmp/ccqoQZr8.debug.temp.o
                                        0x36a (size before relaxing)
 .debug_str     0x000000000000b9b6       0xff /tmp/ccWCkyw8.debug.temp.o
                                       0x156f (size before relaxing)
 .debug_str     0x000000000000bab5      0x2ae /tmp/ccrgkuC6.debug.temp.o
                                        0x9b5 (size before relaxing)
 .debug_str     0x000000000000bd63       0x83 /tmp/ccuQH9b8.debug.temp.o
                                        0x766 (size before relaxing)
 .debug_str     0x000000000000bde6      0x10e /tmp/ccYSNnwa.debug.temp.o
                                       0x1571 (size before relaxing)
 .debug_str     0x000000000000bef4      0x3d6 /tmp/ccfY5PB7.debug.temp.o
                                       0x1976 (size before relaxing)
 .debug_str     0x000000000000c2ca       0x70 /tmp/ccblZJb7.debug.temp.o
                                       0x165a (size before relaxing)
 .debug_str     0x000000000000c33a       0xbc /tmp/ccylyyH7.debug.temp.o
                                       0x17da (size before relaxing)
 .debug_str     0x000000000000c3f6      0xd67 /tmp/ccWmv4z8.debug.temp.o
                                       0x25ee (size before relaxing)
 .debug_str     0x000000000000d15d      0x1d4 /tmp/ccY9An18.debug.temp.o
                                        0x924 (size before relaxing)
 .debug_str     0x000000000000d331      0x1cf /tmp/ccfBBJB9.debug.temp.o
                                       0x1a71 (size before relaxing)
 .debug_str     0x000000000000d500      0x562 /tmp/ccyBxcCa.debug.temp.o
                                       0x20b3 (size before relaxing)
 .debug_str     0x000000000000da62      0x185 /tmp/ccH3O939.debug.temp.o
                                        0x473 (size before relaxing)
 .debug_str     0x000000000000dbe7      0x2be /tmp/ccfmA446.debug.temp.o
                                       0x1f15 (size before relaxing)
 .debug_str     0x000000000000dea5      0x259 /tmp/ccsZ4zNa.debug.temp.o
                                        0x6b5 (size before relaxing)
 .debug_str     0x000000000000e0fe      0x1f8 /tmp/ccbqLP77.debug.temp.o
                                        0xbbd (size before relaxing)
 .debug_str     0x000000000000e2f6      0x13c /tmp/ccv6Cji6.debug.temp.o
                                        0x711 (size before relaxing)
 .debug_str     0x000000000000e432      0x1d2 /tmp/ccRxYJC6.debug.temp.o
                                        0x4a4 (size before relaxing)
 .debug_str     0x000000000000e604      0x2ba /tmp/ccvZRPQ7.debug.temp.o
                                       0x18a0 (size before relaxing)
 .debug_str     0x000000000000e8be      0x267 /tmp/cczqHxR6.debug.temp.o
                                        0x5ca (size before relaxing)
 .debug_str     0x000000000000eb25      0xd5c /tmp/ccpUQtt8.debug.temp.o
                                       0x29fb (size before relaxing)
 .debug_str     0x000000000000f881      0x43e /tmp/ccCK5ZA7.debug.temp.o
                                        0xe6a (size before relaxing)
 .debug_str     0x000000000000fcbf       0x9e /tmp/ccwMUMv8.debug.temp.o
                                        0x3b7 (size before relaxing)
 .debug_str     0x000000000000fd5d      0x129 /tmp/ccA7t9w6.debug.temp.o
                                        0x3b6 (size before relaxing)
 .debug_str     0x000000000000fe86      0x32c /tmp/cco5Max6.debug.temp.o
                                        0xca7 (size before relaxing)
 .debug_str     0x00000000000101b2       0x7e /tmp/ccy1lBA6.debug.temp.o
                                        0xa31 (size before relaxing)
 .debug_str     0x0000000000010230      0x1d3 /tmp/ccGAtbg6.debug.temp.o
                                       0x17ee (size before relaxing)
 .debug_str     0x0000000000010403       0x42 /tmp/cc7juy76.debug.temp.o
                                        0x474 (size before relaxing)
 .debug_str     0x0000000000010445       0x53 /tmp/ccCzd0w8.debug.temp.o
                                        0x35a (size before relaxing)
 .debug_str     0x0000000000010498      0x219 /tmp/ccxe7Is6.debug.temp.o
                                        0x59c (size before relaxing)
 .debug_str     0x00000000000106b1      0x222 /tmp/cc3orrq6.debug.temp.o
                                        0x70e (size before relaxing)
 .debug_str     0x00000000000108d3      0x12b /tmp/ccJZl2ha.debug.temp.o
                                        0x3aa (size before relaxing)
 .debug_str     0x00000000000109fe      0x243 /tmp/ccGVYhn9.debug.temp.o
                                        0x4d9 (size before relaxing)
 .debug_str     0x0000000000010c41       0x62 /tmp/ccqWy9Z7.debug.temp.o
                                       0x1608 (size before relaxing)
 .debug_str     0x0000000000010ca3      0x1e5 /tmp/ccMh8mO6.debug.temp.o
                                       0x1c37 (size before relaxing)
 .debug_str     0x0000000000010e88       0xa5 /tmp/ccKQPtF9.debug.temp.o
                                       0x18a2 (size before relaxing)
 .debug_str     0x0000000000010f2d      0x76d /tmp/cchQvuX6.debug.temp.o
                                       0x2176 (size before relaxing)
 .debug_str     0x000000000001169a      0x172 /tmp/ccarn2n8.debug.temp.o
                                        0x5b5 (size before relaxing)
 .debug_str     0x000000000001180c      0x1ad /tmp/ccuhhcp8.debug.temp.o
                                        0x447 (size before relaxing)
 .debug_str     0x00000000000119b9      0x236 /tmp/ccdoe1P7.debug.temp.o
                                        0x81a (size before relaxing)

.debug_frame    0x0000000000000000     0x44f0
 .debug_frame   0x0000000000000000     0x29a8 /tmp/DxeCore.dll.yq5Mi7.ltrans0.ltrans.o
 .debug_frame   0x00000000000029a8     0x1b48 /tmp/DxeCore.dll.yq5Mi7.ltrans1.ltrans.o
